
target/ARM-O2/build/kernel.elf:     file format elf32-littlearm


Disassembly of section .boot:

e0000000 <_start>:
e0000000:	e8bd0180 	pop	{r7, r8}
e0000004:	e59f5040 	ldr	r5, [pc, #64]	; e000004c <_start+0x4c>
e0000008:	e129f005 	msr	CPSR_fc, r5
e000000c:	ee114f10 	mrc	15, 0, r4, cr1, cr0, {0}
e0000010:	e59f5038 	ldr	r5, [pc, #56]	; e0000050 <_start+0x50>
e0000014:	e59f6038 	ldr	r6, [pc, #56]	; e0000054 <_start+0x54>
e0000018:	e1844005 	orr	r4, r4, r5
e000001c:	e1c44006 	bic	r4, r4, r6
e0000020:	ee014f10 	mcr	15, 0, r4, cr1, cr0, {0}
e0000024:	e59fd02c 	ldr	sp, [pc, #44]	; e0000058 <_start+0x58>
e0000028:	e92d018f 	push	{r0, r1, r2, r3, r7, r8}
e000002c:	eb000298 	bl	e0000a94 <arm_errata>
e0000030:	e8bd018f 	pop	{r0, r1, r2, r3, r7, r8}
e0000034:	f1020017 	cps	#23
e0000038:	e59fd01c 	ldr	sp, [pc, #28]	; e000005c <_start+0x5c>
e000003c:	f1020013 	cps	#19
e0000040:	e92d0180 	push	{r7, r8}
e0000044:	eb000f47 	bl	e0003d68 <init_kernel>
e0000048:	ea004270 	b	e0010a10 <restore_user_context>
e000004c:	000001d3 	.word	0x000001d3
e0000050:	00c03805 	.word	0x00c03805
e0000054:	33004382 	.word	0x33004382
e0000058:	e0029010 	.word	0xe0029010
e000005c:	e001c7b8 	.word	0xe001c7b8

e0000060 <dist_init>:
e0000060:	e30130ff 	movw	r3, #4351	; 0x10ff
e0000064:	e34f3ff0 	movt	r3, #65520	; 0xfff0
e0000068:	e3a0c000 	mov	ip, #0
e000006c:	e3e00000 	mvn	r0, #0
e0000070:	e51320fb 	ldr	r2, [r3, #-251]	; 0xffffff05
e0000074:	e1a0100c 	mov	r1, ip
e0000078:	e503c0ff 	str	ip, [r3, #-255]	; 0xffffff01
e000007c:	e202201f 	and	r2, r2, #31
e0000080:	e2822001 	add	r2, r2, #1
e0000084:	e1a02282 	lsl	r2, r2, #5
e0000088:	e1a032a1 	lsr	r3, r1, #5
e000008c:	e2811020 	add	r1, r1, #32
e0000090:	e1520001 	cmp	r2, r1
e0000094:	e1a03103 	lsl	r3, r3, #2
e0000098:	e2433aff 	sub	r3, r3, #1044480	; 0xff000
e000009c:	e5830180 	str	r0, [r3, #384]	; 0x180
e00000a0:	e5830280 	str	r0, [r3, #640]	; 0x280
e00000a4:	8afffff7 	bhi	e0000088 <dist_init+0x28>
e00000a8:	e3520020 	cmp	r2, #32
e00000ac:	0a00000a 	beq	e00000dc <dist_init+0x7c>
e00000b0:	e30100ff 	movw	r0, #4351	; 0x10ff
e00000b4:	e34f0ff0 	movt	r0, #65520	; 0xfff0
e00000b8:	e3a01020 	mov	r1, #32
e00000bc:	e3a0c000 	mov	ip, #0
e00000c0:	e3c13003 	bic	r3, r1, #3
e00000c4:	e2811004 	add	r1, r1, #4
e00000c8:	e2833b01 	add	r3, r3, #1024	; 0x400
e00000cc:	e1520001 	cmp	r2, r1
e00000d0:	e0803003 	add	r3, r0, r3
e00000d4:	e503c0ff 	str	ip, [r3, #-255]	; 0xffffff01
e00000d8:	8afffff8 	bhi	e00000c0 <dist_init+0x60>
e00000dc:	e30100ff 	movw	r0, #4351	; 0x10ff
e00000e0:	e34f0ff0 	movt	r0, #65520	; 0xfff0
e00000e4:	e3a01000 	mov	r1, #0
e00000e8:	e3c13003 	bic	r3, r1, #3
e00000ec:	e2811004 	add	r1, r1, #4
e00000f0:	e2833b02 	add	r3, r3, #2048	; 0x800
e00000f4:	e0803003 	add	r3, r0, r3
e00000f8:	e51330ff 	ldr	r3, [r3, #-255]	; 0xffffff01
e00000fc:	e1833823 	orr	r3, r3, r3, lsr #16
e0000100:	e1933423 	orrs	r3, r3, r3, lsr #8
e0000104:	1a000029 	bne	e00001b0 <dist_init+0x150>
e0000108:	e1520001 	cmp	r2, r1
e000010c:	8afffff5 	bhi	e00000e8 <dist_init+0x88>
e0000110:	e3003101 	movw	r3, #257	; 0x101
e0000114:	e3403101 	movt	r3, #257	; 0x101
e0000118:	e301c0ff 	movw	ip, #4351	; 0x10ff
e000011c:	e34fcff0 	movt	ip, #65520	; 0xfff0
e0000120:	e3a00000 	mov	r0, #0
e0000124:	e3c01003 	bic	r1, r0, #3
e0000128:	e2800004 	add	r0, r0, #4
e000012c:	e2811b02 	add	r1, r1, #2048	; 0x800
e0000130:	e1520000 	cmp	r2, r0
e0000134:	e08c1001 	add	r1, ip, r1
e0000138:	e50130ff 	str	r3, [r1, #-255]	; 0xffffff01
e000013c:	8afffff8 	bhi	e0000124 <dist_init+0xc4>
e0000140:	e3520040 	cmp	r2, #64	; 0x40
e0000144:	9a00000b 	bls	e0000178 <dist_init+0x118>
e0000148:	e301c0ff 	movw	ip, #4351	; 0x10ff
e000014c:	e3050555 	movw	r0, #21845	; 0x5555
e0000150:	e34fcff0 	movt	ip, #65520	; 0xfff0
e0000154:	e3450555 	movt	r0, #21845	; 0x5555
e0000158:	e3a01040 	mov	r1, #64	; 0x40
e000015c:	e1a032a1 	lsr	r3, r1, #5
e0000160:	e2811020 	add	r1, r1, #32
e0000164:	e2833c03 	add	r3, r3, #768	; 0x300
e0000168:	e1520001 	cmp	r2, r1
e000016c:	e08c3103 	add	r3, ip, r3, lsl #2
e0000170:	e50300ff 	str	r0, [r3, #-255]	; 0xffffff01
e0000174:	8afffff8 	bhi	e000015c <dist_init+0xfc>
e0000178:	e3a01000 	mov	r1, #0
e000017c:	e30100ff 	movw	r0, #4351	; 0x10ff
e0000180:	e34f0ff0 	movt	r0, #65520	; 0xfff0
e0000184:	e1a0c001 	mov	ip, r1
e0000188:	e1a032a1 	lsr	r3, r1, #5
e000018c:	e2811020 	add	r1, r1, #32
e0000190:	e2833020 	add	r3, r3, #32
e0000194:	e1520001 	cmp	r2, r1
e0000198:	e0803103 	add	r3, r0, r3, lsl #2
e000019c:	e503c0ff 	str	ip, [r3, #-255]	; 0xffffff01
e00001a0:	8afffff8 	bhi	e0000188 <dist_init+0x128>
e00001a4:	e3a03001 	mov	r3, #1
e00001a8:	e50030ff 	str	r3, [r0, #-255]	; 0xffffff01
e00001ac:	e12fff1e 	bx	lr
e00001b0:	e1a00403 	lsl	r0, r3, #8
e00001b4:	e6ef1073 	uxtb	r1, r3
e00001b8:	e1811c03 	orr	r1, r1, r3, lsl #24
e00001bc:	e1a03803 	lsl	r3, r3, #16
e00001c0:	e6ff0070 	uxth	r0, r0
e00001c4:	e20338ff 	and	r3, r3, #16711680	; 0xff0000
e00001c8:	e1811000 	orr	r1, r1, r0
e00001cc:	e1813003 	orr	r3, r1, r3
e00001d0:	eaffffd0 	b	e0000118 <dist_init+0xb8>

e00001d4 <cpu_iface_init>:
e00001d4:	e30120ff 	movw	r2, #4351	; 0x10ff
e00001d8:	e30231ff 	movw	r3, #8703	; 0x21ff
e00001dc:	e34f2ff0 	movt	r2, #65520	; 0xfff0
e00001e0:	e34f3ff0 	movt	r3, #65520	; 0xfff0
e00001e4:	e92d4010 	push	{r4, lr}
e00001e8:	e3e01000 	mvn	r1, #0
e00001ec:	e3a0c000 	mov	ip, #0
e00001f0:	e5821081 	str	r1, [r2, #129]	; 0x81
e00001f4:	e3a040f0 	mov	r4, #240	; 0xf0
e00001f8:	e5821181 	str	r1, [r2, #385]	; 0x181
e00001fc:	e3a0e003 	mov	lr, #3
e0000200:	e502c07f 	str	ip, [r2, #-127]	; 0xffffff81
e0000204:	e582c301 	str	ip, [r2, #769]	; 0x301
e0000208:	e30003ff 	movw	r0, #1023	; 0x3ff
e000020c:	e5821e11 	str	r1, [r2, #3601]	; 0xe11
e0000210:	e5821e15 	str	r1, [r2, #3605]	; 0xe15
e0000214:	e5821e19 	str	r1, [r2, #3609]	; 0xe19
e0000218:	e5821e1d 	str	r1, [r2, #3613]	; 0xe1d
e000021c:	e503c0ff 	str	ip, [r3, #-255]	; 0xffffff01
e0000220:	e50340fb 	str	r4, [r3, #-251]	; 0xffffff05
e0000224:	e503e0f7 	str	lr, [r3, #-247]	; 0xffffff09
e0000228:	e51320f3 	ldr	r2, [r3, #-243]	; 0xffffff0d
e000022c:	e7e91052 	ubfx	r1, r2, #0, #10
e0000230:	e1510000 	cmp	r1, r0
e0000234:	0a000004 	beq	e000024c <cpu_iface_init+0x78>
e0000238:	e50320ef 	str	r2, [r3, #-239]	; 0xffffff11
e000023c:	e51320f3 	ldr	r2, [r3, #-243]	; 0xffffff0d
e0000240:	e7e91052 	ubfx	r1, r2, #0, #10
e0000244:	e1510000 	cmp	r1, r0
e0000248:	1afffffa 	bne	e0000238 <cpu_iface_init+0x64>
e000024c:	e30231ff 	movw	r3, #8703	; 0x21ff
e0000250:	e34f3ff0 	movt	r3, #65520	; 0xfff0
e0000254:	e3a02001 	mov	r2, #1
e0000258:	e50320ff 	str	r2, [r3, #-255]	; 0xffffff01
e000025c:	e8bd8010 	pop	{r4, pc}

e0000260 <merge_regions>:
e0000260:	e92d4030 	push	{r4, r5, lr}
e0000264:	e30be700 	movw	lr, #46848	; 0xb700
e0000268:	e34ee001 	movt	lr, #57345	; 0xe001
e000026c:	e3a02001 	mov	r2, #1
e0000270:	e59e4058 	ldr	r4, [lr, #88]	; 0x58
e0000274:	ea000000 	b	e000027c <merge_regions+0x1c>
e0000278:	e1a02000 	mov	r2, r0
e000027c:	e1520004 	cmp	r2, r4
e0000280:	28bd8030 	popcs	{r4, r5, pc}
e0000284:	e2423001 	sub	r3, r2, #1
e0000288:	e79e1182 	ldr	r1, [lr, r2, lsl #3]
e000028c:	e2820001 	add	r0, r2, #1
e0000290:	e08e3183 	add	r3, lr, r3, lsl #3
e0000294:	e593c004 	ldr	ip, [r3, #4]
e0000298:	e15c0001 	cmp	ip, r1
e000029c:	1afffff5 	bne	e0000278 <merge_regions+0x18>
e00002a0:	e1a01182 	lsl	r1, r2, #3
e00002a4:	e1500004 	cmp	r0, r4
e00002a8:	e08e0001 	add	r0, lr, r1
e00002ac:	e5900004 	ldr	r0, [r0, #4]
e00002b0:	e5830004 	str	r0, [r3, #4]
e00002b4:	2a000009 	bcs	e00002e0 <merge_regions+0x80>
e00002b8:	e244521e 	sub	r5, r4, #-536870911	; 0xe0000001
e00002bc:	e1a03001 	mov	r3, r1
e00002c0:	e1a05185 	lsl	r5, r5, #3
e00002c4:	e08ec003 	add	ip, lr, r3
e00002c8:	e2833008 	add	r3, r3, #8
e00002cc:	e28c1008 	add	r1, ip, #8
e00002d0:	e1550003 	cmp	r5, r3
e00002d4:	e8910003 	ldm	r1, {r0, r1}
e00002d8:	e88c0003 	stm	ip, {r0, r1}
e00002dc:	1afffff8 	bne	e00002c4 <merge_regions+0x64>
e00002e0:	e2444001 	sub	r4, r4, #1
e00002e4:	e1a00002 	mov	r0, r2
e00002e8:	e58e4058 	str	r4, [lr, #88]	; 0x58
e00002ec:	eaffffe1 	b	e0000278 <merge_regions+0x18>

e00002f0 <calculate_extra_bi_size_bits.part.160>:
e00002f0:	e2403001 	sub	r3, r0, #1
e00002f4:	e3a01001 	mov	r1, #1
e00002f8:	e3c33eff 	bic	r3, r3, #4080	; 0xff0
e00002fc:	e3c3300f 	bic	r3, r3, #15
e0000300:	e2833a01 	add	r3, r3, #4096	; 0x1000
e0000304:	e16f3f13 	clz	r3, r3
e0000308:	e263201f 	rsb	r2, r3, #31
e000030c:	e1500211 	cmp	r0, r1, lsl r2
e0000310:	82632020 	rsbhi	r2, r3, #32
e0000314:	e1a00002 	mov	r0, r2
e0000318:	e12fff1e 	bx	lr

e000031c <maybe_alloc_extra_bi.part.182>:
e000031c:	e30b1700 	movw	r1, #46848	; 0xb700
e0000320:	e34e1001 	movt	r1, #57345	; 0xe001
e0000324:	e3a03001 	mov	r3, #1
e0000328:	e591c088 	ldr	ip, [r1, #136]	; 0x88
e000032c:	e1a00013 	lsl	r0, r3, r0
e0000330:	e3500000 	cmp	r0, #0
e0000334:	e08c3000 	add	r3, ip, r0
e0000338:	e5813088 	str	r3, [r1, #136]	; 0x88
e000033c:	e1a0300c 	mov	r3, ip
e0000340:	0a000003 	beq	e0000354 <maybe_alloc_extra_bi.part.182+0x38>
e0000344:	e3a02000 	mov	r2, #0
e0000348:	e2500004 	subs	r0, r0, #4
e000034c:	e4832004 	str	r2, [r3], #4
e0000350:	1afffffc 	bne	e0000348 <maybe_alloc_extra_bi.part.182+0x2c>
e0000354:	e581c0a4 	str	ip, [r1, #164]	; 0xa4
e0000358:	e12fff1e 	bx	lr

e000035c <Arch_configureIdleThread>:
e000035c:	e300215f 	movw	r2, #351	; 0x15f
e0000360:	e30037a0 	movw	r3, #1952	; 0x7a0
e0000364:	e5802040 	str	r2, [r0, #64]	; 0x40
e0000368:	e34e3001 	movt	r3, #57345	; 0xe001
e000036c:	e580303c 	str	r3, [r0, #60]	; 0x3c
e0000370:	e12fff1e 	bx	lr

e0000374 <map_kernel_frame>:
e0000374:	e3130001 	tst	r3, #1
e0000378:	e7e71651 	ubfx	r1, r1, #12, #8
e000037c:	e92d4070 	push	{r4, r5, r6, lr}
e0000380:	e1a04000 	mov	r4, r0
e0000384:	e1a00002 	mov	r0, r2
e0000388:	03a05000 	moveq	r5, #0
e000038c:	13a05d05 	movne	r5, #320	; 0x140
e0000390:	eb0041ac 	bl	e0010a48 <APFromVMRights>
e0000394:	e3c43eff 	bic	r3, r4, #4080	; 0xff0
e0000398:	e3002000 	movw	r2, #0
e000039c:	e3c3300f 	bic	r3, r3, #15
e00003a0:	e34e2002 	movt	r2, #57346	; 0xe002
e00003a4:	e3833006 	orr	r3, r3, #6
e00003a8:	e1833005 	orr	r3, r3, r5
e00003ac:	e1a00200 	lsl	r0, r0, #4
e00003b0:	e2000030 	and	r0, r0, #48	; 0x30
e00003b4:	e1833000 	orr	r3, r3, r0
e00003b8:	e7823101 	str	r3, [r2, r1, lsl #2]
e00003bc:	e8bd8070 	pop	{r4, r5, r6, pc}

e00003c0 <arch_get_n_paging>:
e00003c0:	e24dd008 	sub	sp, sp, #8
e00003c4:	e28d3008 	add	r3, sp, #8
e00003c8:	e9030003 	stmdb	r3, {r0, r1}
e00003cc:	e89d0009 	ldm	sp, {r0, r3}
e00003d0:	e2433001 	sub	r3, r3, #1
e00003d4:	e1a00a20 	lsr	r0, r0, #20
e00003d8:	e1a03a23 	lsr	r3, r3, #20
e00003dc:	e1a00a00 	lsl	r0, r0, #20
e00003e0:	e1a03a03 	lsl	r3, r3, #20
e00003e4:	e2833601 	add	r3, r3, #1048576	; 0x100000
e00003e8:	e0430000 	sub	r0, r3, r0
e00003ec:	e1a00a20 	lsr	r0, r0, #20
e00003f0:	e28dd008 	add	sp, sp, #8
e00003f4:	e12fff1e 	bx	lr

e00003f8 <create_unmapped_it_frame_cap>:
e00003f8:	e3520000 	cmp	r2, #0
e00003fc:	1a000007 	bne	e0000420 <create_unmapped_it_frame_cap+0x28>
e0000400:	e30f3ff0 	movw	r3, #65520	; 0xfff0
e0000404:	e34030ff 	movt	r3, #255	; 0xff
e0000408:	e0033421 	and	r3, r3, r1, lsr #8
e000040c:	e3a02603 	mov	r2, #3145728	; 0x300000
e0000410:	e3833001 	orr	r3, r3, #1
e0000414:	e5802004 	str	r2, [r0, #4]
e0000418:	e5803000 	str	r3, [r0]
e000041c:	e12fff1e 	bx	lr
e0000420:	e30f2ff0 	movw	r2, #65520	; 0xfff0
e0000424:	e340203f 	movt	r2, #63	; 0x3f
e0000428:	e0022521 	and	r2, r2, r1, lsr #10
e000042c:	e3a03000 	mov	r3, #0
e0000430:	e3822003 	orr	r2, r2, #3
e0000434:	e348300c 	movt	r3, #32780	; 0x800c
e0000438:	e1c020f0 	strd	r2, [r0]
e000043c:	e12fff1e 	bx	lr

e0000440 <create_mapped_it_frame_cap>:
e0000440:	e92d4030 	push	{r4, r5, lr}
e0000444:	e24dd00c 	sub	sp, sp, #12
e0000448:	e59de020 	ldr	lr, [sp, #32]
e000044c:	e59dc01c 	ldr	ip, [sp, #28]
e0000450:	e35e0000 	cmp	lr, #0
e0000454:	e28de008 	add	lr, sp, #8
e0000458:	e59d4018 	ldr	r4, [sp, #24]
e000045c:	e90e0006 	stmdb	lr, {r1, r2}
e0000460:	e1a0252c 	lsr	r2, ip, #10
e0000464:	1a00002a 	bne	e0000514 <create_mapped_it_frame_cap+0xd4>
e0000468:	e1a02c02 	lsl	r2, r2, #24
e000046c:	e1a01b0c 	lsl	r1, ip, #22
e0000470:	e202247f 	and	r2, r2, #2130706432	; 0x7f000000
e0000474:	e30fcff0 	movw	ip, #65520	; 0xfff0
e0000478:	e340c0ff 	movt	ip, #255	; 0xff
e000047c:	e3822001 	orr	r2, r2, #1
e0000480:	e3811603 	orr	r1, r1, #3145728	; 0x300000
e0000484:	e00c3423 	and	r3, ip, r3, lsr #8
e0000488:	e1811624 	orr	r1, r1, r4, lsr #12
e000048c:	e1823003 	orr	r3, r2, r3
e0000490:	e203e00f 	and	lr, r3, #15
e0000494:	e59dc000 	ldr	ip, [sp]
e0000498:	e35e0001 	cmp	lr, #1
e000049c:	e3a02903 	mov	r2, #49152	; 0xc000
e00004a0:	e34f2fff 	movt	r2, #65535	; 0xffff
e00004a4:	e00c4002 	and	r4, ip, r2
e00004a8:	0a000027 	beq	e000054c <create_mapped_it_frame_cap+0x10c>
e00004ac:	e35e0003 	cmp	lr, #3
e00004b0:	0a000014 	beq	e0000508 <create_mapped_it_frame_cap+0xc8>
e00004b4:	e35e0001 	cmp	lr, #1
e00004b8:	13a02203 	movne	r2, #805306368	; 0x30000000
e00004bc:	0a000028 	beq	e0000564 <create_mapped_it_frame_cap+0x124>
e00004c0:	e1a0c701 	lsl	ip, r1, #14
e00004c4:	e1a05a2c 	lsr	r5, ip, #20
e00004c8:	e5803000 	str	r3, [r0]
e00004cc:	e7e7e65c 	ubfx	lr, ip, #12, #8
e00004d0:	e300c976 	movw	ip, #2422	; 0x976
e00004d4:	e7943105 	ldr	r3, [r4, r5, lsl #2]
e00004d8:	e59d4024 	ldr	r4, [sp, #36]	; 0x24
e00004dc:	e3c33fff 	bic	r3, r3, #1020	; 0x3fc
e00004e0:	e5801004 	str	r1, [r0, #4]
e00004e4:	e3c33003 	bic	r3, r3, #3
e00004e8:	e3540000 	cmp	r4, #0
e00004ec:	038cc001 	orreq	ip, ip, #1
e00004f0:	e083310e 	add	r3, r3, lr, lsl #2
e00004f4:	e18c2002 	orr	r2, ip, r2
e00004f8:	e283320d 	add	r3, r3, #-805306368	; 0xd0000000
e00004fc:	e5832000 	str	r2, [r3]
e0000500:	e28dd00c 	add	sp, sp, #12
e0000504:	e8bd8030 	pop	{r4, r5, pc}
e0000508:	e0022503 	and	r2, r2, r3, lsl #10
e000050c:	e2822203 	add	r2, r2, #805306368	; 0x30000000
e0000510:	eaffffea 	b	e00004c0 <create_mapped_it_frame_cap+0x80>
e0000514:	e3a0e000 	mov	lr, #0
e0000518:	e343eff0 	movt	lr, #16368	; 0x3ff0
e000051c:	e00e1a0c 	and	r1, lr, ip, lsl #20
e0000520:	e1a02b02 	lsl	r2, r2, #22
e0000524:	e202257f 	and	r2, r2, #532676608	; 0x1fc00000
e0000528:	e30fcff0 	movw	ip, #65520	; 0xfff0
e000052c:	e1811724 	orr	r1, r1, r4, lsr #14
e0000530:	e340c03f 	movt	ip, #63	; 0x3f
e0000534:	e3822003 	orr	r2, r2, #3
e0000538:	e00c3523 	and	r3, ip, r3, lsr #10
e000053c:	e3811102 	orr	r1, r1, #-2147483648	; 0x80000000
e0000540:	e1823003 	orr	r3, r2, r3
e0000544:	e3811703 	orr	r1, r1, #786432	; 0xc0000
e0000548:	eaffffd0 	b	e0000490 <create_mapped_it_frame_cap+0x50>
e000054c:	e3a02a0f 	mov	r2, #61440	; 0xf000
e0000550:	e34f2fff 	movt	r2, #65535	; 0xffff
e0000554:	e0022403 	and	r2, r2, r3, lsl #8
e0000558:	e2822203 	add	r2, r2, #805306368	; 0x30000000
e000055c:	e1a0c601 	lsl	ip, r1, #12
e0000560:	eaffffd7 	b	e00004c4 <create_mapped_it_frame_cap+0x84>
e0000564:	e3a02000 	mov	r2, #0
e0000568:	eafffffa 	b	e0000558 <create_mapped_it_frame_cap+0x118>

e000056c <write_it_asid_pool>:
e000056c:	e24dd010 	sub	sp, sp, #16
e0000570:	e28dc010 	add	ip, sp, #16
e0000574:	e90c0003 	stmdb	ip, {r0, r1}
e0000578:	e1a0000d 	mov	r0, sp
e000057c:	e59d1008 	ldr	r1, [sp, #8]
e0000580:	e880000c 	stm	r0, {r2, r3}
e0000584:	e201300e 	and	r3, r1, #14
e0000588:	e59d000c 	ldr	r0, [sp, #12]
e000058c:	e353000e 	cmp	r3, #14
e0000590:	0a000071 	beq	e000075c <write_it_asid_pool+0x1f0>
e0000594:	e201300f 	and	r3, r1, #15
e0000598:	e2432002 	sub	r2, r3, #2
e000059c:	e352000c 	cmp	r2, #12
e00005a0:	979ff102 	ldrls	pc, [pc, r2, lsl #2]
e00005a4:	ea0000cd 	b	e00008e0 <write_it_asid_pool+0x374>
e00005a8:	e00005dc 	.word	0xe00005dc
e00005ac:	e00008e0 	.word	0xe00008e0
e00005b0:	e00008a4 	.word	0xe00008a4
e00005b4:	e00008e0 	.word	0xe00008e0
e00005b8:	e00005dc 	.word	0xe00005dc
e00005bc:	e00008e0 	.word	0xe00008e0
e00005c0:	e000086c 	.word	0xe000086c
e00005c4:	e00008e0 	.word	0xe00008e0
e00005c8:	e000089c 	.word	0xe000089c
e00005cc:	e00008e0 	.word	0xe00008e0
e00005d0:	e0000890 	.word	0xe0000890
e00005d4:	e00008e0 	.word	0xe00008e0
e00005d8:	e000086c 	.word	0xe000086c
e00005dc:	e3c1100f 	bic	r1, r1, #15
e00005e0:	e89d1008 	ldm	sp, {r3, ip}
e00005e4:	e203200e 	and	r2, r3, #14
e00005e8:	e352000e 	cmp	r2, #14
e00005ec:	0a000018 	beq	e0000654 <write_it_asid_pool+0xe8>
e00005f0:	e203200f 	and	r2, r3, #15
e00005f4:	e2420002 	sub	r0, r2, #2
e00005f8:	e350000c 	cmp	r0, #12
e00005fc:	979ff100 	ldrls	pc, [pc, r0, lsl #2]
e0000600:	ea0000a9 	b	e00008ac <write_it_asid_pool+0x340>
e0000604:	e0000638 	.word	0xe0000638
e0000608:	e00008ac 	.word	0xe00008ac
e000060c:	e0000874 	.word	0xe0000874
e0000610:	e00008ac 	.word	0xe00008ac
e0000614:	e0000638 	.word	0xe0000638
e0000618:	e00008ac 	.word	0xe00008ac
e000061c:	e0000864 	.word	0xe0000864
e0000620:	e00008ac 	.word	0xe00008ac
e0000624:	e0000888 	.word	0xe0000888
e0000628:	e00008ac 	.word	0xe00008ac
e000062c:	e000087c 	.word	0xe000087c
e0000630:	e00008ac 	.word	0xe00008ac
e0000634:	e0000864 	.word	0xe0000864
e0000638:	e3c3300f 	bic	r3, r3, #15
e000063c:	e30922c8 	movw	r2, #37576	; 0x92c8
e0000640:	e34e2002 	movt	r2, #57346	; 0xe002
e0000644:	e5813004 	str	r3, [r1, #4]
e0000648:	e5821000 	str	r1, [r2]
e000064c:	e28dd010 	add	sp, sp, #16
e0000650:	e12fff1e 	bx	lr
e0000654:	e6ef2073 	uxtb	r2, r3
e0000658:	e2420002 	sub	r0, r2, #2
e000065c:	e350003c 	cmp	r0, #60	; 0x3c
e0000660:	979ff100 	ldrls	pc, [pc, r0, lsl #2]
e0000664:	ea000090 	b	e00008ac <write_it_asid_pool+0x340>
e0000668:	e0000638 	.word	0xe0000638
e000066c:	e00008ac 	.word	0xe00008ac
e0000670:	e0000874 	.word	0xe0000874
e0000674:	e00008ac 	.word	0xe00008ac
e0000678:	e0000638 	.word	0xe0000638
e000067c:	e00008ac 	.word	0xe00008ac
e0000680:	e0000864 	.word	0xe0000864
e0000684:	e00008ac 	.word	0xe00008ac
e0000688:	e0000888 	.word	0xe0000888
e000068c:	e00008ac 	.word	0xe00008ac
e0000690:	e000087c 	.word	0xe000087c
e0000694:	e00008ac 	.word	0xe00008ac
e0000698:	e0000864 	.word	0xe0000864
e000069c:	e00008ac 	.word	0xe00008ac
e00006a0:	e00008ac 	.word	0xe00008ac
e00006a4:	e00008ac 	.word	0xe00008ac
e00006a8:	e00008ac 	.word	0xe00008ac
e00006ac:	e00008ac 	.word	0xe00008ac
e00006b0:	e00008ac 	.word	0xe00008ac
e00006b4:	e00008ac 	.word	0xe00008ac
e00006b8:	e00008ac 	.word	0xe00008ac
e00006bc:	e00008ac 	.word	0xe00008ac
e00006c0:	e00008ac 	.word	0xe00008ac
e00006c4:	e00008ac 	.word	0xe00008ac
e00006c8:	e00008ac 	.word	0xe00008ac
e00006cc:	e00008ac 	.word	0xe00008ac
e00006d0:	e00008ac 	.word	0xe00008ac
e00006d4:	e00008ac 	.word	0xe00008ac
e00006d8:	e0000864 	.word	0xe0000864
e00006dc:	e00008ac 	.word	0xe00008ac
e00006e0:	e00008ac 	.word	0xe00008ac
e00006e4:	e00008ac 	.word	0xe00008ac
e00006e8:	e00008ac 	.word	0xe00008ac
e00006ec:	e00008ac 	.word	0xe00008ac
e00006f0:	e00008ac 	.word	0xe00008ac
e00006f4:	e00008ac 	.word	0xe00008ac
e00006f8:	e00008ac 	.word	0xe00008ac
e00006fc:	e00008ac 	.word	0xe00008ac
e0000700:	e00008ac 	.word	0xe00008ac
e0000704:	e00008ac 	.word	0xe00008ac
e0000708:	e00008ac 	.word	0xe00008ac
e000070c:	e00008ac 	.word	0xe00008ac
e0000710:	e00008ac 	.word	0xe00008ac
e0000714:	e00008ac 	.word	0xe00008ac
e0000718:	e000093c 	.word	0xe000093c
e000071c:	e00008ac 	.word	0xe00008ac
e0000720:	e00008ac 	.word	0xe00008ac
e0000724:	e00008ac 	.word	0xe00008ac
e0000728:	e00008ac 	.word	0xe00008ac
e000072c:	e00008ac 	.word	0xe00008ac
e0000730:	e00008ac 	.word	0xe00008ac
e0000734:	e00008ac 	.word	0xe00008ac
e0000738:	e00008ac 	.word	0xe00008ac
e000073c:	e00008ac 	.word	0xe00008ac
e0000740:	e00008ac 	.word	0xe00008ac
e0000744:	e00008ac 	.word	0xe00008ac
e0000748:	e00008ac 	.word	0xe00008ac
e000074c:	e00008ac 	.word	0xe00008ac
e0000750:	e00008ac 	.word	0xe00008ac
e0000754:	e00008ac 	.word	0xe00008ac
e0000758:	e0000864 	.word	0xe0000864
e000075c:	e6ef3071 	uxtb	r3, r1
e0000760:	e2432002 	sub	r2, r3, #2
e0000764:	e352003c 	cmp	r2, #60	; 0x3c
e0000768:	979ff102 	ldrls	pc, [pc, r2, lsl #2]
e000076c:	ea00005b 	b	e00008e0 <write_it_asid_pool+0x374>
e0000770:	e00005dc 	.word	0xe00005dc
e0000774:	e00008e0 	.word	0xe00008e0
e0000778:	e00008a4 	.word	0xe00008a4
e000077c:	e00008e0 	.word	0xe00008e0
e0000780:	e00005dc 	.word	0xe00005dc
e0000784:	e00008e0 	.word	0xe00008e0
e0000788:	e000086c 	.word	0xe000086c
e000078c:	e00008e0 	.word	0xe00008e0
e0000790:	e000089c 	.word	0xe000089c
e0000794:	e00008e0 	.word	0xe00008e0
e0000798:	e0000890 	.word	0xe0000890
e000079c:	e00008e0 	.word	0xe00008e0
e00007a0:	e000086c 	.word	0xe000086c
e00007a4:	e00008e0 	.word	0xe00008e0
e00007a8:	e00008e0 	.word	0xe00008e0
e00007ac:	e00008e0 	.word	0xe00008e0
e00007b0:	e00008e0 	.word	0xe00008e0
e00007b4:	e00008e0 	.word	0xe00008e0
e00007b8:	e00008e0 	.word	0xe00008e0
e00007bc:	e00008e0 	.word	0xe00008e0
e00007c0:	e00008e0 	.word	0xe00008e0
e00007c4:	e00008e0 	.word	0xe00008e0
e00007c8:	e00008e0 	.word	0xe00008e0
e00007cc:	e00008e0 	.word	0xe00008e0
e00007d0:	e00008e0 	.word	0xe00008e0
e00007d4:	e00008e0 	.word	0xe00008e0
e00007d8:	e00008e0 	.word	0xe00008e0
e00007dc:	e00008e0 	.word	0xe00008e0
e00007e0:	e000086c 	.word	0xe000086c
e00007e4:	e00008e0 	.word	0xe00008e0
e00007e8:	e00008e0 	.word	0xe00008e0
e00007ec:	e00008e0 	.word	0xe00008e0
e00007f0:	e00008e0 	.word	0xe00008e0
e00007f4:	e00008e0 	.word	0xe00008e0
e00007f8:	e00008e0 	.word	0xe00008e0
e00007fc:	e00008e0 	.word	0xe00008e0
e0000800:	e00008e0 	.word	0xe00008e0
e0000804:	e00008e0 	.word	0xe00008e0
e0000808:	e00008e0 	.word	0xe00008e0
e000080c:	e00008e0 	.word	0xe00008e0
e0000810:	e00008e0 	.word	0xe00008e0
e0000814:	e00008e0 	.word	0xe00008e0
e0000818:	e00008e0 	.word	0xe00008e0
e000081c:	e00008e0 	.word	0xe00008e0
e0000820:	e0000914 	.word	0xe0000914
e0000824:	e00008e0 	.word	0xe00008e0
e0000828:	e00008e0 	.word	0xe00008e0
e000082c:	e00008e0 	.word	0xe00008e0
e0000830:	e00008e0 	.word	0xe00008e0
e0000834:	e00008e0 	.word	0xe00008e0
e0000838:	e00008e0 	.word	0xe00008e0
e000083c:	e00008e0 	.word	0xe00008e0
e0000840:	e00008e0 	.word	0xe00008e0
e0000844:	e00008e0 	.word	0xe00008e0
e0000848:	e00008e0 	.word	0xe00008e0
e000084c:	e00008e0 	.word	0xe00008e0
e0000850:	e00008e0 	.word	0xe00008e0
e0000854:	e00008e0 	.word	0xe00008e0
e0000858:	e00008e0 	.word	0xe00008e0
e000085c:	e00008e0 	.word	0xe00008e0
e0000860:	e000086c 	.word	0xe000086c
e0000864:	e3a03000 	mov	r3, #0
e0000868:	eaffff73 	b	e000063c <write_it_asid_pool+0xd0>
e000086c:	e3a01000 	mov	r1, #0
e0000870:	eaffff5a 	b	e00005e0 <write_it_asid_pool+0x74>
e0000874:	e3cc300f 	bic	r3, ip, #15
e0000878:	eaffff6f 	b	e000063c <write_it_asid_pool+0xd0>
e000087c:	e3c33f7f 	bic	r3, r3, #508	; 0x1fc
e0000880:	e3c33003 	bic	r3, r3, #3
e0000884:	eaffff6c 	b	e000063c <write_it_asid_pool+0xd0>
e0000888:	e3c3301f 	bic	r3, r3, #31
e000088c:	eaffff6a 	b	e000063c <write_it_asid_pool+0xd0>
e0000890:	e3c11f7f 	bic	r1, r1, #508	; 0x1fc
e0000894:	e3c11003 	bic	r1, r1, #3
e0000898:	eaffff50 	b	e00005e0 <write_it_asid_pool+0x74>
e000089c:	e3c1101f 	bic	r1, r1, #31
e00008a0:	eaffff4e 	b	e00005e0 <write_it_asid_pool+0x74>
e00008a4:	e3c0100f 	bic	r1, r0, #15
e00008a8:	eaffff4c 	b	e00005e0 <write_it_asid_pool+0x74>
e00008ac:	e2420001 	sub	r0, r2, #1
e00008b0:	e3500008 	cmp	r0, #8
e00008b4:	979ff100 	ldrls	pc, [pc, r0, lsl #2]
e00008b8:	eaffffe9 	b	e0000864 <write_it_asid_pool+0x2f8>
e00008bc:	e00009b4 	.word	0xe00009b4
e00008c0:	e0000864 	.word	0xe0000864
e00008c4:	e00009b4 	.word	0xe00009b4
e00008c8:	e0000864 	.word	0xe0000864
e00008cc:	e0000638 	.word	0xe0000638
e00008d0:	e0000864 	.word	0xe0000864
e00008d4:	e00009a8 	.word	0xe00009a8
e00008d8:	e0000864 	.word	0xe0000864
e00008dc:	e000099c 	.word	0xe000099c
e00008e0:	e2432001 	sub	r2, r3, #1
e00008e4:	e3520008 	cmp	r2, #8
e00008e8:	979ff102 	ldrls	pc, [pc, r2, lsl #2]
e00008ec:	eaffffde 	b	e000086c <write_it_asid_pool+0x300>
e00008f0:	e000097c 	.word	0xe000097c
e00008f4:	e000086c 	.word	0xe000086c
e00008f8:	e000097c 	.word	0xe000097c
e00008fc:	e000086c 	.word	0xe000086c
e0000900:	e00005dc 	.word	0xe00005dc
e0000904:	e000086c 	.word	0xe000086c
e0000908:	e0000970 	.word	0xe0000970
e000090c:	e000086c 	.word	0xe000086c
e0000910:	e0000964 	.word	0xe0000964
e0000914:	e1a03421 	lsr	r3, r1, #8
e0000918:	e203203f 	and	r2, r3, #63	; 0x3f
e000091c:	e3520020 	cmp	r2, #32
e0000920:	1203301f 	andne	r3, r3, #31
e0000924:	13e01000 	mvnne	r1, #0
e0000928:	12833001 	addne	r3, r3, #1
e000092c:	11a01311 	lslne	r1, r1, r3
e0000930:	03e0101f 	mvneq	r1, #31
e0000934:	e0011000 	and	r1, r1, r0
e0000938:	eaffff28 	b	e00005e0 <write_it_asid_pool+0x74>
e000093c:	e1a02423 	lsr	r2, r3, #8
e0000940:	e202303f 	and	r3, r2, #63	; 0x3f
e0000944:	e3530020 	cmp	r3, #32
e0000948:	1202301f 	andne	r3, r2, #31
e000094c:	12833001 	addne	r3, r3, #1
e0000950:	13e02000 	mvnne	r2, #0
e0000954:	11a03312 	lslne	r3, r2, r3
e0000958:	03e0301f 	mvneq	r3, #31
e000095c:	e003300c 	and	r3, r3, ip
e0000960:	eaffff35 	b	e000063c <write_it_asid_pool+0xd0>
e0000964:	e3c11dff 	bic	r1, r1, #16320	; 0x3fc0
e0000968:	e3c1103f 	bic	r1, r1, #63	; 0x3f
e000096c:	eaffff1b 	b	e00005e0 <write_it_asid_pool+0x74>
e0000970:	e3c11fff 	bic	r1, r1, #1020	; 0x3fc
e0000974:	e3c11003 	bic	r1, r1, #3
e0000978:	eaffff18 	b	e00005e0 <write_it_asid_pool+0x74>
e000097c:	e3530001 	cmp	r3, #1
e0000980:	0a000013 	beq	e00009d4 <write_it_asid_pool+0x468>
e0000984:	e3530003 	cmp	r3, #3
e0000988:	1affffb7 	bne	e000086c <write_it_asid_pool+0x300>
e000098c:	e3a03903 	mov	r3, #49152	; 0xc000
e0000990:	e34f3fff 	movt	r3, #65535	; 0xffff
e0000994:	e0031501 	and	r1, r3, r1, lsl #10
e0000998:	eaffff10 	b	e00005e0 <write_it_asid_pool+0x74>
e000099c:	e3c33dff 	bic	r3, r3, #16320	; 0x3fc0
e00009a0:	e3c3303f 	bic	r3, r3, #63	; 0x3f
e00009a4:	eaffff24 	b	e000063c <write_it_asid_pool+0xd0>
e00009a8:	e3c33fff 	bic	r3, r3, #1020	; 0x3fc
e00009ac:	e3c33003 	bic	r3, r3, #3
e00009b0:	eaffff21 	b	e000063c <write_it_asid_pool+0xd0>
e00009b4:	e3520001 	cmp	r2, #1
e00009b8:	0a000009 	beq	e00009e4 <write_it_asid_pool+0x478>
e00009bc:	e3520003 	cmp	r2, #3
e00009c0:	1affffa7 	bne	e0000864 <write_it_asid_pool+0x2f8>
e00009c4:	e3a02903 	mov	r2, #49152	; 0xc000
e00009c8:	e34f2fff 	movt	r2, #65535	; 0xffff
e00009cc:	e0023503 	and	r3, r2, r3, lsl #10
e00009d0:	eaffff19 	b	e000063c <write_it_asid_pool+0xd0>
e00009d4:	e3a03a0f 	mov	r3, #61440	; 0xf000
e00009d8:	e34f3fff 	movt	r3, #65535	; 0xffff
e00009dc:	e0031401 	and	r1, r3, r1, lsl #8
e00009e0:	eafffefe 	b	e00005e0 <write_it_asid_pool+0x74>
e00009e4:	e3a02a0f 	mov	r2, #61440	; 0xf000
e00009e8:	e34f2fff 	movt	r2, #65535	; 0xffff
e00009ec:	e0023403 	and	r3, r2, r3, lsl #8
e00009f0:	eaffff11 	b	e000063c <write_it_asid_pool+0xd0>

e00009f4 <fpsimd_HWCapTest>:
e00009f4:	ee113f50 	mrc	15, 0, r3, cr1, cr0, {2}
e00009f8:	e383360f 	orr	r3, r3, #15728640	; 0xf00000
e00009fc:	ee013f50 	mcr	15, 0, r3, cr1, cr0, {2}
e0000a00:	f57ff06f 	isb	sy
e0000a04:	eef00a10 	.word	0xeef00a10
e0000a08:	e1a03000 	mov	r3, r0
e0000a0c:	e3130502 	tst	r3, #8388608	; 0x800000
e0000a10:	1a000005 	bne	e0000a2c <fpsimd_HWCapTest+0x38>
e0000a14:	eef83a10 	vmrs	r3, fpexc
e0000a18:	e3833102 	orr	r3, r3, #-2147483648	; 0x80000000
e0000a1c:	eee83a10 	vmsr	fpexc, r3
e0000a20:	eef83a10 	vmrs	r3, fpexc
e0000a24:	e3a00001 	mov	r0, #1
e0000a28:	e12fff1e 	bx	lr
e0000a2c:	e3a00000 	mov	r0, #0
e0000a30:	e12fff1e 	bx	lr

e0000a34 <activate_global_pd>:
e0000a34:	e92d4010 	push	{r4, lr}
e0000a38:	f57ff04f 	dsb	sy
e0000a3c:	eb004673 	bl	e0012410 <cleanInvalidate_D_PoC>
e0000a40:	f57ff04f 	dsb	sy
e0000a44:	e3a02000 	mov	r2, #0
e0000a48:	ee072f15 	mcr	15, 0, r2, cr7, cr5, {0}
e0000a4c:	f57ff06f 	isb	sy
e0000a50:	f57ff04f 	dsb	sy
e0000a54:	f57ff04f 	dsb	sy
e0000a58:	e59f3030 	ldr	r3, [pc, #48]	; e0000a90 <activate_global_pd+0x5c>
e0000a5c:	e3833018 	orr	r3, r3, #24
e0000a60:	ee023f10 	mcr	15, 0, r3, cr2, cr0, {0}
e0000a64:	f57ff06f 	isb	sy
e0000a68:	f57ff04f 	dsb	sy
e0000a6c:	ee082f17 	mcr	15, 0, r2, cr8, cr7, {0}
e0000a70:	f57ff04f 	dsb	sy
e0000a74:	f57ff06f 	isb	sy
e0000a78:	e3a0020e 	mov	r0, #-536870912	; 0xe0000000
e0000a7c:	eb0046b0 	bl	e0012544 <lockTLBEntry>
e0000a80:	e3a00000 	mov	r0, #0
e0000a84:	e8bd4010 	pop	{r4, lr}
e0000a88:	e34f0fff 	movt	r0, #65535	; 0xffff
e0000a8c:	ea0046ac 	b	e0012544 <lockTLBEntry>
e0000a90:	10024000 	.word	0x10024000

e0000a94 <arm_errata>:
e0000a94:	e12fff1e 	bx	lr

e0000a98 <initIRQController>:
e0000a98:	eafffd70 	b	e0000060 <dist_init>

e0000a9c <cpu_initLocalIRQController>:
e0000a9c:	eafffdcc 	b	e00001d4 <cpu_iface_init>

e0000aa0 <get_num_avail_p_regs>:
e0000aa0:	e3a00001 	mov	r0, #1
e0000aa4:	e12fff1e 	bx	lr

e0000aa8 <get_avail_p_regs>:
e0000aa8:	e3040448 	movw	r0, #17480	; 0x4448
e0000aac:	e34e0000 	movt	r0, #57344	; 0xe000
e0000ab0:	e12fff1e 	bx	lr

e0000ab4 <initL2Cache>:
e0000ab4:	e30330ff 	movw	r3, #12543	; 0x30ff
e0000ab8:	e34f3ff0 	movt	r3, #65520	; 0xfff0
e0000abc:	e52de004 	push	{lr}		; (str lr, [sp, #-4]!)
e0000ac0:	e1a02003 	mov	r2, r3
e0000ac4:	e5931001 	ldr	r1, [r3, #1]
e0000ac8:	e3000121 	movw	r0, #289	; 0x121
e0000acc:	e3a0c000 	mov	ip, #0
e0000ad0:	e3a0e203 	mov	lr, #805306368	; 0x30000000
e0000ad4:	e3c11001 	bic	r1, r1, #1
e0000ad8:	e343cc07 	movt	ip, #15367	; 0x3c07
e0000adc:	e5831001 	str	r1, [r3, #1]
e0000ae0:	e30f1fff 	movw	r1, #65535	; 0xffff
e0000ae4:	e583c005 	str	ip, [r3, #5]
e0000ae8:	e5830009 	str	r0, [r3, #9]
e0000aec:	e583000d 	str	r0, [r3, #13]
e0000af0:	e583ee61 	str	lr, [r3, #3681]	; 0xe61
e0000af4:	e583167d 	str	r1, [r3, #1661]	; 0x67d
e0000af8:	e592367d 	ldr	r3, [r2, #1661]	; 0x67d
e0000afc:	e6ff3073 	uxth	r3, r3
e0000b00:	e3530000 	cmp	r3, #0
e0000b04:	1afffffb 	bne	e0000af8 <initL2Cache+0x44>
e0000b08:	e51210fb 	ldr	r1, [r2, #-251]	; 0xffffff05
e0000b0c:	e201141e 	and	r1, r1, #503316480	; 0x1e000000
e0000b10:	e3510307 	cmp	r1, #469762048	; 0x1c000000
e0000b14:	1a00000f 	bne	e0000b58 <initL2Cache+0xa4>
e0000b18:	e5823801 	str	r3, [r2, #2049]	; 0x801
e0000b1c:	e5823805 	str	r3, [r2, #2053]	; 0x805
e0000b20:	e5823809 	str	r3, [r2, #2057]	; 0x809
e0000b24:	e582380d 	str	r3, [r2, #2061]	; 0x80d
e0000b28:	e5823811 	str	r3, [r2, #2065]	; 0x811
e0000b2c:	e5823815 	str	r3, [r2, #2069]	; 0x815
e0000b30:	e5823819 	str	r3, [r2, #2073]	; 0x819
e0000b34:	e582381d 	str	r3, [r2, #2077]	; 0x81d
e0000b38:	e5823821 	str	r3, [r2, #2081]	; 0x821
e0000b3c:	e5823825 	str	r3, [r2, #2085]	; 0x825
e0000b40:	e5823829 	str	r3, [r2, #2089]	; 0x829
e0000b44:	e582382d 	str	r3, [r2, #2093]	; 0x82d
e0000b48:	e5823831 	str	r3, [r2, #2097]	; 0x831
e0000b4c:	e5823835 	str	r3, [r2, #2101]	; 0x835
e0000b50:	e5823839 	str	r3, [r2, #2105]	; 0x839
e0000b54:	e582383d 	str	r3, [r2, #2109]	; 0x83d
e0000b58:	e30320ff 	movw	r2, #12543	; 0x30ff
e0000b5c:	e34f2ff0 	movt	r2, #65520	; 0xfff0
e0000b60:	e3a01000 	mov	r1, #0
e0000b64:	e51230fb 	ldr	r3, [r2, #-251]	; 0xffffff05
e0000b68:	e203341e 	and	r3, r3, #503316480	; 0x1e000000
e0000b6c:	e353041e 	cmp	r3, #503316480	; 0x1e000000
e0000b70:	03a03000 	moveq	r3, #0
e0000b74:	05823851 	streq	r3, [r2, #2129]	; 0x851
e0000b78:	e30330ff 	movw	r3, #12543	; 0x30ff
e0000b7c:	e34f3ff0 	movt	r3, #65520	; 0xfff0
e0000b80:	e30021ff 	movw	r2, #511	; 0x1ff
e0000b84:	e5831115 	str	r1, [r3, #277]	; 0x115
e0000b88:	e5832121 	str	r2, [r3, #289]	; 0x121
e0000b8c:	e5932001 	ldr	r2, [r3, #1]
e0000b90:	e3822001 	orr	r2, r2, #1
e0000b94:	e5832001 	str	r2, [r3, #1]
e0000b98:	e49df004 	pop	{pc}		; (ldr pc, [sp], #4)

e0000b9c <initTimer>:
e0000b9c:	e30236ff 	movw	r3, #9983	; 0x26ff
e0000ba0:	e34f3ff0 	movt	r3, #65520	; 0xfff0
e0000ba4:	e3a01000 	mov	r1, #0
e0000ba8:	e30322a0 	movw	r2, #12960	; 0x32a0
e0000bac:	e50310f7 	str	r1, [r3, #-247]	; 0xffffff09
e0000bb0:	e340200f 	movt	r2, #15
e0000bb4:	e50310f3 	str	r1, [r3, #-243]	; 0xffffff0d
e0000bb8:	e50320ff 	str	r2, [r3, #-255]	; 0xffffff01
e0000bbc:	e51320f7 	ldr	r2, [r3, #-247]	; 0xffffff09
e0000bc0:	e3822006 	orr	r2, r2, #6
e0000bc4:	e50320f7 	str	r2, [r3, #-247]	; 0xffffff09
e0000bc8:	e51320f7 	ldr	r2, [r3, #-247]	; 0xffffff09
e0000bcc:	e3822001 	orr	r2, r2, #1
e0000bd0:	e50320f7 	str	r2, [r3, #-247]	; 0xffffff09
e0000bd4:	e12fff1e 	bx	lr

e0000bd8 <reserve_region>:
e0000bd8:	e92d4070 	push	{r4, r5, r6, lr}
e0000bdc:	e24dd008 	sub	sp, sp, #8
e0000be0:	e28d3008 	add	r3, sp, #8
e0000be4:	e9030003 	stmdb	r3, {r0, r1}
e0000be8:	e89d1010 	ldm	sp, {r4, ip}
e0000bec:	e154000c 	cmp	r4, ip
e0000bf0:	03a00001 	moveq	r0, #1
e0000bf4:	0a000024 	beq	e0000c8c <reserve_region+0xb4>
e0000bf8:	e30b5700 	movw	r5, #46848	; 0xb700
e0000bfc:	e34e5001 	movt	r5, #57345	; 0xe001
e0000c00:	e595e058 	ldr	lr, [r5, #88]	; 0x58
e0000c04:	e35e0000 	cmp	lr, #0
e0000c08:	0a000045 	beq	e0000d24 <reserve_region+0x14c>
e0000c0c:	e5953000 	ldr	r3, [r5]
e0000c10:	e153000c 	cmp	r3, ip
e0000c14:	0a00001e 	beq	e0000c94 <reserve_region+0xbc>
e0000c18:	e5952004 	ldr	r2, [r5, #4]
e0000c1c:	e1540002 	cmp	r4, r2
e0000c20:	0a000021 	beq	e0000cac <reserve_region+0xd4>
e0000c24:	e153000c 	cmp	r3, ip
e0000c28:	91a03005 	movls	r3, r5
e0000c2c:	93a02000 	movls	r2, #0
e0000c30:	9a000009 	bls	e0000c5c <reserve_region+0x84>
e0000c34:	ea00003c 	b	e0000d2c <reserve_region+0x154>
e0000c38:	e5931008 	ldr	r1, [r3, #8]
e0000c3c:	e151000c 	cmp	r1, ip
e0000c40:	0a000014 	beq	e0000c98 <reserve_region+0xc0>
e0000c44:	e593000c 	ldr	r0, [r3, #12]
e0000c48:	e2833008 	add	r3, r3, #8
e0000c4c:	e1500004 	cmp	r0, r4
e0000c50:	0a000016 	beq	e0000cb0 <reserve_region+0xd8>
e0000c54:	e151000c 	cmp	r1, ip
e0000c58:	8a00001a 	bhi	e0000cc8 <reserve_region+0xf0>
e0000c5c:	e2822001 	add	r2, r2, #1
e0000c60:	e15e0002 	cmp	lr, r2
e0000c64:	1afffff3 	bne	e0000c38 <reserve_region+0x60>
e0000c68:	e35e000a 	cmp	lr, #10
e0000c6c:	0a000029 	beq	e0000d18 <reserve_region+0x140>
e0000c70:	e085e18e 	add	lr, r5, lr, lsl #3
e0000c74:	e58e4000 	str	r4, [lr]
e0000c78:	e3a00001 	mov	r0, #1
e0000c7c:	e58ec004 	str	ip, [lr, #4]
e0000c80:	e5953058 	ldr	r3, [r5, #88]	; 0x58
e0000c84:	e0833000 	add	r3, r3, r0
e0000c88:	e5853058 	str	r3, [r5, #88]	; 0x58
e0000c8c:	e28dd008 	add	sp, sp, #8
e0000c90:	e8bd8070 	pop	{r4, r5, r6, pc}
e0000c94:	e3a02000 	mov	r2, #0
e0000c98:	e7854182 	str	r4, [r5, r2, lsl #3]
e0000c9c:	ebfffd6f 	bl	e0000260 <merge_regions>
e0000ca0:	e3a00001 	mov	r0, #1
e0000ca4:	e28dd008 	add	sp, sp, #8
e0000ca8:	e8bd8070 	pop	{r4, r5, r6, pc}
e0000cac:	e3a02000 	mov	r2, #0
e0000cb0:	e0852182 	add	r2, r5, r2, lsl #3
e0000cb4:	e582c004 	str	ip, [r2, #4]
e0000cb8:	ebfffd68 	bl	e0000260 <merge_regions>
e0000cbc:	e3a00001 	mov	r0, #1
e0000cc0:	e28dd008 	add	sp, sp, #8
e0000cc4:	e8bd8070 	pop	{r4, r5, r6, pc}
e0000cc8:	e28e3001 	add	r3, lr, #1
e0000ccc:	e353000a 	cmp	r3, #10
e0000cd0:	8a000010 	bhi	e0000d18 <reserve_region+0x140>
e0000cd4:	e1a0600e 	mov	r6, lr
e0000cd8:	e24ee001 	sub	lr, lr, #1
e0000cdc:	e0853186 	add	r3, r5, r6, lsl #3
e0000ce0:	e15e0002 	cmp	lr, r2
e0000ce4:	e2466001 	sub	r6, r6, #1
e0000ce8:	e085118e 	add	r1, r5, lr, lsl #3
e0000cec:	e8910003 	ldm	r1, {r0, r1}
e0000cf0:	e8830003 	stm	r3, {r0, r1}
e0000cf4:	8afffff7 	bhi	e0000cd8 <reserve_region+0x100>
e0000cf8:	e0853182 	add	r3, r5, r2, lsl #3
e0000cfc:	e7854182 	str	r4, [r5, r2, lsl #3]
e0000d00:	e3a00001 	mov	r0, #1
e0000d04:	e583c004 	str	ip, [r3, #4]
e0000d08:	e5953058 	ldr	r3, [r5, #88]	; 0x58
e0000d0c:	e0833000 	add	r3, r3, r0
e0000d10:	e5853058 	str	r3, [r5, #88]	; 0x58
e0000d14:	eaffffdc 	b	e0000c8c <reserve_region+0xb4>
e0000d18:	e3a00000 	mov	r0, #0
e0000d1c:	e28dd008 	add	sp, sp, #8
e0000d20:	e8bd8070 	pop	{r4, r5, r6, pc}
e0000d24:	e1a0e005 	mov	lr, r5
e0000d28:	eaffffd1 	b	e0000c74 <reserve_region+0x9c>
e0000d2c:	e28e3001 	add	r3, lr, #1
e0000d30:	e353000a 	cmp	r3, #10
e0000d34:	8afffff7 	bhi	e0000d18 <reserve_region+0x140>
e0000d38:	e3a02000 	mov	r2, #0
e0000d3c:	eaffffe4 	b	e0000cd4 <reserve_region+0xfc>

e0000d40 <map_kernel_devices>:
e0000d40:	e92d41f0 	push	{r4, r5, r6, r7, r8, lr}
e0000d44:	e3a01a01 	mov	r1, #4096	; 0x1000
e0000d48:	e59f4074 	ldr	r4, [pc, #116]	; e0000dc4 <map_kernel_devices+0x84>
e0000d4c:	e24dd008 	sub	sp, sp, #8
e0000d50:	e1a05001 	mov	r5, r1
e0000d54:	e34f1ff0 	movt	r1, #65520	; 0xfff0
e0000d58:	e2846020 	add	r6, r4, #32
e0000d5c:	e34050a0 	movt	r5, #160	; 0xa0
e0000d60:	e1a0700d 	mov	r7, sp
e0000d64:	e3a08000 	mov	r8, #0
e0000d68:	e3a03001 	mov	r3, #1
e0000d6c:	e1a03103 	lsl	r3, r3, #2
e0000d70:	e3a02001 	mov	r2, #1
e0000d74:	e2033004 	and	r3, r3, #4
e0000d78:	e1a00005 	mov	r0, r5
e0000d7c:	ebfffd7c 	bl	e0000374 <map_kernel_frame>
e0000d80:	e3580000 	cmp	r8, #0
e0000d84:	0a000008 	beq	e0000dac <map_kernel_devices+0x6c>
e0000d88:	e1560004 	cmp	r6, r4
e0000d8c:	0a000004 	beq	e0000da4 <map_kernel_devices+0x64>
e0000d90:	e2841014 	add	r1, r4, #20
e0000d94:	e5945010 	ldr	r5, [r4, #16]
e0000d98:	e2844010 	add	r4, r4, #16
e0000d9c:	e891010a 	ldm	r1, {r1, r3, r8}
e0000da0:	eafffff1 	b	e0000d6c <map_kernel_devices+0x2c>
e0000da4:	e28dd008 	add	sp, sp, #8
e0000da8:	e8bd81f0 	pop	{r4, r5, r6, r7, r8, pc}
e0000dac:	e58d5000 	str	r5, [sp]
e0000db0:	e2855a01 	add	r5, r5, #4096	; 0x1000
e0000db4:	e58d5004 	str	r5, [sp, #4]
e0000db8:	e8970003 	ldm	r7, {r0, r1}
e0000dbc:	ebffff85 	bl	e0000bd8 <reserve_region>
e0000dc0:	eafffff0 	b	e0000d88 <map_kernel_devices+0x48>
e0000dc4:	e0004450 	.word	0xe0004450

e0000dc8 <map_kernel_window>:
e0000dc8:	e92d4010 	push	{r4, lr}
e0000dcc:	e3054606 	movw	r4, #22022	; 0x5606
e0000dd0:	e59fe144 	ldr	lr, [pc, #324]	; e0000f1c <map_kernel_window+0x154>
e0000dd4:	e3404004 	movt	r4, #4
e0000dd8:	e3a03c0e 	mov	r3, #3584	; 0xe00
e0000ddc:	e3a0c201 	mov	ip, #268435456	; 0x10000000
e0000de0:	e2831010 	add	r1, r3, #16
e0000de4:	e18c0004 	orr	r0, ip, r4
e0000de8:	e1510003 	cmp	r1, r3
e0000dec:	9a000004 	bls	e0000e04 <map_kernel_window+0x3c>
e0000df0:	e1a0200e 	mov	r2, lr
e0000df4:	e2833001 	add	r3, r3, #1
e0000df8:	e5a20004 	str	r0, [r2, #4]!
e0000dfc:	e1530001 	cmp	r3, r1
e0000e00:	3afffffb 	bcc	e0000df4 <map_kernel_window+0x2c>
e0000e04:	e28cc401 	add	ip, ip, #16777216	; 0x1000000
e0000e08:	e28ee040 	add	lr, lr, #64	; 0x40
e0000e0c:	e35c042f 	cmp	ip, #788529152	; 0x2f000000
e0000e10:	e1a03001 	mov	r3, r1
e0000e14:	1afffff1 	bne	e0000de0 <map_kernel_window+0x18>
e0000e18:	e59f3100 	ldr	r3, [pc, #256]	; e0000f20 <map_kernel_window+0x158>
e0000e1c:	e3a01000 	mov	r1, #0
e0000e20:	e59f00fc 	ldr	r0, [pc, #252]	; e0000f24 <map_kernel_window+0x15c>
e0000e24:	e305e606 	movw	lr, #22022	; 0x5606
e0000e28:	e283c20d 	add	ip, r3, #-805306368	; 0xd0000000
e0000e2c:	e3833c02 	orr	r3, r3, #512	; 0x200
e0000e30:	e28c2b01 	add	r2, ip, #1024	; 0x400
e0000e34:	e3833001 	orr	r3, r3, #1
e0000e38:	e5803ffc 	str	r3, [r0, #4092]	; 0xffc
e0000e3c:	e1a0300c 	mov	r3, ip
e0000e40:	e342ef00 	movt	lr, #12032	; 0x2f00
e0000e44:	e580efc0 	str	lr, [r0, #4032]	; 0xfc0
e0000e48:	e305e606 	movw	lr, #22022	; 0x5606
e0000e4c:	e342ef10 	movt	lr, #12048	; 0x2f10
e0000e50:	e580efc4 	str	lr, [r0, #4036]	; 0xfc4
e0000e54:	e305e606 	movw	lr, #22022	; 0x5606
e0000e58:	e342ef20 	movt	lr, #12064	; 0x2f20
e0000e5c:	e580efc8 	str	lr, [r0, #4040]	; 0xfc8
e0000e60:	e305e606 	movw	lr, #22022	; 0x5606
e0000e64:	e342ef30 	movt	lr, #12080	; 0x2f30
e0000e68:	e580efcc 	str	lr, [r0, #4044]	; 0xfcc
e0000e6c:	e305e606 	movw	lr, #22022	; 0x5606
e0000e70:	e342ef40 	movt	lr, #12096	; 0x2f40
e0000e74:	e580efd0 	str	lr, [r0, #4048]	; 0xfd0
e0000e78:	e305e606 	movw	lr, #22022	; 0x5606
e0000e7c:	e342ef50 	movt	lr, #12112	; 0x2f50
e0000e80:	e580efd4 	str	lr, [r0, #4052]	; 0xfd4
e0000e84:	e305e606 	movw	lr, #22022	; 0x5606
e0000e88:	e342ef60 	movt	lr, #12128	; 0x2f60
e0000e8c:	e580efd8 	str	lr, [r0, #4056]	; 0xfd8
e0000e90:	e305e606 	movw	lr, #22022	; 0x5606
e0000e94:	e342ef70 	movt	lr, #12144	; 0x2f70
e0000e98:	e580efdc 	str	lr, [r0, #4060]	; 0xfdc
e0000e9c:	e305e606 	movw	lr, #22022	; 0x5606
e0000ea0:	e342ef80 	movt	lr, #12160	; 0x2f80
e0000ea4:	e580efe0 	str	lr, [r0, #4064]	; 0xfe0
e0000ea8:	e305e606 	movw	lr, #22022	; 0x5606
e0000eac:	e342ef90 	movt	lr, #12176	; 0x2f90
e0000eb0:	e580efe4 	str	lr, [r0, #4068]	; 0xfe4
e0000eb4:	e305e606 	movw	lr, #22022	; 0x5606
e0000eb8:	e342efa0 	movt	lr, #12192	; 0x2fa0
e0000ebc:	e580efe8 	str	lr, [r0, #4072]	; 0xfe8
e0000ec0:	e305e606 	movw	lr, #22022	; 0x5606
e0000ec4:	e342efb0 	movt	lr, #12208	; 0x2fb0
e0000ec8:	e580efec 	str	lr, [r0, #4076]	; 0xfec
e0000ecc:	e305e606 	movw	lr, #22022	; 0x5606
e0000ed0:	e342efc0 	movt	lr, #12224	; 0x2fc0
e0000ed4:	e580eff0 	str	lr, [r0, #4080]	; 0xff0
e0000ed8:	e305e606 	movw	lr, #22022	; 0x5606
e0000edc:	e342efd0 	movt	lr, #12240	; 0x2fd0
e0000ee0:	e580eff4 	str	lr, [r0, #4084]	; 0xff4
e0000ee4:	e305e606 	movw	lr, #22022	; 0x5606
e0000ee8:	e342efe0 	movt	lr, #12256	; 0x2fe0
e0000eec:	e580eff8 	str	lr, [r0, #4088]	; 0xff8
e0000ef0:	e4831004 	str	r1, [r3], #4
e0000ef4:	e1530002 	cmp	r3, r2
e0000ef8:	1afffffc 	bne	e0000ef0 <map_kernel_window+0x128>
e0000efc:	e59f3024 	ldr	r3, [pc, #36]	; e0000f28 <map_kernel_window+0x160>
e0000f00:	e8bd4010 	pop	{r4, lr}
e0000f04:	e3c33eff 	bic	r3, r3, #4080	; 0xff0
e0000f08:	e3c3300f 	bic	r3, r3, #15
e0000f0c:	e3833f55 	orr	r3, r3, #340	; 0x154
e0000f10:	e3833002 	orr	r3, r3, #2
e0000f14:	e58c33c0 	str	r3, [ip, #960]	; 0x3c0
e0000f18:	eaffff88 	b	e0000d40 <map_kernel_devices>
e0000f1c:	e00277fc 	.word	0xe00277fc
e0000f20:	10020000 	.word	0x10020000
e0000f24:	e0027000 	.word	0xe0027000
e0000f28:	10010000 	.word	0x10010000

e0000f2c <insert_region>:
e0000f2c:	e92d4070 	push	{r4, r5, r6, lr}
e0000f30:	e24dd010 	sub	sp, sp, #16
e0000f34:	e1500001 	cmp	r0, r1
e0000f38:	e1a0500d 	mov	r5, sp
e0000f3c:	e8850003 	stm	r5, {r0, r1}
e0000f40:	03a03001 	moveq	r3, #1
e0000f44:	0a000011 	beq	e0000f90 <insert_region+0x64>
e0000f48:	e30b4700 	movw	r4, #46848	; 0xb700
e0000f4c:	e34e4001 	movt	r4, #57345	; 0xe001
e0000f50:	e1a02000 	mov	r2, r0
e0000f54:	e1a03001 	mov	r3, r1
e0000f58:	e1c405dc 	ldrd	r0, [r4, #92]	; 0x5c
e0000f5c:	e1500001 	cmp	r0, r1
e0000f60:	0a00001c 	beq	e0000fd8 <insert_region+0xac>
e0000f64:	e1c406d4 	ldrd	r0, [r4, #100]	; 0x64
e0000f68:	e1500001 	cmp	r0, r1
e0000f6c:	0a00001b 	beq	e0000fe0 <insert_region+0xb4>
e0000f70:	e1c406dc 	ldrd	r0, [r4, #108]	; 0x6c
e0000f74:	e1500001 	cmp	r0, r1
e0000f78:	0a000007 	beq	e0000f9c <insert_region+0x70>
e0000f7c:	e1c407d4 	ldrd	r0, [r4, #116]	; 0x74
e0000f80:	e1500001 	cmp	r0, r1
e0000f84:	03a06003 	moveq	r6, #3
e0000f88:	0a000004 	beq	e0000fa0 <insert_region+0x74>
e0000f8c:	e3a03000 	mov	r3, #0
e0000f90:	e1a00003 	mov	r0, r3
e0000f94:	e28dd010 	add	sp, sp, #16
e0000f98:	e8bd8070 	pop	{r4, r5, r6, pc}
e0000f9c:	e3a06002 	mov	r6, #2
e0000fa0:	e2822203 	add	r2, r2, #805306368	; 0x30000000
e0000fa4:	e2833203 	add	r3, r3, #805306368	; 0x30000000
e0000fa8:	e1cd20f8 	strd	r2, [sp, #8]
e0000fac:	e28d3010 	add	r3, sp, #16
e0000fb0:	e0844186 	add	r4, r4, r6, lsl #3
e0000fb4:	e9130003 	ldmdb	r3, {r0, r1}
e0000fb8:	e284405c 	add	r4, r4, #92	; 0x5c
e0000fbc:	ebffff05 	bl	e0000bd8 <reserve_region>
e0000fc0:	e8950003 	ldm	r5, {r0, r1}
e0000fc4:	e3a03001 	mov	r3, #1
e0000fc8:	e8840003 	stm	r4, {r0, r1}
e0000fcc:	e1a00003 	mov	r0, r3
e0000fd0:	e28dd010 	add	sp, sp, #16
e0000fd4:	e8bd8070 	pop	{r4, r5, r6, pc}
e0000fd8:	e3a06000 	mov	r6, #0
e0000fdc:	eaffffef 	b	e0000fa0 <insert_region+0x74>
e0000fe0:	e3a06001 	mov	r6, #1
e0000fe4:	eaffffed 	b	e0000fa0 <insert_region+0x74>

e0000fe8 <create_rootserver_objects>:
e0000fe8:	e92d4070 	push	{r4, r5, r6, lr}
e0000fec:	e24dd008 	sub	sp, sp, #8
e0000ff0:	e28dc008 	add	ip, sp, #8
e0000ff4:	e2536000 	subs	r6, r3, #0
e0000ff8:	e2803a17 	add	r3, r0, #94208	; 0x17000
e0000ffc:	e90c0006 	stmdb	ip, {r1, r2}
e0001000:	e2833c02 	add	r3, r3, #512	; 0x200
e0001004:	e89d0006 	ldm	sp, {r1, r2}
e0001008:	e2422001 	sub	r2, r2, #1
e000100c:	e1a01a21 	lsr	r1, r1, #20
e0001010:	e1a02a22 	lsr	r2, r2, #20
e0001014:	e1a01a01 	lsl	r1, r1, #20
e0001018:	e1a02a02 	lsl	r2, r2, #20
e000101c:	e2825601 	add	r5, r2, #1048576	; 0x100000
e0001020:	e0455001 	sub	r5, r5, r1
e0001024:	e1a05525 	lsr	r5, r5, #10
e0001028:	0a000051 	beq	e0001174 <create_rootserver_objects+0x18c>
e000102c:	e3560010 	cmp	r6, #16
e0001030:	e3a01001 	mov	r1, #1
e0001034:	e30b4700 	movw	r4, #46848	; 0xb700
e0001038:	e34e4001 	movt	r4, #57345	; 0xe001
e000103c:	21a02006 	movcs	r2, r6
e0001040:	33a02010 	movcc	r2, #16
e0001044:	e1560002 	cmp	r6, r2
e0001048:	e0833611 	add	r3, r3, r1, lsl r6
e000104c:	e0833005 	add	r3, r3, r5
e0001050:	e5840088 	str	r0, [r4, #136]	; 0x88
e0001054:	e584308c 	str	r3, [r4, #140]	; 0x8c
e0001058:	3a000002 	bcc	e0001068 <create_rootserver_objects+0x80>
e000105c:	e59430a4 	ldr	r3, [r4, #164]	; 0xa4
e0001060:	e3530000 	cmp	r3, #0
e0001064:	0a00004b 	beq	e0001198 <create_rootserver_objects+0x1b0>
e0001068:	e1a02000 	mov	r2, r0
e000106c:	e3a01000 	mov	r1, #0
e0001070:	e280c801 	add	ip, r0, #65536	; 0x10000
e0001074:	e584c088 	str	ip, [r4, #136]	; 0x88
e0001078:	e4821004 	str	r1, [r2], #4
e000107c:	e15c0002 	cmp	ip, r2
e0001080:	1afffffc 	bne	e0001078 <create_rootserver_objects+0x90>
e0001084:	e356000d 	cmp	r6, #13
e0001088:	e5840090 	str	r0, [r4, #144]	; 0x90
e000108c:	9a000002 	bls	e000109c <create_rootserver_objects+0xb4>
e0001090:	e59430a4 	ldr	r3, [r4, #164]	; 0xa4
e0001094:	e3530000 	cmp	r3, #0
e0001098:	0a000042 	beq	e00011a8 <create_rootserver_objects+0x1c0>
e000109c:	e1a0200c 	mov	r2, ip
e00010a0:	e3a00000 	mov	r0, #0
e00010a4:	e28c1901 	add	r1, ip, #16384	; 0x4000
e00010a8:	e5841088 	str	r1, [r4, #136]	; 0x88
e00010ac:	e4820004 	str	r0, [r2], #4
e00010b0:	e1510002 	cmp	r1, r2
e00010b4:	1afffffc 	bne	e00010ac <create_rootserver_objects+0xc4>
e00010b8:	e356000b 	cmp	r6, #11
e00010bc:	e584c094 	str	ip, [r4, #148]	; 0x94
e00010c0:	9a000002 	bls	e00010d0 <create_rootserver_objects+0xe8>
e00010c4:	e59430a4 	ldr	r3, [r4, #164]	; 0xa4
e00010c8:	e3530000 	cmp	r3, #0
e00010cc:	0a00002d 	beq	e0001188 <create_rootserver_objects+0x1a0>
e00010d0:	e2810a01 	add	r0, r1, #4096	; 0x1000
e00010d4:	e1a03001 	mov	r3, r1
e00010d8:	e3a02000 	mov	r2, #0
e00010dc:	e4832004 	str	r2, [r3], #4
e00010e0:	e1500003 	cmp	r0, r3
e00010e4:	1afffffc 	bne	e00010dc <create_rootserver_objects+0xf4>
e00010e8:	e2812a02 	add	r2, r1, #8192	; 0x2000
e00010ec:	e3a0c000 	mov	ip, #0
e00010f0:	e5841098 	str	r1, [r4, #152]	; 0x98
e00010f4:	e483c004 	str	ip, [r3], #4
e00010f8:	e1530002 	cmp	r3, r2
e00010fc:	1afffffc 	bne	e00010f4 <create_rootserver_objects+0x10c>
e0001100:	e2811a03 	add	r1, r1, #12288	; 0x3000
e0001104:	e3a0c000 	mov	ip, #0
e0001108:	e584009c 	str	r0, [r4, #156]	; 0x9c
e000110c:	e483c004 	str	ip, [r3], #4
e0001110:	e1530001 	cmp	r3, r1
e0001114:	1afffffc 	bne	e000110c <create_rootserver_objects+0x124>
e0001118:	e3550000 	cmp	r5, #0
e000111c:	e58420a0 	str	r2, [r4, #160]	; 0xa0
e0001120:	e085c003 	add	ip, r5, r3
e0001124:	e1a02005 	mov	r2, r5
e0001128:	e584c088 	str	ip, [r4, #136]	; 0x88
e000112c:	0a000003 	beq	e0001140 <create_rootserver_objects+0x158>
e0001130:	e3a00000 	mov	r0, #0
e0001134:	e2522004 	subs	r2, r2, #4
e0001138:	e4830004 	str	r0, [r3], #4
e000113c:	1afffffc 	bne	e0001134 <create_rootserver_objects+0x14c>
e0001140:	e1a0300c 	mov	r3, ip
e0001144:	e3a00000 	mov	r0, #0
e0001148:	e0815005 	add	r5, r1, r5
e000114c:	e28c2c02 	add	r2, ip, #512	; 0x200
e0001150:	e58410ac 	str	r1, [r4, #172]	; 0xac
e0001154:	e58450b0 	str	r5, [r4, #176]	; 0xb0
e0001158:	e5842088 	str	r2, [r4, #136]	; 0x88
e000115c:	e4830004 	str	r0, [r3], #4
e0001160:	e1530002 	cmp	r3, r2
e0001164:	1afffffc 	bne	e000115c <create_rootserver_objects+0x174>
e0001168:	e584c0a8 	str	ip, [r4, #168]	; 0xa8
e000116c:	e28dd008 	add	sp, sp, #8
e0001170:	e8bd8070 	pop	{r4, r5, r6, pc}
e0001174:	e30b4700 	movw	r4, #46848	; 0xb700
e0001178:	e34e4001 	movt	r4, #57345	; 0xe001
e000117c:	e0853003 	add	r3, r5, r3
e0001180:	e584308c 	str	r3, [r4, #140]	; 0x8c
e0001184:	eaffffb7 	b	e0001068 <create_rootserver_objects+0x80>
e0001188:	e1a00006 	mov	r0, r6
e000118c:	ebfffc62 	bl	e000031c <maybe_alloc_extra_bi.part.182>
e0001190:	e5941088 	ldr	r1, [r4, #136]	; 0x88
e0001194:	eaffffcd 	b	e00010d0 <create_rootserver_objects+0xe8>
e0001198:	e1a00006 	mov	r0, r6
e000119c:	ebfffc5e 	bl	e000031c <maybe_alloc_extra_bi.part.182>
e00011a0:	e5940088 	ldr	r0, [r4, #136]	; 0x88
e00011a4:	eaffffaf 	b	e0001068 <create_rootserver_objects+0x80>
e00011a8:	e1a00006 	mov	r0, r6
e00011ac:	ebfffc5a 	bl	e000031c <maybe_alloc_extra_bi.part.182>
e00011b0:	e594c088 	ldr	ip, [r4, #136]	; 0x88
e00011b4:	eaffffb8 	b	e000109c <create_rootserver_objects+0xb4>

e00011b8 <write_slot>:
e00011b8:	e52de004 	push	{lr}		; (str lr, [sp, #-4]!)
e00011bc:	e24dd00c 	sub	sp, sp, #12
e00011c0:	e1a03000 	mov	r3, r0
e00011c4:	e3a00000 	mov	r0, #0
e00011c8:	e1a0c00d 	mov	ip, sp
e00011cc:	e5830008 	str	r0, [r3, #8]
e00011d0:	e88c0006 	stm	ip, {r1, r2}
e00011d4:	e3a0e003 	mov	lr, #3
e00011d8:	e89c0003 	ldm	ip, {r0, r1}
e00011dc:	e583e00c 	str	lr, [r3, #12]
e00011e0:	e8830005 	stm	r3, {r0, r2}
e00011e4:	e28dd00c 	add	sp, sp, #12
e00011e8:	e49df004 	pop	{pc}		; (ldr pc, [sp], #4)

e00011ec <create_root_cnode>:
e00011ec:	e30b3700 	movw	r3, #46848	; 0xb700
e00011f0:	e34e3001 	movt	r3, #57345	; 0xe001
e00011f4:	e92d4010 	push	{r4, lr}
e00011f8:	e3a02a01 	mov	r2, #4096	; 0x1000
e00011fc:	e5931090 	ldr	r1, [r3, #144]	; 0x90
e0001200:	e3a04000 	mov	r4, #0
e0001204:	e5832084 	str	r2, [r3, #132]	; 0x84
e0001208:	e3a0e003 	mov	lr, #3
e000120c:	e3c1301f 	bic	r3, r1, #31
e0001210:	e383300a 	orr	r3, r3, #10
e0001214:	e5814028 	str	r4, [r1, #40]	; 0x28
e0001218:	e5813020 	str	r3, [r1, #32]
e000121c:	e5803000 	str	r3, [r0]
e0001220:	e3a036a3 	mov	r3, #170917888	; 0xa300000
e0001224:	e581e02c 	str	lr, [r1, #44]	; 0x2c
e0001228:	e5813024 	str	r3, [r1, #36]	; 0x24
e000122c:	e5803004 	str	r3, [r0, #4]
e0001230:	e8bd8010 	pop	{r4, pc}

e0001234 <create_domain_cap>:
e0001234:	e24dd008 	sub	sp, sp, #8
e0001238:	e28d3008 	add	r3, sp, #8
e000123c:	e9030003 	stmdb	r3, {r0, r1}
e0001240:	e59d3000 	ldr	r3, [sp]
e0001244:	e59d0004 	ldr	r0, [sp, #4]
e0001248:	e203200e 	and	r2, r3, #14
e000124c:	e352000e 	cmp	r2, #14
e0001250:	0a00001e 	beq	e00012d0 <create_domain_cap+0x9c>
e0001254:	e203200f 	and	r2, r3, #15
e0001258:	e2421002 	sub	r1, r2, #2
e000125c:	e351000c 	cmp	r1, #12
e0001260:	979ff101 	ldrls	pc, [pc, r1, lsl #2]
e0001264:	ea000062 	b	e00013f4 <create_domain_cap+0x1c0>
e0001268:	e00012a8 	.word	0xe00012a8
e000126c:	e00013f4 	.word	0xe00013f4
e0001270:	e00013e0 	.word	0xe00013e0
e0001274:	e00013f4 	.word	0xe00013f4
e0001278:	e00012a8 	.word	0xe00012a8
e000127c:	e00013f4 	.word	0xe00013f4
e0001280:	e000129c 	.word	0xe000129c
e0001284:	e00013f4 	.word	0xe00013f4
e0001288:	e00013d8 	.word	0xe00013d8
e000128c:	e00013f4 	.word	0xe00013f4
e0001290:	e00013e8 	.word	0xe00013e8
e0001294:	e00013f4 	.word	0xe00013f4
e0001298:	e000129c 	.word	0xe000129c
e000129c:	e3a03000 	mov	r3, #0
e00012a0:	e58330b0 	str	r3, [r3, #176]	; 0xb0
e00012a4:	e7f000f0 	udf	#0
e00012a8:	e3c3300f 	bic	r3, r3, #15
e00012ac:	e3a02000 	mov	r2, #0
e00012b0:	e3a0103e 	mov	r1, #62	; 0x3e
e00012b4:	e58320b4 	str	r2, [r3, #180]	; 0xb4
e00012b8:	e58310b0 	str	r1, [r3, #176]	; 0xb0
e00012bc:	e3a01003 	mov	r1, #3
e00012c0:	e58320b8 	str	r2, [r3, #184]	; 0xb8
e00012c4:	e58310bc 	str	r1, [r3, #188]	; 0xbc
e00012c8:	e28dd008 	add	sp, sp, #8
e00012cc:	e12fff1e 	bx	lr
e00012d0:	e6ef2073 	uxtb	r2, r3
e00012d4:	e2421002 	sub	r1, r2, #2
e00012d8:	e351003c 	cmp	r1, #60	; 0x3c
e00012dc:	979ff101 	ldrls	pc, [pc, r1, lsl #2]
e00012e0:	ea000043 	b	e00013f4 <create_domain_cap+0x1c0>
e00012e4:	e00012a8 	.word	0xe00012a8
e00012e8:	e00013f4 	.word	0xe00013f4
e00012ec:	e00013e0 	.word	0xe00013e0
e00012f0:	e00013f4 	.word	0xe00013f4
e00012f4:	e00012a8 	.word	0xe00012a8
e00012f8:	e00013f4 	.word	0xe00013f4
e00012fc:	e000129c 	.word	0xe000129c
e0001300:	e00013f4 	.word	0xe00013f4
e0001304:	e00013d8 	.word	0xe00013d8
e0001308:	e00013f4 	.word	0xe00013f4
e000130c:	e00013e8 	.word	0xe00013e8
e0001310:	e00013f4 	.word	0xe00013f4
e0001314:	e000129c 	.word	0xe000129c
e0001318:	e00013f4 	.word	0xe00013f4
e000131c:	e00013f4 	.word	0xe00013f4
e0001320:	e00013f4 	.word	0xe00013f4
e0001324:	e00013f4 	.word	0xe00013f4
e0001328:	e00013f4 	.word	0xe00013f4
e000132c:	e00013f4 	.word	0xe00013f4
e0001330:	e00013f4 	.word	0xe00013f4
e0001334:	e00013f4 	.word	0xe00013f4
e0001338:	e00013f4 	.word	0xe00013f4
e000133c:	e00013f4 	.word	0xe00013f4
e0001340:	e00013f4 	.word	0xe00013f4
e0001344:	e00013f4 	.word	0xe00013f4
e0001348:	e00013f4 	.word	0xe00013f4
e000134c:	e00013f4 	.word	0xe00013f4
e0001350:	e00013f4 	.word	0xe00013f4
e0001354:	e000129c 	.word	0xe000129c
e0001358:	e00013f4 	.word	0xe00013f4
e000135c:	e00013f4 	.word	0xe00013f4
e0001360:	e00013f4 	.word	0xe00013f4
e0001364:	e00013f4 	.word	0xe00013f4
e0001368:	e00013f4 	.word	0xe00013f4
e000136c:	e00013f4 	.word	0xe00013f4
e0001370:	e00013f4 	.word	0xe00013f4
e0001374:	e00013f4 	.word	0xe00013f4
e0001378:	e00013f4 	.word	0xe00013f4
e000137c:	e00013f4 	.word	0xe00013f4
e0001380:	e00013f4 	.word	0xe00013f4
e0001384:	e00013f4 	.word	0xe00013f4
e0001388:	e00013f4 	.word	0xe00013f4
e000138c:	e00013f4 	.word	0xe00013f4
e0001390:	e00013f4 	.word	0xe00013f4
e0001394:	e0001428 	.word	0xe0001428
e0001398:	e00013f4 	.word	0xe00013f4
e000139c:	e00013f4 	.word	0xe00013f4
e00013a0:	e00013f4 	.word	0xe00013f4
e00013a4:	e00013f4 	.word	0xe00013f4
e00013a8:	e00013f4 	.word	0xe00013f4
e00013ac:	e00013f4 	.word	0xe00013f4
e00013b0:	e00013f4 	.word	0xe00013f4
e00013b4:	e00013f4 	.word	0xe00013f4
e00013b8:	e00013f4 	.word	0xe00013f4
e00013bc:	e00013f4 	.word	0xe00013f4
e00013c0:	e00013f4 	.word	0xe00013f4
e00013c4:	e00013f4 	.word	0xe00013f4
e00013c8:	e00013f4 	.word	0xe00013f4
e00013cc:	e00013f4 	.word	0xe00013f4
e00013d0:	e00013f4 	.word	0xe00013f4
e00013d4:	e000129c 	.word	0xe000129c
e00013d8:	e3c3301f 	bic	r3, r3, #31
e00013dc:	eaffffb2 	b	e00012ac <create_domain_cap+0x78>
e00013e0:	e3c0300f 	bic	r3, r0, #15
e00013e4:	eaffffb0 	b	e00012ac <create_domain_cap+0x78>
e00013e8:	e3c33f7f 	bic	r3, r3, #508	; 0x1fc
e00013ec:	e3c33003 	bic	r3, r3, #3
e00013f0:	eaffffad 	b	e00012ac <create_domain_cap+0x78>
e00013f4:	e2421001 	sub	r1, r2, #1
e00013f8:	e3510008 	cmp	r1, #8
e00013fc:	979ff101 	ldrls	pc, [pc, r1, lsl #2]
e0001400:	eaffffa5 	b	e000129c <create_domain_cap+0x68>
e0001404:	e0001468 	.word	0xe0001468
e0001408:	e000129c 	.word	0xe000129c
e000140c:	e0001468 	.word	0xe0001468
e0001410:	e000129c 	.word	0xe000129c
e0001414:	e00012a8 	.word	0xe00012a8
e0001418:	e000129c 	.word	0xe000129c
e000141c:	e000145c 	.word	0xe000145c
e0001420:	e000129c 	.word	0xe000129c
e0001424:	e0001450 	.word	0xe0001450
e0001428:	e1a03423 	lsr	r3, r3, #8
e000142c:	e203203f 	and	r2, r3, #63	; 0x3f
e0001430:	e3520020 	cmp	r2, #32
e0001434:	1203301f 	andne	r3, r3, #31
e0001438:	12833001 	addne	r3, r3, #1
e000143c:	13e02000 	mvnne	r2, #0
e0001440:	11a03312 	lslne	r3, r2, r3
e0001444:	03e0301f 	mvneq	r3, #31
e0001448:	e0033000 	and	r3, r3, r0
e000144c:	eaffff96 	b	e00012ac <create_domain_cap+0x78>
e0001450:	e3c33dff 	bic	r3, r3, #16320	; 0x3fc0
e0001454:	e3c3303f 	bic	r3, r3, #63	; 0x3f
e0001458:	eaffff93 	b	e00012ac <create_domain_cap+0x78>
e000145c:	e3c33fff 	bic	r3, r3, #1020	; 0x3fc
e0001460:	e3c33003 	bic	r3, r3, #3
e0001464:	eaffff90 	b	e00012ac <create_domain_cap+0x78>
e0001468:	e3520001 	cmp	r2, #1
e000146c:	0a000005 	beq	e0001488 <create_domain_cap+0x254>
e0001470:	e3520003 	cmp	r2, #3
e0001474:	1a000007 	bne	e0001498 <create_domain_cap+0x264>
e0001478:	e3a02903 	mov	r2, #49152	; 0xc000
e000147c:	e34f2fff 	movt	r2, #65535	; 0xffff
e0001480:	e0023503 	and	r3, r2, r3, lsl #10
e0001484:	eaffff88 	b	e00012ac <create_domain_cap+0x78>
e0001488:	e3a02a0f 	mov	r2, #61440	; 0xf000
e000148c:	e34f2fff 	movt	r2, #65535	; 0xffff
e0001490:	e0023403 	and	r3, r2, r3, lsl #8
e0001494:	eaffff84 	b	e00012ac <create_domain_cap+0x78>
e0001498:	e3a03000 	mov	r3, #0
e000149c:	eaffff82 	b	e00012ac <create_domain_cap+0x78>

e00014a0 <create_ipcbuf_frame_cap>:
e00014a0:	e24dd008 	sub	sp, sp, #8
e00014a4:	e92d4070 	push	{r4, r5, r6, lr}
e00014a8:	e30be700 	movw	lr, #46848	; 0xb700
e00014ac:	e34ee001 	movt	lr, #57345	; 0xe001
e00014b0:	e24dd018 	sub	sp, sp, #24
e00014b4:	e28d6018 	add	r6, sp, #24
e00014b8:	e1a04000 	mov	r4, r0
e00014bc:	e59ec09c 	ldr	ip, [lr, #156]	; 0x9c
e00014c0:	e3a00000 	mov	r0, #0
e00014c4:	e59d5034 	ldr	r5, [sp, #52]	; 0x34
e00014c8:	e9060006 	stmdb	r6, {r1, r2}
e00014cc:	e28c2a01 	add	r2, ip, #4096	; 0x1000
e00014d0:	e58d302c 	str	r3, [sp, #44]	; 0x2c
e00014d4:	e1a0300c 	mov	r3, ip
e00014d8:	e4830004 	str	r0, [r3], #4
e00014dc:	e1530002 	cmp	r3, r2
e00014e0:	1afffffc 	bne	e00014d8 <create_ipcbuf_frame_cap+0x38>
e00014e4:	e28c2eff 	add	r2, ip, #4080	; 0xff0
e00014e8:	e1a032ac 	lsr	r3, ip, #5
e00014ec:	e282200f 	add	r2, r2, #15
e00014f0:	e1a022a2 	lsr	r2, r2, #5
e00014f4:	e2822001 	add	r2, r2, #1
e00014f8:	e1520003 	cmp	r2, r3
e00014fc:	9a000006 	bls	e000151c <create_ipcbuf_frame_cap+0x7c>
e0001500:	e1a03283 	lsl	r3, r3, #5
e0001504:	e1a02282 	lsl	r2, r2, #5
e0001508:	ee073f3b 	mcr	15, 0, r3, cr7, cr11, {1}
e000150c:	f57ff05f 	dmb	sy
e0001510:	e2833020 	add	r3, r3, #32
e0001514:	e1520003 	cmp	r2, r3
e0001518:	1afffffa 	bne	e0001508 <create_ipcbuf_frame_cap+0x68>
e000151c:	e28d202c 	add	r2, sp, #44	; 0x2c
e0001520:	e59e309c 	ldr	r3, [lr, #156]	; 0x9c
e0001524:	e3a00000 	mov	r0, #0
e0001528:	e58d5000 	str	r5, [sp]
e000152c:	e3a0c001 	mov	ip, #1
e0001530:	e8920006 	ldm	r2, {r1, r2}
e0001534:	e58d000c 	str	r0, [sp, #12]
e0001538:	e58d0008 	str	r0, [sp, #8]
e000153c:	e1a00004 	mov	r0, r4
e0001540:	e58dc004 	str	ip, [sp, #4]
e0001544:	ebfffbbd 	bl	e0000440 <create_mapped_it_frame_cap>
e0001548:	e59d3010 	ldr	r3, [sp, #16]
e000154c:	e59d0014 	ldr	r0, [sp, #20]
e0001550:	e203200e 	and	r2, r3, #14
e0001554:	e352000e 	cmp	r2, #14
e0001558:	0a000022 	beq	e00015e8 <create_ipcbuf_frame_cap+0x148>
e000155c:	e203200f 	and	r2, r3, #15
e0001560:	e2421002 	sub	r1, r2, #2
e0001564:	e351000c 	cmp	r1, #12
e0001568:	979ff101 	ldrls	pc, [pc, r1, lsl #2]
e000156c:	ea000070 	b	e0001734 <create_ipcbuf_frame_cap+0x294>
e0001570:	e00015b0 	.word	0xe00015b0
e0001574:	e0001734 	.word	0xe0001734
e0001578:	e00016f8 	.word	0xe00016f8
e000157c:	e0001734 	.word	0xe0001734
e0001580:	e00015b0 	.word	0xe00015b0
e0001584:	e0001734 	.word	0xe0001734
e0001588:	e00015a4 	.word	0xe00015a4
e000158c:	e0001734 	.word	0xe0001734
e0001590:	e00016f0 	.word	0xe00016f0
e0001594:	e0001734 	.word	0xe0001734
e0001598:	e0001700 	.word	0xe0001700
e000159c:	e0001734 	.word	0xe0001734
e00015a0:	e00015a4 	.word	0xe00015a4
e00015a4:	e3a03000 	mov	r3, #0
e00015a8:	e58330a0 	str	r3, [r3, #160]	; 0xa0
e00015ac:	e7f000f0 	udf	#0
e00015b0:	e3c3300f 	bic	r3, r3, #15
e00015b4:	e5940004 	ldr	r0, [r4, #4]
e00015b8:	e3a0c000 	mov	ip, #0
e00015bc:	e5941000 	ldr	r1, [r4]
e00015c0:	e3a02003 	mov	r2, #3
e00015c4:	e583c0a8 	str	ip, [r3, #168]	; 0xa8
e00015c8:	e58300a4 	str	r0, [r3, #164]	; 0xa4
e00015cc:	e1a00004 	mov	r0, r4
e00015d0:	e58310a0 	str	r1, [r3, #160]	; 0xa0
e00015d4:	e58320ac 	str	r2, [r3, #172]	; 0xac
e00015d8:	e28dd018 	add	sp, sp, #24
e00015dc:	e8bd4070 	pop	{r4, r5, r6, lr}
e00015e0:	e28dd008 	add	sp, sp, #8
e00015e4:	e12fff1e 	bx	lr
e00015e8:	e6ef2073 	uxtb	r2, r3
e00015ec:	e2421002 	sub	r1, r2, #2
e00015f0:	e351003c 	cmp	r1, #60	; 0x3c
e00015f4:	979ff101 	ldrls	pc, [pc, r1, lsl #2]
e00015f8:	ea00004d 	b	e0001734 <create_ipcbuf_frame_cap+0x294>
e00015fc:	e00015b0 	.word	0xe00015b0
e0001600:	e0001734 	.word	0xe0001734
e0001604:	e00016f8 	.word	0xe00016f8
e0001608:	e0001734 	.word	0xe0001734
e000160c:	e00015b0 	.word	0xe00015b0
e0001610:	e0001734 	.word	0xe0001734
e0001614:	e00015a4 	.word	0xe00015a4
e0001618:	e0001734 	.word	0xe0001734
e000161c:	e00016f0 	.word	0xe00016f0
e0001620:	e0001734 	.word	0xe0001734
e0001624:	e0001700 	.word	0xe0001700
e0001628:	e0001734 	.word	0xe0001734
e000162c:	e00015a4 	.word	0xe00015a4
e0001630:	e0001734 	.word	0xe0001734
e0001634:	e0001734 	.word	0xe0001734
e0001638:	e0001734 	.word	0xe0001734
e000163c:	e0001734 	.word	0xe0001734
e0001640:	e0001734 	.word	0xe0001734
e0001644:	e0001734 	.word	0xe0001734
e0001648:	e0001734 	.word	0xe0001734
e000164c:	e0001734 	.word	0xe0001734
e0001650:	e0001734 	.word	0xe0001734
e0001654:	e0001734 	.word	0xe0001734
e0001658:	e0001734 	.word	0xe0001734
e000165c:	e0001734 	.word	0xe0001734
e0001660:	e0001734 	.word	0xe0001734
e0001664:	e0001734 	.word	0xe0001734
e0001668:	e0001734 	.word	0xe0001734
e000166c:	e00015a4 	.word	0xe00015a4
e0001670:	e0001734 	.word	0xe0001734
e0001674:	e0001734 	.word	0xe0001734
e0001678:	e0001734 	.word	0xe0001734
e000167c:	e0001734 	.word	0xe0001734
e0001680:	e0001734 	.word	0xe0001734
e0001684:	e0001734 	.word	0xe0001734
e0001688:	e0001734 	.word	0xe0001734
e000168c:	e0001734 	.word	0xe0001734
e0001690:	e0001734 	.word	0xe0001734
e0001694:	e0001734 	.word	0xe0001734
e0001698:	e0001734 	.word	0xe0001734
e000169c:	e0001734 	.word	0xe0001734
e00016a0:	e0001734 	.word	0xe0001734
e00016a4:	e0001734 	.word	0xe0001734
e00016a8:	e0001734 	.word	0xe0001734
e00016ac:	e000170c 	.word	0xe000170c
e00016b0:	e0001734 	.word	0xe0001734
e00016b4:	e0001734 	.word	0xe0001734
e00016b8:	e0001734 	.word	0xe0001734
e00016bc:	e0001734 	.word	0xe0001734
e00016c0:	e0001734 	.word	0xe0001734
e00016c4:	e0001734 	.word	0xe0001734
e00016c8:	e0001734 	.word	0xe0001734
e00016cc:	e0001734 	.word	0xe0001734
e00016d0:	e0001734 	.word	0xe0001734
e00016d4:	e0001734 	.word	0xe0001734
e00016d8:	e0001734 	.word	0xe0001734
e00016dc:	e0001734 	.word	0xe0001734
e00016e0:	e0001734 	.word	0xe0001734
e00016e4:	e0001734 	.word	0xe0001734
e00016e8:	e0001734 	.word	0xe0001734
e00016ec:	e00015a4 	.word	0xe00015a4
e00016f0:	e3c3301f 	bic	r3, r3, #31
e00016f4:	eaffffae 	b	e00015b4 <create_ipcbuf_frame_cap+0x114>
e00016f8:	e3c0300f 	bic	r3, r0, #15
e00016fc:	eaffffac 	b	e00015b4 <create_ipcbuf_frame_cap+0x114>
e0001700:	e3c33f7f 	bic	r3, r3, #508	; 0x1fc
e0001704:	e3c33003 	bic	r3, r3, #3
e0001708:	eaffffa9 	b	e00015b4 <create_ipcbuf_frame_cap+0x114>
e000170c:	e1a03423 	lsr	r3, r3, #8
e0001710:	e203203f 	and	r2, r3, #63	; 0x3f
e0001714:	e3520020 	cmp	r2, #32
e0001718:	1203201f 	andne	r2, r3, #31
e000171c:	12822001 	addne	r2, r2, #1
e0001720:	13e03000 	mvnne	r3, #0
e0001724:	11a03213 	lslne	r3, r3, r2
e0001728:	03e0301f 	mvneq	r3, #31
e000172c:	e0033000 	and	r3, r3, r0
e0001730:	eaffff9f 	b	e00015b4 <create_ipcbuf_frame_cap+0x114>
e0001734:	e2421001 	sub	r1, r2, #1
e0001738:	e3510008 	cmp	r1, #8
e000173c:	979ff101 	ldrls	pc, [pc, r1, lsl #2]
e0001740:	eaffff97 	b	e00015a4 <create_ipcbuf_frame_cap+0x104>
e0001744:	e0001780 	.word	0xe0001780
e0001748:	e00015a4 	.word	0xe00015a4
e000174c:	e0001780 	.word	0xe0001780
e0001750:	e00015a4 	.word	0xe00015a4
e0001754:	e00015b0 	.word	0xe00015b0
e0001758:	e00015a4 	.word	0xe00015a4
e000175c:	e0001774 	.word	0xe0001774
e0001760:	e00015a4 	.word	0xe00015a4
e0001764:	e0001768 	.word	0xe0001768
e0001768:	e3c33dff 	bic	r3, r3, #16320	; 0x3fc0
e000176c:	e3c3303f 	bic	r3, r3, #63	; 0x3f
e0001770:	eaffff8f 	b	e00015b4 <create_ipcbuf_frame_cap+0x114>
e0001774:	e3c33fff 	bic	r3, r3, #1020	; 0x3fc
e0001778:	e3c33003 	bic	r3, r3, #3
e000177c:	eaffff8c 	b	e00015b4 <create_ipcbuf_frame_cap+0x114>
e0001780:	e3520001 	cmp	r2, #1
e0001784:	0a000005 	beq	e00017a0 <create_ipcbuf_frame_cap+0x300>
e0001788:	e3520003 	cmp	r2, #3
e000178c:	1a000007 	bne	e00017b0 <create_ipcbuf_frame_cap+0x310>
e0001790:	e3a02903 	mov	r2, #49152	; 0xc000
e0001794:	e34f2fff 	movt	r2, #65535	; 0xffff
e0001798:	e0023503 	and	r3, r2, r3, lsl #10
e000179c:	eaffff84 	b	e00015b4 <create_ipcbuf_frame_cap+0x114>
e00017a0:	e3a02a0f 	mov	r2, #61440	; 0xf000
e00017a4:	e34f2fff 	movt	r2, #65535	; 0xffff
e00017a8:	e0023403 	and	r3, r2, r3, lsl #8
e00017ac:	eaffff80 	b	e00015b4 <create_ipcbuf_frame_cap+0x114>
e00017b0:	e3a03000 	mov	r3, #0
e00017b4:	eaffff7e 	b	e00015b4 <create_ipcbuf_frame_cap+0x114>

e00017b8 <create_bi_frame_cap>:
e00017b8:	e92d4070 	push	{r4, r5, r6, lr}
e00017bc:	e30be700 	movw	lr, #46848	; 0xb700
e00017c0:	e24dd028 	sub	sp, sp, #40	; 0x28
e00017c4:	e34ee001 	movt	lr, #57345	; 0xe001
e00017c8:	e28dc010 	add	ip, sp, #16
e00017cc:	e28d4018 	add	r4, sp, #24
e00017d0:	e59e60a0 	ldr	r6, [lr, #160]	; 0xa0
e00017d4:	e3a0e000 	mov	lr, #0
e00017d8:	e59d5038 	ldr	r5, [sp, #56]	; 0x38
e00017dc:	e8840003 	stm	r4, {r0, r1}
e00017e0:	e28d0020 	add	r0, sp, #32
e00017e4:	e88c000c 	stm	ip, {r2, r3}
e00017e8:	e3a04001 	mov	r4, #1
e00017ec:	e89c0006 	ldm	ip, {r1, r2}
e00017f0:	e1a03006 	mov	r3, r6
e00017f4:	e58d5000 	str	r5, [sp]
e00017f8:	e58de00c 	str	lr, [sp, #12]
e00017fc:	e98d4010 	stmib	sp, {r4, lr}
e0001800:	ebfffb0e 	bl	e0000440 <create_mapped_it_frame_cap>
e0001804:	e59d3018 	ldr	r3, [sp, #24]
e0001808:	e59d001c 	ldr	r0, [sp, #28]
e000180c:	e203200e 	and	r2, r3, #14
e0001810:	e352000e 	cmp	r2, #14
e0001814:	0a00001f 	beq	e0001898 <create_bi_frame_cap+0xe0>
e0001818:	e203200f 	and	r2, r3, #15
e000181c:	e2421002 	sub	r1, r2, #2
e0001820:	e351000c 	cmp	r1, #12
e0001824:	979ff101 	ldrls	pc, [pc, r1, lsl #2]
e0001828:	ea000063 	b	e00019bc <create_bi_frame_cap+0x204>
e000182c:	e000186c 	.word	0xe000186c
e0001830:	e00019bc 	.word	0xe00019bc
e0001834:	e00019a8 	.word	0xe00019a8
e0001838:	e00019bc 	.word	0xe00019bc
e000183c:	e000186c 	.word	0xe000186c
e0001840:	e00019bc 	.word	0xe00019bc
e0001844:	e0001860 	.word	0xe0001860
e0001848:	e00019bc 	.word	0xe00019bc
e000184c:	e00019a0 	.word	0xe00019a0
e0001850:	e00019bc 	.word	0xe00019bc
e0001854:	e00019b0 	.word	0xe00019b0
e0001858:	e00019bc 	.word	0xe00019bc
e000185c:	e0001860 	.word	0xe0001860
e0001860:	e3a03000 	mov	r3, #0
e0001864:	e5833090 	str	r3, [r3, #144]	; 0x90
e0001868:	e7f000f0 	udf	#0
e000186c:	e3c3300f 	bic	r3, r3, #15
e0001870:	e59d0024 	ldr	r0, [sp, #36]	; 0x24
e0001874:	e3a0c000 	mov	ip, #0
e0001878:	e59d1020 	ldr	r1, [sp, #32]
e000187c:	e3a02003 	mov	r2, #3
e0001880:	e583c098 	str	ip, [r3, #152]	; 0x98
e0001884:	e5830094 	str	r0, [r3, #148]	; 0x94
e0001888:	e5831090 	str	r1, [r3, #144]	; 0x90
e000188c:	e583209c 	str	r2, [r3, #156]	; 0x9c
e0001890:	e28dd028 	add	sp, sp, #40	; 0x28
e0001894:	e8bd8070 	pop	{r4, r5, r6, pc}
e0001898:	e6ef2073 	uxtb	r2, r3
e000189c:	e2421002 	sub	r1, r2, #2
e00018a0:	e351003c 	cmp	r1, #60	; 0x3c
e00018a4:	979ff101 	ldrls	pc, [pc, r1, lsl #2]
e00018a8:	ea000043 	b	e00019bc <create_bi_frame_cap+0x204>
e00018ac:	e000186c 	.word	0xe000186c
e00018b0:	e00019bc 	.word	0xe00019bc
e00018b4:	e00019a8 	.word	0xe00019a8
e00018b8:	e00019bc 	.word	0xe00019bc
e00018bc:	e000186c 	.word	0xe000186c
e00018c0:	e00019bc 	.word	0xe00019bc
e00018c4:	e0001860 	.word	0xe0001860
e00018c8:	e00019bc 	.word	0xe00019bc
e00018cc:	e00019a0 	.word	0xe00019a0
e00018d0:	e00019bc 	.word	0xe00019bc
e00018d4:	e00019b0 	.word	0xe00019b0
e00018d8:	e00019bc 	.word	0xe00019bc
e00018dc:	e0001860 	.word	0xe0001860
e00018e0:	e00019bc 	.word	0xe00019bc
e00018e4:	e00019bc 	.word	0xe00019bc
e00018e8:	e00019bc 	.word	0xe00019bc
e00018ec:	e00019bc 	.word	0xe00019bc
e00018f0:	e00019bc 	.word	0xe00019bc
e00018f4:	e00019bc 	.word	0xe00019bc
e00018f8:	e00019bc 	.word	0xe00019bc
e00018fc:	e00019bc 	.word	0xe00019bc
e0001900:	e00019bc 	.word	0xe00019bc
e0001904:	e00019bc 	.word	0xe00019bc
e0001908:	e00019bc 	.word	0xe00019bc
e000190c:	e00019bc 	.word	0xe00019bc
e0001910:	e00019bc 	.word	0xe00019bc
e0001914:	e00019bc 	.word	0xe00019bc
e0001918:	e00019bc 	.word	0xe00019bc
e000191c:	e0001860 	.word	0xe0001860
e0001920:	e00019bc 	.word	0xe00019bc
e0001924:	e00019bc 	.word	0xe00019bc
e0001928:	e00019bc 	.word	0xe00019bc
e000192c:	e00019bc 	.word	0xe00019bc
e0001930:	e00019bc 	.word	0xe00019bc
e0001934:	e00019bc 	.word	0xe00019bc
e0001938:	e00019bc 	.word	0xe00019bc
e000193c:	e00019bc 	.word	0xe00019bc
e0001940:	e00019bc 	.word	0xe00019bc
e0001944:	e00019bc 	.word	0xe00019bc
e0001948:	e00019bc 	.word	0xe00019bc
e000194c:	e00019bc 	.word	0xe00019bc
e0001950:	e00019bc 	.word	0xe00019bc
e0001954:	e00019bc 	.word	0xe00019bc
e0001958:	e00019bc 	.word	0xe00019bc
e000195c:	e00019f0 	.word	0xe00019f0
e0001960:	e00019bc 	.word	0xe00019bc
e0001964:	e00019bc 	.word	0xe00019bc
e0001968:	e00019bc 	.word	0xe00019bc
e000196c:	e00019bc 	.word	0xe00019bc
e0001970:	e00019bc 	.word	0xe00019bc
e0001974:	e00019bc 	.word	0xe00019bc
e0001978:	e00019bc 	.word	0xe00019bc
e000197c:	e00019bc 	.word	0xe00019bc
e0001980:	e00019bc 	.word	0xe00019bc
e0001984:	e00019bc 	.word	0xe00019bc
e0001988:	e00019bc 	.word	0xe00019bc
e000198c:	e00019bc 	.word	0xe00019bc
e0001990:	e00019bc 	.word	0xe00019bc
e0001994:	e00019bc 	.word	0xe00019bc
e0001998:	e00019bc 	.word	0xe00019bc
e000199c:	e0001860 	.word	0xe0001860
e00019a0:	e3c3301f 	bic	r3, r3, #31
e00019a4:	eaffffb1 	b	e0001870 <create_bi_frame_cap+0xb8>
e00019a8:	e3c0300f 	bic	r3, r0, #15
e00019ac:	eaffffaf 	b	e0001870 <create_bi_frame_cap+0xb8>
e00019b0:	e3c33f7f 	bic	r3, r3, #508	; 0x1fc
e00019b4:	e3c33003 	bic	r3, r3, #3
e00019b8:	eaffffac 	b	e0001870 <create_bi_frame_cap+0xb8>
e00019bc:	e2421001 	sub	r1, r2, #1
e00019c0:	e3510008 	cmp	r1, #8
e00019c4:	979ff101 	ldrls	pc, [pc, r1, lsl #2]
e00019c8:	eaffffa4 	b	e0001860 <create_bi_frame_cap+0xa8>
e00019cc:	e0001a30 	.word	0xe0001a30
e00019d0:	e0001860 	.word	0xe0001860
e00019d4:	e0001a30 	.word	0xe0001a30
e00019d8:	e0001860 	.word	0xe0001860
e00019dc:	e000186c 	.word	0xe000186c
e00019e0:	e0001860 	.word	0xe0001860
e00019e4:	e0001a24 	.word	0xe0001a24
e00019e8:	e0001860 	.word	0xe0001860
e00019ec:	e0001a18 	.word	0xe0001a18
e00019f0:	e1a03423 	lsr	r3, r3, #8
e00019f4:	e203203f 	and	r2, r3, #63	; 0x3f
e00019f8:	e3520020 	cmp	r2, #32
e00019fc:	1203301f 	andne	r3, r3, #31
e0001a00:	12833001 	addne	r3, r3, #1
e0001a04:	13e02000 	mvnne	r2, #0
e0001a08:	11a03312 	lslne	r3, r2, r3
e0001a0c:	03e0301f 	mvneq	r3, #31
e0001a10:	e0033000 	and	r3, r3, r0
e0001a14:	eaffff95 	b	e0001870 <create_bi_frame_cap+0xb8>
e0001a18:	e3c33dff 	bic	r3, r3, #16320	; 0x3fc0
e0001a1c:	e3c3303f 	bic	r3, r3, #63	; 0x3f
e0001a20:	eaffff92 	b	e0001870 <create_bi_frame_cap+0xb8>
e0001a24:	e3c33fff 	bic	r3, r3, #1020	; 0x3fc
e0001a28:	e3c33003 	bic	r3, r3, #3
e0001a2c:	eaffff8f 	b	e0001870 <create_bi_frame_cap+0xb8>
e0001a30:	e3520001 	cmp	r2, #1
e0001a34:	0a000005 	beq	e0001a50 <create_bi_frame_cap+0x298>
e0001a38:	e3520003 	cmp	r2, #3
e0001a3c:	1a000007 	bne	e0001a60 <create_bi_frame_cap+0x2a8>
e0001a40:	e3a02903 	mov	r2, #49152	; 0xc000
e0001a44:	e34f2fff 	movt	r2, #65535	; 0xffff
e0001a48:	e0023503 	and	r3, r2, r3, lsl #10
e0001a4c:	eaffff87 	b	e0001870 <create_bi_frame_cap+0xb8>
e0001a50:	e3a02a0f 	mov	r2, #61440	; 0xf000
e0001a54:	e34f2fff 	movt	r2, #65535	; 0xffff
e0001a58:	e0023403 	and	r3, r2, r3, lsl #8
e0001a5c:	eaffff83 	b	e0001870 <create_bi_frame_cap+0xb8>
e0001a60:	e3a03000 	mov	r3, #0
e0001a64:	eaffff81 	b	e0001870 <create_bi_frame_cap+0xb8>

e0001a68 <calculate_extra_bi_size_bits>:
e0001a68:	e3500000 	cmp	r0, #0
e0001a6c:	012fff1e 	bxeq	lr
e0001a70:	eafffa1e 	b	e00002f0 <calculate_extra_bi_size_bits.part.160>

e0001a74 <populate_bi_frame>:
e0001a74:	e92d47f0 	push	{r4, r5, r6, r7, r8, r9, sl, lr}
e0001a78:	e30b5700 	movw	r5, #46848	; 0xb700
e0001a7c:	e34e5001 	movt	r5, #57345	; 0xe001
e0001a80:	e1a06000 	mov	r6, r0
e0001a84:	e1a07001 	mov	r7, r1
e0001a88:	e1a08002 	mov	r8, r2
e0001a8c:	e59540a0 	ldr	r4, [r5, #160]	; 0xa0
e0001a90:	e1a09003 	mov	r9, r3
e0001a94:	e3a0e000 	mov	lr, #0
e0001a98:	e284ca01 	add	ip, r4, #4096	; 0x1000
e0001a9c:	e1a00004 	mov	r0, r4
e0001aa0:	e480e004 	str	lr, [r0], #4
e0001aa4:	e150000c 	cmp	r0, ip
e0001aa8:	1afffffc 	bne	e0001aa0 <populate_bi_frame+0x2c>
e0001aac:	e2843eff 	add	r3, r4, #4080	; 0xff0
e0001ab0:	e1a002a4 	lsr	r0, r4, #5
e0001ab4:	e283300f 	add	r3, r3, #15
e0001ab8:	e1a032a3 	lsr	r3, r3, #5
e0001abc:	e2833001 	add	r3, r3, #1
e0001ac0:	e1500003 	cmp	r0, r3
e0001ac4:	2a000006 	bcs	e0001ae4 <populate_bi_frame+0x70>
e0001ac8:	e1a00280 	lsl	r0, r0, #5
e0001acc:	e1a03283 	lsl	r3, r3, #5
e0001ad0:	ee070f3b 	mcr	15, 0, r0, cr7, cr11, {1}
e0001ad4:	f57ff05f 	dmb	sy
e0001ad8:	e2800020 	add	r0, r0, #32
e0001adc:	e1500003 	cmp	r0, r3
e0001ae0:	1afffffa 	bne	e0001ad0 <populate_bi_frame+0x5c>
e0001ae4:	e3590000 	cmp	r9, #0
e0001ae8:	0a000019 	beq	e0001b54 <populate_bi_frame+0xe0>
e0001aec:	e1a00009 	mov	r0, r9
e0001af0:	e59540a4 	ldr	r4, [r5, #164]	; 0xa4
e0001af4:	ebfff9fd 	bl	e00002f0 <calculate_extra_bi_size_bits.part.160>
e0001af8:	e3a03001 	mov	r3, #1
e0001afc:	e1a02004 	mov	r2, r4
e0001b00:	e1b00013 	lsls	r0, r3, r0
e0001b04:	0a000004 	beq	e0001b1c <populate_bi_frame+0xa8>
e0001b08:	e1a03000 	mov	r3, r0
e0001b0c:	e3a01000 	mov	r1, #0
e0001b10:	e2533004 	subs	r3, r3, #4
e0001b14:	e4821004 	str	r1, [r2], #4
e0001b18:	1afffffc 	bne	e0001b10 <populate_bi_frame+0x9c>
e0001b1c:	e2442001 	sub	r2, r4, #1
e0001b20:	e1a032a4 	lsr	r3, r4, #5
e0001b24:	e0822000 	add	r2, r2, r0
e0001b28:	e1a022a2 	lsr	r2, r2, #5
e0001b2c:	e2822001 	add	r2, r2, #1
e0001b30:	e1530002 	cmp	r3, r2
e0001b34:	2a000006 	bcs	e0001b54 <populate_bi_frame+0xe0>
e0001b38:	e1a03283 	lsl	r3, r3, #5
e0001b3c:	e1a02282 	lsl	r2, r2, #5
e0001b40:	ee073f3b 	mcr	15, 0, r3, cr7, cr11, {1}
e0001b44:	f57ff05f 	dmb	sy
e0001b48:	e2833020 	add	r3, r3, #32
e0001b4c:	e1520003 	cmp	r2, r3
e0001b50:	1afffffa 	bne	e0001b40 <populate_bi_frame+0xcc>
e0001b54:	e3033650 	movw	r3, #13904	; 0x3650
e0001b58:	e34e3003 	movt	r3, #57347	; 0xe003
e0001b5c:	e30b23c8 	movw	r2, #46024	; 0xb3c8
e0001b60:	e34e2001 	movt	r2, #57345	; 0xe001
e0001b64:	e5931000 	ldr	r1, [r3]
e0001b68:	e3a0300e 	mov	r3, #14
e0001b6c:	e5853080 	str	r3, [r5, #128]	; 0x80
e0001b70:	e3a00000 	mov	r0, #0
e0001b74:	e59530a0 	ldr	r3, [r5, #160]	; 0xa0
e0001b78:	e0822181 	add	r2, r2, r1, lsl #3
e0001b7c:	e3a0100c 	mov	r1, #12
e0001b80:	e5922070 	ldr	r2, [r2, #112]	; 0x70
e0001b84:	e585307c 	str	r3, [r5, #124]	; 0x7c
e0001b88:	e5836004 	str	r6, [r3, #4]
e0001b8c:	e5832048 	str	r2, [r3, #72]	; 0x48
e0001b90:	e5837008 	str	r7, [r3, #8]
e0001b94:	e5838010 	str	r8, [r3, #16]
e0001b98:	e5839000 	str	r9, [r3]
e0001b9c:	e583000c 	str	r0, [r3, #12]
e0001ba0:	e5831044 	str	r1, [r3, #68]	; 0x44
e0001ba4:	e8bd87f0 	pop	{r4, r5, r6, r7, r8, r9, sl, pc}

e0001ba8 <provide_cap>:
e0001ba8:	e92d4010 	push	{r4, lr}
e0001bac:	e24dd010 	sub	sp, sp, #16
e0001bb0:	e30bc700 	movw	ip, #46848	; 0xb700
e0001bb4:	e28d4010 	add	r4, sp, #16
e0001bb8:	e34ec001 	movt	ip, #57345	; 0xe001
e0001bbc:	e1a0e00d 	mov	lr, sp
e0001bc0:	e9040003 	stmdb	r4, {r0, r1}
e0001bc4:	e59c0084 	ldr	r0, [ip, #132]	; 0x84
e0001bc8:	e59c1080 	ldr	r1, [ip, #128]	; 0x80
e0001bcc:	e88e000c 	stm	lr, {r2, r3}
e0001bd0:	e1510000 	cmp	r1, r0
e0001bd4:	23a00000 	movcs	r0, #0
e0001bd8:	2a000023 	bcs	e0001c6c <provide_cap+0xc4>
e0001bdc:	e59d3008 	ldr	r3, [sp, #8]
e0001be0:	e59de00c 	ldr	lr, [sp, #12]
e0001be4:	e203200e 	and	r2, r3, #14
e0001be8:	e352000e 	cmp	r2, #14
e0001bec:	0a000020 	beq	e0001c74 <provide_cap+0xcc>
e0001bf0:	e203200f 	and	r2, r3, #15
e0001bf4:	e2420002 	sub	r0, r2, #2
e0001bf8:	e350000c 	cmp	r0, #12
e0001bfc:	979ff100 	ldrls	pc, [pc, r0, lsl #2]
e0001c00:	ea000066 	b	e0001da0 <provide_cap+0x1f8>
e0001c04:	e0001c38 	.word	0xe0001c38
e0001c08:	e0001da0 	.word	0xe0001da0
e0001c0c:	e0001d98 	.word	0xe0001d98
e0001c10:	e0001da0 	.word	0xe0001da0
e0001c14:	e0001c38 	.word	0xe0001c38
e0001c18:	e0001da0 	.word	0xe0001da0
e0001c1c:	e0001d7c 	.word	0xe0001d7c
e0001c20:	e0001da0 	.word	0xe0001da0
e0001c24:	e0001d84 	.word	0xe0001d84
e0001c28:	e0001da0 	.word	0xe0001da0
e0001c2c:	e0001d8c 	.word	0xe0001d8c
e0001c30:	e0001da0 	.word	0xe0001da0
e0001c34:	e0001d7c 	.word	0xe0001d7c
e0001c38:	e3c3300f 	bic	r3, r3, #15
e0001c3c:	e59d0004 	ldr	r0, [sp, #4]
e0001c40:	e0832201 	add	r2, r3, r1, lsl #4
e0001c44:	e59d4000 	ldr	r4, [sp]
e0001c48:	e281e001 	add	lr, r1, #1
e0001c4c:	e7834201 	str	r4, [r3, r1, lsl #4]
e0001c50:	e3a01000 	mov	r1, #0
e0001c54:	e5820004 	str	r0, [r2, #4]
e0001c58:	e3a00001 	mov	r0, #1
e0001c5c:	e3a03003 	mov	r3, #3
e0001c60:	e5821008 	str	r1, [r2, #8]
e0001c64:	e582300c 	str	r3, [r2, #12]
e0001c68:	e58ce080 	str	lr, [ip, #128]	; 0x80
e0001c6c:	e28dd010 	add	sp, sp, #16
e0001c70:	e8bd8010 	pop	{r4, pc}
e0001c74:	e6ef2073 	uxtb	r2, r3
e0001c78:	e2420002 	sub	r0, r2, #2
e0001c7c:	e350003c 	cmp	r0, #60	; 0x3c
e0001c80:	979ff100 	ldrls	pc, [pc, r0, lsl #2]
e0001c84:	ea000045 	b	e0001da0 <provide_cap+0x1f8>
e0001c88:	e0001c38 	.word	0xe0001c38
e0001c8c:	e0001da0 	.word	0xe0001da0
e0001c90:	e0001d98 	.word	0xe0001d98
e0001c94:	e0001da0 	.word	0xe0001da0
e0001c98:	e0001c38 	.word	0xe0001c38
e0001c9c:	e0001da0 	.word	0xe0001da0
e0001ca0:	e0001d7c 	.word	0xe0001d7c
e0001ca4:	e0001da0 	.word	0xe0001da0
e0001ca8:	e0001d84 	.word	0xe0001d84
e0001cac:	e0001da0 	.word	0xe0001da0
e0001cb0:	e0001d8c 	.word	0xe0001d8c
e0001cb4:	e0001da0 	.word	0xe0001da0
e0001cb8:	e0001d7c 	.word	0xe0001d7c
e0001cbc:	e0001da0 	.word	0xe0001da0
e0001cc0:	e0001da0 	.word	0xe0001da0
e0001cc4:	e0001da0 	.word	0xe0001da0
e0001cc8:	e0001da0 	.word	0xe0001da0
e0001ccc:	e0001da0 	.word	0xe0001da0
e0001cd0:	e0001da0 	.word	0xe0001da0
e0001cd4:	e0001da0 	.word	0xe0001da0
e0001cd8:	e0001da0 	.word	0xe0001da0
e0001cdc:	e0001da0 	.word	0xe0001da0
e0001ce0:	e0001da0 	.word	0xe0001da0
e0001ce4:	e0001da0 	.word	0xe0001da0
e0001ce8:	e0001da0 	.word	0xe0001da0
e0001cec:	e0001da0 	.word	0xe0001da0
e0001cf0:	e0001da0 	.word	0xe0001da0
e0001cf4:	e0001da0 	.word	0xe0001da0
e0001cf8:	e0001d7c 	.word	0xe0001d7c
e0001cfc:	e0001da0 	.word	0xe0001da0
e0001d00:	e0001da0 	.word	0xe0001da0
e0001d04:	e0001da0 	.word	0xe0001da0
e0001d08:	e0001da0 	.word	0xe0001da0
e0001d0c:	e0001da0 	.word	0xe0001da0
e0001d10:	e0001da0 	.word	0xe0001da0
e0001d14:	e0001da0 	.word	0xe0001da0
e0001d18:	e0001da0 	.word	0xe0001da0
e0001d1c:	e0001da0 	.word	0xe0001da0
e0001d20:	e0001da0 	.word	0xe0001da0
e0001d24:	e0001da0 	.word	0xe0001da0
e0001d28:	e0001da0 	.word	0xe0001da0
e0001d2c:	e0001da0 	.word	0xe0001da0
e0001d30:	e0001da0 	.word	0xe0001da0
e0001d34:	e0001da0 	.word	0xe0001da0
e0001d38:	e0001dd4 	.word	0xe0001dd4
e0001d3c:	e0001da0 	.word	0xe0001da0
e0001d40:	e0001da0 	.word	0xe0001da0
e0001d44:	e0001da0 	.word	0xe0001da0
e0001d48:	e0001da0 	.word	0xe0001da0
e0001d4c:	e0001da0 	.word	0xe0001da0
e0001d50:	e0001da0 	.word	0xe0001da0
e0001d54:	e0001da0 	.word	0xe0001da0
e0001d58:	e0001da0 	.word	0xe0001da0
e0001d5c:	e0001da0 	.word	0xe0001da0
e0001d60:	e0001da0 	.word	0xe0001da0
e0001d64:	e0001da0 	.word	0xe0001da0
e0001d68:	e0001da0 	.word	0xe0001da0
e0001d6c:	e0001da0 	.word	0xe0001da0
e0001d70:	e0001da0 	.word	0xe0001da0
e0001d74:	e0001da0 	.word	0xe0001da0
e0001d78:	e0001d7c 	.word	0xe0001d7c
e0001d7c:	e3a03000 	mov	r3, #0
e0001d80:	eaffffad 	b	e0001c3c <provide_cap+0x94>
e0001d84:	e3c3301f 	bic	r3, r3, #31
e0001d88:	eaffffab 	b	e0001c3c <provide_cap+0x94>
e0001d8c:	e3c33f7f 	bic	r3, r3, #508	; 0x1fc
e0001d90:	e3c33003 	bic	r3, r3, #3
e0001d94:	eaffffa8 	b	e0001c3c <provide_cap+0x94>
e0001d98:	e3ce300f 	bic	r3, lr, #15
e0001d9c:	eaffffa6 	b	e0001c3c <provide_cap+0x94>
e0001da0:	e2420001 	sub	r0, r2, #1
e0001da4:	e3500008 	cmp	r0, #8
e0001da8:	979ff100 	ldrls	pc, [pc, r0, lsl #2]
e0001dac:	eafffff2 	b	e0001d7c <provide_cap+0x1d4>
e0001db0:	e0001e14 	.word	0xe0001e14
e0001db4:	e0001d7c 	.word	0xe0001d7c
e0001db8:	e0001e14 	.word	0xe0001e14
e0001dbc:	e0001d7c 	.word	0xe0001d7c
e0001dc0:	e0001c38 	.word	0xe0001c38
e0001dc4:	e0001d7c 	.word	0xe0001d7c
e0001dc8:	e0001e08 	.word	0xe0001e08
e0001dcc:	e0001d7c 	.word	0xe0001d7c
e0001dd0:	e0001dfc 	.word	0xe0001dfc
e0001dd4:	e1a02423 	lsr	r2, r3, #8
e0001dd8:	e202303f 	and	r3, r2, #63	; 0x3f
e0001ddc:	e3530020 	cmp	r3, #32
e0001de0:	1202301f 	andne	r3, r2, #31
e0001de4:	12833001 	addne	r3, r3, #1
e0001de8:	13e02000 	mvnne	r2, #0
e0001dec:	11a03312 	lslne	r3, r2, r3
e0001df0:	03e0301f 	mvneq	r3, #31
e0001df4:	e003300e 	and	r3, r3, lr
e0001df8:	eaffff8f 	b	e0001c3c <provide_cap+0x94>
e0001dfc:	e3c33dff 	bic	r3, r3, #16320	; 0x3fc0
e0001e00:	e3c3303f 	bic	r3, r3, #63	; 0x3f
e0001e04:	eaffff8c 	b	e0001c3c <provide_cap+0x94>
e0001e08:	e3c33fff 	bic	r3, r3, #1020	; 0x3fc
e0001e0c:	e3c33003 	bic	r3, r3, #3
e0001e10:	eaffff89 	b	e0001c3c <provide_cap+0x94>
e0001e14:	e3520001 	cmp	r2, #1
e0001e18:	0a000005 	beq	e0001e34 <provide_cap+0x28c>
e0001e1c:	e3520003 	cmp	r2, #3
e0001e20:	1affffd5 	bne	e0001d7c <provide_cap+0x1d4>
e0001e24:	e3a02903 	mov	r2, #49152	; 0xc000
e0001e28:	e34f2fff 	movt	r2, #65535	; 0xffff
e0001e2c:	e0023503 	and	r3, r2, r3, lsl #10
e0001e30:	eaffff81 	b	e0001c3c <provide_cap+0x94>
e0001e34:	e3a02a0f 	mov	r2, #61440	; 0xf000
e0001e38:	e34f2fff 	movt	r2, #65535	; 0xffff
e0001e3c:	e0023403 	and	r3, r2, r3, lsl #8
e0001e40:	eaffff7d 	b	e0001c3c <provide_cap+0x94>

e0001e44 <create_it_address_space>:
e0001e44:	e24dd008 	sub	sp, sp, #8
e0001e48:	e59fc3dc 	ldr	ip, [pc, #988]	; e000222c <create_it_address_space+0x3e8>
e0001e4c:	e92d4ff0 	push	{r4, r5, r6, r7, r8, r9, sl, fp, lr}
e0001e50:	e30b5700 	movw	r5, #46848	; 0xb700
e0001e54:	e34e5001 	movt	r5, #57345	; 0xe001
e0001e58:	e24dd024 	sub	sp, sp, #36	; 0x24
e0001e5c:	e28d7010 	add	r7, sp, #16
e0001e60:	e24ceb0e 	sub	lr, ip, #14336	; 0x3800
e0001e64:	e5956094 	ldr	r6, [r5, #148]	; 0x94
e0001e68:	e58d304c 	str	r3, [sp, #76]	; 0x4c
e0001e6c:	e3a03c0e 	mov	r3, #3584	; 0xe00
e0001e70:	e8870006 	stm	r7, {r1, r2}
e0001e74:	e046e00e 	sub	lr, r6, lr
e0001e78:	e59db050 	ldr	fp, [sp, #80]	; 0x50
e0001e7c:	e3001fff 	movw	r1, #4095	; 0xfff
e0001e80:	ea000001 	b	e0001e8c <create_it_address_space+0x48>
e0001e84:	e2833001 	add	r3, r3, #1
e0001e88:	e28cc004 	add	ip, ip, #4
e0001e8c:	e3530eff 	cmp	r3, #4080	; 0xff0
e0001e90:	0afffffb 	beq	e0001e84 <create_it_address_space+0x40>
e0001e94:	e59c2000 	ldr	r2, [ip]
e0001e98:	e1530001 	cmp	r3, r1
e0001e9c:	e78e200c 	str	r2, [lr, ip]
e0001ea0:	1afffff7 	bne	e0001e84 <create_it_address_space+0x40>
e0001ea4:	e2862dff 	add	r2, r6, #16320	; 0x3fc0
e0001ea8:	e1a032a6 	lsr	r3, r6, #5
e0001eac:	e282203f 	add	r2, r2, #63	; 0x3f
e0001eb0:	e1a022a2 	lsr	r2, r2, #5
e0001eb4:	e2822001 	add	r2, r2, #1
e0001eb8:	e1530002 	cmp	r3, r2
e0001ebc:	2a000007 	bcs	e0001ee0 <create_it_address_space+0x9c>
e0001ec0:	e1a03283 	lsl	r3, r3, #5
e0001ec4:	e1a02282 	lsl	r2, r2, #5
e0001ec8:	ee073f3b 	mcr	15, 0, r3, cr7, cr11, {1}
e0001ecc:	f57ff05f 	dmb	sy
e0001ed0:	e2833020 	add	r3, r3, #32
e0001ed4:	e1530002 	cmp	r3, r2
e0001ed8:	1afffffa 	bne	e0001ec8 <create_it_address_space+0x84>
e0001edc:	e5956094 	ldr	r6, [r5, #148]	; 0x94
e0001ee0:	e5952080 	ldr	r2, [r5, #128]	; 0x80
e0001ee4:	e3c66dff 	bic	r6, r6, #16320	; 0x3fc0
e0001ee8:	e59d3010 	ldr	r3, [sp, #16]
e0001eec:	e3c6603f 	bic	r6, r6, #63	; 0x3f
e0001ef0:	e3861019 	orr	r1, r6, #25
e0001ef4:	e59dc014 	ldr	ip, [sp, #20]
e0001ef8:	e58d2008 	str	r2, [sp, #8]
e0001efc:	e203200e 	and	r2, r3, #14
e0001f00:	e352000e 	cmp	r2, #14
e0001f04:	e58d100c 	str	r1, [sp, #12]
e0001f08:	0a000051 	beq	e0002054 <create_it_address_space+0x210>
e0001f0c:	e203200f 	and	r2, r3, #15
e0001f10:	e2421002 	sub	r1, r2, #2
e0001f14:	e351000c 	cmp	r1, #12
e0001f18:	979ff101 	ldrls	pc, [pc, r1, lsl #2]
e0001f1c:	ea00009f 	b	e00021a0 <create_it_address_space+0x35c>
e0001f20:	e0001f60 	.word	0xe0001f60
e0001f24:	e00021a0 	.word	0xe00021a0
e0001f28:	e0002164 	.word	0xe0002164
e0001f2c:	e00021a0 	.word	0xe00021a0
e0001f30:	e0001f60 	.word	0xe0001f60
e0001f34:	e00021a0 	.word	0xe00021a0
e0001f38:	e0001f54 	.word	0xe0001f54
e0001f3c:	e00021a0 	.word	0xe00021a0
e0001f40:	e000215c 	.word	0xe000215c
e0001f44:	e00021a0 	.word	0xe00021a0
e0001f48:	e000216c 	.word	0xe000216c
e0001f4c:	e00021a0 	.word	0xe00021a0
e0001f50:	e0001f54 	.word	0xe0001f54
e0001f54:	e3a03000 	mov	r3, #0
e0001f58:	e5833030 	str	r3, [r3, #48]	; 0x30
e0001f5c:	e7f000f0 	udf	#0
e0001f60:	e3c3300f 	bic	r3, r3, #15
e0001f64:	e59d404c 	ldr	r4, [sp, #76]	; 0x4c
e0001f68:	e3a02001 	mov	r2, #1
e0001f6c:	e3861019 	orr	r1, r6, #25
e0001f70:	e5832034 	str	r2, [r3, #52]	; 0x34
e0001f74:	e5831030 	str	r1, [r3, #48]	; 0x30
e0001f78:	e3a02003 	mov	r2, #3
e0001f7c:	e1a04a24 	lsr	r4, r4, #20
e0001f80:	e3a01000 	mov	r1, #0
e0001f84:	e58d0004 	str	r0, [sp, #4]
e0001f88:	e1a04a04 	lsl	r4, r4, #20
e0001f8c:	e5831038 	str	r1, [r3, #56]	; 0x38
e0001f90:	e15b0004 	cmp	fp, r4
e0001f94:	e583203c 	str	r2, [r3, #60]	; 0x3c
e0001f98:	9a00008d 	bls	e00021d4 <create_it_address_space+0x390>
e0001f9c:	e3a0ab3f 	mov	sl, #64512	; 0xfc00
e0001fa0:	e3a09a01 	mov	r9, #4096	; 0x1000
e0001fa4:	e34fafff 	movt	sl, #65535	; 0xffff
e0001fa8:	e3429000 	movt	r9, #8192	; 0x2000
e0001fac:	e28d8018 	add	r8, sp, #24
e0001fb0:	ea000002 	b	e0001fc0 <create_it_address_space+0x17c>
e0001fb4:	e2844601 	add	r4, r4, #1048576	; 0x100000
e0001fb8:	e15b0004 	cmp	fp, r4
e0001fbc:	9a000019 	bls	e0002028 <create_it_address_space+0x1e4>
e0001fc0:	e59520ac 	ldr	r2, [r5, #172]	; 0xac
e0001fc4:	e1a01a24 	lsr	r1, r4, #20
e0001fc8:	e1813009 	orr	r3, r1, r9
e0001fcc:	e58d301c 	str	r3, [sp, #28]
e0001fd0:	e002300a 	and	r3, r2, sl
e0001fd4:	e2822b01 	add	r2, r2, #1024	; 0x400
e0001fd8:	e2830203 	add	r0, r3, #805306368	; 0x30000000
e0001fdc:	e58520ac 	str	r2, [r5, #172]	; 0xac
e0001fe0:	e3802c02 	orr	r2, r0, #512	; 0x200
e0001fe4:	e3833007 	orr	r3, r3, #7
e0001fe8:	e3822001 	orr	r2, r2, #1
e0001fec:	e58d3018 	str	r3, [sp, #24]
e0001ff0:	e7862101 	str	r2, [r6, r1, lsl #2]
e0001ff4:	e8970003 	ldm	r7, {r0, r1}
e0001ff8:	e898000c 	ldm	r8, {r2, r3}
e0001ffc:	ebfffee9 	bl	e0001ba8 <provide_cap>
e0002000:	e3500000 	cmp	r0, #0
e0002004:	1affffea 	bne	e0001fb4 <create_it_address_space+0x170>
e0002008:	e59d3004 	ldr	r3, [sp, #4]
e000200c:	e5830000 	str	r0, [r3]
e0002010:	e5830004 	str	r0, [r3, #4]
e0002014:	e59d0004 	ldr	r0, [sp, #4]
e0002018:	e28dd024 	add	sp, sp, #36	; 0x24
e000201c:	e8bd4ff0 	pop	{r4, r5, r6, r7, r8, r9, sl, fp, lr}
e0002020:	e28dd008 	add	sp, sp, #8
e0002024:	e12fff1e 	bx	lr
e0002028:	e5952080 	ldr	r2, [r5, #128]	; 0x80
e000202c:	e59d0004 	ldr	r0, [sp, #4]
e0002030:	e3a01001 	mov	r1, #1
e0002034:	e595307c 	ldr	r3, [r5, #124]	; 0x7c
e0002038:	e59dc00c 	ldr	ip, [sp, #12]
e000203c:	e5801004 	str	r1, [r0, #4]
e0002040:	e59d1008 	ldr	r1, [sp, #8]
e0002044:	e580c000 	str	ip, [r0]
e0002048:	e5832030 	str	r2, [r3, #48]	; 0x30
e000204c:	e583102c 	str	r1, [r3, #44]	; 0x2c
e0002050:	eaffffef 	b	e0002014 <create_it_address_space+0x1d0>
e0002054:	e6ef2073 	uxtb	r2, r3
e0002058:	e2421002 	sub	r1, r2, #2
e000205c:	e351003c 	cmp	r1, #60	; 0x3c
e0002060:	979ff101 	ldrls	pc, [pc, r1, lsl #2]
e0002064:	ea00004d 	b	e00021a0 <create_it_address_space+0x35c>
e0002068:	e0001f60 	.word	0xe0001f60
e000206c:	e00021a0 	.word	0xe00021a0
e0002070:	e0002164 	.word	0xe0002164
e0002074:	e00021a0 	.word	0xe00021a0
e0002078:	e0001f60 	.word	0xe0001f60
e000207c:	e00021a0 	.word	0xe00021a0
e0002080:	e0001f54 	.word	0xe0001f54
e0002084:	e00021a0 	.word	0xe00021a0
e0002088:	e000215c 	.word	0xe000215c
e000208c:	e00021a0 	.word	0xe00021a0
e0002090:	e000216c 	.word	0xe000216c
e0002094:	e00021a0 	.word	0xe00021a0
e0002098:	e0001f54 	.word	0xe0001f54
e000209c:	e00021a0 	.word	0xe00021a0
e00020a0:	e00021a0 	.word	0xe00021a0
e00020a4:	e00021a0 	.word	0xe00021a0
e00020a8:	e00021a0 	.word	0xe00021a0
e00020ac:	e00021a0 	.word	0xe00021a0
e00020b0:	e00021a0 	.word	0xe00021a0
e00020b4:	e00021a0 	.word	0xe00021a0
e00020b8:	e00021a0 	.word	0xe00021a0
e00020bc:	e00021a0 	.word	0xe00021a0
e00020c0:	e00021a0 	.word	0xe00021a0
e00020c4:	e00021a0 	.word	0xe00021a0
e00020c8:	e00021a0 	.word	0xe00021a0
e00020cc:	e00021a0 	.word	0xe00021a0
e00020d0:	e00021a0 	.word	0xe00021a0
e00020d4:	e00021a0 	.word	0xe00021a0
e00020d8:	e0001f54 	.word	0xe0001f54
e00020dc:	e00021a0 	.word	0xe00021a0
e00020e0:	e00021a0 	.word	0xe00021a0
e00020e4:	e00021a0 	.word	0xe00021a0
e00020e8:	e00021a0 	.word	0xe00021a0
e00020ec:	e00021a0 	.word	0xe00021a0
e00020f0:	e00021a0 	.word	0xe00021a0
e00020f4:	e00021a0 	.word	0xe00021a0
e00020f8:	e00021a0 	.word	0xe00021a0
e00020fc:	e00021a0 	.word	0xe00021a0
e0002100:	e00021a0 	.word	0xe00021a0
e0002104:	e00021a0 	.word	0xe00021a0
e0002108:	e00021a0 	.word	0xe00021a0
e000210c:	e00021a0 	.word	0xe00021a0
e0002110:	e00021a0 	.word	0xe00021a0
e0002114:	e00021a0 	.word	0xe00021a0
e0002118:	e0002178 	.word	0xe0002178
e000211c:	e00021a0 	.word	0xe00021a0
e0002120:	e00021a0 	.word	0xe00021a0
e0002124:	e00021a0 	.word	0xe00021a0
e0002128:	e00021a0 	.word	0xe00021a0
e000212c:	e00021a0 	.word	0xe00021a0
e0002130:	e00021a0 	.word	0xe00021a0
e0002134:	e00021a0 	.word	0xe00021a0
e0002138:	e00021a0 	.word	0xe00021a0
e000213c:	e00021a0 	.word	0xe00021a0
e0002140:	e00021a0 	.word	0xe00021a0
e0002144:	e00021a0 	.word	0xe00021a0
e0002148:	e00021a0 	.word	0xe00021a0
e000214c:	e00021a0 	.word	0xe00021a0
e0002150:	e00021a0 	.word	0xe00021a0
e0002154:	e00021a0 	.word	0xe00021a0
e0002158:	e0001f54 	.word	0xe0001f54
e000215c:	e3c3301f 	bic	r3, r3, #31
e0002160:	eaffff7f 	b	e0001f64 <create_it_address_space+0x120>
e0002164:	e3cc300f 	bic	r3, ip, #15
e0002168:	eaffff7d 	b	e0001f64 <create_it_address_space+0x120>
e000216c:	e3c33f7f 	bic	r3, r3, #508	; 0x1fc
e0002170:	e3c33003 	bic	r3, r3, #3
e0002174:	eaffff7a 	b	e0001f64 <create_it_address_space+0x120>
e0002178:	e1a03423 	lsr	r3, r3, #8
e000217c:	e203203f 	and	r2, r3, #63	; 0x3f
e0002180:	e3520020 	cmp	r2, #32
e0002184:	1203201f 	andne	r2, r3, #31
e0002188:	12822001 	addne	r2, r2, #1
e000218c:	13e03000 	mvnne	r3, #0
e0002190:	11a03213 	lslne	r3, r3, r2
e0002194:	03e0301f 	mvneq	r3, #31
e0002198:	e003300c 	and	r3, r3, ip
e000219c:	eaffff70 	b	e0001f64 <create_it_address_space+0x120>
e00021a0:	e2421001 	sub	r1, r2, #1
e00021a4:	e3510008 	cmp	r1, #8
e00021a8:	979ff101 	ldrls	pc, [pc, r1, lsl #2]
e00021ac:	eaffff68 	b	e0001f54 <create_it_address_space+0x110>
e00021b0:	e00021f4 	.word	0xe00021f4
e00021b4:	e0001f54 	.word	0xe0001f54
e00021b8:	e00021f4 	.word	0xe00021f4
e00021bc:	e0001f54 	.word	0xe0001f54
e00021c0:	e0001f60 	.word	0xe0001f60
e00021c4:	e0001f54 	.word	0xe0001f54
e00021c8:	e00021e8 	.word	0xe00021e8
e00021cc:	e0001f54 	.word	0xe0001f54
e00021d0:	e00021dc 	.word	0xe00021dc
e00021d4:	e59d2008 	ldr	r2, [sp, #8]
e00021d8:	eaffff93 	b	e000202c <create_it_address_space+0x1e8>
e00021dc:	e3c33dff 	bic	r3, r3, #16320	; 0x3fc0
e00021e0:	e3c3303f 	bic	r3, r3, #63	; 0x3f
e00021e4:	eaffff5e 	b	e0001f64 <create_it_address_space+0x120>
e00021e8:	e3c33fff 	bic	r3, r3, #1020	; 0x3fc
e00021ec:	e3c33003 	bic	r3, r3, #3
e00021f0:	eaffff5b 	b	e0001f64 <create_it_address_space+0x120>
e00021f4:	e3520001 	cmp	r2, #1
e00021f8:	0a000005 	beq	e0002214 <create_it_address_space+0x3d0>
e00021fc:	e3520003 	cmp	r2, #3
e0002200:	1a000007 	bne	e0002224 <create_it_address_space+0x3e0>
e0002204:	e3a02903 	mov	r2, #49152	; 0xc000
e0002208:	e34f2fff 	movt	r2, #65535	; 0xffff
e000220c:	e0023503 	and	r3, r2, r3, lsl #10
e0002210:	eaffff53 	b	e0001f64 <create_it_address_space+0x120>
e0002214:	e3a02a0f 	mov	r2, #61440	; 0xf000
e0002218:	e34f2fff 	movt	r2, #65535	; 0xffff
e000221c:	e0023403 	and	r3, r2, r3, lsl #8
e0002220:	eaffff4f 	b	e0001f64 <create_it_address_space+0x120>
e0002224:	e3a03000 	mov	r3, #0
e0002228:	eaffff4d 	b	e0001f64 <create_it_address_space+0x120>
e000222c:	e0027800 	.word	0xe0027800

e0002230 <create_frames_of_region>:
e0002230:	e24dd008 	sub	sp, sp, #8
e0002234:	e30bc700 	movw	ip, #46848	; 0xb700
e0002238:	e34ec001 	movt	ip, #57345	; 0xe001
e000223c:	e92d4ff0 	push	{r4, r5, r6, r7, r8, r9, sl, fp, lr}
e0002240:	e24dd034 	sub	sp, sp, #52	; 0x34
e0002244:	e28d6020 	add	r6, sp, #32
e0002248:	e59d8068 	ldr	r8, [sp, #104]	; 0x68
e000224c:	e59d4064 	ldr	r4, [sp, #100]	; 0x64
e0002250:	e58d305c 	str	r3, [sp, #92]	; 0x5c
e0002254:	e59c3080 	ldr	r3, [ip, #128]	; 0x80
e0002258:	e1580004 	cmp	r8, r4
e000225c:	e58dc01c 	str	ip, [sp, #28]
e0002260:	e58d0014 	str	r0, [sp, #20]
e0002264:	e58d3018 	str	r3, [sp, #24]
e0002268:	e8860006 	stm	r6, {r1, r2}
e000226c:	e59d906c 	ldr	r9, [sp, #108]	; 0x6c
e0002270:	9a000032 	bls	e0002340 <create_frames_of_region+0x110>
e0002274:	e30f7ff0 	movw	r7, #65520	; 0xfff0
e0002278:	e28d5028 	add	r5, sp, #40	; 0x28
e000227c:	e34070ff 	movt	r7, #255	; 0xff
e0002280:	e3a0a603 	mov	sl, #3145728	; 0x300000
e0002284:	e3a0b001 	mov	fp, #1
e0002288:	ea000007 	b	e00022ac <create_frames_of_region+0x7c>
e000228c:	e895000c 	ldm	r5, {r2, r3}
e0002290:	e2844a01 	add	r4, r4, #4096	; 0x1000
e0002294:	e8960003 	ldm	r6, {r0, r1}
e0002298:	ebfffe42 	bl	e0001ba8 <provide_cap>
e000229c:	e3500000 	cmp	r0, #0
e00022a0:	0a000015 	beq	e00022fc <create_frames_of_region+0xcc>
e00022a4:	e1580004 	cmp	r8, r4
e00022a8:	9a00001c 	bls	e0002320 <create_frames_of_region+0xf0>
e00022ac:	e3590000 	cmp	r9, #0
e00022b0:	e0073424 	and	r3, r7, r4, lsr #8
e00022b4:	e3833001 	orr	r3, r3, #1
e00022b8:	058da02c 	streq	sl, [sp, #44]	; 0x2c
e00022bc:	058d3028 	streq	r3, [sp, #40]	; 0x28
e00022c0:	0afffff1 	beq	e000228c <create_frames_of_region+0x5c>
e00022c4:	e59d3070 	ldr	r3, [sp, #112]	; 0x70
e00022c8:	e28d205c 	add	r2, sp, #92	; 0x5c
e00022cc:	e58db00c 	str	fp, [sp, #12]
e00022d0:	e3a0c000 	mov	ip, #0
e00022d4:	e2633203 	rsb	r3, r3, #805306368	; 0x30000000
e00022d8:	e58db004 	str	fp, [sp, #4]
e00022dc:	e0833004 	add	r3, r3, r4
e00022e0:	e1a00005 	mov	r0, r5
e00022e4:	e58d3000 	str	r3, [sp]
e00022e8:	e1a03004 	mov	r3, r4
e00022ec:	e8920006 	ldm	r2, {r1, r2}
e00022f0:	e58dc008 	str	ip, [sp, #8]
e00022f4:	ebfff851 	bl	e0000440 <create_mapped_it_frame_cap>
e00022f8:	eaffffe3 	b	e000228c <create_frames_of_region+0x5c>
e00022fc:	e59d3014 	ldr	r3, [sp, #20]
e0002300:	e5830000 	str	r0, [r3]
e0002304:	e5830004 	str	r0, [r3, #4]
e0002308:	e5830008 	str	r0, [r3, #8]
e000230c:	e59d0014 	ldr	r0, [sp, #20]
e0002310:	e28dd034 	add	sp, sp, #52	; 0x34
e0002314:	e8bd4ff0 	pop	{r4, r5, r6, r7, r8, r9, sl, fp, lr}
e0002318:	e28dd008 	add	sp, sp, #8
e000231c:	e12fff1e 	bx	lr
e0002320:	e59d301c 	ldr	r3, [sp, #28]
e0002324:	e5932080 	ldr	r2, [r3, #128]	; 0x80
e0002328:	e59d1014 	ldr	r1, [sp, #20]
e000232c:	e59d3018 	ldr	r3, [sp, #24]
e0002330:	e5813000 	str	r3, [r1]
e0002334:	e3a03001 	mov	r3, #1
e0002338:	e1c120f4 	strd	r2, [r1, #4]
e000233c:	eafffff2 	b	e000230c <create_frames_of_region+0xdc>
e0002340:	e59d2018 	ldr	r2, [sp, #24]
e0002344:	eafffff7 	b	e0002328 <create_frames_of_region+0xf8>

e0002348 <create_it_asid_pool>:
e0002348:	e92d4010 	push	{r4, lr}
e000234c:	e24dd008 	sub	sp, sp, #8
e0002350:	e28d3008 	add	r3, sp, #8
e0002354:	e9030006 	stmdb	r3, {r1, r2}
e0002358:	e30b2700 	movw	r2, #46848	; 0xb700
e000235c:	e59d3000 	ldr	r3, [sp]
e0002360:	e34e2001 	movt	r2, #57345	; 0xe001
e0002364:	e59dc004 	ldr	ip, [sp, #4]
e0002368:	e5921098 	ldr	r1, [r2, #152]	; 0x98
e000236c:	e203e00e 	and	lr, r3, #14
e0002370:	e35e000e 	cmp	lr, #14
e0002374:	e3c1100f 	bic	r1, r1, #15
e0002378:	e3811005 	orr	r1, r1, #5
e000237c:	0a00003e 	beq	e000247c <create_it_asid_pool+0x134>
e0002380:	e203200f 	and	r2, r3, #15
e0002384:	e2424002 	sub	r4, r2, #2
e0002388:	e354000c 	cmp	r4, #12
e000238c:	979ff104 	ldrls	pc, [pc, r4, lsl #2]
e0002390:	ea0000d8 	b	e00026f8 <create_it_asid_pool+0x3b0>
e0002394:	e00023d4 	.word	0xe00023d4
e0002398:	e00026f8 	.word	0xe00026f8
e000239c:	e00026a8 	.word	0xe00026a8
e00023a0:	e00026f8 	.word	0xe00026f8
e00023a4:	e00023d4 	.word	0xe00023d4
e00023a8:	e00026f8 	.word	0xe00026f8
e00023ac:	e00023c8 	.word	0xe00023c8
e00023b0:	e00026f8 	.word	0xe00026f8
e00023b4:	e00026bc 	.word	0xe00026bc
e00023b8:	e00026f8 	.word	0xe00026f8
e00023bc:	e00026b0 	.word	0xe00026b0
e00023c0:	e00026f8 	.word	0xe00026f8
e00023c4:	e00023c8 	.word	0xe00023c8
e00023c8:	e3a03000 	mov	r3, #0
e00023cc:	e5833060 	str	r3, [r3, #96]	; 0x60
e00023d0:	e7f000f0 	udf	#0
e00023d4:	e3c3200f 	bic	r2, r3, #15
e00023d8:	e35e000e 	cmp	lr, #14
e00023dc:	e5821060 	str	r1, [r2, #96]	; 0x60
e00023e0:	e3a0e000 	mov	lr, #0
e00023e4:	e582e064 	str	lr, [r2, #100]	; 0x64
e00023e8:	e582e068 	str	lr, [r2, #104]	; 0x68
e00023ec:	e3a0e003 	mov	lr, #3
e00023f0:	e582e06c 	str	lr, [r2, #108]	; 0x6c
e00023f4:	0a000062 	beq	e0002584 <create_it_asid_pool+0x23c>
e00023f8:	e203200f 	and	r2, r3, #15
e00023fc:	e242e002 	sub	lr, r2, #2
e0002400:	e35e000c 	cmp	lr, #12
e0002404:	979ff10e 	ldrls	pc, [pc, lr, lsl #2]
e0002408:	ea0000ad 	b	e00026c4 <create_it_asid_pool+0x37c>
e000240c:	e0002440 	.word	0xe0002440
e0002410:	e00026c4 	.word	0xe00026c4
e0002414:	e00026a0 	.word	0xe00026a0
e0002418:	e00026c4 	.word	0xe00026c4
e000241c:	e0002440 	.word	0xe0002440
e0002420:	e00026c4 	.word	0xe00026c4
e0002424:	e0002470 	.word	0xe0002470
e0002428:	e00026c4 	.word	0xe00026c4
e000242c:	e000268c 	.word	0xe000268c
e0002430:	e00026c4 	.word	0xe00026c4
e0002434:	e0002694 	.word	0xe0002694
e0002438:	e00026c4 	.word	0xe00026c4
e000243c:	e0002470 	.word	0xe0002470
e0002440:	e3c3300f 	bic	r3, r3, #15
e0002444:	e3a02000 	mov	r2, #0
e0002448:	e5801000 	str	r1, [r0]
e000244c:	e5832054 	str	r2, [r3, #84]	; 0x54
e0002450:	e3a0100b 	mov	r1, #11
e0002454:	e5832058 	str	r2, [r3, #88]	; 0x58
e0002458:	e5831050 	str	r1, [r3, #80]	; 0x50
e000245c:	e3a01003 	mov	r1, #3
e0002460:	e5802004 	str	r2, [r0, #4]
e0002464:	e583105c 	str	r1, [r3, #92]	; 0x5c
e0002468:	e28dd008 	add	sp, sp, #8
e000246c:	e8bd8010 	pop	{r4, pc}
e0002470:	e3a03000 	mov	r3, #0
e0002474:	e5833050 	str	r3, [r3, #80]	; 0x50
e0002478:	e7f000f0 	udf	#0
e000247c:	e6ef2073 	uxtb	r2, r3
e0002480:	e2424002 	sub	r4, r2, #2
e0002484:	e354003c 	cmp	r4, #60	; 0x3c
e0002488:	979ff104 	ldrls	pc, [pc, r4, lsl #2]
e000248c:	ea000099 	b	e00026f8 <create_it_asid_pool+0x3b0>
e0002490:	e00023d4 	.word	0xe00023d4
e0002494:	e00026f8 	.word	0xe00026f8
e0002498:	e00026a8 	.word	0xe00026a8
e000249c:	e00026f8 	.word	0xe00026f8
e00024a0:	e00023d4 	.word	0xe00023d4
e00024a4:	e00026f8 	.word	0xe00026f8
e00024a8:	e00023c8 	.word	0xe00023c8
e00024ac:	e00026f8 	.word	0xe00026f8
e00024b0:	e00026bc 	.word	0xe00026bc
e00024b4:	e00026f8 	.word	0xe00026f8
e00024b8:	e00026b0 	.word	0xe00026b0
e00024bc:	e00026f8 	.word	0xe00026f8
e00024c0:	e00023c8 	.word	0xe00023c8
e00024c4:	e00026f8 	.word	0xe00026f8
e00024c8:	e00026f8 	.word	0xe00026f8
e00024cc:	e00026f8 	.word	0xe00026f8
e00024d0:	e00026f8 	.word	0xe00026f8
e00024d4:	e00026f8 	.word	0xe00026f8
e00024d8:	e00026f8 	.word	0xe00026f8
e00024dc:	e00026f8 	.word	0xe00026f8
e00024e0:	e00026f8 	.word	0xe00026f8
e00024e4:	e00026f8 	.word	0xe00026f8
e00024e8:	e00026f8 	.word	0xe00026f8
e00024ec:	e00026f8 	.word	0xe00026f8
e00024f0:	e00026f8 	.word	0xe00026f8
e00024f4:	e00026f8 	.word	0xe00026f8
e00024f8:	e00026f8 	.word	0xe00026f8
e00024fc:	e00026f8 	.word	0xe00026f8
e0002500:	e00023c8 	.word	0xe00023c8
e0002504:	e00026f8 	.word	0xe00026f8
e0002508:	e00026f8 	.word	0xe00026f8
e000250c:	e00026f8 	.word	0xe00026f8
e0002510:	e00026f8 	.word	0xe00026f8
e0002514:	e00026f8 	.word	0xe00026f8
e0002518:	e00026f8 	.word	0xe00026f8
e000251c:	e00026f8 	.word	0xe00026f8
e0002520:	e00026f8 	.word	0xe00026f8
e0002524:	e00026f8 	.word	0xe00026f8
e0002528:	e00026f8 	.word	0xe00026f8
e000252c:	e00026f8 	.word	0xe00026f8
e0002530:	e00026f8 	.word	0xe00026f8
e0002534:	e00026f8 	.word	0xe00026f8
e0002538:	e00026f8 	.word	0xe00026f8
e000253c:	e00026f8 	.word	0xe00026f8
e0002540:	e0002754 	.word	0xe0002754
e0002544:	e00026f8 	.word	0xe00026f8
e0002548:	e00026f8 	.word	0xe00026f8
e000254c:	e00026f8 	.word	0xe00026f8
e0002550:	e00026f8 	.word	0xe00026f8
e0002554:	e00026f8 	.word	0xe00026f8
e0002558:	e00026f8 	.word	0xe00026f8
e000255c:	e00026f8 	.word	0xe00026f8
e0002560:	e00026f8 	.word	0xe00026f8
e0002564:	e00026f8 	.word	0xe00026f8
e0002568:	e00026f8 	.word	0xe00026f8
e000256c:	e00026f8 	.word	0xe00026f8
e0002570:	e00026f8 	.word	0xe00026f8
e0002574:	e00026f8 	.word	0xe00026f8
e0002578:	e00026f8 	.word	0xe00026f8
e000257c:	e00026f8 	.word	0xe00026f8
e0002580:	e00023c8 	.word	0xe00023c8
e0002584:	e6ef2073 	uxtb	r2, r3
e0002588:	e242e002 	sub	lr, r2, #2
e000258c:	e35e003c 	cmp	lr, #60	; 0x3c
e0002590:	979ff10e 	ldrls	pc, [pc, lr, lsl #2]
e0002594:	ea00004a 	b	e00026c4 <create_it_asid_pool+0x37c>
e0002598:	e0002440 	.word	0xe0002440
e000259c:	e00026c4 	.word	0xe00026c4
e00025a0:	e00026a0 	.word	0xe00026a0
e00025a4:	e00026c4 	.word	0xe00026c4
e00025a8:	e0002440 	.word	0xe0002440
e00025ac:	e00026c4 	.word	0xe00026c4
e00025b0:	e0002470 	.word	0xe0002470
e00025b4:	e00026c4 	.word	0xe00026c4
e00025b8:	e000268c 	.word	0xe000268c
e00025bc:	e00026c4 	.word	0xe00026c4
e00025c0:	e0002694 	.word	0xe0002694
e00025c4:	e00026c4 	.word	0xe00026c4
e00025c8:	e0002470 	.word	0xe0002470
e00025cc:	e00026c4 	.word	0xe00026c4
e00025d0:	e00026c4 	.word	0xe00026c4
e00025d4:	e00026c4 	.word	0xe00026c4
e00025d8:	e00026c4 	.word	0xe00026c4
e00025dc:	e00026c4 	.word	0xe00026c4
e00025e0:	e00026c4 	.word	0xe00026c4
e00025e4:	e00026c4 	.word	0xe00026c4
e00025e8:	e00026c4 	.word	0xe00026c4
e00025ec:	e00026c4 	.word	0xe00026c4
e00025f0:	e00026c4 	.word	0xe00026c4
e00025f4:	e00026c4 	.word	0xe00026c4
e00025f8:	e00026c4 	.word	0xe00026c4
e00025fc:	e00026c4 	.word	0xe00026c4
e0002600:	e00026c4 	.word	0xe00026c4
e0002604:	e00026c4 	.word	0xe00026c4
e0002608:	e0002470 	.word	0xe0002470
e000260c:	e00026c4 	.word	0xe00026c4
e0002610:	e00026c4 	.word	0xe00026c4
e0002614:	e00026c4 	.word	0xe00026c4
e0002618:	e00026c4 	.word	0xe00026c4
e000261c:	e00026c4 	.word	0xe00026c4
e0002620:	e00026c4 	.word	0xe00026c4
e0002624:	e00026c4 	.word	0xe00026c4
e0002628:	e00026c4 	.word	0xe00026c4
e000262c:	e00026c4 	.word	0xe00026c4
e0002630:	e00026c4 	.word	0xe00026c4
e0002634:	e00026c4 	.word	0xe00026c4
e0002638:	e00026c4 	.word	0xe00026c4
e000263c:	e00026c4 	.word	0xe00026c4
e0002640:	e00026c4 	.word	0xe00026c4
e0002644:	e00026c4 	.word	0xe00026c4
e0002648:	e000272c 	.word	0xe000272c
e000264c:	e00026c4 	.word	0xe00026c4
e0002650:	e00026c4 	.word	0xe00026c4
e0002654:	e00026c4 	.word	0xe00026c4
e0002658:	e00026c4 	.word	0xe00026c4
e000265c:	e00026c4 	.word	0xe00026c4
e0002660:	e00026c4 	.word	0xe00026c4
e0002664:	e00026c4 	.word	0xe00026c4
e0002668:	e00026c4 	.word	0xe00026c4
e000266c:	e00026c4 	.word	0xe00026c4
e0002670:	e00026c4 	.word	0xe00026c4
e0002674:	e00026c4 	.word	0xe00026c4
e0002678:	e00026c4 	.word	0xe00026c4
e000267c:	e00026c4 	.word	0xe00026c4
e0002680:	e00026c4 	.word	0xe00026c4
e0002684:	e00026c4 	.word	0xe00026c4
e0002688:	e0002470 	.word	0xe0002470
e000268c:	e3c3301f 	bic	r3, r3, #31
e0002690:	eaffff6b 	b	e0002444 <create_it_asid_pool+0xfc>
e0002694:	e3c33f7f 	bic	r3, r3, #508	; 0x1fc
e0002698:	e3c33003 	bic	r3, r3, #3
e000269c:	eaffff68 	b	e0002444 <create_it_asid_pool+0xfc>
e00026a0:	e3cc300f 	bic	r3, ip, #15
e00026a4:	eaffff66 	b	e0002444 <create_it_asid_pool+0xfc>
e00026a8:	e3cc200f 	bic	r2, ip, #15
e00026ac:	eaffff49 	b	e00023d8 <create_it_asid_pool+0x90>
e00026b0:	e3c32f7f 	bic	r2, r3, #508	; 0x1fc
e00026b4:	e3c22003 	bic	r2, r2, #3
e00026b8:	eaffff46 	b	e00023d8 <create_it_asid_pool+0x90>
e00026bc:	e3c3201f 	bic	r2, r3, #31
e00026c0:	eaffff44 	b	e00023d8 <create_it_asid_pool+0x90>
e00026c4:	e242c001 	sub	ip, r2, #1
e00026c8:	e35c0008 	cmp	ip, #8
e00026cc:	979ff10c 	ldrls	pc, [pc, ip, lsl #2]
e00026d0:	eaffff66 	b	e0002470 <create_it_asid_pool+0x128>
e00026d4:	e00027cc 	.word	0xe00027cc
e00026d8:	e0002470 	.word	0xe0002470
e00026dc:	e00027cc 	.word	0xe00027cc
e00026e0:	e0002470 	.word	0xe0002470
e00026e4:	e0002440 	.word	0xe0002440
e00026e8:	e0002470 	.word	0xe0002470
e00026ec:	e00027c0 	.word	0xe00027c0
e00026f0:	e0002470 	.word	0xe0002470
e00026f4:	e00027b4 	.word	0xe00027b4
e00026f8:	e2424001 	sub	r4, r2, #1
e00026fc:	e3540008 	cmp	r4, #8
e0002700:	979ff104 	ldrls	pc, [pc, r4, lsl #2]
e0002704:	eaffff2f 	b	e00023c8 <create_it_asid_pool+0x80>
e0002708:	e0002794 	.word	0xe0002794
e000270c:	e00023c8 	.word	0xe00023c8
e0002710:	e0002794 	.word	0xe0002794
e0002714:	e00023c8 	.word	0xe00023c8
e0002718:	e00023d4 	.word	0xe00023d4
e000271c:	e00023c8 	.word	0xe00023c8
e0002720:	e0002788 	.word	0xe0002788
e0002724:	e00023c8 	.word	0xe00023c8
e0002728:	e000277c 	.word	0xe000277c
e000272c:	e1a03423 	lsr	r3, r3, #8
e0002730:	e203203f 	and	r2, r3, #63	; 0x3f
e0002734:	e3520020 	cmp	r2, #32
e0002738:	1203301f 	andne	r3, r3, #31
e000273c:	12833001 	addne	r3, r3, #1
e0002740:	13e02000 	mvnne	r2, #0
e0002744:	11a03312 	lslne	r3, r2, r3
e0002748:	03e0301f 	mvneq	r3, #31
e000274c:	e003300c 	and	r3, r3, ip
e0002750:	eaffff3b 	b	e0002444 <create_it_asid_pool+0xfc>
e0002754:	e1a02423 	lsr	r2, r3, #8
e0002758:	e202403f 	and	r4, r2, #63	; 0x3f
e000275c:	e3540020 	cmp	r4, #32
e0002760:	1202401f 	andne	r4, r2, #31
e0002764:	12844001 	addne	r4, r4, #1
e0002768:	13e02000 	mvnne	r2, #0
e000276c:	11a02412 	lslne	r2, r2, r4
e0002770:	03e0201f 	mvneq	r2, #31
e0002774:	e002200c 	and	r2, r2, ip
e0002778:	eaffff16 	b	e00023d8 <create_it_asid_pool+0x90>
e000277c:	e3c32dff 	bic	r2, r3, #16320	; 0x3fc0
e0002780:	e3c2203f 	bic	r2, r2, #63	; 0x3f
e0002784:	eaffff13 	b	e00023d8 <create_it_asid_pool+0x90>
e0002788:	e3c32fff 	bic	r2, r3, #1020	; 0x3fc
e000278c:	e3c22003 	bic	r2, r2, #3
e0002790:	eaffff10 	b	e00023d8 <create_it_asid_pool+0x90>
e0002794:	e3520001 	cmp	r2, #1
e0002798:	0a000015 	beq	e00027f4 <create_it_asid_pool+0x4ac>
e000279c:	e3520003 	cmp	r2, #3
e00027a0:	1a000011 	bne	e00027ec <create_it_asid_pool+0x4a4>
e00027a4:	e3a02903 	mov	r2, #49152	; 0xc000
e00027a8:	e34f2fff 	movt	r2, #65535	; 0xffff
e00027ac:	e0022503 	and	r2, r2, r3, lsl #10
e00027b0:	eaffff08 	b	e00023d8 <create_it_asid_pool+0x90>
e00027b4:	e3c33dff 	bic	r3, r3, #16320	; 0x3fc0
e00027b8:	e3c3303f 	bic	r3, r3, #63	; 0x3f
e00027bc:	eaffff20 	b	e0002444 <create_it_asid_pool+0xfc>
e00027c0:	e3c33fff 	bic	r3, r3, #1020	; 0x3fc
e00027c4:	e3c33003 	bic	r3, r3, #3
e00027c8:	eaffff1d 	b	e0002444 <create_it_asid_pool+0xfc>
e00027cc:	e3520001 	cmp	r2, #1
e00027d0:	0a00000d 	beq	e000280c <create_it_asid_pool+0x4c4>
e00027d4:	e3520003 	cmp	r2, #3
e00027d8:	1a000009 	bne	e0002804 <create_it_asid_pool+0x4bc>
e00027dc:	e3a02903 	mov	r2, #49152	; 0xc000
e00027e0:	e34f2fff 	movt	r2, #65535	; 0xffff
e00027e4:	e0023503 	and	r3, r2, r3, lsl #10
e00027e8:	eaffff15 	b	e0002444 <create_it_asid_pool+0xfc>
e00027ec:	e3a02000 	mov	r2, #0
e00027f0:	eafffef8 	b	e00023d8 <create_it_asid_pool+0x90>
e00027f4:	e3a02a0f 	mov	r2, #61440	; 0xf000
e00027f8:	e34f2fff 	movt	r2, #65535	; 0xffff
e00027fc:	e0022403 	and	r2, r2, r3, lsl #8
e0002800:	eafffef4 	b	e00023d8 <create_it_asid_pool+0x90>
e0002804:	e3a03000 	mov	r3, #0
e0002808:	eaffff0d 	b	e0002444 <create_it_asid_pool+0xfc>
e000280c:	e3a02a0f 	mov	r2, #61440	; 0xf000
e0002810:	e34f2fff 	movt	r2, #65535	; 0xffff
e0002814:	e0023403 	and	r3, r2, r3, lsl #8
e0002818:	eaffff09 	b	e0002444 <create_it_asid_pool+0xfc>

e000281c <init_core_state>:
e000281c:	e3091010 	movw	r1, #36880	; 0x9010
e0002820:	e34e1002 	movt	r1, #57346	; 0xe002
e0002824:	e303264c 	movw	r2, #13900	; 0x364c
e0002828:	e309301c 	movw	r3, #36892	; 0x901c
e000282c:	e5911000 	ldr	r1, [r1]
e0002830:	e34e2003 	movt	r2, #57347	; 0xe003
e0002834:	e34e3002 	movt	r3, #57346	; 0xe002
e0002838:	e5821000 	str	r1, [r2]
e000283c:	e5830000 	str	r0, [r3]
e0002840:	e12fff1e 	bx	lr

e0002844 <create_untypeds_for_region>:
e0002844:	e24dd008 	sub	sp, sp, #8
e0002848:	e92d4ff0 	push	{r4, r5, r6, r7, r8, r9, sl, fp, lr}
e000284c:	e24dd024 	sub	sp, sp, #36	; 0x24
e0002850:	e28d8008 	add	r8, sp, #8
e0002854:	e59d6050 	ldr	r6, [sp, #80]	; 0x50
e0002858:	e58d304c 	str	r3, [sp, #76]	; 0x4c
e000285c:	e1560003 	cmp	r6, r3
e0002860:	e8880003 	stm	r8, {r0, r1}
e0002864:	e59da054 	ldr	sl, [sp, #84]	; 0x54
e0002868:	0a00003c 	beq	e0002960 <create_untypeds_for_region+0x11c>
e000286c:	e1a05003 	mov	r5, r3
e0002870:	e1a03282 	lsl	r3, r2, #5
e0002874:	e30b9700 	movw	r9, #46848	; 0xb700
e0002878:	e2033020 	and	r3, r3, #32
e000287c:	e1a0b002 	mov	fp, r2
e0002880:	e58d3004 	str	r3, [sp, #4]
e0002884:	e34e9001 	movt	r9, #57345	; 0xe001
e0002888:	e28d7010 	add	r7, sp, #16
e000288c:	ea00000b 	b	e00028c0 <create_untypeds_for_region+0x7c>
e0002890:	e3540003 	cmp	r4, #3
e0002894:	9a000005 	bls	e00028b0 <create_untypeds_for_region+0x6c>
e0002898:	e5993080 	ldr	r3, [r9, #128]	; 0x80
e000289c:	e8980003 	ldm	r8, {r0, r1}
e00028a0:	e043300a 	sub	r3, r3, sl
e00028a4:	e35300e5 	cmp	r3, #229	; 0xe5
e00028a8:	e8870003 	stm	r7, {r0, r1}
e00028ac:	9a000010 	bls	e00028f4 <create_untypeds_for_region+0xb0>
e00028b0:	e3a03001 	mov	r3, #1
e00028b4:	e0855413 	add	r5, r5, r3, lsl r4
e00028b8:	e1560005 	cmp	r6, r5
e00028bc:	0a000027 	beq	e0002960 <create_untypeds_for_region+0x11c>
e00028c0:	e0464005 	sub	r4, r6, r5
e00028c4:	e3550000 	cmp	r5, #0
e00028c8:	e6ff3f35 	rbit	r3, r5
e00028cc:	e16f4f14 	clz	r4, r4
e00028d0:	e16f3f13 	clz	r3, r3
e00028d4:	e264401f 	rsb	r4, r4, #31
e00028d8:	0a000001 	beq	e00028e4 <create_untypeds_for_region+0xa0>
e00028dc:	e1540003 	cmp	r4, r3
e00028e0:	21a04003 	movcs	r4, r3
e00028e4:	e354001d 	cmp	r4, #29
e00028e8:	9affffe8 	bls	e0002890 <create_untypeds_for_region+0x4c>
e00028ec:	e3a0401d 	mov	r4, #29
e00028f0:	eaffffe8 	b	e0002898 <create_untypeds_for_region+0x54>
e00028f4:	e599207c 	ldr	r2, [r9, #124]	; 0x7c
e00028f8:	e3c5100f 	bic	r1, r5, #15
e00028fc:	e3811002 	orr	r1, r1, #2
e0002900:	e3a0e000 	mov	lr, #0
e0002904:	e0823183 	add	r3, r2, r3, lsl #3
e0002908:	e59d2004 	ldr	r2, [sp, #4]
e000290c:	e58d1018 	str	r1, [sp, #24]
e0002910:	e2851203 	add	r1, r5, #805306368	; 0x30000000
e0002914:	e583e058 	str	lr, [r3, #88]	; 0x58
e0002918:	e2440004 	sub	r0, r4, #4
e000291c:	e5831054 	str	r1, [r3, #84]	; 0x54
e0002920:	e3a0c040 	mov	ip, #64	; 0x40
e0002924:	e5c34058 	strb	r4, [r3, #88]	; 0x58
e0002928:	e1842002 	orr	r2, r4, r2
e000292c:	e5c3b059 	strb	fp, [r3, #89]	; 0x59
e0002930:	e28d3020 	add	r3, sp, #32
e0002934:	e182201c 	orr	r2, r2, ip, lsl r0
e0002938:	e8970003 	ldm	r7, {r0, r1}
e000293c:	e58d201c 	str	r2, [sp, #28]
e0002940:	e913000c 	ldmdb	r3, {r2, r3}
e0002944:	ebfffc97 	bl	e0001ba8 <provide_cap>
e0002948:	e3500000 	cmp	r0, #0
e000294c:	1affffd7 	bne	e00028b0 <create_untypeds_for_region+0x6c>
e0002950:	e28dd024 	add	sp, sp, #36	; 0x24
e0002954:	e8bd4ff0 	pop	{r4, r5, r6, r7, r8, r9, sl, fp, lr}
e0002958:	e28dd008 	add	sp, sp, #8
e000295c:	e12fff1e 	bx	lr
e0002960:	e3a00001 	mov	r0, #1
e0002964:	e28dd024 	add	sp, sp, #36	; 0x24
e0002968:	e8bd4ff0 	pop	{r4, r5, r6, r7, r8, r9, sl, fp, lr}
e000296c:	e28dd008 	add	sp, sp, #8
e0002970:	e12fff1e 	bx	lr

e0002974 <create_device_untypeds>:
e0002974:	e92d41f0 	push	{r4, r5, r6, r7, r8, lr}
e0002978:	e30b8700 	movw	r8, #46848	; 0xb700
e000297c:	e34e8001 	movt	r8, #57345	; 0xe001
e0002980:	e24dd018 	sub	sp, sp, #24
e0002984:	e28d6008 	add	r6, sp, #8
e0002988:	e1a07002 	mov	r7, r2
e000298c:	e5983058 	ldr	r3, [r8, #88]	; 0x58
e0002990:	e8860003 	stm	r6, {r0, r1}
e0002994:	e3530000 	cmp	r3, #0
e0002998:	0a00001c 	beq	e0002a10 <create_device_untypeds+0x9c>
e000299c:	e3a04000 	mov	r4, #0
e00029a0:	e1a05008 	mov	r5, r8
e00029a4:	e1a03004 	mov	r3, r4
e00029a8:	ea000004 	b	e00029c0 <create_device_untypeds+0x4c>
e00029ac:	e5982058 	ldr	r2, [r8, #88]	; 0x58
e00029b0:	e2855008 	add	r5, r5, #8
e00029b4:	e5153004 	ldr	r3, [r5, #-4]
e00029b8:	e1520004 	cmp	r2, r4
e00029bc:	9a00000d 	bls	e00029f8 <create_device_untypeds+0x84>
e00029c0:	e7982184 	ldr	r2, [r8, r4, lsl #3]
e00029c4:	e2844001 	add	r4, r4, #1
e00029c8:	e1520003 	cmp	r2, r3
e00029cc:	9afffff6 	bls	e00029ac <create_device_untypeds+0x38>
e00029d0:	e282220d 	add	r2, r2, #-805306368	; 0xd0000000
e00029d4:	e283320d 	add	r3, r3, #-805306368	; 0xd0000000
e00029d8:	e88d0084 	stm	sp, {r2, r7}
e00029dc:	e3a02001 	mov	r2, #1
e00029e0:	e8960003 	ldm	r6, {r0, r1}
e00029e4:	ebffff96 	bl	e0002844 <create_untypeds_for_region>
e00029e8:	e3500000 	cmp	r0, #0
e00029ec:	1affffee 	bne	e00029ac <create_device_untypeds+0x38>
e00029f0:	e28dd018 	add	sp, sp, #24
e00029f4:	e8bd81f0 	pop	{r4, r5, r6, r7, r8, pc}
e00029f8:	e3730001 	cmn	r3, #1
e00029fc:	1283320d 	addne	r3, r3, #-805306368	; 0xd0000000
e0002a00:	1a000003 	bne	e0002a14 <create_device_untypeds+0xa0>
e0002a04:	e3a00001 	mov	r0, #1
e0002a08:	e28dd018 	add	sp, sp, #24
e0002a0c:	e8bd81f0 	pop	{r4, r5, r6, r7, r8, pc}
e0002a10:	e3a0320d 	mov	r3, #-805306368	; 0xd0000000
e0002a14:	e58d7004 	str	r7, [sp, #4]
e0002a18:	e3e01203 	mvn	r1, #805306368	; 0x30000000
e0002a1c:	e3a02001 	mov	r2, #1
e0002a20:	e58d1000 	str	r1, [sp]
e0002a24:	e8960003 	ldm	r6, {r0, r1}
e0002a28:	ebffff85 	bl	e0002844 <create_untypeds_for_region>
e0002a2c:	e2900000 	adds	r0, r0, #0
e0002a30:	13a00001 	movne	r0, #1
e0002a34:	e28dd018 	add	sp, sp, #24
e0002a38:	e8bd81f0 	pop	{r4, r5, r6, r7, r8, pc}

e0002a3c <create_kernel_untypeds>:
e0002a3c:	e92d43f0 	push	{r4, r5, r6, r7, r8, r9, lr}
e0002a40:	e24dd024 	sub	sp, sp, #36	; 0x24
e0002a44:	e28dc008 	add	ip, sp, #8
e0002a48:	e28d5010 	add	r5, sp, #16
e0002a4c:	e59d8040 	ldr	r8, [sp, #64]	; 0x40
e0002a50:	e88c000c 	stm	ip, {r2, r3}
e0002a54:	e3a02000 	mov	r2, #0
e0002a58:	e59dc00c 	ldr	ip, [sp, #12]
e0002a5c:	e8850003 	stm	r5, {r0, r1}
e0002a60:	e59d3008 	ldr	r3, [sp, #8]
e0002a64:	e58dc000 	str	ip, [sp]
e0002a68:	e8950003 	ldm	r5, {r0, r1}
e0002a6c:	e58d8004 	str	r8, [sp, #4]
e0002a70:	ebffff73 	bl	e0002844 <create_untypeds_for_region>
e0002a74:	e3500000 	cmp	r0, #0
e0002a78:	0a000018 	beq	e0002ae0 <create_kernel_untypeds+0xa4>
e0002a7c:	e30b4700 	movw	r4, #46848	; 0xb700
e0002a80:	e34e4001 	movt	r4, #57345	; 0xe001
e0002a84:	e2849020 	add	r9, r4, #32
e0002a88:	e28d7018 	add	r7, sp, #24
e0002a8c:	e3a06000 	mov	r6, #0
e0002a90:	e284305c 	add	r3, r4, #92	; 0x5c
e0002a94:	e58d8004 	str	r8, [sp, #4]
e0002a98:	e3a02000 	mov	r2, #0
e0002a9c:	e2844008 	add	r4, r4, #8
e0002aa0:	e8930003 	ldm	r3, {r0, r1}
e0002aa4:	e5846054 	str	r6, [r4, #84]	; 0x54
e0002aa8:	e5846058 	str	r6, [r4, #88]	; 0x58
e0002aac:	e8870003 	stm	r7, {r0, r1}
e0002ab0:	e59dc01c 	ldr	ip, [sp, #28]
e0002ab4:	e8950003 	ldm	r5, {r0, r1}
e0002ab8:	e59d3018 	ldr	r3, [sp, #24]
e0002abc:	e58dc000 	str	ip, [sp]
e0002ac0:	ebffff5f 	bl	e0002844 <create_untypeds_for_region>
e0002ac4:	e3500000 	cmp	r0, #0
e0002ac8:	0a000004 	beq	e0002ae0 <create_kernel_untypeds+0xa4>
e0002acc:	e1540009 	cmp	r4, r9
e0002ad0:	1affffee 	bne	e0002a90 <create_kernel_untypeds+0x54>
e0002ad4:	e3a00001 	mov	r0, #1
e0002ad8:	e28dd024 	add	sp, sp, #36	; 0x24
e0002adc:	e8bd83f0 	pop	{r4, r5, r6, r7, r8, r9, pc}
e0002ae0:	e3a00000 	mov	r0, #0
e0002ae4:	e28dd024 	add	sp, sp, #36	; 0x24
e0002ae8:	e8bd83f0 	pop	{r4, r5, r6, r7, r8, r9, pc}

e0002aec <bi_finalise>:
e0002aec:	e30b3700 	movw	r3, #46848	; 0xb700
e0002af0:	e34e3001 	movt	r3, #57345	; 0xe001
e0002af4:	e5931084 	ldr	r1, [r3, #132]	; 0x84
e0002af8:	e1c327dc 	ldrd	r2, [r3, #124]	; 0x7c
e0002afc:	e5821018 	str	r1, [r2, #24]
e0002b00:	e5823014 	str	r3, [r2, #20]
e0002b04:	e12fff1e 	bx	lr

e0002b08 <init_freemem>:
e0002b08:	e92d4ff0 	push	{r4, r5, r6, r7, r8, r9, sl, fp, lr}
e0002b0c:	e30b8700 	movw	r8, #46848	; 0xb700
e0002b10:	e2504000 	subs	r4, r0, #0
e0002b14:	e34e8001 	movt	r8, #57345	; 0xe001
e0002b18:	e3a05000 	mov	r5, #0
e0002b1c:	e24dd02c 	sub	sp, sp, #44	; 0x2c
e0002b20:	e1a0a002 	mov	sl, r2
e0002b24:	e1a09003 	mov	r9, r3
e0002b28:	e588505c 	str	r5, [r8, #92]	; 0x5c
e0002b2c:	e5885060 	str	r5, [r8, #96]	; 0x60
e0002b30:	e5885064 	str	r5, [r8, #100]	; 0x64
e0002b34:	e5885068 	str	r5, [r8, #104]	; 0x68
e0002b38:	e588506c 	str	r5, [r8, #108]	; 0x6c
e0002b3c:	e5885070 	str	r5, [r8, #112]	; 0x70
e0002b40:	e5885074 	str	r5, [r8, #116]	; 0x74
e0002b44:	e5885078 	str	r5, [r8, #120]	; 0x78
e0002b48:	0a0000d0 	beq	e0002e90 <init_freemem+0x388>
e0002b4c:	e3047488 	movw	r7, #17544	; 0x4488
e0002b50:	e34e7000 	movt	r7, #57344	; 0xe000
e0002b54:	e1a0e005 	mov	lr, r5
e0002b58:	e1a0c005 	mov	ip, r5
e0002b5c:	e342eff0 	movt	lr, #12272	; 0x2ff0
e0002b60:	e34fcff0 	movt	ip, #65520	; 0xfff0
e0002b64:	e1a00007 	mov	r0, r7
e0002b68:	e1a02001 	mov	r2, r1
e0002b6c:	e5923004 	ldr	r3, [r2, #4]
e0002b70:	e2800008 	add	r0, r0, #8
e0002b74:	e7916185 	ldr	r6, [r1, r5, lsl #3]
e0002b78:	e2822008 	add	r2, r2, #8
e0002b7c:	e153000e 	cmp	r3, lr
e0002b80:	9283320d 	addls	r3, r3, #-805306368	; 0xd0000000
e0002b84:	e286620d 	add	r6, r6, #-805306368	; 0xd0000000
e0002b88:	81a0300c 	movhi	r3, ip
e0002b8c:	e7876185 	str	r6, [r7, r5, lsl #3]
e0002b90:	e5003004 	str	r3, [r0, #-4]
e0002b94:	e7973185 	ldr	r3, [r7, r5, lsl #3]
e0002b98:	e2836203 	add	r6, r3, #805306368	; 0x30000000
e0002b9c:	e156000e 	cmp	r6, lr
e0002ba0:	81a0300c 	movhi	r3, ip
e0002ba4:	e7873185 	str	r3, [r7, r5, lsl #3]
e0002ba8:	e2855001 	add	r5, r5, #1
e0002bac:	e1540005 	cmp	r4, r5
e0002bb0:	1affffed 	bne	e0002b6c <init_freemem+0x64>
e0002bb4:	e3a04000 	mov	r4, #0
e0002bb8:	e1a06004 	mov	r6, r4
e0002bbc:	e1560005 	cmp	r6, r5
e0002bc0:	3154000a 	cmpcc	r4, sl
e0002bc4:	2a000021 	bcs	e0002c50 <init_freemem+0x148>
e0002bc8:	e1a03184 	lsl	r3, r4, #3
e0002bcc:	e799c184 	ldr	ip, [r9, r4, lsl #3]
e0002bd0:	e089b003 	add	fp, r9, r3
e0002bd4:	e59b1004 	ldr	r1, [fp, #4]
e0002bd8:	e15c0001 	cmp	ip, r1
e0002bdc:	02844001 	addeq	r4, r4, #1
e0002be0:	0afffff5 	beq	e0002bbc <init_freemem+0xb4>
e0002be4:	e0872186 	add	r2, r7, r6, lsl #3
e0002be8:	e7970186 	ldr	r0, [r7, r6, lsl #3]
e0002bec:	e592e004 	ldr	lr, [r2, #4]
e0002bf0:	e150000e 	cmp	r0, lr
e0002bf4:	2a00007c 	bcs	e0002dec <init_freemem+0x2e4>
e0002bf8:	e1510000 	cmp	r1, r0
e0002bfc:	9a000090 	bls	e0002e44 <init_freemem+0x33c>
e0002c00:	e15c000e 	cmp	ip, lr
e0002c04:	2a000097 	bcs	e0002e68 <init_freemem+0x360>
e0002c08:	e15c0000 	cmp	ip, r0
e0002c0c:	8a000068 	bhi	e0002db4 <init_freemem+0x2ac>
e0002c10:	e151000e 	cmp	r1, lr
e0002c14:	e2844001 	add	r4, r4, #1
e0002c18:	21a0100e 	movcs	r1, lr
e0002c1c:	e7871186 	str	r1, [r7, r6, lsl #3]
e0002c20:	e7993003 	ldr	r3, [r9, r3]
e0002c24:	e59b2004 	ldr	r2, [fp, #4]
e0002c28:	e2833203 	add	r3, r3, #805306368	; 0x30000000
e0002c2c:	e58d3010 	str	r3, [sp, #16]
e0002c30:	e28d3010 	add	r3, sp, #16
e0002c34:	e2822203 	add	r2, r2, #805306368	; 0x30000000
e0002c38:	e58d2014 	str	r2, [sp, #20]
e0002c3c:	e8930003 	ldm	r3, {r0, r1}
e0002c40:	ebfff7e4 	bl	e0000bd8 <reserve_region>
e0002c44:	e1560005 	cmp	r6, r5
e0002c48:	3154000a 	cmpcc	r4, sl
e0002c4c:	3affffdd 	bcc	e0002bc8 <init_freemem+0xc0>
e0002c50:	e154000a 	cmp	r4, sl
e0002c54:	2a00009c 	bcs	e0002ecc <init_freemem+0x3c4>
e0002c58:	e0895184 	add	r5, r9, r4, lsl #3
e0002c5c:	e28d6020 	add	r6, sp, #32
e0002c60:	ea000003 	b	e0002c74 <init_freemem+0x16c>
e0002c64:	e2844001 	add	r4, r4, #1
e0002c68:	e2855008 	add	r5, r5, #8
e0002c6c:	e15a0004 	cmp	sl, r4
e0002c70:	9a00000c 	bls	e0002ca8 <init_freemem+0x1a0>
e0002c74:	e7992184 	ldr	r2, [r9, r4, lsl #3]
e0002c78:	e5953004 	ldr	r3, [r5, #4]
e0002c7c:	e1520003 	cmp	r2, r3
e0002c80:	2afffff7 	bcs	e0002c64 <init_freemem+0x15c>
e0002c84:	e2822203 	add	r2, r2, #805306368	; 0x30000000
e0002c88:	e2833203 	add	r3, r3, #805306368	; 0x30000000
e0002c8c:	e2844001 	add	r4, r4, #1
e0002c90:	e1cd22f0 	strd	r2, [sp, #32]
e0002c94:	e8960003 	ldm	r6, {r0, r1}
e0002c98:	e2855008 	add	r5, r5, #8
e0002c9c:	ebfff7cd 	bl	e0000bd8 <reserve_region>
e0002ca0:	e15a0004 	cmp	sl, r4
e0002ca4:	8afffff2 	bhi	e0002c74 <init_freemem+0x16c>
e0002ca8:	e1c827d4 	ldrd	r2, [r8, #116]	; 0x74
e0002cac:	e1520003 	cmp	r2, r3
e0002cb0:	1a00009a 	bne	e0002f20 <init_freemem+0x418>
e0002cb4:	e5982070 	ldr	r2, [r8, #112]	; 0x70
e0002cb8:	e598306c 	ldr	r3, [r8, #108]	; 0x6c
e0002cbc:	e1520003 	cmp	r2, r3
e0002cc0:	1a00006c 	bne	e0002e78 <init_freemem+0x370>
e0002cc4:	e5982068 	ldr	r2, [r8, #104]	; 0x68
e0002cc8:	e5983064 	ldr	r3, [r8, #100]	; 0x64
e0002ccc:	e1520003 	cmp	r2, r3
e0002cd0:	1a00006b 	bne	e0002e84 <init_freemem+0x37c>
e0002cd4:	e5982060 	ldr	r2, [r8, #96]	; 0x60
e0002cd8:	e598305c 	ldr	r3, [r8, #92]	; 0x5c
e0002cdc:	e1520003 	cmp	r2, r3
e0002ce0:	13a02001 	movne	r2, #1
e0002ce4:	03a02000 	moveq	r2, #0
e0002ce8:	03e06000 	mvneq	r6, #0
e0002cec:	13a06000 	movne	r6, #0
e0002cf0:	e59d3058 	ldr	r3, [sp, #88]	; 0x58
e0002cf4:	e59d5050 	ldr	r5, [sp, #80]	; 0x50
e0002cf8:	e3530000 	cmp	r3, #0
e0002cfc:	e59d3054 	ldr	r3, [sp, #84]	; 0x54
e0002d00:	e59dc058 	ldr	ip, [sp, #88]	; 0x58
e0002d04:	e2433001 	sub	r3, r3, #1
e0002d08:	e1a0ea25 	lsr	lr, r5, #20
e0002d0c:	159d1058 	ldrne	r1, [sp, #88]	; 0x58
e0002d10:	13a00001 	movne	r0, #1
e0002d14:	e1a03a23 	lsr	r3, r3, #20
e0002d18:	e1a0ea0e 	lsl	lr, lr, #20
e0002d1c:	11a00110 	lslne	r0, r0, r1
e0002d20:	e286100b 	add	r1, r6, #11
e0002d24:	e1a03a03 	lsl	r3, r3, #20
e0002d28:	059d0058 	ldreq	r0, [sp, #88]	; 0x58
e0002d2c:	e2835601 	add	r5, r3, #1048576	; 0x100000
e0002d30:	e0881181 	add	r1, r8, r1, lsl #3
e0002d34:	e045500e 	sub	r5, r5, lr
e0002d38:	e35c0010 	cmp	ip, #16
e0002d3c:	e9910018 	ldmib	r1, {r3, r4}
e0002d40:	e1a05525 	lsr	r5, r5, #10
e0002d44:	33a0c010 	movcc	ip, #16
e0002d48:	e2855a17 	add	r5, r5, #94208	; 0x17000
e0002d4c:	e2855c02 	add	r5, r5, #512	; 0x200
e0002d50:	e0855000 	add	r5, r5, r0
e0002d54:	e0444005 	sub	r4, r4, r5
e0002d58:	e1a04c34 	lsr	r4, r4, ip
e0002d5c:	e1a04c14 	lsl	r4, r4, ip
e0002d60:	e1540003 	cmp	r4, r3
e0002d64:	30883186 	addcc	r3, r8, r6, lsl #3
e0002d68:	2a000021 	bcs	e0002df4 <init_freemem+0x2ec>
e0002d6c:	e3560003 	cmp	r6, #3
e0002d70:	e2467001 	sub	r7, r6, #1
e0002d74:	9283105c 	addls	r1, r3, #92	; 0x5c
e0002d78:	90882182 	addls	r2, r8, r2, lsl #3
e0002d7c:	9282205c 	addls	r2, r2, #92	; 0x5c
e0002d80:	e2433008 	sub	r3, r3, #8
e0002d84:	98910003 	ldmls	r1, {r0, r1}
e0002d88:	98820003 	stmls	r2, {r0, r1}
e0002d8c:	e1a02006 	mov	r2, r6
e0002d90:	e5934060 	ldr	r4, [r3, #96]	; 0x60
e0002d94:	e0444005 	sub	r4, r4, r5
e0002d98:	e593105c 	ldr	r1, [r3, #92]	; 0x5c
e0002d9c:	e1a04c34 	lsr	r4, r4, ip
e0002da0:	e1a04c14 	lsl	r4, r4, ip
e0002da4:	e1510004 	cmp	r1, r4
e0002da8:	9a000013 	bls	e0002dfc <init_freemem+0x2f4>
e0002dac:	e1a06007 	mov	r6, r7
e0002db0:	eaffffed 	b	e0002d6c <init_freemem+0x264>
e0002db4:	e8920003 	ldm	r2, {r0, r1}
e0002db8:	e58d3004 	str	r3, [sp, #4]
e0002dbc:	e28d3020 	add	r3, sp, #32
e0002dc0:	e58d2000 	str	r2, [sp]
e0002dc4:	e8830003 	stm	r3, {r0, r1}
e0002dc8:	e58dc024 	str	ip, [sp, #36]	; 0x24
e0002dcc:	e8930003 	ldm	r3, {r0, r1}
e0002dd0:	ebfff855 	bl	e0000f2c <insert_region>
e0002dd4:	e59d2000 	ldr	r2, [sp]
e0002dd8:	e59d3004 	ldr	r3, [sp, #4]
e0002ddc:	e5921004 	ldr	r1, [r2, #4]
e0002de0:	e59b2004 	ldr	r2, [fp, #4]
e0002de4:	e1510002 	cmp	r1, r2
e0002de8:	8a00002b 	bhi	e0002e9c <init_freemem+0x394>
e0002dec:	e2866001 	add	r6, r6, #1
e0002df0:	eaffff71 	b	e0002bbc <init_freemem+0xb4>
e0002df4:	e1a07006 	mov	r7, r6
e0002df8:	e1a06002 	mov	r6, r2
e0002dfc:	e28d204c 	add	r2, sp, #76	; 0x4c
e0002e00:	e59d3058 	ldr	r3, [sp, #88]	; 0x58
e0002e04:	e1a00004 	mov	r0, r4
e0002e08:	e9920006 	ldmib	r2, {r1, r2}
e0002e0c:	ebfff875 	bl	e0000fe8 <create_rootserver_objects>
e0002e10:	e3570003 	cmp	r7, #3
e0002e14:	e287700b 	add	r7, r7, #11
e0002e18:	9286600b 	addls	r6, r6, #11
e0002e1c:	90855004 	addls	r5, r5, r4
e0002e20:	90883187 	addls	r3, r8, r7, lsl #3
e0002e24:	90886186 	addls	r6, r8, r6, lsl #3
e0002e28:	e0887187 	add	r7, r8, r7, lsl #3
e0002e2c:	95865004 	strls	r5, [r6, #4]
e0002e30:	95933008 	ldrls	r3, [r3, #8]
e0002e34:	95863008 	strls	r3, [r6, #8]
e0002e38:	e5874008 	str	r4, [r7, #8]
e0002e3c:	e28dd02c 	add	sp, sp, #44	; 0x2c
e0002e40:	e8bd8ff0 	pop	{r4, r5, r6, r7, r8, r9, sl, fp, pc}
e0002e44:	e28d3008 	add	r3, sp, #8
e0002e48:	e28cc203 	add	ip, ip, #805306368	; 0x30000000
e0002e4c:	e2811203 	add	r1, r1, #805306368	; 0x30000000
e0002e50:	e58dc008 	str	ip, [sp, #8]
e0002e54:	e58d100c 	str	r1, [sp, #12]
e0002e58:	e2844001 	add	r4, r4, #1
e0002e5c:	e8930003 	ldm	r3, {r0, r1}
e0002e60:	ebfff75c 	bl	e0000bd8 <reserve_region>
e0002e64:	eaffff54 	b	e0002bbc <init_freemem+0xb4>
e0002e68:	e8920003 	ldm	r2, {r0, r1}
e0002e6c:	e2866001 	add	r6, r6, #1
e0002e70:	ebfff82d 	bl	e0000f2c <insert_region>
e0002e74:	eaffff50 	b	e0002bbc <init_freemem+0xb4>
e0002e78:	e3a02003 	mov	r2, #3
e0002e7c:	e3a06002 	mov	r6, #2
e0002e80:	eaffff9a 	b	e0002cf0 <init_freemem+0x1e8>
e0002e84:	e3a02002 	mov	r2, #2
e0002e88:	e3a06001 	mov	r6, #1
e0002e8c:	eaffff97 	b	e0002cf0 <init_freemem+0x1e8>
e0002e90:	e3520000 	cmp	r2, #0
e0002e94:	1affff6f 	bne	e0002c58 <init_freemem+0x150>
e0002e98:	eaffff85 	b	e0002cb4 <init_freemem+0x1ac>
e0002e9c:	e7872186 	str	r2, [r7, r6, lsl #3]
e0002ea0:	e2844001 	add	r4, r4, #1
e0002ea4:	e7993003 	ldr	r3, [r9, r3]
e0002ea8:	e59b2004 	ldr	r2, [fp, #4]
e0002eac:	e2833203 	add	r3, r3, #805306368	; 0x30000000
e0002eb0:	e58d3018 	str	r3, [sp, #24]
e0002eb4:	e28d3018 	add	r3, sp, #24
e0002eb8:	e2822203 	add	r2, r2, #805306368	; 0x30000000
e0002ebc:	e58d201c 	str	r2, [sp, #28]
e0002ec0:	e8930003 	ldm	r3, {r0, r1}
e0002ec4:	ebfff743 	bl	e0000bd8 <reserve_region>
e0002ec8:	eaffff3b 	b	e0002bbc <init_freemem+0xb4>
e0002ecc:	e1560005 	cmp	r6, r5
e0002ed0:	2affff74 	bcs	e0002ca8 <init_freemem+0x1a0>
e0002ed4:	e1a03186 	lsl	r3, r6, #3
e0002ed8:	e0874003 	add	r4, r7, r3
e0002edc:	e7971003 	ldr	r1, [r7, r3]
e0002ee0:	e5942004 	ldr	r2, [r4, #4]
e0002ee4:	e1510002 	cmp	r1, r2
e0002ee8:	3a000008 	bcc	e0002f10 <init_freemem+0x408>
e0002eec:	e2866001 	add	r6, r6, #1
e0002ef0:	e2844008 	add	r4, r4, #8
e0002ef4:	e1560005 	cmp	r6, r5
e0002ef8:	2affff6a 	bcs	e0002ca8 <init_freemem+0x1a0>
e0002efc:	e1a03186 	lsl	r3, r6, #3
e0002f00:	e5942004 	ldr	r2, [r4, #4]
e0002f04:	e7971003 	ldr	r1, [r7, r3]
e0002f08:	e1510002 	cmp	r1, r2
e0002f0c:	2afffff6 	bcs	e0002eec <init_freemem+0x3e4>
e0002f10:	e0873003 	add	r3, r7, r3
e0002f14:	e8930003 	ldm	r3, {r0, r1}
e0002f18:	ebfff803 	bl	e0000f2c <insert_region>
e0002f1c:	eafffff2 	b	e0002eec <init_freemem+0x3e4>
e0002f20:	eb0036c5 	bl	e0010a3c <halt>

e0002f24 <configureIdleThread>:
e0002f24:	e303264c 	movw	r2, #13900	; 0x364c
e0002f28:	e34e2003 	movt	r2, #57347	; 0xe003
e0002f2c:	e52de004 	push	{lr}		; (str lr, [sp, #-4]!)
e0002f30:	e300c15f 	movw	ip, #351	; 0x15f
e0002f34:	e592e000 	ldr	lr, [r2]
e0002f38:	e30017a0 	movw	r1, #1952	; 0x7a0
e0002f3c:	e5902050 	ldr	r2, [r0, #80]	; 0x50
e0002f40:	e34e1001 	movt	r1, #57345	; 0xe001
e0002f44:	e150000e 	cmp	r0, lr
e0002f48:	e580c040 	str	ip, [r0, #64]	; 0x40
e0002f4c:	e3c2200f 	bic	r2, r2, #15
e0002f50:	e580103c 	str	r1, [r0, #60]	; 0x3c
e0002f54:	e3822007 	orr	r2, r2, #7
e0002f58:	e5802050 	str	r2, [r0, #80]	; 0x50
e0002f5c:	149df004 	popne	{pc}		; (ldrne pc, [sp], #4)
e0002f60:	e49de004 	pop	{lr}		; (ldr lr, [sp], #4)
e0002f64:	ea00406a 	b	e0013114 <setThreadState.part.166>

e0002f68 <create_idle_thread>:
e0002f68:	e59f0058 	ldr	r0, [pc, #88]	; e0002fc8 <create_idle_thread+0x60>
e0002f6c:	e303364c 	movw	r3, #13900	; 0x364c
e0002f70:	e34e3003 	movt	r3, #57347	; 0xe003
e0002f74:	e3091010 	movw	r1, #36880	; 0x9010
e0002f78:	e92d4010 	push	{r4, lr}
e0002f7c:	e34e1002 	movt	r1, #57346	; 0xe002
e0002f80:	e593e000 	ldr	lr, [r3]
e0002f84:	e300c15f 	movw	ip, #351	; 0x15f
e0002f88:	e5903050 	ldr	r3, [r0, #80]	; 0x50
e0002f8c:	e30027a0 	movw	r2, #1952	; 0x7a0
e0002f90:	e150000e 	cmp	r0, lr
e0002f94:	e34e2001 	movt	r2, #57345	; 0xe001
e0002f98:	e3c3300f 	bic	r3, r3, #15
e0002f9c:	e5810000 	str	r0, [r1]
e0002fa0:	e3833007 	orr	r3, r3, #7
e0002fa4:	e580c040 	str	ip, [r0, #64]	; 0x40
e0002fa8:	e580203c 	str	r2, [r0, #60]	; 0x3c
e0002fac:	e5803050 	str	r3, [r0, #80]	; 0x50
e0002fb0:	0a000001 	beq	e0002fbc <create_idle_thread+0x54>
e0002fb4:	e3a00001 	mov	r0, #1
e0002fb8:	e8bd8010 	pop	{r4, pc}
e0002fbc:	eb004054 	bl	e0013114 <setThreadState.part.166>
e0002fc0:	e3a00001 	mov	r0, #1
e0002fc4:	e8bd8010 	pop	{r4, pc}
e0002fc8:	e001b600 	.word	0xe001b600

e0002fcc <create_initial_thread>:
e0002fcc:	e92d4ff0 	push	{r4, r5, r6, r7, r8, r9, sl, fp, lr}
e0002fd0:	e30b7700 	movw	r7, #46848	; 0xb700
e0002fd4:	e34e7001 	movt	r7, #57345	; 0xe001
e0002fd8:	e24dd02c 	sub	sp, sp, #44	; 0x2c
e0002fdc:	e28da010 	add	sl, sp, #16
e0002fe0:	e28d9008 	add	r9, sp, #8
e0002fe4:	e597b0a8 	ldr	fp, [r7, #168]	; 0xa8
e0002fe8:	e88a0003 	stm	sl, {r0, r1}
e0002fec:	e3a01e15 	mov	r1, #336	; 0x150
e0002ff0:	e28b4c01 	add	r4, fp, #256	; 0x100
e0002ff4:	e59d5010 	ldr	r5, [sp, #16]
e0002ff8:	e5841040 	str	r1, [r4, #64]	; 0x40
e0002ffc:	e3a00005 	mov	r0, #5
e0003000:	e205800e 	and	r8, r5, #14
e0003004:	e59d1014 	ldr	r1, [sp, #20]
e0003008:	e358000e 	cmp	r8, #14
e000300c:	e58d4000 	str	r4, [sp]
e0003010:	e584007c 	str	r0, [r4, #124]	; 0x7c
e0003014:	e58d1004 	str	r1, [sp, #4]
e0003018:	e889000c 	stm	r9, {r2, r3}
e000301c:	0a0000c3 	beq	e0003330 <create_initial_thread+0x364>
e0003020:	e205300f 	and	r3, r5, #15
e0003024:	e2432002 	sub	r2, r3, #2
e0003028:	e352000c 	cmp	r2, #12
e000302c:	979ff102 	ldrls	pc, [pc, r2, lsl #2]
e0003030:	ea000254 	b	e0003988 <create_initial_thread+0x9bc>
e0003034:	e0003068 	.word	0xe0003068
e0003038:	e0003988 	.word	0xe0003988
e000303c:	e0003884 	.word	0xe0003884
e0003040:	e0003988 	.word	0xe0003988
e0003044:	e0003068 	.word	0xe0003068
e0003048:	e0003988 	.word	0xe0003988
e000304c:	e000387c 	.word	0xe000387c
e0003050:	e0003988 	.word	0xe0003988
e0003054:	e00038a4 	.word	0xe00038a4
e0003058:	e0003988 	.word	0xe0003988
e000305c:	e0003894 	.word	0xe0003894
e0003060:	e0003988 	.word	0xe0003988
e0003064:	e000387c 	.word	0xe000387c
e0003068:	e3c5100f 	bic	r1, r5, #15
e000306c:	e28110a0 	add	r1, r1, #160	; 0xa0
e0003070:	e28d305c 	add	r3, sp, #92	; 0x5c
e0003074:	e28d001c 	add	r0, sp, #28
e0003078:	e893000c 	ldm	r3, {r2, r3}
e000307c:	eb0046dc 	bl	e0014bf4 <deriveCap>
e0003080:	e59d301c 	ldr	r3, [sp, #28]
e0003084:	e3530000 	cmp	r3, #0
e0003088:	1a0002ba 	bne	e0003b78 <create_initial_thread+0xbac>
e000308c:	e358000e 	cmp	r8, #14
e0003090:	0a00012e 	beq	e0003550 <create_initial_thread+0x584>
e0003094:	e205600f 	and	r6, r5, #15
e0003098:	e2463002 	sub	r3, r6, #2
e000309c:	e1a02006 	mov	r2, r6
e00030a0:	e353000c 	cmp	r3, #12
e00030a4:	979ff103 	ldrls	pc, [pc, r3, lsl #2]
e00030a8:	ea000276 	b	e0003a88 <create_initial_thread+0xabc>
e00030ac:	e00030e0 	.word	0xe00030e0
e00030b0:	e0003a88 	.word	0xe0003a88
e00030b4:	e00038c8 	.word	0xe00038c8
e00030b8:	e0003a88 	.word	0xe0003a88
e00030bc:	e00030e0 	.word	0xe00030e0
e00030c0:	e0003a88 	.word	0xe0003a88
e00030c4:	e0003974 	.word	0xe0003974
e00030c8:	e0003a88 	.word	0xe0003a88
e00030cc:	e0003950 	.word	0xe0003950
e00030d0:	e0003a88 	.word	0xe0003a88
e00030d4:	e00038b8 	.word	0xe00038b8
e00030d8:	e0003a88 	.word	0xe0003a88
e00030dc:	e0003974 	.word	0xe0003974
e00030e0:	e3c5200f 	bic	r2, r5, #15
e00030e4:	e2822020 	add	r2, r2, #32
e00030e8:	e59730a8 	ldr	r3, [r7, #168]	; 0xa8
e00030ec:	e89a0003 	ldm	sl, {r0, r1}
e00030f0:	eb004084 	bl	e0013308 <cteInsert>
e00030f4:	e358000e 	cmp	r8, #14
e00030f8:	06ef6075 	uxtbeq	r6, r5
e00030fc:	0a0000d1 	beq	e0003448 <create_initial_thread+0x47c>
e0003100:	e205600f 	and	r6, r5, #15
e0003104:	e2463002 	sub	r3, r6, #2
e0003108:	e1a02006 	mov	r2, r6
e000310c:	e353000c 	cmp	r3, #12
e0003110:	979ff103 	ldrls	pc, [pc, r3, lsl #2]
e0003114:	ea00024e 	b	e0003a54 <create_initial_thread+0xa88>
e0003118:	e000314c 	.word	0xe000314c
e000311c:	e0003a54 	.word	0xe0003a54
e0003120:	e0003940 	.word	0xe0003940
e0003124:	e0003a54 	.word	0xe0003a54
e0003128:	e000314c 	.word	0xe000314c
e000312c:	e0003a54 	.word	0xe0003a54
e0003130:	e000395c 	.word	0xe000395c
e0003134:	e0003a54 	.word	0xe0003a54
e0003138:	e0003924 	.word	0xe0003924
e000313c:	e0003a54 	.word	0xe0003a54
e0003140:	e0003930 	.word	0xe0003930
e0003144:	e0003a54 	.word	0xe0003a54
e0003148:	e000395c 	.word	0xe000395c
e000314c:	e3c5200f 	bic	r2, r5, #15
e0003150:	e2822030 	add	r2, r2, #48	; 0x30
e0003154:	e59730a8 	ldr	r3, [r7, #168]	; 0xa8
e0003158:	e8990003 	ldm	r9, {r0, r1}
e000315c:	e2833010 	add	r3, r3, #16
e0003160:	eb004068 	bl	e0013308 <cteInsert>
e0003164:	e358000e 	cmp	r8, #14
e0003168:	06ef6075 	uxtbeq	r6, r5
e000316c:	0a000181 	beq	e0003778 <create_initial_thread+0x7ac>
e0003170:	e205600f 	and	r6, r5, #15
e0003174:	e2463002 	sub	r3, r6, #2
e0003178:	e353000c 	cmp	r3, #12
e000317c:	979ff103 	ldrls	pc, [pc, r3, lsl #2]
e0003180:	ea000226 	b	e0003a20 <create_initial_thread+0xa54>
e0003184:	e00031b8 	.word	0xe00031b8
e0003188:	e0003a20 	.word	0xe0003a20
e000318c:	e0003914 	.word	0xe0003914
e0003190:	e0003a20 	.word	0xe0003a20
e0003194:	e00031b8 	.word	0xe00031b8
e0003198:	e0003a20 	.word	0xe0003a20
e000319c:	e00038b0 	.word	0xe00038b0
e00031a0:	e0003a20 	.word	0xe0003a20
e00031a4:	e00038e8 	.word	0xe00038e8
e00031a8:	e0003a20 	.word	0xe0003a20
e00031ac:	e00038d8 	.word	0xe00038d8
e00031b0:	e0003a20 	.word	0xe0003a20
e00031b4:	e00038b0 	.word	0xe00038b0
e00031b8:	e3c5200f 	bic	r2, r5, #15
e00031bc:	e28220a0 	add	r2, r2, #160	; 0xa0
e00031c0:	e59730a8 	ldr	r3, [r7, #168]	; 0xa8
e00031c4:	e28d1028 	add	r1, sp, #40	; 0x28
e00031c8:	e3037650 	movw	r7, #13904	; 0x3650
e00031cc:	e34e7003 	movt	r7, #57347	; 0xe003
e00031d0:	e9110003 	ldmdb	r1, {r0, r1}
e00031d4:	e2833040 	add	r3, r3, #64	; 0x40
e00031d8:	eb00404a 	bl	e0013308 <cteInsert>
e00031dc:	e59d3058 	ldr	r3, [sp, #88]	; 0x58
e00031e0:	e3c40f7f 	bic	r0, r4, #508	; 0x1fc
e00031e4:	e5972000 	ldr	r2, [r7]
e00031e8:	e3c00003 	bic	r0, r0, #3
e00031ec:	e59dc054 	ldr	ip, [sp, #84]	; 0x54
e00031f0:	e5843084 	str	r3, [r4, #132]	; 0x84
e00031f4:	e30b63c8 	movw	r6, #46024	; 0xb3c8
e00031f8:	e5903020 	ldr	r3, [r0, #32]
e00031fc:	e34e6001 	movt	r6, #57345	; 0xe001
e0003200:	e1a02182 	lsl	r2, r2, #3
e0003204:	e58bc100 	str	ip, [fp, #256]	; 0x100
e0003208:	e0861002 	add	r1, r6, r2
e000320c:	e203c00e 	and	ip, r3, #14
e0003210:	e35c000e 	cmp	ip, #14
e0003214:	e59dc050 	ldr	ip, [sp, #80]	; 0x50
e0003218:	e5911070 	ldr	r1, [r1, #112]	; 0x70
e000321c:	1203300f 	andne	r3, r3, #15
e0003220:	06ef3073 	uxtbeq	r3, r3
e0003224:	e280e020 	add	lr, r0, #32
e0003228:	e3530000 	cmp	r3, #0
e000322c:	e584c03c 	str	ip, [r4, #60]	; 0x3c
e0003230:	e5841070 	str	r1, [r4, #112]	; 0x70
e0003234:	e3a0c0ff 	mov	ip, #255	; 0xff
e0003238:	e584c078 	str	ip, [r4, #120]	; 0x78
e000323c:	e584c074 	str	ip, [r4, #116]	; 0x74
e0003240:	1a000006 	bne	e0003260 <create_initial_thread+0x294>
e0003244:	e3c4c03f 	bic	ip, r4, #63	; 0x3f
e0003248:	e3a09003 	mov	r9, #3
e000324c:	e38cc038 	orr	ip, ip, #56	; 0x38
e0003250:	e580c020 	str	ip, [r0, #32]
e0003254:	e58e3004 	str	r3, [lr, #4]
e0003258:	e58e3008 	str	r3, [lr, #8]
e000325c:	e58e900c 	str	r9, [lr, #12]
e0003260:	e303064c 	movw	r0, #13900	; 0x364c
e0003264:	e34e0003 	movt	r0, #57347	; 0xe003
e0003268:	e5943050 	ldr	r3, [r4, #80]	; 0x50
e000326c:	e5900000 	ldr	r0, [r0]
e0003270:	e3c3300f 	bic	r3, r3, #15
e0003274:	e1540000 	cmp	r4, r0
e0003278:	e3833001 	orr	r3, r3, #1
e000327c:	e5843050 	str	r3, [r4, #80]	; 0x50
e0003280:	0a000241 	beq	e0003b8c <create_initial_thread+0xbc0>
e0003284:	e0866002 	add	r6, r6, r2
e0003288:	e3033000 	movw	r3, #12288	; 0x3000
e000328c:	e30124cc 	movw	r2, #5324	; 0x14cc
e0003290:	e34e3003 	movt	r3, #57347	; 0xe003
e0003294:	e5960074 	ldr	r0, [r6, #116]	; 0x74
e0003298:	e34e2003 	movt	r2, #57347	; 0xe003
e000329c:	e358000e 	cmp	r8, #14
e00032a0:	e3c4400f 	bic	r4, r4, #15
e00032a4:	e384400c 	orr	r4, r4, #12
e00032a8:	e5831000 	str	r1, [r3]
e00032ac:	e5820000 	str	r0, [r2]
e00032b0:	0a0000e9 	beq	e000365c <create_initial_thread+0x690>
e00032b4:	e205300f 	and	r3, r5, #15
e00032b8:	e2432002 	sub	r2, r3, #2
e00032bc:	e352000c 	cmp	r2, #12
e00032c0:	979ff102 	ldrls	pc, [pc, r2, lsl #2]
e00032c4:	ea0001c8 	b	e00039ec <create_initial_thread+0xa20>
e00032c8:	e00032fc 	.word	0xe00032fc
e00032cc:	e00039ec 	.word	0xe00039ec
e00032d0:	e0003908 	.word	0xe0003908
e00032d4:	e00039ec 	.word	0xe00039ec
e00032d8:	e00032fc 	.word	0xe00032fc
e00032dc:	e00039ec 	.word	0xe00039ec
e00032e0:	e0003324 	.word	0xe0003324
e00032e4:	e00039ec 	.word	0xe00039ec
e00032e8:	e00038f4 	.word	0xe00038f4
e00032ec:	e00039ec 	.word	0xe00039ec
e00032f0:	e00038fc 	.word	0xe00038fc
e00032f4:	e00039ec 	.word	0xe00039ec
e00032f8:	e0003324 	.word	0xe0003324
e00032fc:	e3c5500f 	bic	r5, r5, #15
e0003300:	e3a03000 	mov	r3, #0
e0003304:	e3a02003 	mov	r2, #3
e0003308:	e59d0000 	ldr	r0, [sp]
e000330c:	e5854010 	str	r4, [r5, #16]
e0003310:	e5853014 	str	r3, [r5, #20]
e0003314:	e5853018 	str	r3, [r5, #24]
e0003318:	e585201c 	str	r2, [r5, #28]
e000331c:	e28dd02c 	add	sp, sp, #44	; 0x2c
e0003320:	e8bd8ff0 	pop	{r4, r5, r6, r7, r8, r9, sl, fp, pc}
e0003324:	e3a03000 	mov	r3, #0
e0003328:	e5833010 	str	r3, [r3, #16]
e000332c:	e7f000f0 	udf	#0
e0003330:	e6ef3075 	uxtb	r3, r5
e0003334:	e2432002 	sub	r2, r3, #2
e0003338:	e352003c 	cmp	r2, #60	; 0x3c
e000333c:	979ff102 	ldrls	pc, [pc, r2, lsl #2]
e0003340:	ea000190 	b	e0003988 <create_initial_thread+0x9bc>
e0003344:	e0003068 	.word	0xe0003068
e0003348:	e0003988 	.word	0xe0003988
e000334c:	e0003884 	.word	0xe0003884
e0003350:	e0003988 	.word	0xe0003988
e0003354:	e0003068 	.word	0xe0003068
e0003358:	e0003988 	.word	0xe0003988
e000335c:	e000387c 	.word	0xe000387c
e0003360:	e0003988 	.word	0xe0003988
e0003364:	e00038a4 	.word	0xe00038a4
e0003368:	e0003988 	.word	0xe0003988
e000336c:	e0003894 	.word	0xe0003894
e0003370:	e0003988 	.word	0xe0003988
e0003374:	e000387c 	.word	0xe000387c
e0003378:	e0003988 	.word	0xe0003988
e000337c:	e0003988 	.word	0xe0003988
e0003380:	e0003988 	.word	0xe0003988
e0003384:	e0003988 	.word	0xe0003988
e0003388:	e0003988 	.word	0xe0003988
e000338c:	e0003988 	.word	0xe0003988
e0003390:	e0003988 	.word	0xe0003988
e0003394:	e0003988 	.word	0xe0003988
e0003398:	e0003988 	.word	0xe0003988
e000339c:	e0003988 	.word	0xe0003988
e00033a0:	e0003988 	.word	0xe0003988
e00033a4:	e0003988 	.word	0xe0003988
e00033a8:	e0003988 	.word	0xe0003988
e00033ac:	e0003988 	.word	0xe0003988
e00033b0:	e0003988 	.word	0xe0003988
e00033b4:	e000387c 	.word	0xe000387c
e00033b8:	e0003988 	.word	0xe0003988
e00033bc:	e0003988 	.word	0xe0003988
e00033c0:	e0003988 	.word	0xe0003988
e00033c4:	e0003988 	.word	0xe0003988
e00033c8:	e0003988 	.word	0xe0003988
e00033cc:	e0003988 	.word	0xe0003988
e00033d0:	e0003988 	.word	0xe0003988
e00033d4:	e0003988 	.word	0xe0003988
e00033d8:	e0003988 	.word	0xe0003988
e00033dc:	e0003988 	.word	0xe0003988
e00033e0:	e0003988 	.word	0xe0003988
e00033e4:	e0003988 	.word	0xe0003988
e00033e8:	e0003988 	.word	0xe0003988
e00033ec:	e0003988 	.word	0xe0003988
e00033f0:	e0003988 	.word	0xe0003988
e00033f4:	e00039bc 	.word	0xe00039bc
e00033f8:	e0003988 	.word	0xe0003988
e00033fc:	e0003988 	.word	0xe0003988
e0003400:	e0003988 	.word	0xe0003988
e0003404:	e0003988 	.word	0xe0003988
e0003408:	e0003988 	.word	0xe0003988
e000340c:	e0003988 	.word	0xe0003988
e0003410:	e0003988 	.word	0xe0003988
e0003414:	e0003988 	.word	0xe0003988
e0003418:	e0003988 	.word	0xe0003988
e000341c:	e0003988 	.word	0xe0003988
e0003420:	e0003988 	.word	0xe0003988
e0003424:	e0003988 	.word	0xe0003988
e0003428:	e0003988 	.word	0xe0003988
e000342c:	e0003988 	.word	0xe0003988
e0003430:	e0003988 	.word	0xe0003988
e0003434:	e000387c 	.word	0xe000387c
e0003438:	e59730a8 	ldr	r3, [r7, #168]	; 0xa8
e000343c:	e3a02020 	mov	r2, #32
e0003440:	e89a0003 	ldm	sl, {r0, r1}
e0003444:	eb003faf 	bl	e0013308 <cteInsert>
e0003448:	e2463002 	sub	r3, r6, #2
e000344c:	e1a02006 	mov	r2, r6
e0003450:	e353003c 	cmp	r3, #60	; 0x3c
e0003454:	979ff103 	ldrls	pc, [pc, r3, lsl #2]
e0003458:	ea00017d 	b	e0003a54 <create_initial_thread+0xa88>
e000345c:	e000314c 	.word	0xe000314c
e0003460:	e0003a54 	.word	0xe0003a54
e0003464:	e0003940 	.word	0xe0003940
e0003468:	e0003a54 	.word	0xe0003a54
e000346c:	e000314c 	.word	0xe000314c
e0003470:	e0003a54 	.word	0xe0003a54
e0003474:	e0003764 	.word	0xe0003764
e0003478:	e0003a54 	.word	0xe0003a54
e000347c:	e0003924 	.word	0xe0003924
e0003480:	e0003a54 	.word	0xe0003a54
e0003484:	e0003930 	.word	0xe0003930
e0003488:	e0003a54 	.word	0xe0003a54
e000348c:	e0003764 	.word	0xe0003764
e0003490:	e0003a54 	.word	0xe0003a54
e0003494:	e0003a54 	.word	0xe0003a54
e0003498:	e0003a54 	.word	0xe0003a54
e000349c:	e0003a54 	.word	0xe0003a54
e00034a0:	e0003a54 	.word	0xe0003a54
e00034a4:	e0003a54 	.word	0xe0003a54
e00034a8:	e0003a54 	.word	0xe0003a54
e00034ac:	e0003a54 	.word	0xe0003a54
e00034b0:	e0003a54 	.word	0xe0003a54
e00034b4:	e0003a54 	.word	0xe0003a54
e00034b8:	e0003a54 	.word	0xe0003a54
e00034bc:	e0003a54 	.word	0xe0003a54
e00034c0:	e0003a54 	.word	0xe0003a54
e00034c4:	e0003a54 	.word	0xe0003a54
e00034c8:	e0003a54 	.word	0xe0003a54
e00034cc:	e0003764 	.word	0xe0003764
e00034d0:	e0003a54 	.word	0xe0003a54
e00034d4:	e0003a54 	.word	0xe0003a54
e00034d8:	e0003a54 	.word	0xe0003a54
e00034dc:	e0003a54 	.word	0xe0003a54
e00034e0:	e0003a54 	.word	0xe0003a54
e00034e4:	e0003a54 	.word	0xe0003a54
e00034e8:	e0003a54 	.word	0xe0003a54
e00034ec:	e0003a54 	.word	0xe0003a54
e00034f0:	e0003a54 	.word	0xe0003a54
e00034f4:	e0003a54 	.word	0xe0003a54
e00034f8:	e0003a54 	.word	0xe0003a54
e00034fc:	e0003a54 	.word	0xe0003a54
e0003500:	e0003a54 	.word	0xe0003a54
e0003504:	e0003a54 	.word	0xe0003a54
e0003508:	e0003a54 	.word	0xe0003a54
e000350c:	e0003abc 	.word	0xe0003abc
e0003510:	e0003a54 	.word	0xe0003a54
e0003514:	e0003a54 	.word	0xe0003a54
e0003518:	e0003a54 	.word	0xe0003a54
e000351c:	e0003a54 	.word	0xe0003a54
e0003520:	e0003a54 	.word	0xe0003a54
e0003524:	e0003a54 	.word	0xe0003a54
e0003528:	e0003a54 	.word	0xe0003a54
e000352c:	e0003a54 	.word	0xe0003a54
e0003530:	e0003a54 	.word	0xe0003a54
e0003534:	e0003a54 	.word	0xe0003a54
e0003538:	e0003a54 	.word	0xe0003a54
e000353c:	e0003a54 	.word	0xe0003a54
e0003540:	e0003a54 	.word	0xe0003a54
e0003544:	e0003a54 	.word	0xe0003a54
e0003548:	e0003a54 	.word	0xe0003a54
e000354c:	e0003764 	.word	0xe0003764
e0003550:	e6ef6075 	uxtb	r6, r5
e0003554:	e2463002 	sub	r3, r6, #2
e0003558:	e1a02006 	mov	r2, r6
e000355c:	e353003c 	cmp	r3, #60	; 0x3c
e0003560:	979ff103 	ldrls	pc, [pc, r3, lsl #2]
e0003564:	ea000147 	b	e0003a88 <create_initial_thread+0xabc>
e0003568:	e00030e0 	.word	0xe00030e0
e000356c:	e0003a88 	.word	0xe0003a88
e0003570:	e00038c8 	.word	0xe00038c8
e0003574:	e0003a88 	.word	0xe0003a88
e0003578:	e00030e0 	.word	0xe00030e0
e000357c:	e0003a88 	.word	0xe0003a88
e0003580:	e0003438 	.word	0xe0003438
e0003584:	e0003a88 	.word	0xe0003a88
e0003588:	e0003950 	.word	0xe0003950
e000358c:	e0003a88 	.word	0xe0003a88
e0003590:	e00038b8 	.word	0xe00038b8
e0003594:	e0003a88 	.word	0xe0003a88
e0003598:	e0003438 	.word	0xe0003438
e000359c:	e0003a88 	.word	0xe0003a88
e00035a0:	e0003a88 	.word	0xe0003a88
e00035a4:	e0003a88 	.word	0xe0003a88
e00035a8:	e0003a88 	.word	0xe0003a88
e00035ac:	e0003a88 	.word	0xe0003a88
e00035b0:	e0003a88 	.word	0xe0003a88
e00035b4:	e0003a88 	.word	0xe0003a88
e00035b8:	e0003a88 	.word	0xe0003a88
e00035bc:	e0003a88 	.word	0xe0003a88
e00035c0:	e0003a88 	.word	0xe0003a88
e00035c4:	e0003a88 	.word	0xe0003a88
e00035c8:	e0003a88 	.word	0xe0003a88
e00035cc:	e0003a88 	.word	0xe0003a88
e00035d0:	e0003a88 	.word	0xe0003a88
e00035d4:	e0003a88 	.word	0xe0003a88
e00035d8:	e0003438 	.word	0xe0003438
e00035dc:	e0003a88 	.word	0xe0003a88
e00035e0:	e0003a88 	.word	0xe0003a88
e00035e4:	e0003a88 	.word	0xe0003a88
e00035e8:	e0003a88 	.word	0xe0003a88
e00035ec:	e0003a88 	.word	0xe0003a88
e00035f0:	e0003a88 	.word	0xe0003a88
e00035f4:	e0003a88 	.word	0xe0003a88
e00035f8:	e0003a88 	.word	0xe0003a88
e00035fc:	e0003a88 	.word	0xe0003a88
e0003600:	e0003a88 	.word	0xe0003a88
e0003604:	e0003a88 	.word	0xe0003a88
e0003608:	e0003a88 	.word	0xe0003a88
e000360c:	e0003a88 	.word	0xe0003a88
e0003610:	e0003a88 	.word	0xe0003a88
e0003614:	e0003a88 	.word	0xe0003a88
e0003618:	e0003aec 	.word	0xe0003aec
e000361c:	e0003a88 	.word	0xe0003a88
e0003620:	e0003a88 	.word	0xe0003a88
e0003624:	e0003a88 	.word	0xe0003a88
e0003628:	e0003a88 	.word	0xe0003a88
e000362c:	e0003a88 	.word	0xe0003a88
e0003630:	e0003a88 	.word	0xe0003a88
e0003634:	e0003a88 	.word	0xe0003a88
e0003638:	e0003a88 	.word	0xe0003a88
e000363c:	e0003a88 	.word	0xe0003a88
e0003640:	e0003a88 	.word	0xe0003a88
e0003644:	e0003a88 	.word	0xe0003a88
e0003648:	e0003a88 	.word	0xe0003a88
e000364c:	e0003a88 	.word	0xe0003a88
e0003650:	e0003a88 	.word	0xe0003a88
e0003654:	e0003a88 	.word	0xe0003a88
e0003658:	e0003438 	.word	0xe0003438
e000365c:	e6ef3075 	uxtb	r3, r5
e0003660:	e2432002 	sub	r2, r3, #2
e0003664:	e352003c 	cmp	r2, #60	; 0x3c
e0003668:	979ff102 	ldrls	pc, [pc, r2, lsl #2]
e000366c:	ea0000de 	b	e00039ec <create_initial_thread+0xa20>
e0003670:	e00032fc 	.word	0xe00032fc
e0003674:	e00039ec 	.word	0xe00039ec
e0003678:	e0003908 	.word	0xe0003908
e000367c:	e00039ec 	.word	0xe00039ec
e0003680:	e00032fc 	.word	0xe00032fc
e0003684:	e00039ec 	.word	0xe00039ec
e0003688:	e0003324 	.word	0xe0003324
e000368c:	e00039ec 	.word	0xe00039ec
e0003690:	e00038f4 	.word	0xe00038f4
e0003694:	e00039ec 	.word	0xe00039ec
e0003698:	e00038fc 	.word	0xe00038fc
e000369c:	e00039ec 	.word	0xe00039ec
e00036a0:	e0003324 	.word	0xe0003324
e00036a4:	e00039ec 	.word	0xe00039ec
e00036a8:	e00039ec 	.word	0xe00039ec
e00036ac:	e00039ec 	.word	0xe00039ec
e00036b0:	e00039ec 	.word	0xe00039ec
e00036b4:	e00039ec 	.word	0xe00039ec
e00036b8:	e00039ec 	.word	0xe00039ec
e00036bc:	e00039ec 	.word	0xe00039ec
e00036c0:	e00039ec 	.word	0xe00039ec
e00036c4:	e00039ec 	.word	0xe00039ec
e00036c8:	e00039ec 	.word	0xe00039ec
e00036cc:	e00039ec 	.word	0xe00039ec
e00036d0:	e00039ec 	.word	0xe00039ec
e00036d4:	e00039ec 	.word	0xe00039ec
e00036d8:	e00039ec 	.word	0xe00039ec
e00036dc:	e00039ec 	.word	0xe00039ec
e00036e0:	e0003324 	.word	0xe0003324
e00036e4:	e00039ec 	.word	0xe00039ec
e00036e8:	e00039ec 	.word	0xe00039ec
e00036ec:	e00039ec 	.word	0xe00039ec
e00036f0:	e00039ec 	.word	0xe00039ec
e00036f4:	e00039ec 	.word	0xe00039ec
e00036f8:	e00039ec 	.word	0xe00039ec
e00036fc:	e00039ec 	.word	0xe00039ec
e0003700:	e00039ec 	.word	0xe00039ec
e0003704:	e00039ec 	.word	0xe00039ec
e0003708:	e00039ec 	.word	0xe00039ec
e000370c:	e00039ec 	.word	0xe00039ec
e0003710:	e00039ec 	.word	0xe00039ec
e0003714:	e00039ec 	.word	0xe00039ec
e0003718:	e00039ec 	.word	0xe00039ec
e000371c:	e00039ec 	.word	0xe00039ec
e0003720:	e0003b4c 	.word	0xe0003b4c
e0003724:	e00039ec 	.word	0xe00039ec
e0003728:	e00039ec 	.word	0xe00039ec
e000372c:	e00039ec 	.word	0xe00039ec
e0003730:	e00039ec 	.word	0xe00039ec
e0003734:	e00039ec 	.word	0xe00039ec
e0003738:	e00039ec 	.word	0xe00039ec
e000373c:	e00039ec 	.word	0xe00039ec
e0003740:	e00039ec 	.word	0xe00039ec
e0003744:	e00039ec 	.word	0xe00039ec
e0003748:	e00039ec 	.word	0xe00039ec
e000374c:	e00039ec 	.word	0xe00039ec
e0003750:	e00039ec 	.word	0xe00039ec
e0003754:	e00039ec 	.word	0xe00039ec
e0003758:	e00039ec 	.word	0xe00039ec
e000375c:	e00039ec 	.word	0xe00039ec
e0003760:	e0003324 	.word	0xe0003324
e0003764:	e59730a8 	ldr	r3, [r7, #168]	; 0xa8
e0003768:	e3a02030 	mov	r2, #48	; 0x30
e000376c:	e8990003 	ldm	r9, {r0, r1}
e0003770:	e2833010 	add	r3, r3, #16
e0003774:	eb003ee3 	bl	e0013308 <cteInsert>
e0003778:	e2463002 	sub	r3, r6, #2
e000377c:	e353003c 	cmp	r3, #60	; 0x3c
e0003780:	979ff103 	ldrls	pc, [pc, r3, lsl #2]
e0003784:	ea0000a5 	b	e0003a20 <create_initial_thread+0xa54>
e0003788:	e00031b8 	.word	0xe00031b8
e000378c:	e0003a20 	.word	0xe0003a20
e0003790:	e0003914 	.word	0xe0003914
e0003794:	e0003a20 	.word	0xe0003a20
e0003798:	e00031b8 	.word	0xe00031b8
e000379c:	e0003a20 	.word	0xe0003a20
e00037a0:	e00038b0 	.word	0xe00038b0
e00037a4:	e0003a20 	.word	0xe0003a20
e00037a8:	e00038e8 	.word	0xe00038e8
e00037ac:	e0003a20 	.word	0xe0003a20
e00037b0:	e00038d8 	.word	0xe00038d8
e00037b4:	e0003a20 	.word	0xe0003a20
e00037b8:	e00038b0 	.word	0xe00038b0
e00037bc:	e0003a20 	.word	0xe0003a20
e00037c0:	e0003a20 	.word	0xe0003a20
e00037c4:	e0003a20 	.word	0xe0003a20
e00037c8:	e0003a20 	.word	0xe0003a20
e00037cc:	e0003a20 	.word	0xe0003a20
e00037d0:	e0003a20 	.word	0xe0003a20
e00037d4:	e0003a20 	.word	0xe0003a20
e00037d8:	e0003a20 	.word	0xe0003a20
e00037dc:	e0003a20 	.word	0xe0003a20
e00037e0:	e0003a20 	.word	0xe0003a20
e00037e4:	e0003a20 	.word	0xe0003a20
e00037e8:	e0003a20 	.word	0xe0003a20
e00037ec:	e0003a20 	.word	0xe0003a20
e00037f0:	e0003a20 	.word	0xe0003a20
e00037f4:	e0003a20 	.word	0xe0003a20
e00037f8:	e00038b0 	.word	0xe00038b0
e00037fc:	e0003a20 	.word	0xe0003a20
e0003800:	e0003a20 	.word	0xe0003a20
e0003804:	e0003a20 	.word	0xe0003a20
e0003808:	e0003a20 	.word	0xe0003a20
e000380c:	e0003a20 	.word	0xe0003a20
e0003810:	e0003a20 	.word	0xe0003a20
e0003814:	e0003a20 	.word	0xe0003a20
e0003818:	e0003a20 	.word	0xe0003a20
e000381c:	e0003a20 	.word	0xe0003a20
e0003820:	e0003a20 	.word	0xe0003a20
e0003824:	e0003a20 	.word	0xe0003a20
e0003828:	e0003a20 	.word	0xe0003a20
e000382c:	e0003a20 	.word	0xe0003a20
e0003830:	e0003a20 	.word	0xe0003a20
e0003834:	e0003a20 	.word	0xe0003a20
e0003838:	e0003b1c 	.word	0xe0003b1c
e000383c:	e0003a20 	.word	0xe0003a20
e0003840:	e0003a20 	.word	0xe0003a20
e0003844:	e0003a20 	.word	0xe0003a20
e0003848:	e0003a20 	.word	0xe0003a20
e000384c:	e0003a20 	.word	0xe0003a20
e0003850:	e0003a20 	.word	0xe0003a20
e0003854:	e0003a20 	.word	0xe0003a20
e0003858:	e0003a20 	.word	0xe0003a20
e000385c:	e0003a20 	.word	0xe0003a20
e0003860:	e0003a20 	.word	0xe0003a20
e0003864:	e0003a20 	.word	0xe0003a20
e0003868:	e0003a20 	.word	0xe0003a20
e000386c:	e0003a20 	.word	0xe0003a20
e0003870:	e0003a20 	.word	0xe0003a20
e0003874:	e0003a20 	.word	0xe0003a20
e0003878:	e00038b0 	.word	0xe00038b0
e000387c:	e3a010a0 	mov	r1, #160	; 0xa0
e0003880:	eafffdfa 	b	e0003070 <create_initial_thread+0xa4>
e0003884:	e59d3004 	ldr	r3, [sp, #4]
e0003888:	e3c3100f 	bic	r1, r3, #15
e000388c:	e28110a0 	add	r1, r1, #160	; 0xa0
e0003890:	eafffdf6 	b	e0003070 <create_initial_thread+0xa4>
e0003894:	e3c51f7f 	bic	r1, r5, #508	; 0x1fc
e0003898:	e3c11003 	bic	r1, r1, #3
e000389c:	e28110a0 	add	r1, r1, #160	; 0xa0
e00038a0:	eafffdf2 	b	e0003070 <create_initial_thread+0xa4>
e00038a4:	e3c5101f 	bic	r1, r5, #31
e00038a8:	e28110a0 	add	r1, r1, #160	; 0xa0
e00038ac:	eafffdef 	b	e0003070 <create_initial_thread+0xa4>
e00038b0:	e3a020a0 	mov	r2, #160	; 0xa0
e00038b4:	eafffe41 	b	e00031c0 <create_initial_thread+0x1f4>
e00038b8:	e3c52f7f 	bic	r2, r5, #508	; 0x1fc
e00038bc:	e3c22003 	bic	r2, r2, #3
e00038c0:	e2822020 	add	r2, r2, #32
e00038c4:	eafffe07 	b	e00030e8 <create_initial_thread+0x11c>
e00038c8:	e59d3004 	ldr	r3, [sp, #4]
e00038cc:	e3c3200f 	bic	r2, r3, #15
e00038d0:	e2822020 	add	r2, r2, #32
e00038d4:	eafffe03 	b	e00030e8 <create_initial_thread+0x11c>
e00038d8:	e3c52f7f 	bic	r2, r5, #508	; 0x1fc
e00038dc:	e3c22003 	bic	r2, r2, #3
e00038e0:	e28220a0 	add	r2, r2, #160	; 0xa0
e00038e4:	eafffe35 	b	e00031c0 <create_initial_thread+0x1f4>
e00038e8:	e3c5201f 	bic	r2, r5, #31
e00038ec:	e28220a0 	add	r2, r2, #160	; 0xa0
e00038f0:	eafffe32 	b	e00031c0 <create_initial_thread+0x1f4>
e00038f4:	e3c5501f 	bic	r5, r5, #31
e00038f8:	eafffe80 	b	e0003300 <create_initial_thread+0x334>
e00038fc:	e3c55f7f 	bic	r5, r5, #508	; 0x1fc
e0003900:	e3c55003 	bic	r5, r5, #3
e0003904:	eafffe7d 	b	e0003300 <create_initial_thread+0x334>
e0003908:	e59d3004 	ldr	r3, [sp, #4]
e000390c:	e3c3500f 	bic	r5, r3, #15
e0003910:	eafffe7a 	b	e0003300 <create_initial_thread+0x334>
e0003914:	e59d3004 	ldr	r3, [sp, #4]
e0003918:	e3c3200f 	bic	r2, r3, #15
e000391c:	e28220a0 	add	r2, r2, #160	; 0xa0
e0003920:	eafffe26 	b	e00031c0 <create_initial_thread+0x1f4>
e0003924:	e3c5201f 	bic	r2, r5, #31
e0003928:	e2822030 	add	r2, r2, #48	; 0x30
e000392c:	eafffe08 	b	e0003154 <create_initial_thread+0x188>
e0003930:	e3c52f7f 	bic	r2, r5, #508	; 0x1fc
e0003934:	e3c22003 	bic	r2, r2, #3
e0003938:	e2822030 	add	r2, r2, #48	; 0x30
e000393c:	eafffe04 	b	e0003154 <create_initial_thread+0x188>
e0003940:	e59d3004 	ldr	r3, [sp, #4]
e0003944:	e3c3200f 	bic	r2, r3, #15
e0003948:	e2822030 	add	r2, r2, #48	; 0x30
e000394c:	eafffe00 	b	e0003154 <create_initial_thread+0x188>
e0003950:	e3c5201f 	bic	r2, r5, #31
e0003954:	e2822020 	add	r2, r2, #32
e0003958:	eafffde2 	b	e00030e8 <create_initial_thread+0x11c>
e000395c:	e59730a8 	ldr	r3, [r7, #168]	; 0xa8
e0003960:	e3a02030 	mov	r2, #48	; 0x30
e0003964:	e8990003 	ldm	r9, {r0, r1}
e0003968:	e2833010 	add	r3, r3, #16
e000396c:	eb003e65 	bl	e0013308 <cteInsert>
e0003970:	eafffdff 	b	e0003174 <create_initial_thread+0x1a8>
e0003974:	e59730a8 	ldr	r3, [r7, #168]	; 0xa8
e0003978:	e3a02020 	mov	r2, #32
e000397c:	e89a0003 	ldm	sl, {r0, r1}
e0003980:	eb003e60 	bl	e0013308 <cteInsert>
e0003984:	eafffdde 	b	e0003104 <create_initial_thread+0x138>
e0003988:	e2432001 	sub	r2, r3, #1
e000398c:	e3520008 	cmp	r2, #8
e0003990:	979ff102 	ldrls	pc, [pc, r2, lsl #2]
e0003994:	eaffffb8 	b	e000387c <create_initial_thread+0x8b0>
e0003998:	e0003ba8 	.word	0xe0003ba8
e000399c:	e000387c 	.word	0xe000387c
e00039a0:	e0003ba8 	.word	0xe0003ba8
e00039a4:	e000387c 	.word	0xe000387c
e00039a8:	e0003068 	.word	0xe0003068
e00039ac:	e000387c 	.word	0xe000387c
e00039b0:	e0003bdc 	.word	0xe0003bdc
e00039b4:	e000387c 	.word	0xe000387c
e00039b8:	e0003bcc 	.word	0xe0003bcc
e00039bc:	e1a01425 	lsr	r1, r5, #8
e00039c0:	e201303f 	and	r3, r1, #63	; 0x3f
e00039c4:	e3530020 	cmp	r3, #32
e00039c8:	1201301f 	andne	r3, r1, #31
e00039cc:	12833001 	addne	r3, r3, #1
e00039d0:	13e01000 	mvnne	r1, #0
e00039d4:	11a01311 	lslne	r1, r1, r3
e00039d8:	e59d3004 	ldr	r3, [sp, #4]
e00039dc:	03e0101f 	mvneq	r1, #31
e00039e0:	e0011003 	and	r1, r1, r3
e00039e4:	e28110a0 	add	r1, r1, #160	; 0xa0
e00039e8:	eafffda0 	b	e0003070 <create_initial_thread+0xa4>
e00039ec:	e2432001 	sub	r2, r3, #1
e00039f0:	e3520008 	cmp	r2, #8
e00039f4:	979ff102 	ldrls	pc, [pc, r2, lsl #2]
e00039f8:	eafffe49 	b	e0003324 <create_initial_thread+0x358>
e00039fc:	e0003c48 	.word	0xe0003c48
e0003a00:	e0003324 	.word	0xe0003324
e0003a04:	e0003c48 	.word	0xe0003c48
e0003a08:	e0003324 	.word	0xe0003324
e0003a0c:	e00032fc 	.word	0xe00032fc
e0003a10:	e0003324 	.word	0xe0003324
e0003a14:	e0003c3c 	.word	0xe0003c3c
e0003a18:	e0003324 	.word	0xe0003324
e0003a1c:	e0003c30 	.word	0xe0003c30
e0003a20:	e2463001 	sub	r3, r6, #1
e0003a24:	e3530008 	cmp	r3, #8
e0003a28:	979ff103 	ldrls	pc, [pc, r3, lsl #2]
e0003a2c:	eaffff9f 	b	e00038b0 <create_initial_thread+0x8e4>
e0003a30:	e0003c0c 	.word	0xe0003c0c
e0003a34:	e00038b0 	.word	0xe00038b0
e0003a38:	e0003c0c 	.word	0xe0003c0c
e0003a3c:	e00038b0 	.word	0xe00038b0
e0003a40:	e00031b8 	.word	0xe00031b8
e0003a44:	e00038b0 	.word	0xe00038b0
e0003a48:	e0003cd0 	.word	0xe0003cd0
e0003a4c:	e00038b0 	.word	0xe00038b0
e0003a50:	e0003cc0 	.word	0xe0003cc0
e0003a54:	e2423001 	sub	r3, r2, #1
e0003a58:	e3530008 	cmp	r3, #8
e0003a5c:	979ff103 	ldrls	pc, [pc, r3, lsl #2]
e0003a60:	ea0000a4 	b	e0003cf8 <create_initial_thread+0xd2c>
e0003a64:	e0003c8c 	.word	0xe0003c8c
e0003a68:	e0003cf8 	.word	0xe0003cf8
e0003a6c:	e0003c8c 	.word	0xe0003c8c
e0003a70:	e0003cf8 	.word	0xe0003cf8
e0003a74:	e000314c 	.word	0xe000314c
e0003a78:	e0003cf8 	.word	0xe0003cf8
e0003a7c:	e0003ce0 	.word	0xe0003ce0
e0003a80:	e0003cf8 	.word	0xe0003cf8
e0003a84:	e0003cb0 	.word	0xe0003cb0
e0003a88:	e2423001 	sub	r3, r2, #1
e0003a8c:	e3530008 	cmp	r3, #8
e0003a90:	979ff103 	ldrls	pc, [pc, r3, lsl #2]
e0003a94:	ea000095 	b	e0003cf0 <create_initial_thread+0xd24>
e0003a98:	e0003c68 	.word	0xe0003c68
e0003a9c:	e0003cf0 	.word	0xe0003cf0
e0003aa0:	e0003c68 	.word	0xe0003c68
e0003aa4:	e0003cf0 	.word	0xe0003cf0
e0003aa8:	e00030e0 	.word	0xe00030e0
e0003aac:	e0003cf0 	.word	0xe0003cf0
e0003ab0:	e0003bfc 	.word	0xe0003bfc
e0003ab4:	e0003cf0 	.word	0xe0003cf0
e0003ab8:	e0003bec 	.word	0xe0003bec
e0003abc:	e1a02425 	lsr	r2, r5, #8
e0003ac0:	e202303f 	and	r3, r2, #63	; 0x3f
e0003ac4:	e3530020 	cmp	r3, #32
e0003ac8:	1202301f 	andne	r3, r2, #31
e0003acc:	12833001 	addne	r3, r3, #1
e0003ad0:	13e02000 	mvnne	r2, #0
e0003ad4:	11a02312 	lslne	r2, r2, r3
e0003ad8:	e59d3004 	ldr	r3, [sp, #4]
e0003adc:	03e0201f 	mvneq	r2, #31
e0003ae0:	e0022003 	and	r2, r2, r3
e0003ae4:	e2822030 	add	r2, r2, #48	; 0x30
e0003ae8:	eafffd99 	b	e0003154 <create_initial_thread+0x188>
e0003aec:	e1a02425 	lsr	r2, r5, #8
e0003af0:	e202303f 	and	r3, r2, #63	; 0x3f
e0003af4:	e3530020 	cmp	r3, #32
e0003af8:	1202301f 	andne	r3, r2, #31
e0003afc:	12833001 	addne	r3, r3, #1
e0003b00:	13e02000 	mvnne	r2, #0
e0003b04:	11a02312 	lslne	r2, r2, r3
e0003b08:	e59d3004 	ldr	r3, [sp, #4]
e0003b0c:	03e0201f 	mvneq	r2, #31
e0003b10:	e0022003 	and	r2, r2, r3
e0003b14:	e2822020 	add	r2, r2, #32
e0003b18:	eafffd72 	b	e00030e8 <create_initial_thread+0x11c>
e0003b1c:	e1a02425 	lsr	r2, r5, #8
e0003b20:	e202303f 	and	r3, r2, #63	; 0x3f
e0003b24:	e3530020 	cmp	r3, #32
e0003b28:	1202301f 	andne	r3, r2, #31
e0003b2c:	12833001 	addne	r3, r3, #1
e0003b30:	13e02000 	mvnne	r2, #0
e0003b34:	11a02312 	lslne	r2, r2, r3
e0003b38:	e59d3004 	ldr	r3, [sp, #4]
e0003b3c:	03e0201f 	mvneq	r2, #31
e0003b40:	e0022003 	and	r2, r2, r3
e0003b44:	e28220a0 	add	r2, r2, #160	; 0xa0
e0003b48:	eafffd9c 	b	e00031c0 <create_initial_thread+0x1f4>
e0003b4c:	e1a05425 	lsr	r5, r5, #8
e0003b50:	e205303f 	and	r3, r5, #63	; 0x3f
e0003b54:	e3530020 	cmp	r3, #32
e0003b58:	1205301f 	andne	r3, r5, #31
e0003b5c:	12833001 	addne	r3, r3, #1
e0003b60:	13e05000 	mvnne	r5, #0
e0003b64:	11a05315 	lslne	r5, r5, r3
e0003b68:	e59d3004 	ldr	r3, [sp, #4]
e0003b6c:	03e0501f 	mvneq	r5, #31
e0003b70:	e0055003 	and	r5, r5, r3
e0003b74:	eafffde1 	b	e0003300 <create_initial_thread+0x334>
e0003b78:	e3a03000 	mov	r3, #0
e0003b7c:	e58d3000 	str	r3, [sp]
e0003b80:	e59d0000 	ldr	r0, [sp]
e0003b84:	e28dd02c 	add	sp, sp, #44	; 0x2c
e0003b88:	e8bd8ff0 	pop	{r4, r5, r6, r7, r8, r9, sl, fp, pc}
e0003b8c:	e1a00004 	mov	r0, r4
e0003b90:	eb003d5f 	bl	e0013114 <setThreadState.part.166>
e0003b94:	e5972000 	ldr	r2, [r7]
e0003b98:	e1a02182 	lsl	r2, r2, #3
e0003b9c:	e0863002 	add	r3, r6, r2
e0003ba0:	e5931070 	ldr	r1, [r3, #112]	; 0x70
e0003ba4:	eafffdb6 	b	e0003284 <create_initial_thread+0x2b8>
e0003ba8:	e3530001 	cmp	r3, #1
e0003bac:	0a000053 	beq	e0003d00 <create_initial_thread+0xd34>
e0003bb0:	e3530003 	cmp	r3, #3
e0003bb4:	1affff30 	bne	e000387c <create_initial_thread+0x8b0>
e0003bb8:	e3a03903 	mov	r3, #49152	; 0xc000
e0003bbc:	e34f3fff 	movt	r3, #65535	; 0xffff
e0003bc0:	e0033505 	and	r3, r3, r5, lsl #10
e0003bc4:	e28310a0 	add	r1, r3, #160	; 0xa0
e0003bc8:	eafffd28 	b	e0003070 <create_initial_thread+0xa4>
e0003bcc:	e3c51dff 	bic	r1, r5, #16320	; 0x3fc0
e0003bd0:	e3c1103f 	bic	r1, r1, #63	; 0x3f
e0003bd4:	e28110a0 	add	r1, r1, #160	; 0xa0
e0003bd8:	eafffd24 	b	e0003070 <create_initial_thread+0xa4>
e0003bdc:	e3c51fff 	bic	r1, r5, #1020	; 0x3fc
e0003be0:	e3c11003 	bic	r1, r1, #3
e0003be4:	e28110a0 	add	r1, r1, #160	; 0xa0
e0003be8:	eafffd20 	b	e0003070 <create_initial_thread+0xa4>
e0003bec:	e3c52dff 	bic	r2, r5, #16320	; 0x3fc0
e0003bf0:	e3c2203f 	bic	r2, r2, #63	; 0x3f
e0003bf4:	e2822020 	add	r2, r2, #32
e0003bf8:	eafffd3a 	b	e00030e8 <create_initial_thread+0x11c>
e0003bfc:	e3c52fff 	bic	r2, r5, #1020	; 0x3fc
e0003c00:	e3c22003 	bic	r2, r2, #3
e0003c04:	e2822020 	add	r2, r2, #32
e0003c08:	eafffd36 	b	e00030e8 <create_initial_thread+0x11c>
e0003c0c:	e3560001 	cmp	r6, #1
e0003c10:	0a00003f 	beq	e0003d14 <create_initial_thread+0xd48>
e0003c14:	e3560003 	cmp	r6, #3
e0003c18:	1affff24 	bne	e00038b0 <create_initial_thread+0x8e4>
e0003c1c:	e3a03903 	mov	r3, #49152	; 0xc000
e0003c20:	e34f3fff 	movt	r3, #65535	; 0xffff
e0003c24:	e0033505 	and	r3, r3, r5, lsl #10
e0003c28:	e28320a0 	add	r2, r3, #160	; 0xa0
e0003c2c:	eafffd63 	b	e00031c0 <create_initial_thread+0x1f4>
e0003c30:	e3c55dff 	bic	r5, r5, #16320	; 0x3fc0
e0003c34:	e3c5503f 	bic	r5, r5, #63	; 0x3f
e0003c38:	eafffdb0 	b	e0003300 <create_initial_thread+0x334>
e0003c3c:	e3c55fff 	bic	r5, r5, #1020	; 0x3fc
e0003c40:	e3c55003 	bic	r5, r5, #3
e0003c44:	eafffdad 	b	e0003300 <create_initial_thread+0x334>
e0003c48:	e3530001 	cmp	r3, #1
e0003c4c:	0a000037 	beq	e0003d30 <create_initial_thread+0xd64>
e0003c50:	e3530003 	cmp	r3, #3
e0003c54:	1a000033 	bne	e0003d28 <create_initial_thread+0xd5c>
e0003c58:	e3a03903 	mov	r3, #49152	; 0xc000
e0003c5c:	e34f3fff 	movt	r3, #65535	; 0xffff
e0003c60:	e0035505 	and	r5, r3, r5, lsl #10
e0003c64:	eafffda5 	b	e0003300 <create_initial_thread+0x334>
e0003c68:	e3520001 	cmp	r2, #1
e0003c6c:	0a000038 	beq	e0003d54 <create_initial_thread+0xd88>
e0003c70:	e3520003 	cmp	r2, #3
e0003c74:	1a00001d 	bne	e0003cf0 <create_initial_thread+0xd24>
e0003c78:	e3a03903 	mov	r3, #49152	; 0xc000
e0003c7c:	e34f3fff 	movt	r3, #65535	; 0xffff
e0003c80:	e0033505 	and	r3, r3, r5, lsl #10
e0003c84:	e2832020 	add	r2, r3, #32
e0003c88:	eafffd16 	b	e00030e8 <create_initial_thread+0x11c>
e0003c8c:	e3520001 	cmp	r2, #1
e0003c90:	0a00002a 	beq	e0003d40 <create_initial_thread+0xd74>
e0003c94:	e3520003 	cmp	r2, #3
e0003c98:	1a000016 	bne	e0003cf8 <create_initial_thread+0xd2c>
e0003c9c:	e3a03903 	mov	r3, #49152	; 0xc000
e0003ca0:	e34f3fff 	movt	r3, #65535	; 0xffff
e0003ca4:	e0033505 	and	r3, r3, r5, lsl #10
e0003ca8:	e2832030 	add	r2, r3, #48	; 0x30
e0003cac:	eafffd28 	b	e0003154 <create_initial_thread+0x188>
e0003cb0:	e3c52dff 	bic	r2, r5, #16320	; 0x3fc0
e0003cb4:	e3c2203f 	bic	r2, r2, #63	; 0x3f
e0003cb8:	e2822030 	add	r2, r2, #48	; 0x30
e0003cbc:	eafffd24 	b	e0003154 <create_initial_thread+0x188>
e0003cc0:	e3c52dff 	bic	r2, r5, #16320	; 0x3fc0
e0003cc4:	e3c2203f 	bic	r2, r2, #63	; 0x3f
e0003cc8:	e28220a0 	add	r2, r2, #160	; 0xa0
e0003ccc:	eafffd3b 	b	e00031c0 <create_initial_thread+0x1f4>
e0003cd0:	e3c52fff 	bic	r2, r5, #1020	; 0x3fc
e0003cd4:	e3c22003 	bic	r2, r2, #3
e0003cd8:	e28220a0 	add	r2, r2, #160	; 0xa0
e0003cdc:	eafffd37 	b	e00031c0 <create_initial_thread+0x1f4>
e0003ce0:	e3c52fff 	bic	r2, r5, #1020	; 0x3fc
e0003ce4:	e3c22003 	bic	r2, r2, #3
e0003ce8:	e2822030 	add	r2, r2, #48	; 0x30
e0003cec:	eafffd18 	b	e0003154 <create_initial_thread+0x188>
e0003cf0:	e3a02020 	mov	r2, #32
e0003cf4:	eafffcfb 	b	e00030e8 <create_initial_thread+0x11c>
e0003cf8:	e3a02030 	mov	r2, #48	; 0x30
e0003cfc:	eafffd14 	b	e0003154 <create_initial_thread+0x188>
e0003d00:	e3a03a0f 	mov	r3, #61440	; 0xf000
e0003d04:	e34f3fff 	movt	r3, #65535	; 0xffff
e0003d08:	e0033405 	and	r3, r3, r5, lsl #8
e0003d0c:	e28310a0 	add	r1, r3, #160	; 0xa0
e0003d10:	eafffcd6 	b	e0003070 <create_initial_thread+0xa4>
e0003d14:	e3a03a0f 	mov	r3, #61440	; 0xf000
e0003d18:	e34f3fff 	movt	r3, #65535	; 0xffff
e0003d1c:	e0033405 	and	r3, r3, r5, lsl #8
e0003d20:	e28320a0 	add	r2, r3, #160	; 0xa0
e0003d24:	eafffd25 	b	e00031c0 <create_initial_thread+0x1f4>
e0003d28:	e3a05000 	mov	r5, #0
e0003d2c:	eafffd73 	b	e0003300 <create_initial_thread+0x334>
e0003d30:	e3a03a0f 	mov	r3, #61440	; 0xf000
e0003d34:	e34f3fff 	movt	r3, #65535	; 0xffff
e0003d38:	e0035405 	and	r5, r3, r5, lsl #8
e0003d3c:	eafffd6f 	b	e0003300 <create_initial_thread+0x334>
e0003d40:	e3a03a0f 	mov	r3, #61440	; 0xf000
e0003d44:	e34f3fff 	movt	r3, #65535	; 0xffff
e0003d48:	e0033405 	and	r3, r3, r5, lsl #8
e0003d4c:	e2832030 	add	r2, r3, #48	; 0x30
e0003d50:	eafffcff 	b	e0003154 <create_initial_thread+0x188>
e0003d54:	e3a03a0f 	mov	r3, #61440	; 0xf000
e0003d58:	e34f3fff 	movt	r3, #65535	; 0xffff
e0003d5c:	e0033405 	and	r3, r3, r5, lsl #8
e0003d60:	e2832020 	add	r2, r3, #32
e0003d64:	eafffcdf 	b	e00030e8 <create_initial_thread+0x11c>

e0003d68 <init_kernel>:
e0003d68:	e92d4ff0 	push	{r4, r5, r6, r7, r8, r9, sl, fp, lr}
e0003d6c:	e24dd09c 	sub	sp, sp, #156	; 0x9c
e0003d70:	e1a08000 	mov	r8, r0
e0003d74:	e1a09002 	mov	r9, r2
e0003d78:	e59d50c0 	ldr	r5, [sp, #192]	; 0xc0
e0003d7c:	e58d3030 	str	r3, [sp, #48]	; 0x30
e0003d80:	e3550000 	cmp	r5, #0
e0003d84:	e59d30c4 	ldr	r3, [sp, #196]	; 0xc4
e0003d88:	0a000160 	beq	e0004310 <init_kernel+0x5a8>
e0003d8c:	e2434001 	sub	r4, r3, #1
e0003d90:	e30b33c8 	movw	r3, #46024	; 0xb3c8
e0003d94:	e0844005 	add	r4, r4, r5
e0003d98:	e34e3001 	movt	r3, #57345	; 0xe001
e0003d9c:	e3c44eff 	bic	r4, r4, #4080	; 0xff0
e0003da0:	e285b20d 	add	fp, r5, #-805306368	; 0xd0000000
e0003da4:	e3c4400f 	bic	r4, r4, #15
e0003da8:	e593308c 	ldr	r3, [r3, #140]	; 0x8c
e0003dac:	e2840a01 	add	r0, r4, #4096	; 0x1000
e0003db0:	e26b2008 	rsb	r2, fp, #8
e0003db4:	e58d002c 	str	r0, [sp, #44]	; 0x2c
e0003db8:	e280020d 	add	r0, r0, #-805306368	; 0xd0000000
e0003dbc:	e58d0028 	str	r0, [sp, #40]	; 0x28
e0003dc0:	e0920000 	adds	r0, r2, r0
e0003dc4:	e041a009 	sub	sl, r1, r9
e0003dc8:	e58d301c 	str	r3, [sp, #28]
e0003dcc:	e281620d 	add	r6, r1, #-805306368	; 0xd0000000
e0003dd0:	e28a3a02 	add	r3, sl, #8192	; 0x2000
e0003dd4:	e288420d 	add	r4, r8, #-805306368	; 0xd0000000
e0003dd8:	e58d0020 	str	r0, [sp, #32]
e0003ddc:	e58d3018 	str	r3, [sp, #24]
e0003de0:	e58d605c 	str	r6, [sp, #92]	; 0x5c
e0003de4:	e58d4058 	str	r4, [sp, #88]	; 0x58
e0003de8:	1a00015e 	bne	e0004368 <init_kernel+0x600>
e0003dec:	e59d3020 	ldr	r3, [sp, #32]
e0003df0:	e3a07001 	mov	r7, #1
e0003df4:	e58d3024 	str	r3, [sp, #36]	; 0x24
e0003df8:	e59d3018 	ldr	r3, [sp, #24]
e0003dfc:	e0837007 	add	r7, r3, r7
e0003e00:	e3770212 	cmn	r7, #536870913	; 0x20000001
e0003e04:	8a000156 	bhi	e0004364 <init_kernel+0x5fc>
e0003e08:	ebfff3ee 	bl	e0000dc8 <map_kernel_window>
e0003e0c:	ebfff308 	bl	e0000a34 <activate_global_pd>
e0003e10:	e59f3620 	ldr	r3, [pc, #1568]	; e0004438 <init_kernel+0x6d0>
e0003e14:	ee0d3f90 	mcr	15, 0, r3, cr13, cr0, {4}
e0003e18:	ebfff2f5 	bl	e00009f4 <fpsimd_HWCapTest>
e0003e1c:	e3500000 	cmp	r0, #0
e0003e20:	0a000006 	beq	e0003e40 <init_kernel+0xd8>
e0003e24:	eef83a10 	vmrs	r3, fpexc
e0003e28:	e3c33101 	bic	r3, r3, #1073741824	; 0x40000000
e0003e2c:	eee83a10 	vmsr	fpexc, r3
e0003e30:	e3033654 	movw	r3, #13908	; 0x3654
e0003e34:	e34e3003 	movt	r3, #57347	; 0xe003
e0003e38:	e3a02000 	mov	r2, #0
e0003e3c:	e5832000 	str	r2, [r3]
e0003e40:	ebfff0e3 	bl	e00001d4 <cpu_iface_init>
e0003e44:	ee103f51 	mrc	15, 0, r3, cr0, cr1, {2}
e0003e48:	ee103f31 	mrc	15, 0, r3, cr0, cr1, {1}
e0003e4c:	e3130801 	tst	r3, #65536	; 0x10000
e0003e50:	0a000001 	beq	e0003e5c <init_kernel+0xf4>
e0003e54:	e3a03000 	mov	r3, #0
e0003e58:	ee0e3f11 	mcr	15, 0, r3, cr14, cr1, {0}
e0003e5c:	e30236ff 	movw	r3, #9983	; 0x26ff
e0003e60:	e34f3ff0 	movt	r3, #65520	; 0xfff0
e0003e64:	e3a01000 	mov	r1, #0
e0003e68:	e30322a0 	movw	r2, #12960	; 0x32a0
e0003e6c:	e50310f7 	str	r1, [r3, #-247]	; 0xffffff09
e0003e70:	e340200f 	movt	r2, #15
e0003e74:	e50310f3 	str	r1, [r3, #-243]	; 0xffffff0d
e0003e78:	e0481009 	sub	r1, r8, r9
e0003e7c:	e58d1034 	str	r1, [sp, #52]	; 0x34
e0003e80:	e50320ff 	str	r2, [r3, #-255]	; 0xffffff01
e0003e84:	e51320f7 	ldr	r2, [r3, #-247]	; 0xffffff09
e0003e88:	e3822006 	orr	r2, r2, #6
e0003e8c:	e50320f7 	str	r2, [r3, #-247]	; 0xffffff09
e0003e90:	e51320f7 	ldr	r2, [r3, #-247]	; 0xffffff09
e0003e94:	e3822001 	orr	r2, r2, #1
e0003e98:	e50320f7 	str	r2, [r3, #-247]	; 0xffffff09
e0003e9c:	ebfff06f 	bl	e0000060 <dist_init>
e0003ea0:	ebfff303 	bl	e0000ab4 <initL2Cache>
e0003ea4:	e3550000 	cmp	r5, #0
e0003ea8:	e3043488 	movw	r3, #17544	; 0x4488
e0003eac:	e34e3000 	movt	r3, #57344	; 0xe000
e0003eb0:	e3a0220e 	mov	r2, #-536870912	; 0xe0000000
e0003eb4:	e30f0fff 	movw	r0, #65535	; 0xffff
e0003eb8:	e5832020 	str	r2, [r3, #32]
e0003ebc:	e3042000 	movw	r2, #16384	; 0x4000
e0003ec0:	e34e2003 	movt	r2, #57347	; 0xe003
e0003ec4:	e5832024 	str	r2, [r3, #36]	; 0x24
e0003ec8:	159d202c 	ldrne	r2, [sp, #44]	; 0x2c
e0003ecc:	e3420fef 	movt	r0, #12271	; 0x2fef
e0003ed0:	e0481009 	sub	r1, r8, r9
e0003ed4:	1285520d 	addne	r5, r5, #-805306368	; 0xd0000000
e0003ed8:	e58d1068 	str	r1, [sp, #104]	; 0x68
e0003edc:	03a02002 	moveq	r2, #2
e0003ee0:	1282120d 	addne	r1, r2, #-805306368	; 0xd0000000
e0003ee4:	15835028 	strne	r5, [r3, #40]	; 0x28
e0003ee8:	1583102c 	strne	r1, [r3, #44]	; 0x2c
e0003eec:	13a02003 	movne	r2, #3
e0003ef0:	13a01002 	movne	r1, #2
e0003ef4:	03a01001 	moveq	r1, #1
e0003ef8:	e1580000 	cmp	r8, r0
e0003efc:	e58d706c 	str	r7, [sp, #108]	; 0x6c
e0003f00:	e59f0534 	ldr	r0, [pc, #1332]	; e000443c <init_kernel+0x6d4>
e0003f04:	9a00011c 	bls	e000437c <init_kernel+0x614>
e0003f08:	e0833181 	add	r3, r3, r1, lsl #3
e0003f0c:	e8900003 	ldm	r0, {r0, r1}
e0003f10:	e2833020 	add	r3, r3, #32
e0003f14:	e8830003 	stm	r3, {r0, r1}
e0003f18:	e59d1024 	ldr	r1, [sp, #36]	; 0x24
e0003f1c:	e28d3068 	add	r3, sp, #104	; 0x68
e0003f20:	e30b4700 	movw	r4, #46848	; 0xb700
e0003f24:	e34e4001 	movt	r4, #57345	; 0xe001
e0003f28:	e30160ff 	movw	r6, #4351	; 0x10ff
e0003f2c:	e34f6ff0 	movt	r6, #65520	; 0xfff0
e0003f30:	e58d1008 	str	r1, [sp, #8]
e0003f34:	e8930003 	ldm	r3, {r0, r1}
e0003f38:	e59f3500 	ldr	r3, [pc, #1280]	; e0004440 <init_kernel+0x6d8>
e0003f3c:	e88d0003 	stm	sp, {r0, r1}
e0003f40:	e3a00001 	mov	r0, #1
e0003f44:	e3041448 	movw	r1, #17480	; 0x4448
e0003f48:	e34e1000 	movt	r1, #57344	; 0xe000
e0003f4c:	ebfffaed 	bl	e0002b08 <init_freemem>
e0003f50:	e5941090 	ldr	r1, [r4, #144]	; 0x90
e0003f54:	e59f04e8 	ldr	r0, [pc, #1256]	; e0004444 <init_kernel+0x6dc>
e0003f58:	e3a03000 	mov	r3, #0
e0003f5c:	e2818020 	add	r8, r1, #32
e0003f60:	e3c1c01f 	bic	ip, r1, #31
e0003f64:	e3a0ea01 	mov	lr, #4096	; 0x1000
e0003f68:	e38c500a 	orr	r5, ip, #10
e0003f6c:	e584e084 	str	lr, [r4, #132]	; 0x84
e0003f70:	e1a02003 	mov	r2, r3
e0003f74:	e5815020 	str	r5, [r1, #32]
e0003f78:	e3a016a3 	mov	r1, #170917888	; 0xa300000
e0003f7c:	e5883008 	str	r3, [r8, #8]
e0003f80:	e1a0e003 	mov	lr, r3
e0003f84:	e5881004 	str	r1, [r8, #4]
e0003f88:	e3a01003 	mov	r1, #3
e0003f8c:	e588100c 	str	r1, [r8, #12]
e0003f90:	e3a08001 	mov	r8, #1
e0003f94:	e58c30b4 	str	r3, [ip, #180]	; 0xb4
e0003f98:	e58c30b8 	str	r3, [ip, #184]	; 0xb8
e0003f9c:	e3a0303e 	mov	r3, #62	; 0x3e
e0003fa0:	e58c10bc 	str	r1, [ip, #188]	; 0xbc
e0003fa4:	e58c30b0 	str	r3, [ip, #176]	; 0xb0
e0003fa8:	e1a032a2 	lsr	r3, r2, #5
e0003fac:	e202101f 	and	r1, r2, #31
e0003fb0:	e2833060 	add	r3, r3, #96	; 0x60
e0003fb4:	e2822001 	add	r2, r2, #1
e0003fb8:	e35200a0 	cmp	r2, #160	; 0xa0
e0003fbc:	e5a0e004 	str	lr, [r0, #4]!
e0003fc0:	e0863103 	add	r3, r6, r3, lsl #2
e0003fc4:	e1a01118 	lsl	r1, r8, r1
e0003fc8:	e50310ff 	str	r1, [r3, #-255]	; 0xffffff01
e0003fcc:	1afffff5 	bne	e0003fa8 <init_kernel+0x240>
e0003fd0:	e3093048 	movw	r3, #36936	; 0x9048
e0003fd4:	e34e3002 	movt	r3, #57346	; 0xe002
e0003fd8:	e3a01002 	mov	r1, #2
e0003fdc:	e3a02202 	mov	r2, #536870912	; 0x20000000
e0003fe0:	e5831074 	str	r1, [r3, #116]	; 0x74
e0003fe4:	e3a00003 	mov	r0, #3
e0003fe8:	e5862001 	str	r2, [r6, #1]
e0003fec:	e3a0100e 	mov	r1, #14
e0003ff0:	e58c004c 	str	r0, [ip, #76]	; 0x4c
e0003ff4:	e1a0200a 	mov	r2, sl
e0003ff8:	e58c1040 	str	r1, [ip, #64]	; 0x40
e0003ffc:	e3a00000 	mov	r0, #0
e0004000:	e58ce044 	str	lr, [ip, #68]	; 0x44
e0004004:	e3a01001 	mov	r1, #1
e0004008:	e59d3020 	ldr	r3, [sp, #32]
e000400c:	e58ce048 	str	lr, [ip, #72]	; 0x48
e0004010:	ebfff697 	bl	e0001a74 <populate_bi_frame>
e0004014:	e35b0000 	cmp	fp, #0
e0004018:	0a000013 	beq	e000406c <init_kernel+0x304>
e000401c:	e59de028 	ldr	lr, [sp, #40]	; 0x28
e0004020:	e3a0c006 	mov	ip, #6
e0004024:	e59420a4 	ldr	r2, [r4, #164]	; 0xa4
e0004028:	e04e300b 	sub	r3, lr, fp
e000402c:	e3530000 	cmp	r3, #0
e0004030:	e2830008 	add	r0, r3, #8
e0004034:	e2821008 	add	r1, r2, #8
e0004038:	e1a0300b 	mov	r3, fp
e000403c:	e5820004 	str	r0, [r2, #4]
e0004040:	03a0b008 	moveq	fp, #8
e0004044:	e582c000 	str	ip, [r2]
e0004048:	0a000007 	beq	e000406c <init_kernel+0x304>
e000404c:	e0411003 	sub	r1, r1, r3
e0004050:	e1a0c00e 	mov	ip, lr
e0004054:	e5d32000 	ldrb	r2, [r3]
e0004058:	e7c32001 	strb	r2, [r3, r1]
e000405c:	e2833001 	add	r3, r3, #1
e0004060:	e153000c 	cmp	r3, ip
e0004064:	1afffffa 	bne	e0004054 <init_kernel+0x2ec>
e0004068:	e1a0b000 	mov	fp, r0
e000406c:	e59d2020 	ldr	r2, [sp, #32]
e0004070:	e152000b 	cmp	r2, fp
e0004074:	9a000005 	bls	e0004090 <init_kernel+0x328>
e0004078:	e59430a4 	ldr	r3, [r4, #164]	; 0xa4
e000407c:	e042100b 	sub	r1, r2, fp
e0004080:	e3a00000 	mov	r0, #0
e0004084:	e08b2003 	add	r2, fp, r3
e0004088:	e78b0003 	str	r0, [fp, r3]
e000408c:	e5821004 	str	r1, [r2, #4]
e0004090:	e594207c 	ldr	r2, [r4, #124]	; 0x7c
e0004094:	e28d6038 	add	r6, sp, #56	; 0x38
e0004098:	e59dc034 	ldr	ip, [sp, #52]	; 0x34
e000409c:	e28d8048 	add	r8, sp, #72	; 0x48
e00040a0:	e3a01000 	mov	r1, #0
e00040a4:	e58d5038 	str	r5, [sp, #56]	; 0x38
e00040a8:	e5821034 	str	r1, [r2, #52]	; 0x34
e00040ac:	e1a00008 	mov	r0, r8
e00040b0:	e5821038 	str	r1, [r2, #56]	; 0x38
e00040b4:	e1a0300c 	mov	r3, ip
e00040b8:	e3a026a3 	mov	r2, #170917888	; 0xa300000
e00040bc:	e58d7000 	str	r7, [sp]
e00040c0:	e58d203c 	str	r2, [sp, #60]	; 0x3c
e00040c4:	e8960006 	ldm	r6, {r1, r2}
e00040c8:	e58dc060 	str	ip, [sp, #96]	; 0x60
e00040cc:	e58d7064 	str	r7, [sp, #100]	; 0x64
e00040d0:	ebfff75b 	bl	e0001e44 <create_it_address_space>
e00040d4:	e59d3048 	ldr	r3, [sp, #72]	; 0x48
e00040d8:	e203200e 	and	r2, r3, #14
e00040dc:	e352000e 	cmp	r2, #14
e00040e0:	1203300f 	andne	r3, r3, #15
e00040e4:	06ef3073 	uxtbeq	r3, r3
e00040e8:	e3530000 	cmp	r3, #0
e00040ec:	0a00009c 	beq	e0004364 <init_kernel+0x5fc>
e00040f0:	e898000c 	ldm	r8, {r2, r3}
e00040f4:	e28aba01 	add	fp, sl, #4096	; 0x1000
e00040f8:	e58db000 	str	fp, [sp]
e00040fc:	e8960003 	ldm	r6, {r0, r1}
e0004100:	ebfff5ac 	bl	e00017b8 <create_bi_frame_cap>
e0004104:	e59d0020 	ldr	r0, [sp, #32]
e0004108:	e3500000 	cmp	r0, #0
e000410c:	1a0000ad 	bne	e00043c8 <init_kernel+0x660>
e0004110:	e59d304c 	ldr	r3, [sp, #76]	; 0x4c
e0004114:	e28d7050 	add	r7, sp, #80	; 0x50
e0004118:	e58da004 	str	sl, [sp, #4]
e000411c:	e3a026a3 	mov	r2, #170917888	; 0xa300000
e0004120:	e1a00007 	mov	r0, r7
e0004124:	e58d203c 	str	r2, [sp, #60]	; 0x3c
e0004128:	e58d3000 	str	r3, [sp]
e000412c:	e59d3048 	ldr	r3, [sp, #72]	; 0x48
e0004130:	e8960006 	ldm	r6, {r1, r2}
e0004134:	ebfff4d9 	bl	e00014a0 <create_ipcbuf_frame_cap>
e0004138:	e59d3050 	ldr	r3, [sp, #80]	; 0x50
e000413c:	e203200e 	and	r2, r3, #14
e0004140:	e352000e 	cmp	r2, #14
e0004144:	1203300f 	andne	r3, r3, #15
e0004148:	06ef3073 	uxtbeq	r3, r3
e000414c:	e3530000 	cmp	r3, #0
e0004150:	0a000083 	beq	e0004364 <init_kernel+0x5fc>
e0004154:	e28d3058 	add	r3, sp, #88	; 0x58
e0004158:	e59d204c 	ldr	r2, [sp, #76]	; 0x4c
e000415c:	e58d9010 	str	r9, [sp, #16]
e0004160:	e8930003 	ldm	r3, {r0, r1}
e0004164:	e3a03001 	mov	r3, #1
e0004168:	e58d2000 	str	r2, [sp]
e000416c:	e58d300c 	str	r3, [sp, #12]
e0004170:	e98d0003 	stmib	sp, {r0, r1}
e0004174:	e28d0080 	add	r0, sp, #128	; 0x80
e0004178:	e59d3048 	ldr	r3, [sp, #72]	; 0x48
e000417c:	e8960006 	ldm	r6, {r1, r2}
e0004180:	ebfff82a 	bl	e0002230 <create_frames_of_region>
e0004184:	e59d3088 	ldr	r3, [sp, #136]	; 0x88
e0004188:	e3530000 	cmp	r3, #0
e000418c:	0a000074 	beq	e0004364 <init_kernel+0x5fc>
e0004190:	e28d2080 	add	r2, sp, #128	; 0x80
e0004194:	e594307c 	ldr	r3, [r4, #124]	; 0x7c
e0004198:	e28d9040 	add	r9, sp, #64	; 0x40
e000419c:	e8920003 	ldm	r2, {r0, r1}
e00041a0:	e2833024 	add	r3, r3, #36	; 0x24
e00041a4:	e8830003 	stm	r3, {r0, r1}
e00041a8:	e1a00009 	mov	r0, r9
e00041ac:	e8960006 	ldm	r6, {r1, r2}
e00041b0:	ebfff864 	bl	e0002348 <create_it_asid_pool>
e00041b4:	e59d3040 	ldr	r3, [sp, #64]	; 0x40
e00041b8:	e203200e 	and	r2, r3, #14
e00041bc:	e352000e 	cmp	r2, #14
e00041c0:	1203300f 	andne	r3, r3, #15
e00041c4:	06ef3073 	uxtbeq	r3, r3
e00041c8:	e3530000 	cmp	r3, #0
e00041cc:	0a000064 	beq	e0004364 <init_kernel+0x5fc>
e00041d0:	e898000c 	ldm	r8, {r2, r3}
e00041d4:	e8990003 	ldm	r9, {r0, r1}
e00041d8:	ebfff0e3 	bl	e000056c <write_it_asid_pool>
e00041dc:	ebfffb61 	bl	e0002f68 <create_idle_thread>
e00041e0:	e3500000 	cmp	r0, #0
e00041e4:	0a00005e 	beq	e0004364 <init_kernel+0x5fc>
e00041e8:	f57ff04f 	dsb	sy
e00041ec:	eb003887 	bl	e0012410 <cleanInvalidate_D_PoC>
e00041f0:	f57ff04f 	dsb	sy
e00041f4:	e3a09000 	mov	r9, #0
e00041f8:	ee079f15 	mcr	15, 0, r9, cr7, cr5, {0}
e00041fc:	f57ff06f 	isb	sy
e0004200:	f57ff04f 	dsb	sy
e0004204:	e8970003 	ldm	r7, {r0, r1}
e0004208:	e28d300c 	add	r3, sp, #12
e000420c:	e58d5038 	str	r5, [sp, #56]	; 0x38
e0004210:	e3a076a3 	mov	r7, #170917888	; 0xa300000
e0004214:	e58d703c 	str	r7, [sp, #60]	; 0x3c
e0004218:	e8830003 	stm	r3, {r0, r1}
e000421c:	e59d1030 	ldr	r1, [sp, #48]	; 0x30
e0004220:	e898000c 	ldm	r8, {r2, r3}
e0004224:	e58da008 	str	sl, [sp, #8]
e0004228:	e58db004 	str	fp, [sp, #4]
e000422c:	e58d1000 	str	r1, [sp]
e0004230:	e8960003 	ldm	r6, {r0, r1}
e0004234:	ebfffb64 	bl	e0002fcc <create_initial_thread>
e0004238:	e250c000 	subs	ip, r0, #0
e000423c:	0a000048 	beq	e0004364 <init_kernel+0x5fc>
e0004240:	e3093010 	movw	r3, #36880	; 0x9010
e0004244:	e34e3002 	movt	r3, #57346	; 0xe002
e0004248:	e5948080 	ldr	r8, [r4, #128]	; 0x80
e000424c:	e28d6070 	add	r6, sp, #112	; 0x70
e0004250:	e5930000 	ldr	r0, [r3]
e0004254:	e303164c 	movw	r1, #13900	; 0x364c
e0004258:	e59d201c 	ldr	r2, [sp, #28]
e000425c:	e34e1003 	movt	r1, #57347	; 0xe003
e0004260:	e309301c 	movw	r3, #36892	; 0x901c
e0004264:	e34e3002 	movt	r3, #57346	; 0xe002
e0004268:	e58d5070 	str	r5, [sp, #112]	; 0x70
e000426c:	e58d7074 	str	r7, [sp, #116]	; 0x74
e0004270:	e58d207c 	str	r2, [sp, #124]	; 0x7c
e0004274:	e1a02008 	mov	r2, r8
e0004278:	e5810000 	str	r0, [r1]
e000427c:	e8960003 	ldm	r6, {r0, r1}
e0004280:	e583c000 	str	ip, [r3]
e0004284:	e3a0320e 	mov	r3, #-536870912	; 0xe0000000
e0004288:	e58d3078 	str	r3, [sp, #120]	; 0x78
e000428c:	ebfff9b8 	bl	e0002974 <create_device_untypeds>
e0004290:	e28d3078 	add	r3, sp, #120	; 0x78
e0004294:	e58d8000 	str	r8, [sp]
e0004298:	e8960003 	ldm	r6, {r0, r1}
e000429c:	e893000c 	ldm	r3, {r2, r3}
e00042a0:	ebfff9e5 	bl	e0002a3c <create_kernel_untypeds>
e00042a4:	e5942080 	ldr	r2, [r4, #128]	; 0x80
e00042a8:	e594307c 	ldr	r3, [r4, #124]	; 0x7c
e00042ac:	e5941084 	ldr	r1, [r4, #132]	; 0x84
e00042b0:	e583804c 	str	r8, [r3, #76]	; 0x4c
e00042b4:	e5832050 	str	r2, [r3, #80]	; 0x50
e00042b8:	e583901c 	str	r9, [r3, #28]
e00042bc:	e5839020 	str	r9, [r3, #32]
e00042c0:	e5832014 	str	r2, [r3, #20]
e00042c4:	e5831018 	str	r1, [r3, #24]
e00042c8:	f57ff04f 	dsb	sy
e00042cc:	eb00384f 	bl	e0012410 <cleanInvalidate_D_PoC>
e00042d0:	f57ff04f 	dsb	sy
e00042d4:	ee079f15 	mcr	15, 0, r9, cr7, cr5, {0}
e00042d8:	f57ff06f 	isb	sy
e00042dc:	f57ff04f 	dsb	sy
e00042e0:	f57ff04f 	dsb	sy
e00042e4:	ee089f17 	mcr	15, 0, r9, cr8, cr7, {0}
e00042e8:	f57ff04f 	dsb	sy
e00042ec:	f57ff06f 	isb	sy
e00042f0:	e30934c8 	movw	r3, #38088	; 0x94c8
e00042f4:	e34e3002 	movt	r3, #57346	; 0xe002
e00042f8:	e3a02001 	mov	r2, #1
e00042fc:	e5832000 	str	r2, [r3]
e0004300:	eb0048a8 	bl	e00165a8 <schedule>
e0004304:	e28dd09c 	add	sp, sp, #156	; 0x9c
e0004308:	e8bd4ff0 	pop	{r4, r5, r6, r7, r8, r9, sl, fp, lr}
e000430c:	ea003ba2 	b	e001319c <activateThread>
e0004310:	e30b33c8 	movw	r3, #46024	; 0xb3c8
e0004314:	e34e3001 	movt	r3, #57345	; 0xe001
e0004318:	e041a002 	sub	sl, r1, r2
e000431c:	e3a07001 	mov	r7, #1
e0004320:	e593308c 	ldr	r3, [r3, #140]	; 0x8c
e0004324:	e1a0b005 	mov	fp, r5
e0004328:	e281620d 	add	r6, r1, #-805306368	; 0xd0000000
e000432c:	e280420d 	add	r4, r0, #-805306368	; 0xd0000000
e0004330:	e58d605c 	str	r6, [sp, #92]	; 0x5c
e0004334:	e58d301c 	str	r3, [sp, #28]
e0004338:	e28a3a02 	add	r3, sl, #8192	; 0x2000
e000433c:	e58d502c 	str	r5, [sp, #44]	; 0x2c
e0004340:	e58d3018 	str	r3, [sp, #24]
e0004344:	e58d4058 	str	r4, [sp, #88]	; 0x58
e0004348:	e58d5028 	str	r5, [sp, #40]	; 0x28
e000434c:	e58d5020 	str	r5, [sp, #32]
e0004350:	e58d5024 	str	r5, [sp, #36]	; 0x24
e0004354:	e59d3018 	ldr	r3, [sp, #24]
e0004358:	e0837007 	add	r7, r3, r7
e000435c:	e3770212 	cmn	r7, #536870913	; 0x20000001
e0004360:	9afffea8 	bls	e0003e08 <init_kernel+0xa0>
e0004364:	eb0031b4 	bl	e0010a3c <halt>
e0004368:	ebffefe0 	bl	e00002f0 <calculate_extra_bi_size_bits.part.160>
e000436c:	e3a07001 	mov	r7, #1
e0004370:	e58d0024 	str	r0, [sp, #36]	; 0x24
e0004374:	e1a07017 	lsl	r7, r7, r0
e0004378:	eafffff5 	b	e0004354 <init_kernel+0x5ec>
e000437c:	e35604ff 	cmp	r6, #-16777216	; 0xff000000
e0004380:	8a000008 	bhi	e00043a8 <init_kernel+0x640>
e0004384:	e083c181 	add	ip, r3, r1, lsl #3
e0004388:	e0833182 	add	r3, r3, r2, lsl #3
e000438c:	e8900003 	ldm	r0, {r0, r1}
e0004390:	e2833020 	add	r3, r3, #32
e0004394:	e58c4020 	str	r4, [ip, #32]
e0004398:	e58c6024 	str	r6, [ip, #36]	; 0x24
e000439c:	e8830003 	stm	r3, {r0, r1}
e00043a0:	e2822001 	add	r2, r2, #1
e00043a4:	eafffedb 	b	e0003f18 <init_kernel+0x1b0>
e00043a8:	e0831181 	add	r1, r3, r1, lsl #3
e00043ac:	e0833182 	add	r3, r3, r2, lsl #3
e00043b0:	e281c020 	add	ip, r1, #32
e00043b4:	e8900003 	ldm	r0, {r0, r1}
e00043b8:	e88c0003 	stm	ip, {r0, r1}
e00043bc:	e5834020 	str	r4, [r3, #32]
e00043c0:	e5836024 	str	r6, [r3, #36]	; 0x24
e00043c4:	eafffff5 	b	e00043a0 <init_kernel+0x638>
e00043c8:	e59430a4 	ldr	r3, [r4, #164]	; 0xa4
e00043cc:	e28d1080 	add	r1, sp, #128	; 0x80
e00043d0:	e59d204c 	ldr	r2, [sp, #76]	; 0x4c
e00043d4:	e28d708c 	add	r7, sp, #140	; 0x8c
e00043d8:	e0800003 	add	r0, r0, r3
e00043dc:	e58d0084 	str	r0, [sp, #132]	; 0x84
e00043e0:	e58d3080 	str	r3, [sp, #128]	; 0x80
e00043e4:	e2833203 	add	r3, r3, #805306368	; 0x30000000
e00043e8:	e8910003 	ldm	r1, {r0, r1}
e00043ec:	e59dc018 	ldr	ip, [sp, #24]
e00043f0:	e58d2000 	str	r2, [sp]
e00043f4:	e3a02001 	mov	r2, #1
e00043f8:	e043300c 	sub	r3, r3, ip
e00043fc:	e98d0003 	stmib	sp, {r0, r1}
e0004400:	e58d3010 	str	r3, [sp, #16]
e0004404:	e1a00007 	mov	r0, r7
e0004408:	e58d200c 	str	r2, [sp, #12]
e000440c:	e59d3048 	ldr	r3, [sp, #72]	; 0x48
e0004410:	e8960006 	ldm	r6, {r1, r2}
e0004414:	ebfff785 	bl	e0002230 <create_frames_of_region>
e0004418:	e59d3094 	ldr	r3, [sp, #148]	; 0x94
e000441c:	e3530000 	cmp	r3, #0
e0004420:	0affffcf 	beq	e0004364 <init_kernel+0x5fc>
e0004424:	e594307c 	ldr	r3, [r4, #124]	; 0x7c
e0004428:	e8970003 	ldm	r7, {r0, r1}
e000442c:	e283303c 	add	r3, r3, #60	; 0x3c
e0004430:	e8830003 	stm	r3, {r0, r1}
e0004434:	eaffff35 	b	e0004110 <init_kernel+0x3a8>
e0004438:	e0029010 	.word	0xe0029010
e000443c:	e0004480 	.word	0xe0004480
e0004440:	e00044a8 	.word	0xe00044a8
e0004444:	e0029044 	.word	0xe0029044

e0004448 <avail_p_regs>:
e0004448:	10000000 2ff00000                       ......./

e0004450 <kernel_devices>:
e0004450:	00a01000 fff01000 00000001 00000000     ................
e0004460:	00a00000 fff02000 00000001 00000000     ..... ..........
e0004470:	00a02000 fff03000 00000001 00000000     . ...0..........

e0004480 <mode_reserved_region>:
e0004480:	ff000000 ff100000                       ........

e0004488 <avail_reg>:
e0004488:	00000000 00000000 00000000 00000000     ................
e0004498:	00000000 00000000 00000000 00000000     ................

e00044a8 <reserved>:
e00044a8:	00000000 00000000 00000000 00000000     ................
e00044b8:	00000000 00000000 00000000 00000000     ................
e00044c8:	00000000 00000000 00000000 00000000     ................
e00044d8:	00000000 00000000 00000000 00000000     ................
e00044e8:	00000000 00000000 00000000 00000000     ................
e00044f8:	00000000 00000000 00000000 00000000     ................
e0004508:	00000000 00000000 00000000 00000000     ................
e0004518:	00000000 00000000 00000000 00000000     ................
e0004528:	00000000 00000000 00000000 00000000     ................
e0004538:	00000000 00000000 00000000 00000000     ................
e0004548:	00000000 00000000 00000000 00000000     ................
e0004558:	00000000 00000000 00000000 00000000     ................
e0004568:	00000000 00000000 00000000 00000000     ................
e0004578:	00000000 00000000 00000000 00000000     ................
e0004588:	00000000 00000000 00000000 00000000     ................
e0004598:	00000000 00000000 00000000 00000000     ................
e00045a8:	00000000 00000000 00000000 00000000     ................
e00045b8:	00000000 00000000 00000000 00000000     ................
e00045c8:	00000000 00000000 00000000 00000000     ................
e00045d8:	00000000 00000000 00000000 00000000     ................
e00045e8:	00000000 00000000 00000000 00000000     ................
e00045f8:	00000000 00000000 00000000 00000000     ................
e0004608:	00000000 00000000 00000000 00000000     ................
e0004618:	00000000 00000000 00000000 00000000     ................
e0004628:	00000000 00000000 00000000 00000000     ................
e0004638:	00000000 00000000 00000000 00000000     ................
e0004648:	00000000 00000000 00000000 00000000     ................
e0004658:	00000000 00000000 00000000 00000000     ................
e0004668:	00000000 00000000 00000000 00000000     ................
e0004678:	00000000 00000000 00000000 00000000     ................
e0004688:	00000000 00000000 00000000 00000000     ................
e0004698:	00000000 00000000 00000000 00000000     ................
e00046a8:	00000000 00000000 00000000 00000000     ................
e00046b8:	00000000 00000000 00000000 00000000     ................
e00046c8:	00000000 00000000 00000000 00000000     ................
e00046d8:	00000000 00000000 00000000 00000000     ................
e00046e8:	00000000 00000000 00000000 00000000     ................
e00046f8:	00000000 00000000 00000000 00000000     ................
e0004708:	00000000 00000000 00000000 00000000     ................
e0004718:	00000000 00000000 00000000 00000000     ................
e0004728:	00000000 00000000 00000000 00000000     ................
e0004738:	00000000 00000000 00000000 00000000     ................
e0004748:	00000000 00000000 00000000 00000000     ................
e0004758:	00000000 00000000 00000000 00000000     ................
e0004768:	00000000 00000000 00000000 00000000     ................
e0004778:	00000000 00000000 00000000 00000000     ................
e0004788:	00000000 00000000 00000000 00000000     ................
e0004798:	00000000 00000000 00000000 00000000     ................
e00047a8:	00000000 00000000 00000000 00000000     ................
e00047b8:	00000000 00000000 00000000 00000000     ................
e00047c8:	00000000 00000000 00000000 00000000     ................
e00047d8:	00000000 00000000 00000000 00000000     ................
e00047e8:	00000000 00000000 00000000 00000000     ................
e00047f8:	00000000 00000000 00000000 00000000     ................
e0004808:	00000000 00000000 00000000 00000000     ................
e0004818:	00000000 00000000 00000000 00000000     ................
e0004828:	00000000 00000000 00000000 00000000     ................
e0004838:	00000000 00000000 00000000 00000000     ................
e0004848:	00000000 00000000 00000000 00000000     ................
e0004858:	00000000 00000000 00000000 00000000     ................
e0004868:	00000000 00000000 00000000 00000000     ................
e0004878:	00000000 00000000 00000000 00000000     ................
e0004888:	00000000 00000000 00000000 00000000     ................
e0004898:	00000000 00000000 00000000 00000000     ................
e00048a8:	00000000 00000000 00000000 00000000     ................
e00048b8:	00000000 00000000 00000000 00000000     ................
e00048c8:	00000000 00000000 00000000 00000000     ................
e00048d8:	00000000 00000000 00000000 00000000     ................
e00048e8:	00000000 00000000 00000000 00000000     ................
e00048f8:	00000000 00000000 00000000 00000000     ................
e0004908:	00000000 00000000 00000000 00000000     ................
e0004918:	00000000 00000000 00000000 00000000     ................
e0004928:	00000000 00000000 00000000 00000000     ................
e0004938:	00000000 00000000 00000000 00000000     ................
e0004948:	00000000 00000000 00000000 00000000     ................
e0004958:	00000000 00000000 00000000 00000000     ................
e0004968:	00000000 00000000 00000000 00000000     ................
e0004978:	00000000 00000000 00000000 00000000     ................
e0004988:	00000000 00000000 00000000 00000000     ................
e0004998:	00000000 00000000 00000000 00000000     ................
e00049a8:	00000000 00000000 00000000 00000000     ................
e00049b8:	00000000 00000000 00000000 00000000     ................
e00049c8:	00000000 00000000 00000000 00000000     ................
e00049d8:	00000000 00000000 00000000 00000000     ................
e00049e8:	00000000 00000000 00000000 00000000     ................
e00049f8:	00000000 00000000 00000000 00000000     ................
e0004a08:	00000000 00000000 00000000 00000000     ................
e0004a18:	00000000 00000000 00000000 00000000     ................
e0004a28:	00000000 00000000 00000000 00000000     ................
e0004a38:	00000000 00000000 00000000 00000000     ................
e0004a48:	00000000 00000000 00000000 00000000     ................
e0004a58:	00000000 00000000 00000000 00000000     ................
e0004a68:	00000000 00000000 00000000 00000000     ................
e0004a78:	00000000 00000000 00000000 00000000     ................
e0004a88:	00000000 00000000 00000000 00000000     ................
e0004a98:	00000000 00000000 00000000 00000000     ................
e0004aa8:	00000000 00000000 00000000 00000000     ................
e0004ab8:	00000000 00000000 00000000 00000000     ................
e0004ac8:	00000000 00000000 00000000 00000000     ................
e0004ad8:	00000000 00000000 00000000 00000000     ................
e0004ae8:	00000000 00000000 00000000 00000000     ................
e0004af8:	00000000 00000000 00000000 00000000     ................
e0004b08:	00000000 00000000 00000000 00000000     ................
e0004b18:	00000000 00000000 00000000 00000000     ................
e0004b28:	00000000 00000000 00000000 00000000     ................
e0004b38:	00000000 00000000 00000000 00000000     ................
e0004b48:	00000000 00000000 00000000 00000000     ................
e0004b58:	00000000 00000000 00000000 00000000     ................
e0004b68:	00000000 00000000 00000000 00000000     ................
e0004b78:	00000000 00000000 00000000 00000000     ................
e0004b88:	00000000 00000000 00000000 00000000     ................
e0004b98:	00000000 00000000 00000000 00000000     ................
e0004ba8:	00000000 00000000 00000000 00000000     ................
e0004bb8:	00000000 00000000 00000000 00000000     ................
e0004bc8:	00000000 00000000 00000000 00000000     ................
e0004bd8:	00000000 00000000 00000000 00000000     ................
e0004be8:	00000000 00000000 00000000 00000000     ................
e0004bf8:	00000000 00000000 00000000 00000000     ................
e0004c08:	00000000 00000000 00000000 00000000     ................
e0004c18:	00000000 00000000 00000000 00000000     ................
e0004c28:	00000000 00000000 00000000 00000000     ................
e0004c38:	00000000 00000000 00000000 00000000     ................
e0004c48:	00000000 00000000 00000000 00000000     ................
e0004c58:	00000000 00000000 00000000 00000000     ................
e0004c68:	00000000 00000000 00000000 00000000     ................
e0004c78:	00000000 00000000 00000000 00000000     ................
e0004c88:	00000000 00000000 00000000 00000000     ................
e0004c98:	00000000 00000000 00000000 00000000     ................
e0004ca8:	00000000 00000000 00000000 00000000     ................
e0004cb8:	00000000 00000000 00000000 00000000     ................
e0004cc8:	00000000 00000000 00000000 00000000     ................
e0004cd8:	00000000 00000000 00000000 00000000     ................
e0004ce8:	00000000 00000000 00000000 00000000     ................
e0004cf8:	00000000 00000000 00000000 00000000     ................
e0004d08:	00000000 00000000 00000000 00000000     ................
e0004d18:	00000000 00000000 00000000 00000000     ................
e0004d28:	00000000 00000000 00000000 00000000     ................
e0004d38:	00000000 00000000 00000000 00000000     ................
e0004d48:	00000000 00000000 00000000 00000000     ................
e0004d58:	00000000 00000000 00000000 00000000     ................
e0004d68:	00000000 00000000 00000000 00000000     ................
e0004d78:	00000000 00000000 00000000 00000000     ................
e0004d88:	00000000 00000000 00000000 00000000     ................
e0004d98:	00000000 00000000 00000000 00000000     ................
e0004da8:	00000000 00000000 00000000 00000000     ................
e0004db8:	00000000 00000000 00000000 00000000     ................
e0004dc8:	00000000 00000000 00000000 00000000     ................
e0004dd8:	00000000 00000000 00000000 00000000     ................
e0004de8:	00000000 00000000 00000000 00000000     ................
e0004df8:	00000000 00000000 00000000 00000000     ................
e0004e08:	00000000 00000000 00000000 00000000     ................
e0004e18:	00000000 00000000 00000000 00000000     ................
e0004e28:	00000000 00000000 00000000 00000000     ................
e0004e38:	00000000 00000000 00000000 00000000     ................
e0004e48:	00000000 00000000 00000000 00000000     ................
e0004e58:	00000000 00000000 00000000 00000000     ................
e0004e68:	00000000 00000000 00000000 00000000     ................
e0004e78:	00000000 00000000 00000000 00000000     ................
e0004e88:	00000000 00000000 00000000 00000000     ................
e0004e98:	00000000 00000000 00000000 00000000     ................
e0004ea8:	00000000 00000000 00000000 00000000     ................
e0004eb8:	00000000 00000000 00000000 00000000     ................
e0004ec8:	00000000 00000000 00000000 00000000     ................
e0004ed8:	00000000 00000000 00000000 00000000     ................
e0004ee8:	00000000 00000000 00000000 00000000     ................
e0004ef8:	00000000 00000000 00000000 00000000     ................
e0004f08:	00000000 00000000 00000000 00000000     ................
e0004f18:	00000000 00000000 00000000 00000000     ................
e0004f28:	00000000 00000000 00000000 00000000     ................
e0004f38:	00000000 00000000 00000000 00000000     ................
e0004f48:	00000000 00000000 00000000 00000000     ................
e0004f58:	00000000 00000000 00000000 00000000     ................
e0004f68:	00000000 00000000 00000000 00000000     ................
e0004f78:	00000000 00000000 00000000 00000000     ................
e0004f88:	00000000 00000000 00000000 00000000     ................
e0004f98:	00000000 00000000 00000000 00000000     ................
e0004fa8:	00000000 00000000 00000000 00000000     ................
e0004fb8:	00000000 00000000 00000000 00000000     ................
e0004fc8:	00000000 00000000 00000000 00000000     ................
e0004fd8:	00000000 00000000 00000000 00000000     ................
e0004fe8:	00000000 00000000 00000000 00000000     ................
e0004ff8:	00000000 00000000 00000000 00000000     ................
e0005008:	00000000 00000000 00000000 00000000     ................
e0005018:	00000000 00000000 00000000 00000000     ................
e0005028:	00000000 00000000 00000000 00000000     ................
e0005038:	00000000 00000000 00000000 00000000     ................
e0005048:	00000000 00000000 00000000 00000000     ................
e0005058:	00000000 00000000 00000000 00000000     ................
e0005068:	00000000 00000000 00000000 00000000     ................
e0005078:	00000000 00000000 00000000 00000000     ................
e0005088:	00000000 00000000 00000000 00000000     ................
e0005098:	00000000 00000000 00000000 00000000     ................
e00050a8:	00000000 00000000 00000000 00000000     ................
e00050b8:	00000000 00000000 00000000 00000000     ................
e00050c8:	00000000 00000000 00000000 00000000     ................
e00050d8:	00000000 00000000 00000000 00000000     ................
e00050e8:	00000000 00000000 00000000 00000000     ................
e00050f8:	00000000 00000000 00000000 00000000     ................
e0005108:	00000000 00000000 00000000 00000000     ................
e0005118:	00000000 00000000 00000000 00000000     ................
e0005128:	00000000 00000000 00000000 00000000     ................
e0005138:	00000000 00000000 00000000 00000000     ................
e0005148:	00000000 00000000 00000000 00000000     ................
e0005158:	00000000 00000000 00000000 00000000     ................
e0005168:	00000000 00000000 00000000 00000000     ................
e0005178:	00000000 00000000 00000000 00000000     ................
e0005188:	00000000 00000000 00000000 00000000     ................
e0005198:	00000000 00000000 00000000 00000000     ................
e00051a8:	00000000 00000000 00000000 00000000     ................
e00051b8:	00000000 00000000 00000000 00000000     ................
e00051c8:	00000000 00000000 00000000 00000000     ................
e00051d8:	00000000 00000000 00000000 00000000     ................
e00051e8:	00000000 00000000 00000000 00000000     ................
e00051f8:	00000000 00000000 00000000 00000000     ................
e0005208:	00000000 00000000 00000000 00000000     ................
e0005218:	00000000 00000000 00000000 00000000     ................
e0005228:	00000000 00000000 00000000 00000000     ................
e0005238:	00000000 00000000 00000000 00000000     ................
e0005248:	00000000 00000000 00000000 00000000     ................
e0005258:	00000000 00000000 00000000 00000000     ................
e0005268:	00000000 00000000 00000000 00000000     ................
e0005278:	00000000 00000000 00000000 00000000     ................
e0005288:	00000000 00000000 00000000 00000000     ................
e0005298:	00000000 00000000 00000000 00000000     ................
e00052a8:	00000000 00000000 00000000 00000000     ................
e00052b8:	00000000 00000000 00000000 00000000     ................
e00052c8:	00000000 00000000 00000000 00000000     ................
e00052d8:	00000000 00000000 00000000 00000000     ................
e00052e8:	00000000 00000000 00000000 00000000     ................
e00052f8:	00000000 00000000 00000000 00000000     ................
e0005308:	00000000 00000000 00000000 00000000     ................
e0005318:	00000000 00000000 00000000 00000000     ................
e0005328:	00000000 00000000 00000000 00000000     ................
e0005338:	00000000 00000000 00000000 00000000     ................
e0005348:	00000000 00000000 00000000 00000000     ................
e0005358:	00000000 00000000 00000000 00000000     ................
e0005368:	00000000 00000000 00000000 00000000     ................
e0005378:	00000000 00000000 00000000 00000000     ................
e0005388:	00000000 00000000 00000000 00000000     ................
e0005398:	00000000 00000000 00000000 00000000     ................
e00053a8:	00000000 00000000 00000000 00000000     ................
e00053b8:	00000000 00000000 00000000 00000000     ................
e00053c8:	00000000 00000000 00000000 00000000     ................
e00053d8:	00000000 00000000 00000000 00000000     ................
e00053e8:	00000000 00000000 00000000 00000000     ................
e00053f8:	00000000 00000000 00000000 00000000     ................
e0005408:	00000000 00000000 00000000 00000000     ................
e0005418:	00000000 00000000 00000000 00000000     ................
e0005428:	00000000 00000000 00000000 00000000     ................
e0005438:	00000000 00000000 00000000 00000000     ................
e0005448:	00000000 00000000 00000000 00000000     ................
e0005458:	00000000 00000000 00000000 00000000     ................
e0005468:	00000000 00000000 00000000 00000000     ................
e0005478:	00000000 00000000 00000000 00000000     ................
e0005488:	00000000 00000000 00000000 00000000     ................
e0005498:	00000000 00000000 00000000 00000000     ................
e00054a8:	00000000 00000000 00000000 00000000     ................
e00054b8:	00000000 00000000 00000000 00000000     ................
e00054c8:	00000000 00000000 00000000 00000000     ................
e00054d8:	00000000 00000000 00000000 00000000     ................
e00054e8:	00000000 00000000 00000000 00000000     ................
e00054f8:	00000000 00000000 00000000 00000000     ................
e0005508:	00000000 00000000 00000000 00000000     ................
e0005518:	00000000 00000000 00000000 00000000     ................
e0005528:	00000000 00000000 00000000 00000000     ................
e0005538:	00000000 00000000 00000000 00000000     ................
e0005548:	00000000 00000000 00000000 00000000     ................
e0005558:	00000000 00000000 00000000 00000000     ................
e0005568:	00000000 00000000 00000000 00000000     ................
e0005578:	00000000 00000000 00000000 00000000     ................
e0005588:	00000000 00000000 00000000 00000000     ................
e0005598:	00000000 00000000 00000000 00000000     ................
e00055a8:	00000000 00000000 00000000 00000000     ................
e00055b8:	00000000 00000000 00000000 00000000     ................
e00055c8:	00000000 00000000 00000000 00000000     ................
e00055d8:	00000000 00000000 00000000 00000000     ................
e00055e8:	00000000 00000000 00000000 00000000     ................
e00055f8:	00000000 00000000 00000000 00000000     ................
e0005608:	00000000 00000000 00000000 00000000     ................
e0005618:	00000000 00000000 00000000 00000000     ................
e0005628:	00000000 00000000 00000000 00000000     ................
e0005638:	00000000 00000000 00000000 00000000     ................
e0005648:	00000000 00000000 00000000 00000000     ................
e0005658:	00000000 00000000 00000000 00000000     ................
e0005668:	00000000 00000000 00000000 00000000     ................
e0005678:	00000000 00000000 00000000 00000000     ................
e0005688:	00000000 00000000 00000000 00000000     ................
e0005698:	00000000 00000000 00000000 00000000     ................
e00056a8:	00000000 00000000 00000000 00000000     ................
e00056b8:	00000000 00000000 00000000 00000000     ................
e00056c8:	00000000 00000000 00000000 00000000     ................
e00056d8:	00000000 00000000 00000000 00000000     ................
e00056e8:	00000000 00000000 00000000 00000000     ................
e00056f8:	00000000 00000000 00000000 00000000     ................
e0005708:	00000000 00000000 00000000 00000000     ................
e0005718:	00000000 00000000 00000000 00000000     ................
e0005728:	00000000 00000000 00000000 00000000     ................
e0005738:	00000000 00000000 00000000 00000000     ................
e0005748:	00000000 00000000 00000000 00000000     ................
e0005758:	00000000 00000000 00000000 00000000     ................
e0005768:	00000000 00000000 00000000 00000000     ................
e0005778:	00000000 00000000 00000000 00000000     ................
e0005788:	00000000 00000000 00000000 00000000     ................
e0005798:	00000000 00000000 00000000 00000000     ................
e00057a8:	00000000 00000000 00000000 00000000     ................
e00057b8:	00000000 00000000 00000000 00000000     ................
e00057c8:	00000000 00000000 00000000 00000000     ................
e00057d8:	00000000 00000000 00000000 00000000     ................
e00057e8:	00000000 00000000 00000000 00000000     ................
e00057f8:	00000000 00000000 00000000 00000000     ................
e0005808:	00000000 00000000 00000000 00000000     ................
e0005818:	00000000 00000000 00000000 00000000     ................
e0005828:	00000000 00000000 00000000 00000000     ................
e0005838:	00000000 00000000 00000000 00000000     ................
e0005848:	00000000 00000000 00000000 00000000     ................
e0005858:	00000000 00000000 00000000 00000000     ................
e0005868:	00000000 00000000 00000000 00000000     ................
e0005878:	00000000 00000000 00000000 00000000     ................
e0005888:	00000000 00000000 00000000 00000000     ................
e0005898:	00000000 00000000 00000000 00000000     ................
e00058a8:	00000000 00000000 00000000 00000000     ................
e00058b8:	00000000 00000000 00000000 00000000     ................
e00058c8:	00000000 00000000 00000000 00000000     ................
e00058d8:	00000000 00000000 00000000 00000000     ................
e00058e8:	00000000 00000000 00000000 00000000     ................
e00058f8:	00000000 00000000 00000000 00000000     ................
e0005908:	00000000 00000000 00000000 00000000     ................
e0005918:	00000000 00000000 00000000 00000000     ................
e0005928:	00000000 00000000 00000000 00000000     ................
e0005938:	00000000 00000000 00000000 00000000     ................
e0005948:	00000000 00000000 00000000 00000000     ................
e0005958:	00000000 00000000 00000000 00000000     ................
e0005968:	00000000 00000000 00000000 00000000     ................
e0005978:	00000000 00000000 00000000 00000000     ................
e0005988:	00000000 00000000 00000000 00000000     ................
e0005998:	00000000 00000000 00000000 00000000     ................
e00059a8:	00000000 00000000 00000000 00000000     ................
e00059b8:	00000000 00000000 00000000 00000000     ................
e00059c8:	00000000 00000000 00000000 00000000     ................
e00059d8:	00000000 00000000 00000000 00000000     ................
e00059e8:	00000000 00000000 00000000 00000000     ................
e00059f8:	00000000 00000000 00000000 00000000     ................
e0005a08:	00000000 00000000 00000000 00000000     ................
e0005a18:	00000000 00000000 00000000 00000000     ................
e0005a28:	00000000 00000000 00000000 00000000     ................
e0005a38:	00000000 00000000 00000000 00000000     ................
e0005a48:	00000000 00000000 00000000 00000000     ................
e0005a58:	00000000 00000000 00000000 00000000     ................
e0005a68:	00000000 00000000 00000000 00000000     ................
e0005a78:	00000000 00000000 00000000 00000000     ................
e0005a88:	00000000 00000000 00000000 00000000     ................
e0005a98:	00000000 00000000 00000000 00000000     ................
e0005aa8:	00000000 00000000 00000000 00000000     ................
e0005ab8:	00000000 00000000 00000000 00000000     ................
e0005ac8:	00000000 00000000 00000000 00000000     ................
e0005ad8:	00000000 00000000 00000000 00000000     ................
e0005ae8:	00000000 00000000 00000000 00000000     ................
e0005af8:	00000000 00000000 00000000 00000000     ................
e0005b08:	00000000 00000000 00000000 00000000     ................
e0005b18:	00000000 00000000 00000000 00000000     ................
e0005b28:	00000000 00000000 00000000 00000000     ................
e0005b38:	00000000 00000000 00000000 00000000     ................
e0005b48:	00000000 00000000 00000000 00000000     ................
e0005b58:	00000000 00000000 00000000 00000000     ................
e0005b68:	00000000 00000000 00000000 00000000     ................
e0005b78:	00000000 00000000 00000000 00000000     ................
e0005b88:	00000000 00000000 00000000 00000000     ................
e0005b98:	00000000 00000000 00000000 00000000     ................
e0005ba8:	00000000 00000000 00000000 00000000     ................
e0005bb8:	00000000 00000000 00000000 00000000     ................
e0005bc8:	00000000 00000000 00000000 00000000     ................
e0005bd8:	00000000 00000000 00000000 00000000     ................
e0005be8:	00000000 00000000 00000000 00000000     ................
e0005bf8:	00000000 00000000 00000000 00000000     ................
e0005c08:	00000000 00000000 00000000 00000000     ................
e0005c18:	00000000 00000000 00000000 00000000     ................
e0005c28:	00000000 00000000 00000000 00000000     ................
e0005c38:	00000000 00000000 00000000 00000000     ................
e0005c48:	00000000 00000000 00000000 00000000     ................
e0005c58:	00000000 00000000 00000000 00000000     ................
e0005c68:	00000000 00000000 00000000 00000000     ................
e0005c78:	00000000 00000000 00000000 00000000     ................
e0005c88:	00000000 00000000 00000000 00000000     ................
e0005c98:	00000000 00000000 00000000 00000000     ................
e0005ca8:	00000000 00000000 00000000 00000000     ................
e0005cb8:	00000000 00000000 00000000 00000000     ................
e0005cc8:	00000000 00000000 00000000 00000000     ................
e0005cd8:	00000000 00000000 00000000 00000000     ................
e0005ce8:	00000000 00000000 00000000 00000000     ................
e0005cf8:	00000000 00000000 00000000 00000000     ................
e0005d08:	00000000 00000000 00000000 00000000     ................
e0005d18:	00000000 00000000 00000000 00000000     ................
e0005d28:	00000000 00000000 00000000 00000000     ................
e0005d38:	00000000 00000000 00000000 00000000     ................
e0005d48:	00000000 00000000 00000000 00000000     ................
e0005d58:	00000000 00000000 00000000 00000000     ................
e0005d68:	00000000 00000000 00000000 00000000     ................
e0005d78:	00000000 00000000 00000000 00000000     ................
e0005d88:	00000000 00000000 00000000 00000000     ................
e0005d98:	00000000 00000000 00000000 00000000     ................
e0005da8:	00000000 00000000 00000000 00000000     ................
e0005db8:	00000000 00000000 00000000 00000000     ................
e0005dc8:	00000000 00000000 00000000 00000000     ................
e0005dd8:	00000000 00000000 00000000 00000000     ................
e0005de8:	00000000 00000000 00000000 00000000     ................
e0005df8:	00000000 00000000 00000000 00000000     ................
e0005e08:	00000000 00000000 00000000 00000000     ................
e0005e18:	00000000 00000000 00000000 00000000     ................
e0005e28:	00000000 00000000 00000000 00000000     ................
e0005e38:	00000000 00000000 00000000 00000000     ................
e0005e48:	00000000 00000000 00000000 00000000     ................
e0005e58:	00000000 00000000 00000000 00000000     ................
e0005e68:	00000000 00000000 00000000 00000000     ................
e0005e78:	00000000 00000000 00000000 00000000     ................
e0005e88:	00000000 00000000 00000000 00000000     ................
e0005e98:	00000000 00000000 00000000 00000000     ................
e0005ea8:	00000000 00000000 00000000 00000000     ................
e0005eb8:	00000000 00000000 00000000 00000000     ................
e0005ec8:	00000000 00000000 00000000 00000000     ................
e0005ed8:	00000000 00000000 00000000 00000000     ................
e0005ee8:	00000000 00000000 00000000 00000000     ................
e0005ef8:	00000000 00000000 00000000 00000000     ................
e0005f08:	00000000 00000000 00000000 00000000     ................
e0005f18:	00000000 00000000 00000000 00000000     ................
e0005f28:	00000000 00000000 00000000 00000000     ................
e0005f38:	00000000 00000000 00000000 00000000     ................
e0005f48:	00000000 00000000 00000000 00000000     ................
e0005f58:	00000000 00000000 00000000 00000000     ................
e0005f68:	00000000 00000000 00000000 00000000     ................
e0005f78:	00000000 00000000 00000000 00000000     ................
e0005f88:	00000000 00000000 00000000 00000000     ................
e0005f98:	00000000 00000000 00000000 00000000     ................
e0005fa8:	00000000 00000000 00000000 00000000     ................
e0005fb8:	00000000 00000000 00000000 00000000     ................
e0005fc8:	00000000 00000000 00000000 00000000     ................
e0005fd8:	00000000 00000000 00000000 00000000     ................
e0005fe8:	00000000 00000000 00000000 00000000     ................
e0005ff8:	00000000 00000000 00000000 00000000     ................
e0006008:	00000000 00000000 00000000 00000000     ................
e0006018:	00000000 00000000 00000000 00000000     ................
e0006028:	00000000 00000000 00000000 00000000     ................
e0006038:	00000000 00000000 00000000 00000000     ................
e0006048:	00000000 00000000 00000000 00000000     ................
e0006058:	00000000 00000000 00000000 00000000     ................
e0006068:	00000000 00000000 00000000 00000000     ................
e0006078:	00000000 00000000 00000000 00000000     ................
e0006088:	00000000 00000000 00000000 00000000     ................
e0006098:	00000000 00000000 00000000 00000000     ................
e00060a8:	00000000 00000000 00000000 00000000     ................
e00060b8:	00000000 00000000 00000000 00000000     ................
e00060c8:	00000000 00000000 00000000 00000000     ................
e00060d8:	00000000 00000000 00000000 00000000     ................
e00060e8:	00000000 00000000 00000000 00000000     ................
e00060f8:	00000000 00000000 00000000 00000000     ................
e0006108:	00000000 00000000 00000000 00000000     ................
e0006118:	00000000 00000000 00000000 00000000     ................
e0006128:	00000000 00000000 00000000 00000000     ................
e0006138:	00000000 00000000 00000000 00000000     ................
e0006148:	00000000 00000000 00000000 00000000     ................
e0006158:	00000000 00000000 00000000 00000000     ................
e0006168:	00000000 00000000 00000000 00000000     ................
e0006178:	00000000 00000000 00000000 00000000     ................
e0006188:	00000000 00000000 00000000 00000000     ................
e0006198:	00000000 00000000 00000000 00000000     ................
e00061a8:	00000000 00000000 00000000 00000000     ................
e00061b8:	00000000 00000000 00000000 00000000     ................
e00061c8:	00000000 00000000 00000000 00000000     ................
e00061d8:	00000000 00000000 00000000 00000000     ................
e00061e8:	00000000 00000000 00000000 00000000     ................
e00061f8:	00000000 00000000 00000000 00000000     ................
e0006208:	00000000 00000000 00000000 00000000     ................
e0006218:	00000000 00000000 00000000 00000000     ................
e0006228:	00000000 00000000 00000000 00000000     ................
e0006238:	00000000 00000000 00000000 00000000     ................
e0006248:	00000000 00000000 00000000 00000000     ................
e0006258:	00000000 00000000 00000000 00000000     ................
e0006268:	00000000 00000000 00000000 00000000     ................
e0006278:	00000000 00000000 00000000 00000000     ................
e0006288:	00000000 00000000 00000000 00000000     ................
e0006298:	00000000 00000000 00000000 00000000     ................
e00062a8:	00000000 00000000 00000000 00000000     ................
e00062b8:	00000000 00000000 00000000 00000000     ................
e00062c8:	00000000 00000000 00000000 00000000     ................
e00062d8:	00000000 00000000 00000000 00000000     ................
e00062e8:	00000000 00000000 00000000 00000000     ................
e00062f8:	00000000 00000000 00000000 00000000     ................
e0006308:	00000000 00000000 00000000 00000000     ................
e0006318:	00000000 00000000 00000000 00000000     ................
e0006328:	00000000 00000000 00000000 00000000     ................
e0006338:	00000000 00000000 00000000 00000000     ................
e0006348:	00000000 00000000 00000000 00000000     ................
e0006358:	00000000 00000000 00000000 00000000     ................
e0006368:	00000000 00000000 00000000 00000000     ................
e0006378:	00000000 00000000 00000000 00000000     ................
e0006388:	00000000 00000000 00000000 00000000     ................
e0006398:	00000000 00000000 00000000 00000000     ................
e00063a8:	00000000 00000000 00000000 00000000     ................
e00063b8:	00000000 00000000 00000000 00000000     ................
e00063c8:	00000000 00000000 00000000 00000000     ................
e00063d8:	00000000 00000000 00000000 00000000     ................
e00063e8:	00000000 00000000 00000000 00000000     ................
e00063f8:	00000000 00000000 00000000 00000000     ................
e0006408:	00000000 00000000 00000000 00000000     ................
e0006418:	00000000 00000000 00000000 00000000     ................
e0006428:	00000000 00000000 00000000 00000000     ................
e0006438:	00000000 00000000 00000000 00000000     ................
e0006448:	00000000 00000000 00000000 00000000     ................
e0006458:	00000000 00000000 00000000 00000000     ................
e0006468:	00000000 00000000 00000000 00000000     ................
e0006478:	00000000 00000000 00000000 00000000     ................
e0006488:	00000000 00000000 00000000 00000000     ................
e0006498:	00000000 00000000 00000000 00000000     ................
e00064a8:	00000000 00000000 00000000 00000000     ................
e00064b8:	00000000 00000000 00000000 00000000     ................
e00064c8:	00000000 00000000 00000000 00000000     ................
e00064d8:	00000000 00000000 00000000 00000000     ................
e00064e8:	00000000 00000000 00000000 00000000     ................
e00064f8:	00000000 00000000 00000000 00000000     ................
e0006508:	00000000 00000000 00000000 00000000     ................
e0006518:	00000000 00000000 00000000 00000000     ................
e0006528:	00000000 00000000 00000000 00000000     ................
e0006538:	00000000 00000000 00000000 00000000     ................
e0006548:	00000000 00000000 00000000 00000000     ................
e0006558:	00000000 00000000 00000000 00000000     ................
e0006568:	00000000 00000000 00000000 00000000     ................
e0006578:	00000000 00000000 00000000 00000000     ................
e0006588:	00000000 00000000 00000000 00000000     ................
e0006598:	00000000 00000000 00000000 00000000     ................
e00065a8:	00000000 00000000 00000000 00000000     ................
e00065b8:	00000000 00000000 00000000 00000000     ................
e00065c8:	00000000 00000000 00000000 00000000     ................
e00065d8:	00000000 00000000 00000000 00000000     ................
e00065e8:	00000000 00000000 00000000 00000000     ................
e00065f8:	00000000 00000000 00000000 00000000     ................
e0006608:	00000000 00000000 00000000 00000000     ................
e0006618:	00000000 00000000 00000000 00000000     ................
e0006628:	00000000 00000000 00000000 00000000     ................
e0006638:	00000000 00000000 00000000 00000000     ................
e0006648:	00000000 00000000 00000000 00000000     ................
e0006658:	00000000 00000000 00000000 00000000     ................
e0006668:	00000000 00000000 00000000 00000000     ................
e0006678:	00000000 00000000 00000000 00000000     ................
e0006688:	00000000 00000000 00000000 00000000     ................
e0006698:	00000000 00000000 00000000 00000000     ................
e00066a8:	00000000 00000000 00000000 00000000     ................
e00066b8:	00000000 00000000 00000000 00000000     ................
e00066c8:	00000000 00000000 00000000 00000000     ................
e00066d8:	00000000 00000000 00000000 00000000     ................
e00066e8:	00000000 00000000 00000000 00000000     ................
e00066f8:	00000000 00000000 00000000 00000000     ................
e0006708:	00000000 00000000 00000000 00000000     ................
e0006718:	00000000 00000000 00000000 00000000     ................
e0006728:	00000000 00000000 00000000 00000000     ................
e0006738:	00000000 00000000 00000000 00000000     ................
e0006748:	00000000 00000000 00000000 00000000     ................
e0006758:	00000000 00000000 00000000 00000000     ................
e0006768:	00000000 00000000 00000000 00000000     ................
e0006778:	00000000 00000000 00000000 00000000     ................
e0006788:	00000000 00000000 00000000 00000000     ................
e0006798:	00000000 00000000 00000000 00000000     ................
e00067a8:	00000000 00000000 00000000 00000000     ................
e00067b8:	00000000 00000000 00000000 00000000     ................
e00067c8:	00000000 00000000 00000000 00000000     ................
e00067d8:	00000000 00000000 00000000 00000000     ................
e00067e8:	00000000 00000000 00000000 00000000     ................
e00067f8:	00000000 00000000 00000000 00000000     ................
e0006808:	00000000 00000000 00000000 00000000     ................
e0006818:	00000000 00000000 00000000 00000000     ................
e0006828:	00000000 00000000 00000000 00000000     ................
e0006838:	00000000 00000000 00000000 00000000     ................
e0006848:	00000000 00000000 00000000 00000000     ................
e0006858:	00000000 00000000 00000000 00000000     ................
e0006868:	00000000 00000000 00000000 00000000     ................
e0006878:	00000000 00000000 00000000 00000000     ................
e0006888:	00000000 00000000 00000000 00000000     ................
e0006898:	00000000 00000000 00000000 00000000     ................
e00068a8:	00000000 00000000 00000000 00000000     ................
e00068b8:	00000000 00000000 00000000 00000000     ................
e00068c8:	00000000 00000000 00000000 00000000     ................
e00068d8:	00000000 00000000 00000000 00000000     ................
e00068e8:	00000000 00000000 00000000 00000000     ................
e00068f8:	00000000 00000000 00000000 00000000     ................
e0006908:	00000000 00000000 00000000 00000000     ................
e0006918:	00000000 00000000 00000000 00000000     ................
e0006928:	00000000 00000000 00000000 00000000     ................
e0006938:	00000000 00000000 00000000 00000000     ................
e0006948:	00000000 00000000 00000000 00000000     ................
e0006958:	00000000 00000000 00000000 00000000     ................
e0006968:	00000000 00000000 00000000 00000000     ................
e0006978:	00000000 00000000 00000000 00000000     ................
e0006988:	00000000 00000000 00000000 00000000     ................
e0006998:	00000000 00000000 00000000 00000000     ................
e00069a8:	00000000 00000000 00000000 00000000     ................
e00069b8:	00000000 00000000 00000000 00000000     ................
e00069c8:	00000000 00000000 00000000 00000000     ................
e00069d8:	00000000 00000000 00000000 00000000     ................
e00069e8:	00000000 00000000 00000000 00000000     ................
e00069f8:	00000000 00000000 00000000 00000000     ................
e0006a08:	00000000 00000000 00000000 00000000     ................
e0006a18:	00000000 00000000 00000000 00000000     ................
e0006a28:	00000000 00000000 00000000 00000000     ................
e0006a38:	00000000 00000000 00000000 00000000     ................
e0006a48:	00000000 00000000 00000000 00000000     ................
e0006a58:	00000000 00000000 00000000 00000000     ................
e0006a68:	00000000 00000000 00000000 00000000     ................
e0006a78:	00000000 00000000 00000000 00000000     ................
e0006a88:	00000000 00000000 00000000 00000000     ................
e0006a98:	00000000 00000000 00000000 00000000     ................
e0006aa8:	00000000 00000000 00000000 00000000     ................
e0006ab8:	00000000 00000000 00000000 00000000     ................
e0006ac8:	00000000 00000000 00000000 00000000     ................
e0006ad8:	00000000 00000000 00000000 00000000     ................
e0006ae8:	00000000 00000000 00000000 00000000     ................
e0006af8:	00000000 00000000 00000000 00000000     ................
e0006b08:	00000000 00000000 00000000 00000000     ................
e0006b18:	00000000 00000000 00000000 00000000     ................
e0006b28:	00000000 00000000 00000000 00000000     ................
e0006b38:	00000000 00000000 00000000 00000000     ................
e0006b48:	00000000 00000000 00000000 00000000     ................
e0006b58:	00000000 00000000 00000000 00000000     ................
e0006b68:	00000000 00000000 00000000 00000000     ................
e0006b78:	00000000 00000000 00000000 00000000     ................
e0006b88:	00000000 00000000 00000000 00000000     ................
e0006b98:	00000000 00000000 00000000 00000000     ................
e0006ba8:	00000000 00000000 00000000 00000000     ................
e0006bb8:	00000000 00000000 00000000 00000000     ................
e0006bc8:	00000000 00000000 00000000 00000000     ................
e0006bd8:	00000000 00000000 00000000 00000000     ................
e0006be8:	00000000 00000000 00000000 00000000     ................
e0006bf8:	00000000 00000000 00000000 00000000     ................
e0006c08:	00000000 00000000 00000000 00000000     ................
e0006c18:	00000000 00000000 00000000 00000000     ................
e0006c28:	00000000 00000000 00000000 00000000     ................
e0006c38:	00000000 00000000 00000000 00000000     ................
e0006c48:	00000000 00000000 00000000 00000000     ................
e0006c58:	00000000 00000000 00000000 00000000     ................
e0006c68:	00000000 00000000 00000000 00000000     ................
e0006c78:	00000000 00000000 00000000 00000000     ................
e0006c88:	00000000 00000000 00000000 00000000     ................
e0006c98:	00000000 00000000 00000000 00000000     ................
e0006ca8:	00000000 00000000 00000000 00000000     ................
e0006cb8:	00000000 00000000 00000000 00000000     ................
e0006cc8:	00000000 00000000 00000000 00000000     ................
e0006cd8:	00000000 00000000 00000000 00000000     ................
e0006ce8:	00000000 00000000 00000000 00000000     ................
e0006cf8:	00000000 00000000 00000000 00000000     ................
e0006d08:	00000000 00000000 00000000 00000000     ................
e0006d18:	00000000 00000000 00000000 00000000     ................
e0006d28:	00000000 00000000 00000000 00000000     ................
e0006d38:	00000000 00000000 00000000 00000000     ................
e0006d48:	00000000 00000000 00000000 00000000     ................
e0006d58:	00000000 00000000 00000000 00000000     ................
e0006d68:	00000000 00000000 00000000 00000000     ................
e0006d78:	00000000 00000000 00000000 00000000     ................
e0006d88:	00000000 00000000 00000000 00000000     ................
e0006d98:	00000000 00000000 00000000 00000000     ................
e0006da8:	00000000 00000000 00000000 00000000     ................
e0006db8:	00000000 00000000 00000000 00000000     ................
e0006dc8:	00000000 00000000 00000000 00000000     ................
e0006dd8:	00000000 00000000 00000000 00000000     ................
e0006de8:	00000000 00000000 00000000 00000000     ................
e0006df8:	00000000 00000000 00000000 00000000     ................
e0006e08:	00000000 00000000 00000000 00000000     ................
e0006e18:	00000000 00000000 00000000 00000000     ................
e0006e28:	00000000 00000000 00000000 00000000     ................
e0006e38:	00000000 00000000 00000000 00000000     ................
e0006e48:	00000000 00000000 00000000 00000000     ................
e0006e58:	00000000 00000000 00000000 00000000     ................
e0006e68:	00000000 00000000 00000000 00000000     ................
e0006e78:	00000000 00000000 00000000 00000000     ................
e0006e88:	00000000 00000000 00000000 00000000     ................
e0006e98:	00000000 00000000 00000000 00000000     ................
e0006ea8:	00000000 00000000 00000000 00000000     ................
e0006eb8:	00000000 00000000 00000000 00000000     ................
e0006ec8:	00000000 00000000 00000000 00000000     ................
e0006ed8:	00000000 00000000 00000000 00000000     ................
e0006ee8:	00000000 00000000 00000000 00000000     ................
e0006ef8:	00000000 00000000 00000000 00000000     ................
e0006f08:	00000000 00000000 00000000 00000000     ................
e0006f18:	00000000 00000000 00000000 00000000     ................
e0006f28:	00000000 00000000 00000000 00000000     ................
e0006f38:	00000000 00000000 00000000 00000000     ................
e0006f48:	00000000 00000000 00000000 00000000     ................
e0006f58:	00000000 00000000 00000000 00000000     ................
e0006f68:	00000000 00000000 00000000 00000000     ................
e0006f78:	00000000 00000000 00000000 00000000     ................
e0006f88:	00000000 00000000 00000000 00000000     ................
e0006f98:	00000000 00000000 00000000 00000000     ................
e0006fa8:	00000000 00000000 00000000 00000000     ................
e0006fb8:	00000000 00000000 00000000 00000000     ................
e0006fc8:	00000000 00000000 00000000 00000000     ................
e0006fd8:	00000000 00000000 00000000 00000000     ................
e0006fe8:	00000000 00000000 00000000 00000000     ................
e0006ff8:	00000000 00000000 00000000 00000000     ................
e0007008:	00000000 00000000 00000000 00000000     ................
e0007018:	00000000 00000000 00000000 00000000     ................
e0007028:	00000000 00000000 00000000 00000000     ................
e0007038:	00000000 00000000 00000000 00000000     ................
e0007048:	00000000 00000000 00000000 00000000     ................
e0007058:	00000000 00000000 00000000 00000000     ................
e0007068:	00000000 00000000 00000000 00000000     ................
e0007078:	00000000 00000000 00000000 00000000     ................
e0007088:	00000000 00000000 00000000 00000000     ................
e0007098:	00000000 00000000 00000000 00000000     ................
e00070a8:	00000000 00000000 00000000 00000000     ................
e00070b8:	00000000 00000000 00000000 00000000     ................
e00070c8:	00000000 00000000 00000000 00000000     ................
e00070d8:	00000000 00000000 00000000 00000000     ................
e00070e8:	00000000 00000000 00000000 00000000     ................
e00070f8:	00000000 00000000 00000000 00000000     ................
e0007108:	00000000 00000000 00000000 00000000     ................
e0007118:	00000000 00000000 00000000 00000000     ................
e0007128:	00000000 00000000 00000000 00000000     ................
e0007138:	00000000 00000000 00000000 00000000     ................
e0007148:	00000000 00000000 00000000 00000000     ................
e0007158:	00000000 00000000 00000000 00000000     ................
e0007168:	00000000 00000000 00000000 00000000     ................
e0007178:	00000000 00000000 00000000 00000000     ................
e0007188:	00000000 00000000 00000000 00000000     ................
e0007198:	00000000 00000000 00000000 00000000     ................
e00071a8:	00000000 00000000 00000000 00000000     ................
e00071b8:	00000000 00000000 00000000 00000000     ................
e00071c8:	00000000 00000000 00000000 00000000     ................
e00071d8:	00000000 00000000 00000000 00000000     ................
e00071e8:	00000000 00000000 00000000 00000000     ................
e00071f8:	00000000 00000000 00000000 00000000     ................
e0007208:	00000000 00000000 00000000 00000000     ................
e0007218:	00000000 00000000 00000000 00000000     ................
e0007228:	00000000 00000000 00000000 00000000     ................
e0007238:	00000000 00000000 00000000 00000000     ................
e0007248:	00000000 00000000 00000000 00000000     ................
e0007258:	00000000 00000000 00000000 00000000     ................
e0007268:	00000000 00000000 00000000 00000000     ................
e0007278:	00000000 00000000 00000000 00000000     ................
e0007288:	00000000 00000000 00000000 00000000     ................
e0007298:	00000000 00000000 00000000 00000000     ................
e00072a8:	00000000 00000000 00000000 00000000     ................
e00072b8:	00000000 00000000 00000000 00000000     ................
e00072c8:	00000000 00000000 00000000 00000000     ................
e00072d8:	00000000 00000000 00000000 00000000     ................
e00072e8:	00000000 00000000 00000000 00000000     ................
e00072f8:	00000000 00000000 00000000 00000000     ................
e0007308:	00000000 00000000 00000000 00000000     ................
e0007318:	00000000 00000000 00000000 00000000     ................
e0007328:	00000000 00000000 00000000 00000000     ................
e0007338:	00000000 00000000 00000000 00000000     ................
e0007348:	00000000 00000000 00000000 00000000     ................
e0007358:	00000000 00000000 00000000 00000000     ................
e0007368:	00000000 00000000 00000000 00000000     ................
e0007378:	00000000 00000000 00000000 00000000     ................
e0007388:	00000000 00000000 00000000 00000000     ................
e0007398:	00000000 00000000 00000000 00000000     ................
e00073a8:	00000000 00000000 00000000 00000000     ................
e00073b8:	00000000 00000000 00000000 00000000     ................
e00073c8:	00000000 00000000 00000000 00000000     ................
e00073d8:	00000000 00000000 00000000 00000000     ................
e00073e8:	00000000 00000000 00000000 00000000     ................
e00073f8:	00000000 00000000 00000000 00000000     ................
e0007408:	00000000 00000000 00000000 00000000     ................
e0007418:	00000000 00000000 00000000 00000000     ................
e0007428:	00000000 00000000 00000000 00000000     ................
e0007438:	00000000 00000000 00000000 00000000     ................
e0007448:	00000000 00000000 00000000 00000000     ................
e0007458:	00000000 00000000 00000000 00000000     ................
e0007468:	00000000 00000000 00000000 00000000     ................
e0007478:	00000000 00000000 00000000 00000000     ................
e0007488:	00000000 00000000 00000000 00000000     ................
e0007498:	00000000 00000000 00000000 00000000     ................
e00074a8:	00000000 00000000 00000000 00000000     ................
e00074b8:	00000000 00000000 00000000 00000000     ................
e00074c8:	00000000 00000000 00000000 00000000     ................
e00074d8:	00000000 00000000 00000000 00000000     ................
e00074e8:	00000000 00000000 00000000 00000000     ................
e00074f8:	00000000 00000000 00000000 00000000     ................
e0007508:	00000000 00000000 00000000 00000000     ................
e0007518:	00000000 00000000 00000000 00000000     ................
e0007528:	00000000 00000000 00000000 00000000     ................
e0007538:	00000000 00000000 00000000 00000000     ................
e0007548:	00000000 00000000 00000000 00000000     ................
e0007558:	00000000 00000000 00000000 00000000     ................
e0007568:	00000000 00000000 00000000 00000000     ................
e0007578:	00000000 00000000 00000000 00000000     ................
e0007588:	00000000 00000000 00000000 00000000     ................
e0007598:	00000000 00000000 00000000 00000000     ................
e00075a8:	00000000 00000000 00000000 00000000     ................
e00075b8:	00000000 00000000 00000000 00000000     ................
e00075c8:	00000000 00000000 00000000 00000000     ................
e00075d8:	00000000 00000000 00000000 00000000     ................
e00075e8:	00000000 00000000 00000000 00000000     ................
e00075f8:	00000000 00000000 00000000 00000000     ................
e0007608:	00000000 00000000 00000000 00000000     ................
e0007618:	00000000 00000000 00000000 00000000     ................
e0007628:	00000000 00000000 00000000 00000000     ................
e0007638:	00000000 00000000 00000000 00000000     ................
e0007648:	00000000 00000000 00000000 00000000     ................
e0007658:	00000000 00000000 00000000 00000000     ................
e0007668:	00000000 00000000 00000000 00000000     ................
e0007678:	00000000 00000000 00000000 00000000     ................
e0007688:	00000000 00000000 00000000 00000000     ................
e0007698:	00000000 00000000 00000000 00000000     ................
e00076a8:	00000000 00000000 00000000 00000000     ................
e00076b8:	00000000 00000000 00000000 00000000     ................
e00076c8:	00000000 00000000 00000000 00000000     ................
e00076d8:	00000000 00000000 00000000 00000000     ................
e00076e8:	00000000 00000000 00000000 00000000     ................
e00076f8:	00000000 00000000 00000000 00000000     ................
e0007708:	00000000 00000000 00000000 00000000     ................
e0007718:	00000000 00000000 00000000 00000000     ................
e0007728:	00000000 00000000 00000000 00000000     ................
e0007738:	00000000 00000000 00000000 00000000     ................
e0007748:	00000000 00000000 00000000 00000000     ................
e0007758:	00000000 00000000 00000000 00000000     ................
e0007768:	00000000 00000000 00000000 00000000     ................
e0007778:	00000000 00000000 00000000 00000000     ................
e0007788:	00000000 00000000 00000000 00000000     ................
e0007798:	00000000 00000000 00000000 00000000     ................
e00077a8:	00000000 00000000 00000000 00000000     ................
e00077b8:	00000000 00000000 00000000 00000000     ................
e00077c8:	00000000 00000000 00000000 00000000     ................
e00077d8:	00000000 00000000 00000000 00000000     ................
e00077e8:	00000000 00000000 00000000 00000000     ................
e00077f8:	00000000 00000000 00000000 00000000     ................
e0007808:	00000000 00000000 00000000 00000000     ................
e0007818:	00000000 00000000 00000000 00000000     ................
e0007828:	00000000 00000000 00000000 00000000     ................
e0007838:	00000000 00000000 00000000 00000000     ................
e0007848:	00000000 00000000 00000000 00000000     ................
e0007858:	00000000 00000000 00000000 00000000     ................
e0007868:	00000000 00000000 00000000 00000000     ................
e0007878:	00000000 00000000 00000000 00000000     ................
e0007888:	00000000 00000000 00000000 00000000     ................
e0007898:	00000000 00000000 00000000 00000000     ................
e00078a8:	00000000 00000000 00000000 00000000     ................
e00078b8:	00000000 00000000 00000000 00000000     ................
e00078c8:	00000000 00000000 00000000 00000000     ................
e00078d8:	00000000 00000000 00000000 00000000     ................
e00078e8:	00000000 00000000 00000000 00000000     ................
e00078f8:	00000000 00000000 00000000 00000000     ................
e0007908:	00000000 00000000 00000000 00000000     ................
e0007918:	00000000 00000000 00000000 00000000     ................
e0007928:	00000000 00000000 00000000 00000000     ................
e0007938:	00000000 00000000 00000000 00000000     ................
e0007948:	00000000 00000000 00000000 00000000     ................
e0007958:	00000000 00000000 00000000 00000000     ................
e0007968:	00000000 00000000 00000000 00000000     ................
e0007978:	00000000 00000000 00000000 00000000     ................
e0007988:	00000000 00000000 00000000 00000000     ................
e0007998:	00000000 00000000 00000000 00000000     ................
e00079a8:	00000000 00000000 00000000 00000000     ................
e00079b8:	00000000 00000000 00000000 00000000     ................
e00079c8:	00000000 00000000 00000000 00000000     ................
e00079d8:	00000000 00000000 00000000 00000000     ................
e00079e8:	00000000 00000000 00000000 00000000     ................
e00079f8:	00000000 00000000 00000000 00000000     ................
e0007a08:	00000000 00000000 00000000 00000000     ................
e0007a18:	00000000 00000000 00000000 00000000     ................
e0007a28:	00000000 00000000 00000000 00000000     ................
e0007a38:	00000000 00000000 00000000 00000000     ................
e0007a48:	00000000 00000000 00000000 00000000     ................
e0007a58:	00000000 00000000 00000000 00000000     ................
e0007a68:	00000000 00000000 00000000 00000000     ................
e0007a78:	00000000 00000000 00000000 00000000     ................
e0007a88:	00000000 00000000 00000000 00000000     ................
e0007a98:	00000000 00000000 00000000 00000000     ................
e0007aa8:	00000000 00000000 00000000 00000000     ................
e0007ab8:	00000000 00000000 00000000 00000000     ................
e0007ac8:	00000000 00000000 00000000 00000000     ................
e0007ad8:	00000000 00000000 00000000 00000000     ................
e0007ae8:	00000000 00000000 00000000 00000000     ................
e0007af8:	00000000 00000000 00000000 00000000     ................
e0007b08:	00000000 00000000 00000000 00000000     ................
e0007b18:	00000000 00000000 00000000 00000000     ................
e0007b28:	00000000 00000000 00000000 00000000     ................
e0007b38:	00000000 00000000 00000000 00000000     ................
e0007b48:	00000000 00000000 00000000 00000000     ................
e0007b58:	00000000 00000000 00000000 00000000     ................
e0007b68:	00000000 00000000 00000000 00000000     ................
e0007b78:	00000000 00000000 00000000 00000000     ................
e0007b88:	00000000 00000000 00000000 00000000     ................
e0007b98:	00000000 00000000 00000000 00000000     ................
e0007ba8:	00000000 00000000 00000000 00000000     ................
e0007bb8:	00000000 00000000 00000000 00000000     ................
e0007bc8:	00000000 00000000 00000000 00000000     ................
e0007bd8:	00000000 00000000 00000000 00000000     ................
e0007be8:	00000000 00000000 00000000 00000000     ................
e0007bf8:	00000000 00000000 00000000 00000000     ................
e0007c08:	00000000 00000000 00000000 00000000     ................
e0007c18:	00000000 00000000 00000000 00000000     ................
e0007c28:	00000000 00000000 00000000 00000000     ................
e0007c38:	00000000 00000000 00000000 00000000     ................
e0007c48:	00000000 00000000 00000000 00000000     ................
e0007c58:	00000000 00000000 00000000 00000000     ................
e0007c68:	00000000 00000000 00000000 00000000     ................
e0007c78:	00000000 00000000 00000000 00000000     ................
e0007c88:	00000000 00000000 00000000 00000000     ................
e0007c98:	00000000 00000000 00000000 00000000     ................
e0007ca8:	00000000 00000000 00000000 00000000     ................
e0007cb8:	00000000 00000000 00000000 00000000     ................
e0007cc8:	00000000 00000000 00000000 00000000     ................
e0007cd8:	00000000 00000000 00000000 00000000     ................
e0007ce8:	00000000 00000000 00000000 00000000     ................
e0007cf8:	00000000 00000000 00000000 00000000     ................
e0007d08:	00000000 00000000 00000000 00000000     ................
e0007d18:	00000000 00000000 00000000 00000000     ................
e0007d28:	00000000 00000000 00000000 00000000     ................
e0007d38:	00000000 00000000 00000000 00000000     ................
e0007d48:	00000000 00000000 00000000 00000000     ................
e0007d58:	00000000 00000000 00000000 00000000     ................
e0007d68:	00000000 00000000 00000000 00000000     ................
e0007d78:	00000000 00000000 00000000 00000000     ................
e0007d88:	00000000 00000000 00000000 00000000     ................
e0007d98:	00000000 00000000 00000000 00000000     ................
e0007da8:	00000000 00000000 00000000 00000000     ................
e0007db8:	00000000 00000000 00000000 00000000     ................
e0007dc8:	00000000 00000000 00000000 00000000     ................
e0007dd8:	00000000 00000000 00000000 00000000     ................
e0007de8:	00000000 00000000 00000000 00000000     ................
e0007df8:	00000000 00000000 00000000 00000000     ................
e0007e08:	00000000 00000000 00000000 00000000     ................
e0007e18:	00000000 00000000 00000000 00000000     ................
e0007e28:	00000000 00000000 00000000 00000000     ................
e0007e38:	00000000 00000000 00000000 00000000     ................
e0007e48:	00000000 00000000 00000000 00000000     ................
e0007e58:	00000000 00000000 00000000 00000000     ................
e0007e68:	00000000 00000000 00000000 00000000     ................
e0007e78:	00000000 00000000 00000000 00000000     ................
e0007e88:	00000000 00000000 00000000 00000000     ................
e0007e98:	00000000 00000000 00000000 00000000     ................
e0007ea8:	00000000 00000000 00000000 00000000     ................
e0007eb8:	00000000 00000000 00000000 00000000     ................
e0007ec8:	00000000 00000000 00000000 00000000     ................
e0007ed8:	00000000 00000000 00000000 00000000     ................
e0007ee8:	00000000 00000000 00000000 00000000     ................
e0007ef8:	00000000 00000000 00000000 00000000     ................
e0007f08:	00000000 00000000 00000000 00000000     ................
e0007f18:	00000000 00000000 00000000 00000000     ................
e0007f28:	00000000 00000000 00000000 00000000     ................
e0007f38:	00000000 00000000 00000000 00000000     ................
e0007f48:	00000000 00000000 00000000 00000000     ................
e0007f58:	00000000 00000000 00000000 00000000     ................
e0007f68:	00000000 00000000 00000000 00000000     ................
e0007f78:	00000000 00000000 00000000 00000000     ................
e0007f88:	00000000 00000000 00000000 00000000     ................
e0007f98:	00000000 00000000 00000000 00000000     ................
e0007fa8:	00000000 00000000 00000000 00000000     ................
e0007fb8:	00000000 00000000 00000000 00000000     ................
e0007fc8:	00000000 00000000 00000000 00000000     ................
e0007fd8:	00000000 00000000 00000000 00000000     ................
e0007fe8:	00000000 00000000 00000000 00000000     ................
e0007ff8:	00000000 00000000 00000000 00000000     ................
e0008008:	00000000 00000000 00000000 00000000     ................
e0008018:	00000000 00000000 00000000 00000000     ................
e0008028:	00000000 00000000 00000000 00000000     ................
e0008038:	00000000 00000000 00000000 00000000     ................
e0008048:	00000000 00000000 00000000 00000000     ................
e0008058:	00000000 00000000 00000000 00000000     ................
e0008068:	00000000 00000000 00000000 00000000     ................
e0008078:	00000000 00000000 00000000 00000000     ................
e0008088:	00000000 00000000 00000000 00000000     ................
e0008098:	00000000 00000000 00000000 00000000     ................
e00080a8:	00000000 00000000 00000000 00000000     ................
e00080b8:	00000000 00000000 00000000 00000000     ................
e00080c8:	00000000 00000000 00000000 00000000     ................
e00080d8:	00000000 00000000 00000000 00000000     ................
e00080e8:	00000000 00000000 00000000 00000000     ................
e00080f8:	00000000 00000000 00000000 00000000     ................
e0008108:	00000000 00000000 00000000 00000000     ................
e0008118:	00000000 00000000 00000000 00000000     ................
e0008128:	00000000 00000000 00000000 00000000     ................
e0008138:	00000000 00000000 00000000 00000000     ................
e0008148:	00000000 00000000 00000000 00000000     ................
e0008158:	00000000 00000000 00000000 00000000     ................
e0008168:	00000000 00000000 00000000 00000000     ................
e0008178:	00000000 00000000 00000000 00000000     ................
e0008188:	00000000 00000000 00000000 00000000     ................
e0008198:	00000000 00000000 00000000 00000000     ................
e00081a8:	00000000 00000000 00000000 00000000     ................
e00081b8:	00000000 00000000 00000000 00000000     ................
e00081c8:	00000000 00000000 00000000 00000000     ................
e00081d8:	00000000 00000000 00000000 00000000     ................
e00081e8:	00000000 00000000 00000000 00000000     ................
e00081f8:	00000000 00000000 00000000 00000000     ................
e0008208:	00000000 00000000 00000000 00000000     ................
e0008218:	00000000 00000000 00000000 00000000     ................
e0008228:	00000000 00000000 00000000 00000000     ................
e0008238:	00000000 00000000 00000000 00000000     ................
e0008248:	00000000 00000000 00000000 00000000     ................
e0008258:	00000000 00000000 00000000 00000000     ................
e0008268:	00000000 00000000 00000000 00000000     ................
e0008278:	00000000 00000000 00000000 00000000     ................
e0008288:	00000000 00000000 00000000 00000000     ................
e0008298:	00000000 00000000 00000000 00000000     ................
e00082a8:	00000000 00000000 00000000 00000000     ................
e00082b8:	00000000 00000000 00000000 00000000     ................
e00082c8:	00000000 00000000 00000000 00000000     ................
e00082d8:	00000000 00000000 00000000 00000000     ................
e00082e8:	00000000 00000000 00000000 00000000     ................
e00082f8:	00000000 00000000 00000000 00000000     ................
e0008308:	00000000 00000000 00000000 00000000     ................
e0008318:	00000000 00000000 00000000 00000000     ................
e0008328:	00000000 00000000 00000000 00000000     ................
e0008338:	00000000 00000000 00000000 00000000     ................
e0008348:	00000000 00000000 00000000 00000000     ................
e0008358:	00000000 00000000 00000000 00000000     ................
e0008368:	00000000 00000000 00000000 00000000     ................
e0008378:	00000000 00000000 00000000 00000000     ................
e0008388:	00000000 00000000 00000000 00000000     ................
e0008398:	00000000 00000000 00000000 00000000     ................
e00083a8:	00000000 00000000 00000000 00000000     ................
e00083b8:	00000000 00000000 00000000 00000000     ................
e00083c8:	00000000 00000000 00000000 00000000     ................
e00083d8:	00000000 00000000 00000000 00000000     ................
e00083e8:	00000000 00000000 00000000 00000000     ................
e00083f8:	00000000 00000000 00000000 00000000     ................
e0008408:	00000000 00000000 00000000 00000000     ................
e0008418:	00000000 00000000 00000000 00000000     ................
e0008428:	00000000 00000000 00000000 00000000     ................
e0008438:	00000000 00000000 00000000 00000000     ................
e0008448:	00000000 00000000 00000000 00000000     ................
e0008458:	00000000 00000000 00000000 00000000     ................
e0008468:	00000000 00000000 00000000 00000000     ................
e0008478:	00000000 00000000 00000000 00000000     ................
e0008488:	00000000 00000000 00000000 00000000     ................
e0008498:	00000000 00000000 00000000 00000000     ................
e00084a8:	00000000 00000000 00000000 00000000     ................
e00084b8:	00000000 00000000 00000000 00000000     ................
e00084c8:	00000000 00000000 00000000 00000000     ................
e00084d8:	00000000 00000000 00000000 00000000     ................
e00084e8:	00000000 00000000 00000000 00000000     ................
e00084f8:	00000000 00000000 00000000 00000000     ................
e0008508:	00000000 00000000 00000000 00000000     ................
e0008518:	00000000 00000000 00000000 00000000     ................
e0008528:	00000000 00000000 00000000 00000000     ................
e0008538:	00000000 00000000 00000000 00000000     ................
e0008548:	00000000 00000000 00000000 00000000     ................
e0008558:	00000000 00000000 00000000 00000000     ................
e0008568:	00000000 00000000 00000000 00000000     ................
e0008578:	00000000 00000000 00000000 00000000     ................
e0008588:	00000000 00000000 00000000 00000000     ................
e0008598:	00000000 00000000 00000000 00000000     ................
e00085a8:	00000000 00000000 00000000 00000000     ................
e00085b8:	00000000 00000000 00000000 00000000     ................
e00085c8:	00000000 00000000 00000000 00000000     ................
e00085d8:	00000000 00000000 00000000 00000000     ................
e00085e8:	00000000 00000000 00000000 00000000     ................
e00085f8:	00000000 00000000 00000000 00000000     ................
e0008608:	00000000 00000000 00000000 00000000     ................
e0008618:	00000000 00000000 00000000 00000000     ................
e0008628:	00000000 00000000 00000000 00000000     ................
e0008638:	00000000 00000000 00000000 00000000     ................
e0008648:	00000000 00000000 00000000 00000000     ................
e0008658:	00000000 00000000 00000000 00000000     ................
e0008668:	00000000 00000000 00000000 00000000     ................
e0008678:	00000000 00000000 00000000 00000000     ................
e0008688:	00000000 00000000 00000000 00000000     ................
e0008698:	00000000 00000000 00000000 00000000     ................
e00086a8:	00000000 00000000 00000000 00000000     ................
e00086b8:	00000000 00000000 00000000 00000000     ................
e00086c8:	00000000 00000000 00000000 00000000     ................
e00086d8:	00000000 00000000 00000000 00000000     ................
e00086e8:	00000000 00000000 00000000 00000000     ................
e00086f8:	00000000 00000000 00000000 00000000     ................
e0008708:	00000000 00000000 00000000 00000000     ................
e0008718:	00000000 00000000 00000000 00000000     ................
e0008728:	00000000 00000000 00000000 00000000     ................
e0008738:	00000000 00000000 00000000 00000000     ................
e0008748:	00000000 00000000 00000000 00000000     ................
e0008758:	00000000 00000000 00000000 00000000     ................
e0008768:	00000000 00000000 00000000 00000000     ................
e0008778:	00000000 00000000 00000000 00000000     ................
e0008788:	00000000 00000000 00000000 00000000     ................
e0008798:	00000000 00000000 00000000 00000000     ................
e00087a8:	00000000 00000000 00000000 00000000     ................
e00087b8:	00000000 00000000 00000000 00000000     ................
e00087c8:	00000000 00000000 00000000 00000000     ................
e00087d8:	00000000 00000000 00000000 00000000     ................
e00087e8:	00000000 00000000 00000000 00000000     ................
e00087f8:	00000000 00000000 00000000 00000000     ................
e0008808:	00000000 00000000 00000000 00000000     ................
e0008818:	00000000 00000000 00000000 00000000     ................
e0008828:	00000000 00000000 00000000 00000000     ................
e0008838:	00000000 00000000 00000000 00000000     ................
e0008848:	00000000 00000000 00000000 00000000     ................
e0008858:	00000000 00000000 00000000 00000000     ................
e0008868:	00000000 00000000 00000000 00000000     ................
e0008878:	00000000 00000000 00000000 00000000     ................
e0008888:	00000000 00000000 00000000 00000000     ................
e0008898:	00000000 00000000 00000000 00000000     ................
e00088a8:	00000000 00000000 00000000 00000000     ................
e00088b8:	00000000 00000000 00000000 00000000     ................
e00088c8:	00000000 00000000 00000000 00000000     ................
e00088d8:	00000000 00000000 00000000 00000000     ................
e00088e8:	00000000 00000000 00000000 00000000     ................
e00088f8:	00000000 00000000 00000000 00000000     ................
e0008908:	00000000 00000000 00000000 00000000     ................
e0008918:	00000000 00000000 00000000 00000000     ................
e0008928:	00000000 00000000 00000000 00000000     ................
e0008938:	00000000 00000000 00000000 00000000     ................
e0008948:	00000000 00000000 00000000 00000000     ................
e0008958:	00000000 00000000 00000000 00000000     ................
e0008968:	00000000 00000000 00000000 00000000     ................
e0008978:	00000000 00000000 00000000 00000000     ................
e0008988:	00000000 00000000 00000000 00000000     ................
e0008998:	00000000 00000000 00000000 00000000     ................
e00089a8:	00000000 00000000 00000000 00000000     ................
e00089b8:	00000000 00000000 00000000 00000000     ................
e00089c8:	00000000 00000000 00000000 00000000     ................
e00089d8:	00000000 00000000 00000000 00000000     ................
e00089e8:	00000000 00000000 00000000 00000000     ................
e00089f8:	00000000 00000000 00000000 00000000     ................
e0008a08:	00000000 00000000 00000000 00000000     ................
e0008a18:	00000000 00000000 00000000 00000000     ................
e0008a28:	00000000 00000000 00000000 00000000     ................
e0008a38:	00000000 00000000 00000000 00000000     ................
e0008a48:	00000000 00000000 00000000 00000000     ................
e0008a58:	00000000 00000000 00000000 00000000     ................
e0008a68:	00000000 00000000 00000000 00000000     ................
e0008a78:	00000000 00000000 00000000 00000000     ................
e0008a88:	00000000 00000000 00000000 00000000     ................
e0008a98:	00000000 00000000 00000000 00000000     ................
e0008aa8:	00000000 00000000 00000000 00000000     ................
e0008ab8:	00000000 00000000 00000000 00000000     ................
e0008ac8:	00000000 00000000 00000000 00000000     ................
e0008ad8:	00000000 00000000 00000000 00000000     ................
e0008ae8:	00000000 00000000 00000000 00000000     ................
e0008af8:	00000000 00000000 00000000 00000000     ................
e0008b08:	00000000 00000000 00000000 00000000     ................
e0008b18:	00000000 00000000 00000000 00000000     ................
e0008b28:	00000000 00000000 00000000 00000000     ................
e0008b38:	00000000 00000000 00000000 00000000     ................
e0008b48:	00000000 00000000 00000000 00000000     ................
e0008b58:	00000000 00000000 00000000 00000000     ................
e0008b68:	00000000 00000000 00000000 00000000     ................
e0008b78:	00000000 00000000 00000000 00000000     ................
e0008b88:	00000000 00000000 00000000 00000000     ................
e0008b98:	00000000 00000000 00000000 00000000     ................
e0008ba8:	00000000 00000000 00000000 00000000     ................
e0008bb8:	00000000 00000000 00000000 00000000     ................
e0008bc8:	00000000 00000000 00000000 00000000     ................
e0008bd8:	00000000 00000000 00000000 00000000     ................
e0008be8:	00000000 00000000 00000000 00000000     ................
e0008bf8:	00000000 00000000 00000000 00000000     ................
e0008c08:	00000000 00000000 00000000 00000000     ................
e0008c18:	00000000 00000000 00000000 00000000     ................
e0008c28:	00000000 00000000 00000000 00000000     ................
e0008c38:	00000000 00000000 00000000 00000000     ................
e0008c48:	00000000 00000000 00000000 00000000     ................
e0008c58:	00000000 00000000 00000000 00000000     ................
e0008c68:	00000000 00000000 00000000 00000000     ................
e0008c78:	00000000 00000000 00000000 00000000     ................
e0008c88:	00000000 00000000 00000000 00000000     ................
e0008c98:	00000000 00000000 00000000 00000000     ................
e0008ca8:	00000000 00000000 00000000 00000000     ................
e0008cb8:	00000000 00000000 00000000 00000000     ................
e0008cc8:	00000000 00000000 00000000 00000000     ................
e0008cd8:	00000000 00000000 00000000 00000000     ................
e0008ce8:	00000000 00000000 00000000 00000000     ................
e0008cf8:	00000000 00000000 00000000 00000000     ................
e0008d08:	00000000 00000000 00000000 00000000     ................
e0008d18:	00000000 00000000 00000000 00000000     ................
e0008d28:	00000000 00000000 00000000 00000000     ................
e0008d38:	00000000 00000000 00000000 00000000     ................
e0008d48:	00000000 00000000 00000000 00000000     ................
e0008d58:	00000000 00000000 00000000 00000000     ................
e0008d68:	00000000 00000000 00000000 00000000     ................
e0008d78:	00000000 00000000 00000000 00000000     ................
e0008d88:	00000000 00000000 00000000 00000000     ................
e0008d98:	00000000 00000000 00000000 00000000     ................
e0008da8:	00000000 00000000 00000000 00000000     ................
e0008db8:	00000000 00000000 00000000 00000000     ................
e0008dc8:	00000000 00000000 00000000 00000000     ................
e0008dd8:	00000000 00000000 00000000 00000000     ................
e0008de8:	00000000 00000000 00000000 00000000     ................
e0008df8:	00000000 00000000 00000000 00000000     ................
e0008e08:	00000000 00000000 00000000 00000000     ................
e0008e18:	00000000 00000000 00000000 00000000     ................
e0008e28:	00000000 00000000 00000000 00000000     ................
e0008e38:	00000000 00000000 00000000 00000000     ................
e0008e48:	00000000 00000000 00000000 00000000     ................
e0008e58:	00000000 00000000 00000000 00000000     ................
e0008e68:	00000000 00000000 00000000 00000000     ................
e0008e78:	00000000 00000000 00000000 00000000     ................
e0008e88:	00000000 00000000 00000000 00000000     ................
e0008e98:	00000000 00000000 00000000 00000000     ................
e0008ea8:	00000000 00000000 00000000 00000000     ................
e0008eb8:	00000000 00000000 00000000 00000000     ................
e0008ec8:	00000000 00000000 00000000 00000000     ................
e0008ed8:	00000000 00000000 00000000 00000000     ................
e0008ee8:	00000000 00000000 00000000 00000000     ................
e0008ef8:	00000000 00000000 00000000 00000000     ................
e0008f08:	00000000 00000000 00000000 00000000     ................
e0008f18:	00000000 00000000 00000000 00000000     ................
e0008f28:	00000000 00000000 00000000 00000000     ................
e0008f38:	00000000 00000000 00000000 00000000     ................
e0008f48:	00000000 00000000 00000000 00000000     ................
e0008f58:	00000000 00000000 00000000 00000000     ................
e0008f68:	00000000 00000000 00000000 00000000     ................
e0008f78:	00000000 00000000 00000000 00000000     ................
e0008f88:	00000000 00000000 00000000 00000000     ................
e0008f98:	00000000 00000000 00000000 00000000     ................
e0008fa8:	00000000 00000000 00000000 00000000     ................
e0008fb8:	00000000 00000000 00000000 00000000     ................
e0008fc8:	00000000 00000000 00000000 00000000     ................
e0008fd8:	00000000 00000000 00000000 00000000     ................
e0008fe8:	00000000 00000000 00000000 00000000     ................
e0008ff8:	00000000 00000000 00000000 00000000     ................
e0009008:	00000000 00000000 00000000 00000000     ................
e0009018:	00000000 00000000 00000000 00000000     ................
e0009028:	00000000 00000000 00000000 00000000     ................
e0009038:	00000000 00000000 00000000 00000000     ................
e0009048:	00000000 00000000 00000000 00000000     ................
e0009058:	00000000 00000000 00000000 00000000     ................
e0009068:	00000000 00000000 00000000 00000000     ................
e0009078:	00000000 00000000 00000000 00000000     ................
e0009088:	00000000 00000000 00000000 00000000     ................
e0009098:	00000000 00000000 00000000 00000000     ................
e00090a8:	00000000 00000000 00000000 00000000     ................
e00090b8:	00000000 00000000 00000000 00000000     ................
e00090c8:	00000000 00000000 00000000 00000000     ................
e00090d8:	00000000 00000000 00000000 00000000     ................
e00090e8:	00000000 00000000 00000000 00000000     ................
e00090f8:	00000000 00000000 00000000 00000000     ................
e0009108:	00000000 00000000 00000000 00000000     ................
e0009118:	00000000 00000000 00000000 00000000     ................
e0009128:	00000000 00000000 00000000 00000000     ................
e0009138:	00000000 00000000 00000000 00000000     ................
e0009148:	00000000 00000000 00000000 00000000     ................
e0009158:	00000000 00000000 00000000 00000000     ................
e0009168:	00000000 00000000 00000000 00000000     ................
e0009178:	00000000 00000000 00000000 00000000     ................
e0009188:	00000000 00000000 00000000 00000000     ................
e0009198:	00000000 00000000 00000000 00000000     ................
e00091a8:	00000000 00000000 00000000 00000000     ................
e00091b8:	00000000 00000000 00000000 00000000     ................
e00091c8:	00000000 00000000 00000000 00000000     ................
e00091d8:	00000000 00000000 00000000 00000000     ................
e00091e8:	00000000 00000000 00000000 00000000     ................
e00091f8:	00000000 00000000 00000000 00000000     ................
e0009208:	00000000 00000000 00000000 00000000     ................
e0009218:	00000000 00000000 00000000 00000000     ................
e0009228:	00000000 00000000 00000000 00000000     ................
e0009238:	00000000 00000000 00000000 00000000     ................
e0009248:	00000000 00000000 00000000 00000000     ................
e0009258:	00000000 00000000 00000000 00000000     ................
e0009268:	00000000 00000000 00000000 00000000     ................
e0009278:	00000000 00000000 00000000 00000000     ................
e0009288:	00000000 00000000 00000000 00000000     ................
e0009298:	00000000 00000000 00000000 00000000     ................
e00092a8:	00000000 00000000 00000000 00000000     ................
e00092b8:	00000000 00000000 00000000 00000000     ................
e00092c8:	00000000 00000000 00000000 00000000     ................
e00092d8:	00000000 00000000 00000000 00000000     ................
e00092e8:	00000000 00000000 00000000 00000000     ................
e00092f8:	00000000 00000000 00000000 00000000     ................
e0009308:	00000000 00000000 00000000 00000000     ................
e0009318:	00000000 00000000 00000000 00000000     ................
e0009328:	00000000 00000000 00000000 00000000     ................
e0009338:	00000000 00000000 00000000 00000000     ................
e0009348:	00000000 00000000 00000000 00000000     ................
e0009358:	00000000 00000000 00000000 00000000     ................
e0009368:	00000000 00000000 00000000 00000000     ................
e0009378:	00000000 00000000 00000000 00000000     ................
e0009388:	00000000 00000000 00000000 00000000     ................
e0009398:	00000000 00000000 00000000 00000000     ................
e00093a8:	00000000 00000000 00000000 00000000     ................
e00093b8:	00000000 00000000 00000000 00000000     ................
e00093c8:	00000000 00000000 00000000 00000000     ................
e00093d8:	00000000 00000000 00000000 00000000     ................
e00093e8:	00000000 00000000 00000000 00000000     ................
e00093f8:	00000000 00000000 00000000 00000000     ................
e0009408:	00000000 00000000 00000000 00000000     ................
e0009418:	00000000 00000000 00000000 00000000     ................
e0009428:	00000000 00000000 00000000 00000000     ................
e0009438:	00000000 00000000 00000000 00000000     ................
e0009448:	00000000 00000000 00000000 00000000     ................
e0009458:	00000000 00000000 00000000 00000000     ................
e0009468:	00000000 00000000 00000000 00000000     ................
e0009478:	00000000 00000000 00000000 00000000     ................
e0009488:	00000000 00000000 00000000 00000000     ................
e0009498:	00000000 00000000 00000000 00000000     ................
e00094a8:	00000000 00000000 00000000 00000000     ................
e00094b8:	00000000 00000000 00000000 00000000     ................
e00094c8:	00000000 00000000 00000000 00000000     ................
e00094d8:	00000000 00000000 00000000 00000000     ................
e00094e8:	00000000 00000000 00000000 00000000     ................
e00094f8:	00000000 00000000 00000000 00000000     ................
e0009508:	00000000 00000000 00000000 00000000     ................
e0009518:	00000000 00000000 00000000 00000000     ................
e0009528:	00000000 00000000 00000000 00000000     ................
e0009538:	00000000 00000000 00000000 00000000     ................
e0009548:	00000000 00000000 00000000 00000000     ................
e0009558:	00000000 00000000 00000000 00000000     ................
e0009568:	00000000 00000000 00000000 00000000     ................
e0009578:	00000000 00000000 00000000 00000000     ................
e0009588:	00000000 00000000 00000000 00000000     ................
e0009598:	00000000 00000000 00000000 00000000     ................
e00095a8:	00000000 00000000 00000000 00000000     ................
e00095b8:	00000000 00000000 00000000 00000000     ................
e00095c8:	00000000 00000000 00000000 00000000     ................
e00095d8:	00000000 00000000 00000000 00000000     ................
e00095e8:	00000000 00000000 00000000 00000000     ................
e00095f8:	00000000 00000000 00000000 00000000     ................
e0009608:	00000000 00000000 00000000 00000000     ................
e0009618:	00000000 00000000 00000000 00000000     ................
e0009628:	00000000 00000000 00000000 00000000     ................
e0009638:	00000000 00000000 00000000 00000000     ................
e0009648:	00000000 00000000 00000000 00000000     ................
e0009658:	00000000 00000000 00000000 00000000     ................
e0009668:	00000000 00000000 00000000 00000000     ................
e0009678:	00000000 00000000 00000000 00000000     ................
e0009688:	00000000 00000000 00000000 00000000     ................
e0009698:	00000000 00000000 00000000 00000000     ................
e00096a8:	00000000 00000000 00000000 00000000     ................
e00096b8:	00000000 00000000 00000000 00000000     ................
e00096c8:	00000000 00000000 00000000 00000000     ................
e00096d8:	00000000 00000000 00000000 00000000     ................
e00096e8:	00000000 00000000 00000000 00000000     ................
e00096f8:	00000000 00000000 00000000 00000000     ................
e0009708:	00000000 00000000 00000000 00000000     ................
e0009718:	00000000 00000000 00000000 00000000     ................
e0009728:	00000000 00000000 00000000 00000000     ................
e0009738:	00000000 00000000 00000000 00000000     ................
e0009748:	00000000 00000000 00000000 00000000     ................
e0009758:	00000000 00000000 00000000 00000000     ................
e0009768:	00000000 00000000 00000000 00000000     ................
e0009778:	00000000 00000000 00000000 00000000     ................
e0009788:	00000000 00000000 00000000 00000000     ................
e0009798:	00000000 00000000 00000000 00000000     ................
e00097a8:	00000000 00000000 00000000 00000000     ................
e00097b8:	00000000 00000000 00000000 00000000     ................
e00097c8:	00000000 00000000 00000000 00000000     ................
e00097d8:	00000000 00000000 00000000 00000000     ................
e00097e8:	00000000 00000000 00000000 00000000     ................
e00097f8:	00000000 00000000 00000000 00000000     ................
e0009808:	00000000 00000000 00000000 00000000     ................
e0009818:	00000000 00000000 00000000 00000000     ................
e0009828:	00000000 00000000 00000000 00000000     ................
e0009838:	00000000 00000000 00000000 00000000     ................
e0009848:	00000000 00000000 00000000 00000000     ................
e0009858:	00000000 00000000 00000000 00000000     ................
e0009868:	00000000 00000000 00000000 00000000     ................
e0009878:	00000000 00000000 00000000 00000000     ................
e0009888:	00000000 00000000 00000000 00000000     ................
e0009898:	00000000 00000000 00000000 00000000     ................
e00098a8:	00000000 00000000 00000000 00000000     ................
e00098b8:	00000000 00000000 00000000 00000000     ................
e00098c8:	00000000 00000000 00000000 00000000     ................
e00098d8:	00000000 00000000 00000000 00000000     ................
e00098e8:	00000000 00000000 00000000 00000000     ................
e00098f8:	00000000 00000000 00000000 00000000     ................
e0009908:	00000000 00000000 00000000 00000000     ................
e0009918:	00000000 00000000 00000000 00000000     ................
e0009928:	00000000 00000000 00000000 00000000     ................
e0009938:	00000000 00000000 00000000 00000000     ................
e0009948:	00000000 00000000 00000000 00000000     ................
e0009958:	00000000 00000000 00000000 00000000     ................
e0009968:	00000000 00000000 00000000 00000000     ................
e0009978:	00000000 00000000 00000000 00000000     ................
e0009988:	00000000 00000000 00000000 00000000     ................
e0009998:	00000000 00000000 00000000 00000000     ................
e00099a8:	00000000 00000000 00000000 00000000     ................
e00099b8:	00000000 00000000 00000000 00000000     ................
e00099c8:	00000000 00000000 00000000 00000000     ................
e00099d8:	00000000 00000000 00000000 00000000     ................
e00099e8:	00000000 00000000 00000000 00000000     ................
e00099f8:	00000000 00000000 00000000 00000000     ................
e0009a08:	00000000 00000000 00000000 00000000     ................
e0009a18:	00000000 00000000 00000000 00000000     ................
e0009a28:	00000000 00000000 00000000 00000000     ................
e0009a38:	00000000 00000000 00000000 00000000     ................
e0009a48:	00000000 00000000 00000000 00000000     ................
e0009a58:	00000000 00000000 00000000 00000000     ................
e0009a68:	00000000 00000000 00000000 00000000     ................
e0009a78:	00000000 00000000 00000000 00000000     ................
e0009a88:	00000000 00000000 00000000 00000000     ................
e0009a98:	00000000 00000000 00000000 00000000     ................
e0009aa8:	00000000 00000000 00000000 00000000     ................
e0009ab8:	00000000 00000000 00000000 00000000     ................
e0009ac8:	00000000 00000000 00000000 00000000     ................
e0009ad8:	00000000 00000000 00000000 00000000     ................
e0009ae8:	00000000 00000000 00000000 00000000     ................
e0009af8:	00000000 00000000 00000000 00000000     ................
e0009b08:	00000000 00000000 00000000 00000000     ................
e0009b18:	00000000 00000000 00000000 00000000     ................
e0009b28:	00000000 00000000 00000000 00000000     ................
e0009b38:	00000000 00000000 00000000 00000000     ................
e0009b48:	00000000 00000000 00000000 00000000     ................
e0009b58:	00000000 00000000 00000000 00000000     ................
e0009b68:	00000000 00000000 00000000 00000000     ................
e0009b78:	00000000 00000000 00000000 00000000     ................
e0009b88:	00000000 00000000 00000000 00000000     ................
e0009b98:	00000000 00000000 00000000 00000000     ................
e0009ba8:	00000000 00000000 00000000 00000000     ................
e0009bb8:	00000000 00000000 00000000 00000000     ................
e0009bc8:	00000000 00000000 00000000 00000000     ................
e0009bd8:	00000000 00000000 00000000 00000000     ................
e0009be8:	00000000 00000000 00000000 00000000     ................
e0009bf8:	00000000 00000000 00000000 00000000     ................
e0009c08:	00000000 00000000 00000000 00000000     ................
e0009c18:	00000000 00000000 00000000 00000000     ................
e0009c28:	00000000 00000000 00000000 00000000     ................
e0009c38:	00000000 00000000 00000000 00000000     ................
e0009c48:	00000000 00000000 00000000 00000000     ................
e0009c58:	00000000 00000000 00000000 00000000     ................
e0009c68:	00000000 00000000 00000000 00000000     ................
e0009c78:	00000000 00000000 00000000 00000000     ................
e0009c88:	00000000 00000000 00000000 00000000     ................
e0009c98:	00000000 00000000 00000000 00000000     ................
e0009ca8:	00000000 00000000 00000000 00000000     ................
e0009cb8:	00000000 00000000 00000000 00000000     ................
e0009cc8:	00000000 00000000 00000000 00000000     ................
e0009cd8:	00000000 00000000 00000000 00000000     ................
e0009ce8:	00000000 00000000 00000000 00000000     ................
e0009cf8:	00000000 00000000 00000000 00000000     ................
e0009d08:	00000000 00000000 00000000 00000000     ................
e0009d18:	00000000 00000000 00000000 00000000     ................
e0009d28:	00000000 00000000 00000000 00000000     ................
e0009d38:	00000000 00000000 00000000 00000000     ................
e0009d48:	00000000 00000000 00000000 00000000     ................
e0009d58:	00000000 00000000 00000000 00000000     ................
e0009d68:	00000000 00000000 00000000 00000000     ................
e0009d78:	00000000 00000000 00000000 00000000     ................
e0009d88:	00000000 00000000 00000000 00000000     ................
e0009d98:	00000000 00000000 00000000 00000000     ................
e0009da8:	00000000 00000000 00000000 00000000     ................
e0009db8:	00000000 00000000 00000000 00000000     ................
e0009dc8:	00000000 00000000 00000000 00000000     ................
e0009dd8:	00000000 00000000 00000000 00000000     ................
e0009de8:	00000000 00000000 00000000 00000000     ................
e0009df8:	00000000 00000000 00000000 00000000     ................
e0009e08:	00000000 00000000 00000000 00000000     ................
e0009e18:	00000000 00000000 00000000 00000000     ................
e0009e28:	00000000 00000000 00000000 00000000     ................
e0009e38:	00000000 00000000 00000000 00000000     ................
e0009e48:	00000000 00000000 00000000 00000000     ................
e0009e58:	00000000 00000000 00000000 00000000     ................
e0009e68:	00000000 00000000 00000000 00000000     ................
e0009e78:	00000000 00000000 00000000 00000000     ................
e0009e88:	00000000 00000000 00000000 00000000     ................
e0009e98:	00000000 00000000 00000000 00000000     ................
e0009ea8:	00000000 00000000 00000000 00000000     ................
e0009eb8:	00000000 00000000 00000000 00000000     ................
e0009ec8:	00000000 00000000 00000000 00000000     ................
e0009ed8:	00000000 00000000 00000000 00000000     ................
e0009ee8:	00000000 00000000 00000000 00000000     ................
e0009ef8:	00000000 00000000 00000000 00000000     ................
e0009f08:	00000000 00000000 00000000 00000000     ................
e0009f18:	00000000 00000000 00000000 00000000     ................
e0009f28:	00000000 00000000 00000000 00000000     ................
e0009f38:	00000000 00000000 00000000 00000000     ................
e0009f48:	00000000 00000000 00000000 00000000     ................
e0009f58:	00000000 00000000 00000000 00000000     ................
e0009f68:	00000000 00000000 00000000 00000000     ................
e0009f78:	00000000 00000000 00000000 00000000     ................
e0009f88:	00000000 00000000 00000000 00000000     ................
e0009f98:	00000000 00000000 00000000 00000000     ................
e0009fa8:	00000000 00000000 00000000 00000000     ................
e0009fb8:	00000000 00000000 00000000 00000000     ................
e0009fc8:	00000000 00000000 00000000 00000000     ................
e0009fd8:	00000000 00000000 00000000 00000000     ................
e0009fe8:	00000000 00000000 00000000 00000000     ................
e0009ff8:	00000000 00000000 00000000 00000000     ................
e000a008:	00000000 00000000 00000000 00000000     ................
e000a018:	00000000 00000000 00000000 00000000     ................
e000a028:	00000000 00000000 00000000 00000000     ................
e000a038:	00000000 00000000 00000000 00000000     ................
e000a048:	00000000 00000000 00000000 00000000     ................
e000a058:	00000000 00000000 00000000 00000000     ................
e000a068:	00000000 00000000 00000000 00000000     ................
e000a078:	00000000 00000000 00000000 00000000     ................
e000a088:	00000000 00000000 00000000 00000000     ................
e000a098:	00000000 00000000 00000000 00000000     ................
e000a0a8:	00000000 00000000 00000000 00000000     ................
e000a0b8:	00000000 00000000 00000000 00000000     ................
e000a0c8:	00000000 00000000 00000000 00000000     ................
e000a0d8:	00000000 00000000 00000000 00000000     ................
e000a0e8:	00000000 00000000 00000000 00000000     ................
e000a0f8:	00000000 00000000 00000000 00000000     ................
e000a108:	00000000 00000000 00000000 00000000     ................
e000a118:	00000000 00000000 00000000 00000000     ................
e000a128:	00000000 00000000 00000000 00000000     ................
e000a138:	00000000 00000000 00000000 00000000     ................
e000a148:	00000000 00000000 00000000 00000000     ................
e000a158:	00000000 00000000 00000000 00000000     ................
e000a168:	00000000 00000000 00000000 00000000     ................
e000a178:	00000000 00000000 00000000 00000000     ................
e000a188:	00000000 00000000 00000000 00000000     ................
e000a198:	00000000 00000000 00000000 00000000     ................
e000a1a8:	00000000 00000000 00000000 00000000     ................
e000a1b8:	00000000 00000000 00000000 00000000     ................
e000a1c8:	00000000 00000000 00000000 00000000     ................
e000a1d8:	00000000 00000000 00000000 00000000     ................
e000a1e8:	00000000 00000000 00000000 00000000     ................
e000a1f8:	00000000 00000000 00000000 00000000     ................
e000a208:	00000000 00000000 00000000 00000000     ................
e000a218:	00000000 00000000 00000000 00000000     ................
e000a228:	00000000 00000000 00000000 00000000     ................
e000a238:	00000000 00000000 00000000 00000000     ................
e000a248:	00000000 00000000 00000000 00000000     ................
e000a258:	00000000 00000000 00000000 00000000     ................
e000a268:	00000000 00000000 00000000 00000000     ................
e000a278:	00000000 00000000 00000000 00000000     ................
e000a288:	00000000 00000000 00000000 00000000     ................
e000a298:	00000000 00000000 00000000 00000000     ................
e000a2a8:	00000000 00000000 00000000 00000000     ................
e000a2b8:	00000000 00000000 00000000 00000000     ................
e000a2c8:	00000000 00000000 00000000 00000000     ................
e000a2d8:	00000000 00000000 00000000 00000000     ................
e000a2e8:	00000000 00000000 00000000 00000000     ................
e000a2f8:	00000000 00000000 00000000 00000000     ................
e000a308:	00000000 00000000 00000000 00000000     ................
e000a318:	00000000 00000000 00000000 00000000     ................
e000a328:	00000000 00000000 00000000 00000000     ................
e000a338:	00000000 00000000 00000000 00000000     ................
e000a348:	00000000 00000000 00000000 00000000     ................
e000a358:	00000000 00000000 00000000 00000000     ................
e000a368:	00000000 00000000 00000000 00000000     ................
e000a378:	00000000 00000000 00000000 00000000     ................
e000a388:	00000000 00000000 00000000 00000000     ................
e000a398:	00000000 00000000 00000000 00000000     ................
e000a3a8:	00000000 00000000 00000000 00000000     ................
e000a3b8:	00000000 00000000 00000000 00000000     ................
e000a3c8:	00000000 00000000 00000000 00000000     ................
e000a3d8:	00000000 00000000 00000000 00000000     ................
e000a3e8:	00000000 00000000 00000000 00000000     ................
e000a3f8:	00000000 00000000 00000000 00000000     ................
e000a408:	00000000 00000000 00000000 00000000     ................
e000a418:	00000000 00000000 00000000 00000000     ................
e000a428:	00000000 00000000 00000000 00000000     ................
e000a438:	00000000 00000000 00000000 00000000     ................
e000a448:	00000000 00000000 00000000 00000000     ................
e000a458:	00000000 00000000 00000000 00000000     ................
e000a468:	00000000 00000000 00000000 00000000     ................
e000a478:	00000000 00000000 00000000 00000000     ................
e000a488:	00000000 00000000 00000000 00000000     ................
e000a498:	00000000 00000000 00000000 00000000     ................
e000a4a8:	00000000 00000000 00000000 00000000     ................
e000a4b8:	00000000 00000000 00000000 00000000     ................
e000a4c8:	00000000 00000000 00000000 00000000     ................
e000a4d8:	00000000 00000000 00000000 00000000     ................
e000a4e8:	00000000 00000000 00000000 00000000     ................
e000a4f8:	00000000 00000000 00000000 00000000     ................
e000a508:	00000000 00000000 00000000 00000000     ................
e000a518:	00000000 00000000 00000000 00000000     ................
e000a528:	00000000 00000000 00000000 00000000     ................
e000a538:	00000000 00000000 00000000 00000000     ................
e000a548:	00000000 00000000 00000000 00000000     ................
e000a558:	00000000 00000000 00000000 00000000     ................
e000a568:	00000000 00000000 00000000 00000000     ................
e000a578:	00000000 00000000 00000000 00000000     ................
e000a588:	00000000 00000000 00000000 00000000     ................
e000a598:	00000000 00000000 00000000 00000000     ................
e000a5a8:	00000000 00000000 00000000 00000000     ................
e000a5b8:	00000000 00000000 00000000 00000000     ................
e000a5c8:	00000000 00000000 00000000 00000000     ................
e000a5d8:	00000000 00000000 00000000 00000000     ................
e000a5e8:	00000000 00000000 00000000 00000000     ................
e000a5f8:	00000000 00000000 00000000 00000000     ................
e000a608:	00000000 00000000 00000000 00000000     ................
e000a618:	00000000 00000000 00000000 00000000     ................
e000a628:	00000000 00000000 00000000 00000000     ................
e000a638:	00000000 00000000 00000000 00000000     ................
e000a648:	00000000 00000000 00000000 00000000     ................
e000a658:	00000000 00000000 00000000 00000000     ................
e000a668:	00000000 00000000 00000000 00000000     ................
e000a678:	00000000 00000000 00000000 00000000     ................
e000a688:	00000000 00000000 00000000 00000000     ................
e000a698:	00000000 00000000 00000000 00000000     ................
e000a6a8:	00000000 00000000 00000000 00000000     ................
e000a6b8:	00000000 00000000 00000000 00000000     ................
e000a6c8:	00000000 00000000 00000000 00000000     ................
e000a6d8:	00000000 00000000 00000000 00000000     ................
e000a6e8:	00000000 00000000 00000000 00000000     ................
e000a6f8:	00000000 00000000 00000000 00000000     ................
e000a708:	00000000 00000000 00000000 00000000     ................
e000a718:	00000000 00000000 00000000 00000000     ................
e000a728:	00000000 00000000 00000000 00000000     ................
e000a738:	00000000 00000000 00000000 00000000     ................
e000a748:	00000000 00000000 00000000 00000000     ................
e000a758:	00000000 00000000 00000000 00000000     ................
e000a768:	00000000 00000000 00000000 00000000     ................
e000a778:	00000000 00000000 00000000 00000000     ................
e000a788:	00000000 00000000 00000000 00000000     ................
e000a798:	00000000 00000000 00000000 00000000     ................
e000a7a8:	00000000 00000000 00000000 00000000     ................
e000a7b8:	00000000 00000000 00000000 00000000     ................
e000a7c8:	00000000 00000000 00000000 00000000     ................
e000a7d8:	00000000 00000000 00000000 00000000     ................
e000a7e8:	00000000 00000000 00000000 00000000     ................
e000a7f8:	00000000 00000000 00000000 00000000     ................
e000a808:	00000000 00000000 00000000 00000000     ................
e000a818:	00000000 00000000 00000000 00000000     ................
e000a828:	00000000 00000000 00000000 00000000     ................
e000a838:	00000000 00000000 00000000 00000000     ................
e000a848:	00000000 00000000 00000000 00000000     ................
e000a858:	00000000 00000000 00000000 00000000     ................
e000a868:	00000000 00000000 00000000 00000000     ................
e000a878:	00000000 00000000 00000000 00000000     ................
e000a888:	00000000 00000000 00000000 00000000     ................
e000a898:	00000000 00000000 00000000 00000000     ................
e000a8a8:	00000000 00000000 00000000 00000000     ................
e000a8b8:	00000000 00000000 00000000 00000000     ................
e000a8c8:	00000000 00000000 00000000 00000000     ................
e000a8d8:	00000000 00000000 00000000 00000000     ................
e000a8e8:	00000000 00000000 00000000 00000000     ................
e000a8f8:	00000000 00000000 00000000 00000000     ................
e000a908:	00000000 00000000 00000000 00000000     ................
e000a918:	00000000 00000000 00000000 00000000     ................
e000a928:	00000000 00000000 00000000 00000000     ................
e000a938:	00000000 00000000 00000000 00000000     ................
e000a948:	00000000 00000000 00000000 00000000     ................
e000a958:	00000000 00000000 00000000 00000000     ................
e000a968:	00000000 00000000 00000000 00000000     ................
e000a978:	00000000 00000000 00000000 00000000     ................
e000a988:	00000000 00000000 00000000 00000000     ................
e000a998:	00000000 00000000 00000000 00000000     ................
e000a9a8:	00000000 00000000 00000000 00000000     ................
e000a9b8:	00000000 00000000 00000000 00000000     ................
e000a9c8:	00000000 00000000 00000000 00000000     ................
e000a9d8:	00000000 00000000 00000000 00000000     ................
e000a9e8:	00000000 00000000 00000000 00000000     ................
e000a9f8:	00000000 00000000 00000000 00000000     ................
e000aa08:	00000000 00000000 00000000 00000000     ................
e000aa18:	00000000 00000000 00000000 00000000     ................
e000aa28:	00000000 00000000 00000000 00000000     ................
e000aa38:	00000000 00000000 00000000 00000000     ................
e000aa48:	00000000 00000000 00000000 00000000     ................
e000aa58:	00000000 00000000 00000000 00000000     ................
e000aa68:	00000000 00000000 00000000 00000000     ................
e000aa78:	00000000 00000000 00000000 00000000     ................
e000aa88:	00000000 00000000 00000000 00000000     ................
e000aa98:	00000000 00000000 00000000 00000000     ................
e000aaa8:	00000000 00000000 00000000 00000000     ................
e000aab8:	00000000 00000000 00000000 00000000     ................
e000aac8:	00000000 00000000 00000000 00000000     ................
e000aad8:	00000000 00000000 00000000 00000000     ................
e000aae8:	00000000 00000000 00000000 00000000     ................
e000aaf8:	00000000 00000000 00000000 00000000     ................
e000ab08:	00000000 00000000 00000000 00000000     ................
e000ab18:	00000000 00000000 00000000 00000000     ................
e000ab28:	00000000 00000000 00000000 00000000     ................
e000ab38:	00000000 00000000 00000000 00000000     ................
e000ab48:	00000000 00000000 00000000 00000000     ................
e000ab58:	00000000 00000000 00000000 00000000     ................
e000ab68:	00000000 00000000 00000000 00000000     ................
e000ab78:	00000000 00000000 00000000 00000000     ................
e000ab88:	00000000 00000000 00000000 00000000     ................
e000ab98:	00000000 00000000 00000000 00000000     ................
e000aba8:	00000000 00000000 00000000 00000000     ................
e000abb8:	00000000 00000000 00000000 00000000     ................
e000abc8:	00000000 00000000 00000000 00000000     ................
e000abd8:	00000000 00000000 00000000 00000000     ................
e000abe8:	00000000 00000000 00000000 00000000     ................
e000abf8:	00000000 00000000 00000000 00000000     ................
e000ac08:	00000000 00000000 00000000 00000000     ................
e000ac18:	00000000 00000000 00000000 00000000     ................
e000ac28:	00000000 00000000 00000000 00000000     ................
e000ac38:	00000000 00000000 00000000 00000000     ................
e000ac48:	00000000 00000000 00000000 00000000     ................
e000ac58:	00000000 00000000 00000000 00000000     ................
e000ac68:	00000000 00000000 00000000 00000000     ................
e000ac78:	00000000 00000000 00000000 00000000     ................
e000ac88:	00000000 00000000 00000000 00000000     ................
e000ac98:	00000000 00000000 00000000 00000000     ................
e000aca8:	00000000 00000000 00000000 00000000     ................
e000acb8:	00000000 00000000 00000000 00000000     ................
e000acc8:	00000000 00000000 00000000 00000000     ................
e000acd8:	00000000 00000000 00000000 00000000     ................
e000ace8:	00000000 00000000 00000000 00000000     ................
e000acf8:	00000000 00000000 00000000 00000000     ................
e000ad08:	00000000 00000000 00000000 00000000     ................
e000ad18:	00000000 00000000 00000000 00000000     ................
e000ad28:	00000000 00000000 00000000 00000000     ................
e000ad38:	00000000 00000000 00000000 00000000     ................
e000ad48:	00000000 00000000 00000000 00000000     ................
e000ad58:	00000000 00000000 00000000 00000000     ................
e000ad68:	00000000 00000000 00000000 00000000     ................
e000ad78:	00000000 00000000 00000000 00000000     ................
e000ad88:	00000000 00000000 00000000 00000000     ................
e000ad98:	00000000 00000000 00000000 00000000     ................
e000ada8:	00000000 00000000 00000000 00000000     ................
e000adb8:	00000000 00000000 00000000 00000000     ................
e000adc8:	00000000 00000000 00000000 00000000     ................
e000add8:	00000000 00000000 00000000 00000000     ................
e000ade8:	00000000 00000000 00000000 00000000     ................
e000adf8:	00000000 00000000 00000000 00000000     ................
e000ae08:	00000000 00000000 00000000 00000000     ................
e000ae18:	00000000 00000000 00000000 00000000     ................
e000ae28:	00000000 00000000 00000000 00000000     ................
e000ae38:	00000000 00000000 00000000 00000000     ................
e000ae48:	00000000 00000000 00000000 00000000     ................
e000ae58:	00000000 00000000 00000000 00000000     ................
e000ae68:	00000000 00000000 00000000 00000000     ................
e000ae78:	00000000 00000000 00000000 00000000     ................
e000ae88:	00000000 00000000 00000000 00000000     ................
e000ae98:	00000000 00000000 00000000 00000000     ................
e000aea8:	00000000 00000000 00000000 00000000     ................
e000aeb8:	00000000 00000000 00000000 00000000     ................
e000aec8:	00000000 00000000 00000000 00000000     ................
e000aed8:	00000000 00000000 00000000 00000000     ................
e000aee8:	00000000 00000000 00000000 00000000     ................
e000aef8:	00000000 00000000 00000000 00000000     ................
e000af08:	00000000 00000000 00000000 00000000     ................
e000af18:	00000000 00000000 00000000 00000000     ................
e000af28:	00000000 00000000 00000000 00000000     ................
e000af38:	00000000 00000000 00000000 00000000     ................
e000af48:	00000000 00000000 00000000 00000000     ................
e000af58:	00000000 00000000 00000000 00000000     ................
e000af68:	00000000 00000000 00000000 00000000     ................
e000af78:	00000000 00000000 00000000 00000000     ................
e000af88:	00000000 00000000 00000000 00000000     ................
e000af98:	00000000 00000000 00000000 00000000     ................
e000afa8:	00000000 00000000 00000000 00000000     ................
e000afb8:	00000000 00000000 00000000 00000000     ................
e000afc8:	00000000 00000000 00000000 00000000     ................
e000afd8:	00000000 00000000 00000000 00000000     ................
e000afe8:	00000000 00000000 00000000 00000000     ................
e000aff8:	00000000 00000000 00000000 00000000     ................
e000b008:	00000000 00000000 00000000 00000000     ................
e000b018:	00000000 00000000 00000000 00000000     ................
e000b028:	00000000 00000000 00000000 00000000     ................
e000b038:	00000000 00000000 00000000 00000000     ................
e000b048:	00000000 00000000 00000000 00000000     ................
e000b058:	00000000 00000000 00000000 00000000     ................
e000b068:	00000000 00000000 00000000 00000000     ................
e000b078:	00000000 00000000 00000000 00000000     ................
e000b088:	00000000 00000000 00000000 00000000     ................
e000b098:	00000000 00000000 00000000 00000000     ................
e000b0a8:	00000000 00000000 00000000 00000000     ................
e000b0b8:	00000000 00000000 00000000 00000000     ................
e000b0c8:	00000000 00000000 00000000 00000000     ................
e000b0d8:	00000000 00000000 00000000 00000000     ................
e000b0e8:	00000000 00000000 00000000 00000000     ................
e000b0f8:	00000000 00000000 00000000 00000000     ................
e000b108:	00000000 00000000 00000000 00000000     ................
e000b118:	00000000 00000000 00000000 00000000     ................
e000b128:	00000000 00000000 00000000 00000000     ................
e000b138:	00000000 00000000 00000000 00000000     ................
e000b148:	00000000 00000000 00000000 00000000     ................
e000b158:	00000000 00000000 00000000 00000000     ................
e000b168:	00000000 00000000 00000000 00000000     ................
e000b178:	00000000 00000000 00000000 00000000     ................
e000b188:	00000000 00000000 00000000 00000000     ................
e000b198:	00000000 00000000 00000000 00000000     ................
e000b1a8:	00000000 00000000 00000000 00000000     ................
e000b1b8:	00000000 00000000 00000000 00000000     ................
e000b1c8:	00000000 00000000 00000000 00000000     ................
e000b1d8:	00000000 00000000 00000000 00000000     ................
e000b1e8:	00000000 00000000 00000000 00000000     ................
e000b1f8:	00000000 00000000 00000000 00000000     ................
e000b208:	00000000 00000000 00000000 00000000     ................
e000b218:	00000000 00000000 00000000 00000000     ................
e000b228:	00000000 00000000 00000000 00000000     ................
e000b238:	00000000 00000000 00000000 00000000     ................
e000b248:	00000000 00000000 00000000 00000000     ................
e000b258:	00000000 00000000 00000000 00000000     ................
e000b268:	00000000 00000000 00000000 00000000     ................
e000b278:	00000000 00000000 00000000 00000000     ................
e000b288:	00000000 00000000 00000000 00000000     ................
e000b298:	00000000 00000000 00000000 00000000     ................
e000b2a8:	00000000 00000000 00000000 00000000     ................
e000b2b8:	00000000 00000000 00000000 00000000     ................
e000b2c8:	00000000 00000000 00000000 00000000     ................
e000b2d8:	00000000 00000000 00000000 00000000     ................
e000b2e8:	00000000 00000000 00000000 00000000     ................
e000b2f8:	00000000 00000000 00000000 00000000     ................
e000b308:	00000000 00000000 00000000 00000000     ................
e000b318:	00000000 00000000 00000000 00000000     ................
e000b328:	00000000 00000000 00000000 00000000     ................
e000b338:	00000000 00000000 00000000 00000000     ................
e000b348:	00000000 00000000 00000000 00000000     ................
e000b358:	00000000 00000000 00000000 00000000     ................
e000b368:	00000000 00000000 00000000 00000000     ................
e000b378:	00000000 00000000 00000000 00000000     ................
e000b388:	00000000 00000000 00000000 00000000     ................
e000b398:	00000000 00000000 00000000 00000000     ................
e000b3a8:	00000000 00000000 00000000 00000000     ................
e000b3b8:	00000000 00000000 00000000 00000000     ................
e000b3c8:	00000000 00000000 00000000 00000000     ................
e000b3d8:	00000000 00000000 00000000 00000000     ................
e000b3e8:	00000000 00000000 00000000 00000000     ................
e000b3f8:	00000000 00000000 00000000 00000000     ................
e000b408:	00000000 00000000 00000000 00000000     ................
e000b418:	00000000 00000000 00000000 00000000     ................
e000b428:	00000000 00000000 00000000 00000000     ................
e000b438:	00000000 00000000 00000000 00000000     ................
e000b448:	00000000 00000000 00000000 00000000     ................
e000b458:	00000000 00000000 00000000 00000000     ................
e000b468:	00000000 00000000 00000000 00000000     ................
e000b478:	00000000 00000000 00000000 00000000     ................
e000b488:	00000000 00000000 00000000 00000000     ................
e000b498:	00000000 00000000 00000000 00000000     ................
e000b4a8:	00000000 00000000 00000000 00000000     ................
e000b4b8:	00000000 00000000 00000000 00000000     ................
e000b4c8:	00000000 00000000 00000000 00000000     ................
e000b4d8:	00000000 00000000 00000000 00000000     ................
e000b4e8:	00000000 00000000 00000000 00000000     ................
e000b4f8:	00000000 00000000 00000000 00000000     ................
e000b508:	00000000 00000000 00000000 00000000     ................
e000b518:	00000000 00000000 00000000 00000000     ................
e000b528:	00000000 00000000 00000000 00000000     ................
e000b538:	00000000 00000000 00000000 00000000     ................
e000b548:	00000000 00000000 00000000 00000000     ................
e000b558:	00000000 00000000 00000000 00000000     ................
e000b568:	00000000 00000000 00000000 00000000     ................
e000b578:	00000000 00000000 00000000 00000000     ................
e000b588:	00000000 00000000 00000000 00000000     ................
e000b598:	00000000 00000000 00000000 00000000     ................
e000b5a8:	00000000 00000000 00000000 00000000     ................
e000b5b8:	00000000 00000000 00000000 00000000     ................
e000b5c8:	00000000 00000000 00000000 00000000     ................
e000b5d8:	00000000 00000000 00000000 00000000     ................
e000b5e8:	00000000 00000000 00000000 00000000     ................
e000b5f8:	00000000 00000000 00000000 00000000     ................
e000b608:	00000000 00000000 00000000 00000000     ................
e000b618:	00000000 00000000 00000000 00000000     ................
e000b628:	00000000 00000000 00000000 00000000     ................
e000b638:	00000000 00000000 00000000 00000000     ................
e000b648:	00000000 00000000 00000000 00000000     ................
e000b658:	00000000 00000000 00000000 00000000     ................
e000b668:	00000000 00000000 00000000 00000000     ................
e000b678:	00000000 00000000 00000000 00000000     ................
e000b688:	00000000 00000000 00000000 00000000     ................
e000b698:	00000000 00000000 00000000 00000000     ................
e000b6a8:	00000000 00000000 00000000 00000000     ................
e000b6b8:	00000000 00000000 00000000 00000000     ................
e000b6c8:	00000000 00000000 00000000 00000000     ................
e000b6d8:	00000000 00000000 00000000 00000000     ................
e000b6e8:	00000000 00000000 00000000 00000000     ................
e000b6f8:	00000000 00000000 00000000 00000000     ................
e000b708:	00000000 00000000 00000000 00000000     ................
e000b718:	00000000 00000000 00000000 00000000     ................
e000b728:	00000000 00000000 00000000 00000000     ................
e000b738:	00000000 00000000 00000000 00000000     ................
e000b748:	00000000 00000000 00000000 00000000     ................
e000b758:	00000000 00000000 00000000 00000000     ................
e000b768:	00000000 00000000 00000000 00000000     ................
e000b778:	00000000 00000000 00000000 00000000     ................
e000b788:	00000000 00000000 00000000 00000000     ................
e000b798:	00000000 00000000 00000000 00000000     ................
e000b7a8:	00000000 00000000 00000000 00000000     ................
e000b7b8:	00000000 00000000 00000000 00000000     ................
e000b7c8:	00000000 00000000 00000000 00000000     ................
e000b7d8:	00000000 00000000 00000000 00000000     ................
e000b7e8:	00000000 00000000 00000000 00000000     ................
e000b7f8:	00000000 00000000 00000000 00000000     ................
e000b808:	00000000 00000000 00000000 00000000     ................
e000b818:	00000000 00000000 00000000 00000000     ................
e000b828:	00000000 00000000 00000000 00000000     ................
e000b838:	00000000 00000000 00000000 00000000     ................
e000b848:	00000000 00000000 00000000 00000000     ................
e000b858:	00000000 00000000 00000000 00000000     ................
e000b868:	00000000 00000000 00000000 00000000     ................
e000b878:	00000000 00000000 00000000 00000000     ................
e000b888:	00000000 00000000 00000000 00000000     ................
e000b898:	00000000 00000000 00000000 00000000     ................
e000b8a8:	00000000 00000000 00000000 00000000     ................
e000b8b8:	00000000 00000000 00000000 00000000     ................
e000b8c8:	00000000 00000000 00000000 00000000     ................
e000b8d8:	00000000 00000000 00000000 00000000     ................
e000b8e8:	00000000 00000000 00000000 00000000     ................
e000b8f8:	00000000 00000000 00000000 00000000     ................
e000b908:	00000000 00000000 00000000 00000000     ................
e000b918:	00000000 00000000 00000000 00000000     ................
e000b928:	00000000 00000000 00000000 00000000     ................
e000b938:	00000000 00000000 00000000 00000000     ................
e000b948:	00000000 00000000 00000000 00000000     ................
e000b958:	00000000 00000000 00000000 00000000     ................
e000b968:	00000000 00000000 00000000 00000000     ................
e000b978:	00000000 00000000 00000000 00000000     ................
e000b988:	00000000 00000000 00000000 00000000     ................
e000b998:	00000000 00000000 00000000 00000000     ................
e000b9a8:	00000000 00000000 00000000 00000000     ................
e000b9b8:	00000000 00000000 00000000 00000000     ................
e000b9c8:	00000000 00000000 00000000 00000000     ................
e000b9d8:	00000000 00000000 00000000 00000000     ................
e000b9e8:	00000000 00000000 00000000 00000000     ................
e000b9f8:	00000000 00000000 00000000 00000000     ................
e000ba08:	00000000 00000000 00000000 00000000     ................
e000ba18:	00000000 00000000 00000000 00000000     ................
e000ba28:	00000000 00000000 00000000 00000000     ................
e000ba38:	00000000 00000000 00000000 00000000     ................
e000ba48:	00000000 00000000 00000000 00000000     ................
e000ba58:	00000000 00000000 00000000 00000000     ................
e000ba68:	00000000 00000000 00000000 00000000     ................
e000ba78:	00000000 00000000 00000000 00000000     ................
e000ba88:	00000000 00000000 00000000 00000000     ................
e000ba98:	00000000 00000000 00000000 00000000     ................
e000baa8:	00000000 00000000 00000000 00000000     ................
e000bab8:	00000000 00000000 00000000 00000000     ................
e000bac8:	00000000 00000000 00000000 00000000     ................
e000bad8:	00000000 00000000 00000000 00000000     ................
e000bae8:	00000000 00000000 00000000 00000000     ................
e000baf8:	00000000 00000000 00000000 00000000     ................
e000bb08:	00000000 00000000 00000000 00000000     ................
e000bb18:	00000000 00000000 00000000 00000000     ................
e000bb28:	00000000 00000000 00000000 00000000     ................
e000bb38:	00000000 00000000 00000000 00000000     ................
e000bb48:	00000000 00000000 00000000 00000000     ................
e000bb58:	00000000 00000000 00000000 00000000     ................
e000bb68:	00000000 00000000 00000000 00000000     ................
e000bb78:	00000000 00000000 00000000 00000000     ................
e000bb88:	00000000 00000000 00000000 00000000     ................
e000bb98:	00000000 00000000 00000000 00000000     ................
e000bba8:	00000000 00000000 00000000 00000000     ................
e000bbb8:	00000000 00000000 00000000 00000000     ................
e000bbc8:	00000000 00000000 00000000 00000000     ................
e000bbd8:	00000000 00000000 00000000 00000000     ................
e000bbe8:	00000000 00000000 00000000 00000000     ................
e000bbf8:	00000000 00000000 00000000 00000000     ................
e000bc08:	00000000 00000000 00000000 00000000     ................
e000bc18:	00000000 00000000 00000000 00000000     ................
e000bc28:	00000000 00000000 00000000 00000000     ................
e000bc38:	00000000 00000000 00000000 00000000     ................
e000bc48:	00000000 00000000 00000000 00000000     ................
e000bc58:	00000000 00000000 00000000 00000000     ................
e000bc68:	00000000 00000000 00000000 00000000     ................
e000bc78:	00000000 00000000 00000000 00000000     ................
e000bc88:	00000000 00000000 00000000 00000000     ................
e000bc98:	00000000 00000000 00000000 00000000     ................
e000bca8:	00000000 00000000 00000000 00000000     ................
e000bcb8:	00000000 00000000 00000000 00000000     ................
e000bcc8:	00000000 00000000 00000000 00000000     ................
e000bcd8:	00000000 00000000 00000000 00000000     ................
e000bce8:	00000000 00000000 00000000 00000000     ................
e000bcf8:	00000000 00000000 00000000 00000000     ................
e000bd08:	00000000 00000000 00000000 00000000     ................
e000bd18:	00000000 00000000 00000000 00000000     ................
e000bd28:	00000000 00000000 00000000 00000000     ................
e000bd38:	00000000 00000000 00000000 00000000     ................
e000bd48:	00000000 00000000 00000000 00000000     ................
e000bd58:	00000000 00000000 00000000 00000000     ................
e000bd68:	00000000 00000000 00000000 00000000     ................
e000bd78:	00000000 00000000 00000000 00000000     ................
e000bd88:	00000000 00000000 00000000 00000000     ................
e000bd98:	00000000 00000000 00000000 00000000     ................
e000bda8:	00000000 00000000 00000000 00000000     ................
e000bdb8:	00000000 00000000 00000000 00000000     ................
e000bdc8:	00000000 00000000 00000000 00000000     ................
e000bdd8:	00000000 00000000 00000000 00000000     ................
e000bde8:	00000000 00000000 00000000 00000000     ................
e000bdf8:	00000000 00000000 00000000 00000000     ................
e000be08:	00000000 00000000 00000000 00000000     ................
e000be18:	00000000 00000000 00000000 00000000     ................
e000be28:	00000000 00000000 00000000 00000000     ................
e000be38:	00000000 00000000 00000000 00000000     ................
e000be48:	00000000 00000000 00000000 00000000     ................
e000be58:	00000000 00000000 00000000 00000000     ................
e000be68:	00000000 00000000 00000000 00000000     ................
e000be78:	00000000 00000000 00000000 00000000     ................
e000be88:	00000000 00000000 00000000 00000000     ................
e000be98:	00000000 00000000 00000000 00000000     ................
e000bea8:	00000000 00000000 00000000 00000000     ................
e000beb8:	00000000 00000000 00000000 00000000     ................
e000bec8:	00000000 00000000 00000000 00000000     ................
e000bed8:	00000000 00000000 00000000 00000000     ................
e000bee8:	00000000 00000000 00000000 00000000     ................
e000bef8:	00000000 00000000 00000000 00000000     ................
e000bf08:	00000000 00000000 00000000 00000000     ................
e000bf18:	00000000 00000000 00000000 00000000     ................
e000bf28:	00000000 00000000 00000000 00000000     ................
e000bf38:	00000000 00000000 00000000 00000000     ................
e000bf48:	00000000 00000000 00000000 00000000     ................
e000bf58:	00000000 00000000 00000000 00000000     ................
e000bf68:	00000000 00000000 00000000 00000000     ................
e000bf78:	00000000 00000000 00000000 00000000     ................
e000bf88:	00000000 00000000 00000000 00000000     ................
e000bf98:	00000000 00000000 00000000 00000000     ................
e000bfa8:	00000000 00000000 00000000 00000000     ................
e000bfb8:	00000000 00000000 00000000 00000000     ................
e000bfc8:	00000000 00000000 00000000 00000000     ................
e000bfd8:	00000000 00000000 00000000 00000000     ................
e000bfe8:	00000000 00000000 00000000 00000000     ................
e000bff8:	00000000 00000000 00000000 00000000     ................
e000c008:	00000000 00000000 00000000 00000000     ................
e000c018:	00000000 00000000 00000000 00000000     ................
e000c028:	00000000 00000000 00000000 00000000     ................
e000c038:	00000000 00000000 00000000 00000000     ................
e000c048:	00000000 00000000 00000000 00000000     ................
e000c058:	00000000 00000000 00000000 00000000     ................
e000c068:	00000000 00000000 00000000 00000000     ................
e000c078:	00000000 00000000 00000000 00000000     ................
e000c088:	00000000 00000000 00000000 00000000     ................
e000c098:	00000000 00000000 00000000 00000000     ................
e000c0a8:	00000000 00000000 00000000 00000000     ................
e000c0b8:	00000000 00000000 00000000 00000000     ................
e000c0c8:	00000000 00000000 00000000 00000000     ................
e000c0d8:	00000000 00000000 00000000 00000000     ................
e000c0e8:	00000000 00000000 00000000 00000000     ................
e000c0f8:	00000000 00000000 00000000 00000000     ................
e000c108:	00000000 00000000 00000000 00000000     ................
e000c118:	00000000 00000000 00000000 00000000     ................
e000c128:	00000000 00000000 00000000 00000000     ................
e000c138:	00000000 00000000 00000000 00000000     ................
e000c148:	00000000 00000000 00000000 00000000     ................
e000c158:	00000000 00000000 00000000 00000000     ................
e000c168:	00000000 00000000 00000000 00000000     ................
e000c178:	00000000 00000000 00000000 00000000     ................
e000c188:	00000000 00000000 00000000 00000000     ................
e000c198:	00000000 00000000 00000000 00000000     ................
e000c1a8:	00000000 00000000 00000000 00000000     ................
e000c1b8:	00000000 00000000 00000000 00000000     ................
e000c1c8:	00000000 00000000 00000000 00000000     ................
e000c1d8:	00000000 00000000 00000000 00000000     ................
e000c1e8:	00000000 00000000 00000000 00000000     ................
e000c1f8:	00000000 00000000 00000000 00000000     ................
e000c208:	00000000 00000000 00000000 00000000     ................
e000c218:	00000000 00000000 00000000 00000000     ................
e000c228:	00000000 00000000 00000000 00000000     ................
e000c238:	00000000 00000000 00000000 00000000     ................
e000c248:	00000000 00000000 00000000 00000000     ................
e000c258:	00000000 00000000 00000000 00000000     ................
e000c268:	00000000 00000000 00000000 00000000     ................
e000c278:	00000000 00000000 00000000 00000000     ................
e000c288:	00000000 00000000 00000000 00000000     ................
e000c298:	00000000 00000000 00000000 00000000     ................
e000c2a8:	00000000 00000000 00000000 00000000     ................
e000c2b8:	00000000 00000000 00000000 00000000     ................
e000c2c8:	00000000 00000000 00000000 00000000     ................
e000c2d8:	00000000 00000000 00000000 00000000     ................
e000c2e8:	00000000 00000000 00000000 00000000     ................
e000c2f8:	00000000 00000000 00000000 00000000     ................
e000c308:	00000000 00000000 00000000 00000000     ................
e000c318:	00000000 00000000 00000000 00000000     ................
e000c328:	00000000 00000000 00000000 00000000     ................
e000c338:	00000000 00000000 00000000 00000000     ................
e000c348:	00000000 00000000 00000000 00000000     ................
e000c358:	00000000 00000000 00000000 00000000     ................
e000c368:	00000000 00000000 00000000 00000000     ................
e000c378:	00000000 00000000 00000000 00000000     ................
e000c388:	00000000 00000000 00000000 00000000     ................
e000c398:	00000000 00000000 00000000 00000000     ................
e000c3a8:	00000000 00000000 00000000 00000000     ................
e000c3b8:	00000000 00000000 00000000 00000000     ................
e000c3c8:	00000000 00000000 00000000 00000000     ................
e000c3d8:	00000000 00000000 00000000 00000000     ................
e000c3e8:	00000000 00000000 00000000 00000000     ................
e000c3f8:	00000000 00000000 00000000 00000000     ................
e000c408:	00000000 00000000 00000000 00000000     ................
e000c418:	00000000 00000000 00000000 00000000     ................
e000c428:	00000000 00000000 00000000 00000000     ................
e000c438:	00000000 00000000 00000000 00000000     ................
e000c448:	00000000 00000000 00000000 00000000     ................
e000c458:	00000000 00000000 00000000 00000000     ................
e000c468:	00000000 00000000 00000000 00000000     ................
e000c478:	00000000 00000000 00000000 00000000     ................
e000c488:	00000000 00000000 00000000 00000000     ................
e000c498:	00000000 00000000 00000000 00000000     ................
e000c4a8:	00000000 00000000 00000000 00000000     ................
e000c4b8:	00000000 00000000 00000000 00000000     ................
e000c4c8:	00000000 00000000 00000000 00000000     ................
e000c4d8:	00000000 00000000 00000000 00000000     ................
e000c4e8:	00000000 00000000 00000000 00000000     ................
e000c4f8:	00000000 00000000 00000000 00000000     ................
e000c508:	00000000 00000000 00000000 00000000     ................
e000c518:	00000000 00000000 00000000 00000000     ................
e000c528:	00000000 00000000 00000000 00000000     ................
e000c538:	00000000 00000000 00000000 00000000     ................
e000c548:	00000000 00000000 00000000 00000000     ................
e000c558:	00000000 00000000 00000000 00000000     ................
e000c568:	00000000 00000000 00000000 00000000     ................
e000c578:	00000000 00000000 00000000 00000000     ................
e000c588:	00000000 00000000 00000000 00000000     ................
e000c598:	00000000 00000000 00000000 00000000     ................
e000c5a8:	00000000 00000000 00000000 00000000     ................
e000c5b8:	00000000 00000000 00000000 00000000     ................
e000c5c8:	00000000 00000000 00000000 00000000     ................
e000c5d8:	00000000 00000000 00000000 00000000     ................
e000c5e8:	00000000 00000000 00000000 00000000     ................
e000c5f8:	00000000 00000000 00000000 00000000     ................
e000c608:	00000000 00000000 00000000 00000000     ................
e000c618:	00000000 00000000 00000000 00000000     ................
e000c628:	00000000 00000000 00000000 00000000     ................
e000c638:	00000000 00000000 00000000 00000000     ................
e000c648:	00000000 00000000 00000000 00000000     ................
e000c658:	00000000 00000000 00000000 00000000     ................
e000c668:	00000000 00000000 00000000 00000000     ................
e000c678:	00000000 00000000 00000000 00000000     ................
e000c688:	00000000 00000000 00000000 00000000     ................
e000c698:	00000000 00000000 00000000 00000000     ................
e000c6a8:	00000000 00000000 00000000 00000000     ................
e000c6b8:	00000000 00000000 00000000 00000000     ................
e000c6c8:	00000000 00000000 00000000 00000000     ................
e000c6d8:	00000000 00000000 00000000 00000000     ................
e000c6e8:	00000000 00000000 00000000 00000000     ................
e000c6f8:	00000000 00000000 00000000 00000000     ................
e000c708:	00000000 00000000 00000000 00000000     ................
e000c718:	00000000 00000000 00000000 00000000     ................
e000c728:	00000000 00000000 00000000 00000000     ................
e000c738:	00000000 00000000 00000000 00000000     ................
e000c748:	00000000 00000000 00000000 00000000     ................
e000c758:	00000000 00000000 00000000 00000000     ................
e000c768:	00000000 00000000 00000000 00000000     ................
e000c778:	00000000 00000000 00000000 00000000     ................
e000c788:	00000000 00000000 00000000 00000000     ................
e000c798:	00000000 00000000 00000000 00000000     ................
e000c7a8:	00000000 00000000 00000000 00000000     ................
e000c7b8:	00000000 00000000 00000000 00000000     ................
e000c7c8:	00000000 00000000 00000000 00000000     ................
e000c7d8:	00000000 00000000 00000000 00000000     ................
e000c7e8:	00000000 00000000 00000000 00000000     ................
e000c7f8:	00000000 00000000 00000000 00000000     ................
e000c808:	00000000 00000000 00000000 00000000     ................
e000c818:	00000000 00000000 00000000 00000000     ................
e000c828:	00000000 00000000 00000000 00000000     ................
e000c838:	00000000 00000000 00000000 00000000     ................
e000c848:	00000000 00000000 00000000 00000000     ................
e000c858:	00000000 00000000 00000000 00000000     ................
e000c868:	00000000 00000000 00000000 00000000     ................
e000c878:	00000000 00000000 00000000 00000000     ................
e000c888:	00000000 00000000 00000000 00000000     ................
e000c898:	00000000 00000000 00000000 00000000     ................
e000c8a8:	00000000 00000000 00000000 00000000     ................
e000c8b8:	00000000 00000000 00000000 00000000     ................
e000c8c8:	00000000 00000000 00000000 00000000     ................
e000c8d8:	00000000 00000000 00000000 00000000     ................
e000c8e8:	00000000 00000000 00000000 00000000     ................
e000c8f8:	00000000 00000000 00000000 00000000     ................
e000c908:	00000000 00000000 00000000 00000000     ................
e000c918:	00000000 00000000 00000000 00000000     ................
e000c928:	00000000 00000000 00000000 00000000     ................
e000c938:	00000000 00000000 00000000 00000000     ................
e000c948:	00000000 00000000 00000000 00000000     ................
e000c958:	00000000 00000000 00000000 00000000     ................
e000c968:	00000000 00000000 00000000 00000000     ................
e000c978:	00000000 00000000 00000000 00000000     ................
e000c988:	00000000 00000000 00000000 00000000     ................
e000c998:	00000000 00000000 00000000 00000000     ................
e000c9a8:	00000000 00000000 00000000 00000000     ................
e000c9b8:	00000000 00000000 00000000 00000000     ................
e000c9c8:	00000000 00000000 00000000 00000000     ................
e000c9d8:	00000000 00000000 00000000 00000000     ................
e000c9e8:	00000000 00000000 00000000 00000000     ................
e000c9f8:	00000000 00000000 00000000 00000000     ................
e000ca08:	00000000 00000000 00000000 00000000     ................
e000ca18:	00000000 00000000 00000000 00000000     ................
e000ca28:	00000000 00000000 00000000 00000000     ................
e000ca38:	00000000 00000000 00000000 00000000     ................
e000ca48:	00000000 00000000 00000000 00000000     ................
e000ca58:	00000000 00000000 00000000 00000000     ................
e000ca68:	00000000 00000000 00000000 00000000     ................
e000ca78:	00000000 00000000 00000000 00000000     ................
e000ca88:	00000000 00000000 00000000 00000000     ................
e000ca98:	00000000 00000000 00000000 00000000     ................
e000caa8:	00000000 00000000 00000000 00000000     ................
e000cab8:	00000000 00000000 00000000 00000000     ................
e000cac8:	00000000 00000000 00000000 00000000     ................
e000cad8:	00000000 00000000 00000000 00000000     ................
e000cae8:	00000000 00000000 00000000 00000000     ................
e000caf8:	00000000 00000000 00000000 00000000     ................
e000cb08:	00000000 00000000 00000000 00000000     ................
e000cb18:	00000000 00000000 00000000 00000000     ................
e000cb28:	00000000 00000000 00000000 00000000     ................
e000cb38:	00000000 00000000 00000000 00000000     ................
e000cb48:	00000000 00000000 00000000 00000000     ................
e000cb58:	00000000 00000000 00000000 00000000     ................
e000cb68:	00000000 00000000 00000000 00000000     ................
e000cb78:	00000000 00000000 00000000 00000000     ................
e000cb88:	00000000 00000000 00000000 00000000     ................
e000cb98:	00000000 00000000 00000000 00000000     ................
e000cba8:	00000000 00000000 00000000 00000000     ................
e000cbb8:	00000000 00000000 00000000 00000000     ................
e000cbc8:	00000000 00000000 00000000 00000000     ................
e000cbd8:	00000000 00000000 00000000 00000000     ................
e000cbe8:	00000000 00000000 00000000 00000000     ................
e000cbf8:	00000000 00000000 00000000 00000000     ................
e000cc08:	00000000 00000000 00000000 00000000     ................
e000cc18:	00000000 00000000 00000000 00000000     ................
e000cc28:	00000000 00000000 00000000 00000000     ................
e000cc38:	00000000 00000000 00000000 00000000     ................
e000cc48:	00000000 00000000 00000000 00000000     ................
e000cc58:	00000000 00000000 00000000 00000000     ................
e000cc68:	00000000 00000000 00000000 00000000     ................
e000cc78:	00000000 00000000 00000000 00000000     ................
e000cc88:	00000000 00000000 00000000 00000000     ................
e000cc98:	00000000 00000000 00000000 00000000     ................
e000cca8:	00000000 00000000 00000000 00000000     ................
e000ccb8:	00000000 00000000 00000000 00000000     ................
e000ccc8:	00000000 00000000 00000000 00000000     ................
e000ccd8:	00000000 00000000 00000000 00000000     ................
e000cce8:	00000000 00000000 00000000 00000000     ................
e000ccf8:	00000000 00000000 00000000 00000000     ................
e000cd08:	00000000 00000000 00000000 00000000     ................
e000cd18:	00000000 00000000 00000000 00000000     ................
e000cd28:	00000000 00000000 00000000 00000000     ................
e000cd38:	00000000 00000000 00000000 00000000     ................
e000cd48:	00000000 00000000 00000000 00000000     ................
e000cd58:	00000000 00000000 00000000 00000000     ................
e000cd68:	00000000 00000000 00000000 00000000     ................
e000cd78:	00000000 00000000 00000000 00000000     ................
e000cd88:	00000000 00000000 00000000 00000000     ................
e000cd98:	00000000 00000000 00000000 00000000     ................
e000cda8:	00000000 00000000 00000000 00000000     ................
e000cdb8:	00000000 00000000 00000000 00000000     ................
e000cdc8:	00000000 00000000 00000000 00000000     ................
e000cdd8:	00000000 00000000 00000000 00000000     ................
e000cde8:	00000000 00000000 00000000 00000000     ................
e000cdf8:	00000000 00000000 00000000 00000000     ................
e000ce08:	00000000 00000000 00000000 00000000     ................
e000ce18:	00000000 00000000 00000000 00000000     ................
e000ce28:	00000000 00000000 00000000 00000000     ................
e000ce38:	00000000 00000000 00000000 00000000     ................
e000ce48:	00000000 00000000 00000000 00000000     ................
e000ce58:	00000000 00000000 00000000 00000000     ................
e000ce68:	00000000 00000000 00000000 00000000     ................
e000ce78:	00000000 00000000 00000000 00000000     ................
e000ce88:	00000000 00000000 00000000 00000000     ................
e000ce98:	00000000 00000000 00000000 00000000     ................
e000cea8:	00000000 00000000 00000000 00000000     ................
e000ceb8:	00000000 00000000 00000000 00000000     ................
e000cec8:	00000000 00000000 00000000 00000000     ................
e000ced8:	00000000 00000000 00000000 00000000     ................
e000cee8:	00000000 00000000 00000000 00000000     ................
e000cef8:	00000000 00000000 00000000 00000000     ................
e000cf08:	00000000 00000000 00000000 00000000     ................
e000cf18:	00000000 00000000 00000000 00000000     ................
e000cf28:	00000000 00000000 00000000 00000000     ................
e000cf38:	00000000 00000000 00000000 00000000     ................
e000cf48:	00000000 00000000 00000000 00000000     ................
e000cf58:	00000000 00000000 00000000 00000000     ................
e000cf68:	00000000 00000000 00000000 00000000     ................
e000cf78:	00000000 00000000 00000000 00000000     ................
e000cf88:	00000000 00000000 00000000 00000000     ................
e000cf98:	00000000 00000000 00000000 00000000     ................
e000cfa8:	00000000 00000000 00000000 00000000     ................
e000cfb8:	00000000 00000000 00000000 00000000     ................
e000cfc8:	00000000 00000000 00000000 00000000     ................
e000cfd8:	00000000 00000000 00000000 00000000     ................
e000cfe8:	00000000 00000000 00000000 00000000     ................
e000cff8:	00000000 00000000 00000000 00000000     ................
e000d008:	00000000 00000000 00000000 00000000     ................
e000d018:	00000000 00000000 00000000 00000000     ................
e000d028:	00000000 00000000 00000000 00000000     ................
e000d038:	00000000 00000000 00000000 00000000     ................
e000d048:	00000000 00000000 00000000 00000000     ................
e000d058:	00000000 00000000 00000000 00000000     ................
e000d068:	00000000 00000000 00000000 00000000     ................
e000d078:	00000000 00000000 00000000 00000000     ................
e000d088:	00000000 00000000 00000000 00000000     ................
e000d098:	00000000 00000000 00000000 00000000     ................
e000d0a8:	00000000 00000000 00000000 00000000     ................
e000d0b8:	00000000 00000000 00000000 00000000     ................
e000d0c8:	00000000 00000000 00000000 00000000     ................
e000d0d8:	00000000 00000000 00000000 00000000     ................
e000d0e8:	00000000 00000000 00000000 00000000     ................
e000d0f8:	00000000 00000000 00000000 00000000     ................
e000d108:	00000000 00000000 00000000 00000000     ................
e000d118:	00000000 00000000 00000000 00000000     ................
e000d128:	00000000 00000000 00000000 00000000     ................
e000d138:	00000000 00000000 00000000 00000000     ................
e000d148:	00000000 00000000 00000000 00000000     ................
e000d158:	00000000 00000000 00000000 00000000     ................
e000d168:	00000000 00000000 00000000 00000000     ................
e000d178:	00000000 00000000 00000000 00000000     ................
e000d188:	00000000 00000000 00000000 00000000     ................
e000d198:	00000000 00000000 00000000 00000000     ................
e000d1a8:	00000000 00000000 00000000 00000000     ................
e000d1b8:	00000000 00000000 00000000 00000000     ................
e000d1c8:	00000000 00000000 00000000 00000000     ................
e000d1d8:	00000000 00000000 00000000 00000000     ................
e000d1e8:	00000000 00000000 00000000 00000000     ................
e000d1f8:	00000000 00000000 00000000 00000000     ................
e000d208:	00000000 00000000 00000000 00000000     ................
e000d218:	00000000 00000000 00000000 00000000     ................
e000d228:	00000000 00000000 00000000 00000000     ................
e000d238:	00000000 00000000 00000000 00000000     ................
e000d248:	00000000 00000000 00000000 00000000     ................
e000d258:	00000000 00000000 00000000 00000000     ................
e000d268:	00000000 00000000 00000000 00000000     ................
e000d278:	00000000 00000000 00000000 00000000     ................
e000d288:	00000000 00000000 00000000 00000000     ................
e000d298:	00000000 00000000 00000000 00000000     ................
e000d2a8:	00000000 00000000 00000000 00000000     ................
e000d2b8:	00000000 00000000 00000000 00000000     ................
e000d2c8:	00000000 00000000 00000000 00000000     ................
e000d2d8:	00000000 00000000 00000000 00000000     ................
e000d2e8:	00000000 00000000 00000000 00000000     ................
e000d2f8:	00000000 00000000 00000000 00000000     ................
e000d308:	00000000 00000000 00000000 00000000     ................
e000d318:	00000000 00000000 00000000 00000000     ................
e000d328:	00000000 00000000 00000000 00000000     ................
e000d338:	00000000 00000000 00000000 00000000     ................
e000d348:	00000000 00000000 00000000 00000000     ................
e000d358:	00000000 00000000 00000000 00000000     ................
e000d368:	00000000 00000000 00000000 00000000     ................
e000d378:	00000000 00000000 00000000 00000000     ................
e000d388:	00000000 00000000 00000000 00000000     ................
e000d398:	00000000 00000000 00000000 00000000     ................
e000d3a8:	00000000 00000000 00000000 00000000     ................
e000d3b8:	00000000 00000000 00000000 00000000     ................
e000d3c8:	00000000 00000000 00000000 00000000     ................
e000d3d8:	00000000 00000000 00000000 00000000     ................
e000d3e8:	00000000 00000000 00000000 00000000     ................
e000d3f8:	00000000 00000000 00000000 00000000     ................
e000d408:	00000000 00000000 00000000 00000000     ................
e000d418:	00000000 00000000 00000000 00000000     ................
e000d428:	00000000 00000000 00000000 00000000     ................
e000d438:	00000000 00000000 00000000 00000000     ................
e000d448:	00000000 00000000 00000000 00000000     ................
e000d458:	00000000 00000000 00000000 00000000     ................
e000d468:	00000000 00000000 00000000 00000000     ................
e000d478:	00000000 00000000 00000000 00000000     ................
e000d488:	00000000 00000000 00000000 00000000     ................
e000d498:	00000000 00000000 00000000 00000000     ................
e000d4a8:	00000000 00000000 00000000 00000000     ................
e000d4b8:	00000000 00000000 00000000 00000000     ................
e000d4c8:	00000000 00000000 00000000 00000000     ................
e000d4d8:	00000000 00000000 00000000 00000000     ................
e000d4e8:	00000000 00000000 00000000 00000000     ................
e000d4f8:	00000000 00000000 00000000 00000000     ................
e000d508:	00000000 00000000 00000000 00000000     ................
e000d518:	00000000 00000000 00000000 00000000     ................
e000d528:	00000000 00000000 00000000 00000000     ................
e000d538:	00000000 00000000 00000000 00000000     ................
e000d548:	00000000 00000000 00000000 00000000     ................
e000d558:	00000000 00000000 00000000 00000000     ................
e000d568:	00000000 00000000 00000000 00000000     ................
e000d578:	00000000 00000000 00000000 00000000     ................
e000d588:	00000000 00000000 00000000 00000000     ................
e000d598:	00000000 00000000 00000000 00000000     ................
e000d5a8:	00000000 00000000 00000000 00000000     ................
e000d5b8:	00000000 00000000 00000000 00000000     ................
e000d5c8:	00000000 00000000 00000000 00000000     ................
e000d5d8:	00000000 00000000 00000000 00000000     ................
e000d5e8:	00000000 00000000 00000000 00000000     ................
e000d5f8:	00000000 00000000 00000000 00000000     ................
e000d608:	00000000 00000000 00000000 00000000     ................
e000d618:	00000000 00000000 00000000 00000000     ................
e000d628:	00000000 00000000 00000000 00000000     ................
e000d638:	00000000 00000000 00000000 00000000     ................
e000d648:	00000000 00000000 00000000 00000000     ................
e000d658:	00000000 00000000 00000000 00000000     ................
e000d668:	00000000 00000000 00000000 00000000     ................
e000d678:	00000000 00000000 00000000 00000000     ................
e000d688:	00000000 00000000 00000000 00000000     ................
e000d698:	00000000 00000000 00000000 00000000     ................
e000d6a8:	00000000 00000000 00000000 00000000     ................
e000d6b8:	00000000 00000000 00000000 00000000     ................
e000d6c8:	00000000 00000000 00000000 00000000     ................
e000d6d8:	00000000 00000000 00000000 00000000     ................
e000d6e8:	00000000 00000000 00000000 00000000     ................
e000d6f8:	00000000 00000000 00000000 00000000     ................
e000d708:	00000000 00000000 00000000 00000000     ................
e000d718:	00000000 00000000 00000000 00000000     ................
e000d728:	00000000 00000000 00000000 00000000     ................
e000d738:	00000000 00000000 00000000 00000000     ................
e000d748:	00000000 00000000 00000000 00000000     ................
e000d758:	00000000 00000000 00000000 00000000     ................
e000d768:	00000000 00000000 00000000 00000000     ................
e000d778:	00000000 00000000 00000000 00000000     ................
e000d788:	00000000 00000000 00000000 00000000     ................
e000d798:	00000000 00000000 00000000 00000000     ................
e000d7a8:	00000000 00000000 00000000 00000000     ................
e000d7b8:	00000000 00000000 00000000 00000000     ................
e000d7c8:	00000000 00000000 00000000 00000000     ................
e000d7d8:	00000000 00000000 00000000 00000000     ................
e000d7e8:	00000000 00000000 00000000 00000000     ................
e000d7f8:	00000000 00000000 00000000 00000000     ................
e000d808:	00000000 00000000 00000000 00000000     ................
e000d818:	00000000 00000000 00000000 00000000     ................
e000d828:	00000000 00000000 00000000 00000000     ................
e000d838:	00000000 00000000 00000000 00000000     ................
e000d848:	00000000 00000000 00000000 00000000     ................
e000d858:	00000000 00000000 00000000 00000000     ................
e000d868:	00000000 00000000 00000000 00000000     ................
e000d878:	00000000 00000000 00000000 00000000     ................
e000d888:	00000000 00000000 00000000 00000000     ................
e000d898:	00000000 00000000 00000000 00000000     ................
e000d8a8:	00000000 00000000 00000000 00000000     ................
e000d8b8:	00000000 00000000 00000000 00000000     ................
e000d8c8:	00000000 00000000 00000000 00000000     ................
e000d8d8:	00000000 00000000 00000000 00000000     ................
e000d8e8:	00000000 00000000 00000000 00000000     ................
e000d8f8:	00000000 00000000 00000000 00000000     ................
e000d908:	00000000 00000000 00000000 00000000     ................
e000d918:	00000000 00000000 00000000 00000000     ................
e000d928:	00000000 00000000 00000000 00000000     ................
e000d938:	00000000 00000000 00000000 00000000     ................
e000d948:	00000000 00000000 00000000 00000000     ................
e000d958:	00000000 00000000 00000000 00000000     ................
e000d968:	00000000 00000000 00000000 00000000     ................
e000d978:	00000000 00000000 00000000 00000000     ................
e000d988:	00000000 00000000 00000000 00000000     ................
e000d998:	00000000 00000000 00000000 00000000     ................
e000d9a8:	00000000 00000000 00000000 00000000     ................
e000d9b8:	00000000 00000000 00000000 00000000     ................
e000d9c8:	00000000 00000000 00000000 00000000     ................
e000d9d8:	00000000 00000000 00000000 00000000     ................
e000d9e8:	00000000 00000000 00000000 00000000     ................
e000d9f8:	00000000 00000000 00000000 00000000     ................
e000da08:	00000000 00000000 00000000 00000000     ................
e000da18:	00000000 00000000 00000000 00000000     ................
e000da28:	00000000 00000000 00000000 00000000     ................
e000da38:	00000000 00000000 00000000 00000000     ................
e000da48:	00000000 00000000 00000000 00000000     ................
e000da58:	00000000 00000000 00000000 00000000     ................
e000da68:	00000000 00000000 00000000 00000000     ................
e000da78:	00000000 00000000 00000000 00000000     ................
e000da88:	00000000 00000000 00000000 00000000     ................
e000da98:	00000000 00000000 00000000 00000000     ................
e000daa8:	00000000 00000000 00000000 00000000     ................
e000dab8:	00000000 00000000 00000000 00000000     ................
e000dac8:	00000000 00000000 00000000 00000000     ................
e000dad8:	00000000 00000000 00000000 00000000     ................
e000dae8:	00000000 00000000 00000000 00000000     ................
e000daf8:	00000000 00000000 00000000 00000000     ................
e000db08:	00000000 00000000 00000000 00000000     ................
e000db18:	00000000 00000000 00000000 00000000     ................
e000db28:	00000000 00000000 00000000 00000000     ................
e000db38:	00000000 00000000 00000000 00000000     ................
e000db48:	00000000 00000000 00000000 00000000     ................
e000db58:	00000000 00000000 00000000 00000000     ................
e000db68:	00000000 00000000 00000000 00000000     ................
e000db78:	00000000 00000000 00000000 00000000     ................
e000db88:	00000000 00000000 00000000 00000000     ................
e000db98:	00000000 00000000 00000000 00000000     ................
e000dba8:	00000000 00000000 00000000 00000000     ................
e000dbb8:	00000000 00000000 00000000 00000000     ................
e000dbc8:	00000000 00000000 00000000 00000000     ................
e000dbd8:	00000000 00000000 00000000 00000000     ................
e000dbe8:	00000000 00000000 00000000 00000000     ................
e000dbf8:	00000000 00000000 00000000 00000000     ................
e000dc08:	00000000 00000000 00000000 00000000     ................
e000dc18:	00000000 00000000 00000000 00000000     ................
e000dc28:	00000000 00000000 00000000 00000000     ................
e000dc38:	00000000 00000000 00000000 00000000     ................
e000dc48:	00000000 00000000 00000000 00000000     ................
e000dc58:	00000000 00000000 00000000 00000000     ................
e000dc68:	00000000 00000000 00000000 00000000     ................
e000dc78:	00000000 00000000 00000000 00000000     ................
e000dc88:	00000000 00000000 00000000 00000000     ................
e000dc98:	00000000 00000000 00000000 00000000     ................
e000dca8:	00000000 00000000 00000000 00000000     ................
e000dcb8:	00000000 00000000 00000000 00000000     ................
e000dcc8:	00000000 00000000 00000000 00000000     ................
e000dcd8:	00000000 00000000 00000000 00000000     ................
e000dce8:	00000000 00000000 00000000 00000000     ................
e000dcf8:	00000000 00000000 00000000 00000000     ................
e000dd08:	00000000 00000000 00000000 00000000     ................
e000dd18:	00000000 00000000 00000000 00000000     ................
e000dd28:	00000000 00000000 00000000 00000000     ................
e000dd38:	00000000 00000000 00000000 00000000     ................
e000dd48:	00000000 00000000 00000000 00000000     ................
e000dd58:	00000000 00000000 00000000 00000000     ................
e000dd68:	00000000 00000000 00000000 00000000     ................
e000dd78:	00000000 00000000 00000000 00000000     ................
e000dd88:	00000000 00000000 00000000 00000000     ................
e000dd98:	00000000 00000000 00000000 00000000     ................
e000dda8:	00000000 00000000 00000000 00000000     ................
e000ddb8:	00000000 00000000 00000000 00000000     ................
e000ddc8:	00000000 00000000 00000000 00000000     ................
e000ddd8:	00000000 00000000 00000000 00000000     ................
e000dde8:	00000000 00000000 00000000 00000000     ................
e000ddf8:	00000000 00000000 00000000 00000000     ................
e000de08:	00000000 00000000 00000000 00000000     ................
e000de18:	00000000 00000000 00000000 00000000     ................
e000de28:	00000000 00000000 00000000 00000000     ................
e000de38:	00000000 00000000 00000000 00000000     ................
e000de48:	00000000 00000000 00000000 00000000     ................
e000de58:	00000000 00000000 00000000 00000000     ................
e000de68:	00000000 00000000 00000000 00000000     ................
e000de78:	00000000 00000000 00000000 00000000     ................
e000de88:	00000000 00000000 00000000 00000000     ................
e000de98:	00000000 00000000 00000000 00000000     ................
e000dea8:	00000000 00000000 00000000 00000000     ................
e000deb8:	00000000 00000000 00000000 00000000     ................
e000dec8:	00000000 00000000 00000000 00000000     ................
e000ded8:	00000000 00000000 00000000 00000000     ................
e000dee8:	00000000 00000000 00000000 00000000     ................
e000def8:	00000000 00000000 00000000 00000000     ................
e000df08:	00000000 00000000 00000000 00000000     ................
e000df18:	00000000 00000000 00000000 00000000     ................
e000df28:	00000000 00000000 00000000 00000000     ................
e000df38:	00000000 00000000 00000000 00000000     ................
e000df48:	00000000 00000000 00000000 00000000     ................
e000df58:	00000000 00000000 00000000 00000000     ................
e000df68:	00000000 00000000 00000000 00000000     ................
e000df78:	00000000 00000000 00000000 00000000     ................
e000df88:	00000000 00000000 00000000 00000000     ................
e000df98:	00000000 00000000 00000000 00000000     ................
e000dfa8:	00000000 00000000 00000000 00000000     ................
e000dfb8:	00000000 00000000 00000000 00000000     ................
e000dfc8:	00000000 00000000 00000000 00000000     ................
e000dfd8:	00000000 00000000 00000000 00000000     ................
e000dfe8:	00000000 00000000 00000000 00000000     ................
e000dff8:	00000000 00000000 00000000 00000000     ................
e000e008:	00000000 00000000 00000000 00000000     ................
e000e018:	00000000 00000000 00000000 00000000     ................
e000e028:	00000000 00000000 00000000 00000000     ................
e000e038:	00000000 00000000 00000000 00000000     ................
e000e048:	00000000 00000000 00000000 00000000     ................
e000e058:	00000000 00000000 00000000 00000000     ................
e000e068:	00000000 00000000 00000000 00000000     ................
e000e078:	00000000 00000000 00000000 00000000     ................
e000e088:	00000000 00000000 00000000 00000000     ................
e000e098:	00000000 00000000 00000000 00000000     ................
e000e0a8:	00000000 00000000 00000000 00000000     ................
e000e0b8:	00000000 00000000 00000000 00000000     ................
e000e0c8:	00000000 00000000 00000000 00000000     ................
e000e0d8:	00000000 00000000 00000000 00000000     ................
e000e0e8:	00000000 00000000 00000000 00000000     ................
e000e0f8:	00000000 00000000 00000000 00000000     ................
e000e108:	00000000 00000000 00000000 00000000     ................
e000e118:	00000000 00000000 00000000 00000000     ................
e000e128:	00000000 00000000 00000000 00000000     ................
e000e138:	00000000 00000000 00000000 00000000     ................
e000e148:	00000000 00000000 00000000 00000000     ................
e000e158:	00000000 00000000 00000000 00000000     ................
e000e168:	00000000 00000000 00000000 00000000     ................
e000e178:	00000000 00000000 00000000 00000000     ................
e000e188:	00000000 00000000 00000000 00000000     ................
e000e198:	00000000 00000000 00000000 00000000     ................
e000e1a8:	00000000 00000000 00000000 00000000     ................
e000e1b8:	00000000 00000000 00000000 00000000     ................
e000e1c8:	00000000 00000000 00000000 00000000     ................
e000e1d8:	00000000 00000000 00000000 00000000     ................
e000e1e8:	00000000 00000000 00000000 00000000     ................
e000e1f8:	00000000 00000000 00000000 00000000     ................
e000e208:	00000000 00000000 00000000 00000000     ................
e000e218:	00000000 00000000 00000000 00000000     ................
e000e228:	00000000 00000000 00000000 00000000     ................
e000e238:	00000000 00000000 00000000 00000000     ................
e000e248:	00000000 00000000 00000000 00000000     ................
e000e258:	00000000 00000000 00000000 00000000     ................
e000e268:	00000000 00000000 00000000 00000000     ................
e000e278:	00000000 00000000 00000000 00000000     ................
e000e288:	00000000 00000000 00000000 00000000     ................
e000e298:	00000000 00000000 00000000 00000000     ................
e000e2a8:	00000000 00000000 00000000 00000000     ................
e000e2b8:	00000000 00000000 00000000 00000000     ................
e000e2c8:	00000000 00000000 00000000 00000000     ................
e000e2d8:	00000000 00000000 00000000 00000000     ................
e000e2e8:	00000000 00000000 00000000 00000000     ................
e000e2f8:	00000000 00000000 00000000 00000000     ................
e000e308:	00000000 00000000 00000000 00000000     ................
e000e318:	00000000 00000000 00000000 00000000     ................
e000e328:	00000000 00000000 00000000 00000000     ................
e000e338:	00000000 00000000 00000000 00000000     ................
e000e348:	00000000 00000000 00000000 00000000     ................
e000e358:	00000000 00000000 00000000 00000000     ................
e000e368:	00000000 00000000 00000000 00000000     ................
e000e378:	00000000 00000000 00000000 00000000     ................
e000e388:	00000000 00000000 00000000 00000000     ................
e000e398:	00000000 00000000 00000000 00000000     ................
e000e3a8:	00000000 00000000 00000000 00000000     ................
e000e3b8:	00000000 00000000 00000000 00000000     ................
e000e3c8:	00000000 00000000 00000000 00000000     ................
e000e3d8:	00000000 00000000 00000000 00000000     ................
e000e3e8:	00000000 00000000 00000000 00000000     ................
e000e3f8:	00000000 00000000 00000000 00000000     ................
e000e408:	00000000 00000000 00000000 00000000     ................
e000e418:	00000000 00000000 00000000 00000000     ................
e000e428:	00000000 00000000 00000000 00000000     ................
e000e438:	00000000 00000000 00000000 00000000     ................
e000e448:	00000000 00000000 00000000 00000000     ................
e000e458:	00000000 00000000 00000000 00000000     ................
e000e468:	00000000 00000000 00000000 00000000     ................
e000e478:	00000000 00000000 00000000 00000000     ................
e000e488:	00000000 00000000 00000000 00000000     ................
e000e498:	00000000 00000000 00000000 00000000     ................
e000e4a8:	00000000 00000000 00000000 00000000     ................
e000e4b8:	00000000 00000000 00000000 00000000     ................
e000e4c8:	00000000 00000000 00000000 00000000     ................
e000e4d8:	00000000 00000000 00000000 00000000     ................
e000e4e8:	00000000 00000000 00000000 00000000     ................
e000e4f8:	00000000 00000000 00000000 00000000     ................
e000e508:	00000000 00000000 00000000 00000000     ................
e000e518:	00000000 00000000 00000000 00000000     ................
e000e528:	00000000 00000000 00000000 00000000     ................
e000e538:	00000000 00000000 00000000 00000000     ................
e000e548:	00000000 00000000 00000000 00000000     ................
e000e558:	00000000 00000000 00000000 00000000     ................
e000e568:	00000000 00000000 00000000 00000000     ................
e000e578:	00000000 00000000 00000000 00000000     ................
e000e588:	00000000 00000000 00000000 00000000     ................
e000e598:	00000000 00000000 00000000 00000000     ................
e000e5a8:	00000000 00000000 00000000 00000000     ................
e000e5b8:	00000000 00000000 00000000 00000000     ................
e000e5c8:	00000000 00000000 00000000 00000000     ................
e000e5d8:	00000000 00000000 00000000 00000000     ................
e000e5e8:	00000000 00000000 00000000 00000000     ................
e000e5f8:	00000000 00000000 00000000 00000000     ................
e000e608:	00000000 00000000 00000000 00000000     ................
e000e618:	00000000 00000000 00000000 00000000     ................
e000e628:	00000000 00000000 00000000 00000000     ................
e000e638:	00000000 00000000 00000000 00000000     ................
e000e648:	00000000 00000000 00000000 00000000     ................
e000e658:	00000000 00000000 00000000 00000000     ................
e000e668:	00000000 00000000 00000000 00000000     ................
e000e678:	00000000 00000000 00000000 00000000     ................
e000e688:	00000000 00000000 00000000 00000000     ................
e000e698:	00000000 00000000 00000000 00000000     ................
e000e6a8:	00000000 00000000 00000000 00000000     ................
e000e6b8:	00000000 00000000 00000000 00000000     ................
e000e6c8:	00000000 00000000 00000000 00000000     ................
e000e6d8:	00000000 00000000 00000000 00000000     ................
e000e6e8:	00000000 00000000 00000000 00000000     ................
e000e6f8:	00000000 00000000 00000000 00000000     ................
e000e708:	00000000 00000000 00000000 00000000     ................
e000e718:	00000000 00000000 00000000 00000000     ................
e000e728:	00000000 00000000 00000000 00000000     ................
e000e738:	00000000 00000000 00000000 00000000     ................
e000e748:	00000000 00000000 00000000 00000000     ................
e000e758:	00000000 00000000 00000000 00000000     ................
e000e768:	00000000 00000000 00000000 00000000     ................
e000e778:	00000000 00000000 00000000 00000000     ................
e000e788:	00000000 00000000 00000000 00000000     ................
e000e798:	00000000 00000000 00000000 00000000     ................
e000e7a8:	00000000 00000000 00000000 00000000     ................
e000e7b8:	00000000 00000000 00000000 00000000     ................
e000e7c8:	00000000 00000000 00000000 00000000     ................
e000e7d8:	00000000 00000000 00000000 00000000     ................
e000e7e8:	00000000 00000000 00000000 00000000     ................
e000e7f8:	00000000 00000000 00000000 00000000     ................
e000e808:	00000000 00000000 00000000 00000000     ................
e000e818:	00000000 00000000 00000000 00000000     ................
e000e828:	00000000 00000000 00000000 00000000     ................
e000e838:	00000000 00000000 00000000 00000000     ................
e000e848:	00000000 00000000 00000000 00000000     ................
e000e858:	00000000 00000000 00000000 00000000     ................
e000e868:	00000000 00000000 00000000 00000000     ................
e000e878:	00000000 00000000 00000000 00000000     ................
e000e888:	00000000 00000000 00000000 00000000     ................
e000e898:	00000000 00000000 00000000 00000000     ................
e000e8a8:	00000000 00000000 00000000 00000000     ................
e000e8b8:	00000000 00000000 00000000 00000000     ................
e000e8c8:	00000000 00000000 00000000 00000000     ................
e000e8d8:	00000000 00000000 00000000 00000000     ................
e000e8e8:	00000000 00000000 00000000 00000000     ................
e000e8f8:	00000000 00000000 00000000 00000000     ................
e000e908:	00000000 00000000 00000000 00000000     ................
e000e918:	00000000 00000000 00000000 00000000     ................
e000e928:	00000000 00000000 00000000 00000000     ................
e000e938:	00000000 00000000 00000000 00000000     ................
e000e948:	00000000 00000000 00000000 00000000     ................
e000e958:	00000000 00000000 00000000 00000000     ................
e000e968:	00000000 00000000 00000000 00000000     ................
e000e978:	00000000 00000000 00000000 00000000     ................
e000e988:	00000000 00000000 00000000 00000000     ................
e000e998:	00000000 00000000 00000000 00000000     ................
e000e9a8:	00000000 00000000 00000000 00000000     ................
e000e9b8:	00000000 00000000 00000000 00000000     ................
e000e9c8:	00000000 00000000 00000000 00000000     ................
e000e9d8:	00000000 00000000 00000000 00000000     ................
e000e9e8:	00000000 00000000 00000000 00000000     ................
e000e9f8:	00000000 00000000 00000000 00000000     ................
e000ea08:	00000000 00000000 00000000 00000000     ................
e000ea18:	00000000 00000000 00000000 00000000     ................
e000ea28:	00000000 00000000 00000000 00000000     ................
e000ea38:	00000000 00000000 00000000 00000000     ................
e000ea48:	00000000 00000000 00000000 00000000     ................
e000ea58:	00000000 00000000 00000000 00000000     ................
e000ea68:	00000000 00000000 00000000 00000000     ................
e000ea78:	00000000 00000000 00000000 00000000     ................
e000ea88:	00000000 00000000 00000000 00000000     ................
e000ea98:	00000000 00000000 00000000 00000000     ................
e000eaa8:	00000000 00000000 00000000 00000000     ................
e000eab8:	00000000 00000000 00000000 00000000     ................
e000eac8:	00000000 00000000 00000000 00000000     ................
e000ead8:	00000000 00000000 00000000 00000000     ................
e000eae8:	00000000 00000000 00000000 00000000     ................
e000eaf8:	00000000 00000000 00000000 00000000     ................
e000eb08:	00000000 00000000 00000000 00000000     ................
e000eb18:	00000000 00000000 00000000 00000000     ................
e000eb28:	00000000 00000000 00000000 00000000     ................
e000eb38:	00000000 00000000 00000000 00000000     ................
e000eb48:	00000000 00000000 00000000 00000000     ................
e000eb58:	00000000 00000000 00000000 00000000     ................
e000eb68:	00000000 00000000 00000000 00000000     ................
e000eb78:	00000000 00000000 00000000 00000000     ................
e000eb88:	00000000 00000000 00000000 00000000     ................
e000eb98:	00000000 00000000 00000000 00000000     ................
e000eba8:	00000000 00000000 00000000 00000000     ................
e000ebb8:	00000000 00000000 00000000 00000000     ................
e000ebc8:	00000000 00000000 00000000 00000000     ................
e000ebd8:	00000000 00000000 00000000 00000000     ................
e000ebe8:	00000000 00000000 00000000 00000000     ................
e000ebf8:	00000000 00000000 00000000 00000000     ................
e000ec08:	00000000 00000000 00000000 00000000     ................
e000ec18:	00000000 00000000 00000000 00000000     ................
e000ec28:	00000000 00000000 00000000 00000000     ................
e000ec38:	00000000 00000000 00000000 00000000     ................
e000ec48:	00000000 00000000 00000000 00000000     ................
e000ec58:	00000000 00000000 00000000 00000000     ................
e000ec68:	00000000 00000000 00000000 00000000     ................
e000ec78:	00000000 00000000 00000000 00000000     ................
e000ec88:	00000000 00000000 00000000 00000000     ................
e000ec98:	00000000 00000000 00000000 00000000     ................
e000eca8:	00000000 00000000 00000000 00000000     ................
e000ecb8:	00000000 00000000 00000000 00000000     ................
e000ecc8:	00000000 00000000 00000000 00000000     ................
e000ecd8:	00000000 00000000 00000000 00000000     ................
e000ece8:	00000000 00000000 00000000 00000000     ................
e000ecf8:	00000000 00000000 00000000 00000000     ................
e000ed08:	00000000 00000000 00000000 00000000     ................
e000ed18:	00000000 00000000 00000000 00000000     ................
e000ed28:	00000000 00000000 00000000 00000000     ................
e000ed38:	00000000 00000000 00000000 00000000     ................
e000ed48:	00000000 00000000 00000000 00000000     ................
e000ed58:	00000000 00000000 00000000 00000000     ................
e000ed68:	00000000 00000000 00000000 00000000     ................
e000ed78:	00000000 00000000 00000000 00000000     ................
e000ed88:	00000000 00000000 00000000 00000000     ................
e000ed98:	00000000 00000000 00000000 00000000     ................
e000eda8:	00000000 00000000 00000000 00000000     ................
e000edb8:	00000000 00000000 00000000 00000000     ................
e000edc8:	00000000 00000000 00000000 00000000     ................
e000edd8:	00000000 00000000 00000000 00000000     ................
e000ede8:	00000000 00000000 00000000 00000000     ................
e000edf8:	00000000 00000000 00000000 00000000     ................
e000ee08:	00000000 00000000 00000000 00000000     ................
e000ee18:	00000000 00000000 00000000 00000000     ................
e000ee28:	00000000 00000000 00000000 00000000     ................
e000ee38:	00000000 00000000 00000000 00000000     ................
e000ee48:	00000000 00000000 00000000 00000000     ................
e000ee58:	00000000 00000000 00000000 00000000     ................
e000ee68:	00000000 00000000 00000000 00000000     ................
e000ee78:	00000000 00000000 00000000 00000000     ................
e000ee88:	00000000 00000000 00000000 00000000     ................
e000ee98:	00000000 00000000 00000000 00000000     ................
e000eea8:	00000000 00000000 00000000 00000000     ................
e000eeb8:	00000000 00000000 00000000 00000000     ................
e000eec8:	00000000 00000000 00000000 00000000     ................
e000eed8:	00000000 00000000 00000000 00000000     ................
e000eee8:	00000000 00000000 00000000 00000000     ................
e000eef8:	00000000 00000000 00000000 00000000     ................
e000ef08:	00000000 00000000 00000000 00000000     ................
e000ef18:	00000000 00000000 00000000 00000000     ................
e000ef28:	00000000 00000000 00000000 00000000     ................
e000ef38:	00000000 00000000 00000000 00000000     ................
e000ef48:	00000000 00000000 00000000 00000000     ................
e000ef58:	00000000 00000000 00000000 00000000     ................
e000ef68:	00000000 00000000 00000000 00000000     ................
e000ef78:	00000000 00000000 00000000 00000000     ................
e000ef88:	00000000 00000000 00000000 00000000     ................
e000ef98:	00000000 00000000 00000000 00000000     ................
e000efa8:	00000000 00000000 00000000 00000000     ................
e000efb8:	00000000 00000000 00000000 00000000     ................
e000efc8:	00000000 00000000 00000000 00000000     ................
e000efd8:	00000000 00000000 00000000 00000000     ................
e000efe8:	00000000 00000000 00000000 00000000     ................
e000eff8:	00000000 00000000 00000000 00000000     ................
e000f008:	00000000 00000000 00000000 00000000     ................
e000f018:	00000000 00000000 00000000 00000000     ................
e000f028:	00000000 00000000 00000000 00000000     ................
e000f038:	00000000 00000000 00000000 00000000     ................
e000f048:	00000000 00000000 00000000 00000000     ................
e000f058:	00000000 00000000 00000000 00000000     ................
e000f068:	00000000 00000000 00000000 00000000     ................
e000f078:	00000000 00000000 00000000 00000000     ................
e000f088:	00000000 00000000 00000000 00000000     ................
e000f098:	00000000 00000000 00000000 00000000     ................
e000f0a8:	00000000 00000000 00000000 00000000     ................
e000f0b8:	00000000 00000000 00000000 00000000     ................
e000f0c8:	00000000 00000000 00000000 00000000     ................
e000f0d8:	00000000 00000000 00000000 00000000     ................
e000f0e8:	00000000 00000000 00000000 00000000     ................
e000f0f8:	00000000 00000000 00000000 00000000     ................
e000f108:	00000000 00000000 00000000 00000000     ................
e000f118:	00000000 00000000 00000000 00000000     ................
e000f128:	00000000 00000000 00000000 00000000     ................
e000f138:	00000000 00000000 00000000 00000000     ................
e000f148:	00000000 00000000 00000000 00000000     ................
e000f158:	00000000 00000000 00000000 00000000     ................
e000f168:	00000000 00000000 00000000 00000000     ................
e000f178:	00000000 00000000 00000000 00000000     ................
e000f188:	00000000 00000000 00000000 00000000     ................
e000f198:	00000000 00000000 00000000 00000000     ................
e000f1a8:	00000000 00000000 00000000 00000000     ................
e000f1b8:	00000000 00000000 00000000 00000000     ................
e000f1c8:	00000000 00000000 00000000 00000000     ................
e000f1d8:	00000000 00000000 00000000 00000000     ................
e000f1e8:	00000000 00000000 00000000 00000000     ................
e000f1f8:	00000000 00000000 00000000 00000000     ................
e000f208:	00000000 00000000 00000000 00000000     ................
e000f218:	00000000 00000000 00000000 00000000     ................
e000f228:	00000000 00000000 00000000 00000000     ................
e000f238:	00000000 00000000 00000000 00000000     ................
e000f248:	00000000 00000000 00000000 00000000     ................
e000f258:	00000000 00000000 00000000 00000000     ................
e000f268:	00000000 00000000 00000000 00000000     ................
e000f278:	00000000 00000000 00000000 00000000     ................
e000f288:	00000000 00000000 00000000 00000000     ................
e000f298:	00000000 00000000 00000000 00000000     ................
e000f2a8:	00000000 00000000 00000000 00000000     ................
e000f2b8:	00000000 00000000 00000000 00000000     ................
e000f2c8:	00000000 00000000 00000000 00000000     ................
e000f2d8:	00000000 00000000 00000000 00000000     ................
e000f2e8:	00000000 00000000 00000000 00000000     ................
e000f2f8:	00000000 00000000 00000000 00000000     ................
e000f308:	00000000 00000000 00000000 00000000     ................
e000f318:	00000000 00000000 00000000 00000000     ................
e000f328:	00000000 00000000 00000000 00000000     ................
e000f338:	00000000 00000000 00000000 00000000     ................
e000f348:	00000000 00000000 00000000 00000000     ................
e000f358:	00000000 00000000 00000000 00000000     ................
e000f368:	00000000 00000000 00000000 00000000     ................
e000f378:	00000000 00000000 00000000 00000000     ................
e000f388:	00000000 00000000 00000000 00000000     ................
e000f398:	00000000 00000000 00000000 00000000     ................
e000f3a8:	00000000 00000000 00000000 00000000     ................
e000f3b8:	00000000 00000000 00000000 00000000     ................
e000f3c8:	00000000 00000000 00000000 00000000     ................
e000f3d8:	00000000 00000000 00000000 00000000     ................
e000f3e8:	00000000 00000000 00000000 00000000     ................
e000f3f8:	00000000 00000000 00000000 00000000     ................
e000f408:	00000000 00000000 00000000 00000000     ................
e000f418:	00000000 00000000 00000000 00000000     ................
e000f428:	00000000 00000000 00000000 00000000     ................
e000f438:	00000000 00000000 00000000 00000000     ................
e000f448:	00000000 00000000 00000000 00000000     ................
e000f458:	00000000 00000000 00000000 00000000     ................
e000f468:	00000000 00000000 00000000 00000000     ................
e000f478:	00000000 00000000 00000000 00000000     ................
e000f488:	00000000 00000000 00000000 00000000     ................
e000f498:	00000000 00000000 00000000 00000000     ................
e000f4a8:	00000000 00000000 00000000 00000000     ................
e000f4b8:	00000000 00000000 00000000 00000000     ................
e000f4c8:	00000000 00000000 00000000 00000000     ................
e000f4d8:	00000000 00000000 00000000 00000000     ................
e000f4e8:	00000000 00000000 00000000 00000000     ................
e000f4f8:	00000000 00000000 00000000 00000000     ................
e000f508:	00000000 00000000 00000000 00000000     ................
e000f518:	00000000 00000000 00000000 00000000     ................
e000f528:	00000000 00000000 00000000 00000000     ................
e000f538:	00000000 00000000 00000000 00000000     ................
e000f548:	00000000 00000000 00000000 00000000     ................
e000f558:	00000000 00000000 00000000 00000000     ................
e000f568:	00000000 00000000 00000000 00000000     ................
e000f578:	00000000 00000000 00000000 00000000     ................
e000f588:	00000000 00000000 00000000 00000000     ................
e000f598:	00000000 00000000 00000000 00000000     ................
e000f5a8:	00000000 00000000 00000000 00000000     ................
e000f5b8:	00000000 00000000 00000000 00000000     ................
e000f5c8:	00000000 00000000 00000000 00000000     ................
e000f5d8:	00000000 00000000 00000000 00000000     ................
e000f5e8:	00000000 00000000 00000000 00000000     ................
e000f5f8:	00000000 00000000 00000000 00000000     ................
e000f608:	00000000 00000000 00000000 00000000     ................
e000f618:	00000000 00000000 00000000 00000000     ................
e000f628:	00000000 00000000 00000000 00000000     ................
e000f638:	00000000 00000000 00000000 00000000     ................
e000f648:	00000000 00000000 00000000 00000000     ................
e000f658:	00000000 00000000 00000000 00000000     ................
e000f668:	00000000 00000000 00000000 00000000     ................
e000f678:	00000000 00000000 00000000 00000000     ................
e000f688:	00000000 00000000 00000000 00000000     ................
e000f698:	00000000 00000000 00000000 00000000     ................
e000f6a8:	00000000 00000000 00000000 00000000     ................
e000f6b8:	00000000 00000000 00000000 00000000     ................
e000f6c8:	00000000 00000000 00000000 00000000     ................
e000f6d8:	00000000 00000000 00000000 00000000     ................
e000f6e8:	00000000 00000000 00000000 00000000     ................
e000f6f8:	00000000 00000000 00000000 00000000     ................
e000f708:	00000000 00000000 00000000 00000000     ................
e000f718:	00000000 00000000 00000000 00000000     ................
e000f728:	00000000 00000000 00000000 00000000     ................
e000f738:	00000000 00000000 00000000 00000000     ................
e000f748:	00000000 00000000 00000000 00000000     ................
e000f758:	00000000 00000000 00000000 00000000     ................
e000f768:	00000000 00000000 00000000 00000000     ................
e000f778:	00000000 00000000 00000000 00000000     ................
e000f788:	00000000 00000000 00000000 00000000     ................
e000f798:	00000000 00000000 00000000 00000000     ................
e000f7a8:	00000000 00000000 00000000 00000000     ................
e000f7b8:	00000000 00000000 00000000 00000000     ................
e000f7c8:	00000000 00000000 00000000 00000000     ................
e000f7d8:	00000000 00000000 00000000 00000000     ................
e000f7e8:	00000000 00000000 00000000 00000000     ................
e000f7f8:	00000000 00000000 00000000 00000000     ................
e000f808:	00000000 00000000 00000000 00000000     ................
e000f818:	00000000 00000000 00000000 00000000     ................
e000f828:	00000000 00000000 00000000 00000000     ................
e000f838:	00000000 00000000 00000000 00000000     ................
e000f848:	00000000 00000000 00000000 00000000     ................
e000f858:	00000000 00000000 00000000 00000000     ................
e000f868:	00000000 00000000 00000000 00000000     ................
e000f878:	00000000 00000000 00000000 00000000     ................
e000f888:	00000000 00000000 00000000 00000000     ................
e000f898:	00000000 00000000 00000000 00000000     ................
e000f8a8:	00000000 00000000 00000000 00000000     ................
e000f8b8:	00000000 00000000 00000000 00000000     ................
e000f8c8:	00000000 00000000 00000000 00000000     ................
e000f8d8:	00000000 00000000 00000000 00000000     ................
e000f8e8:	00000000 00000000 00000000 00000000     ................
e000f8f8:	00000000 00000000 00000000 00000000     ................
e000f908:	00000000 00000000 00000000 00000000     ................
e000f918:	00000000 00000000 00000000 00000000     ................
e000f928:	00000000 00000000 00000000 00000000     ................
e000f938:	00000000 00000000 00000000 00000000     ................
e000f948:	00000000 00000000 00000000 00000000     ................
e000f958:	00000000 00000000 00000000 00000000     ................
e000f968:	00000000 00000000 00000000 00000000     ................
e000f978:	00000000 00000000 00000000 00000000     ................
e000f988:	00000000 00000000 00000000 00000000     ................
e000f998:	00000000 00000000 00000000 00000000     ................
e000f9a8:	00000000 00000000 00000000 00000000     ................
e000f9b8:	00000000 00000000 00000000 00000000     ................
e000f9c8:	00000000 00000000 00000000 00000000     ................
e000f9d8:	00000000 00000000 00000000 00000000     ................
e000f9e8:	00000000 00000000 00000000 00000000     ................
e000f9f8:	00000000 00000000 00000000 00000000     ................
e000fa08:	00000000 00000000 00000000 00000000     ................
e000fa18:	00000000 00000000 00000000 00000000     ................
e000fa28:	00000000 00000000 00000000 00000000     ................
e000fa38:	00000000 00000000 00000000 00000000     ................
e000fa48:	00000000 00000000 00000000 00000000     ................
e000fa58:	00000000 00000000 00000000 00000000     ................
e000fa68:	00000000 00000000 00000000 00000000     ................
e000fa78:	00000000 00000000 00000000 00000000     ................
e000fa88:	00000000 00000000 00000000 00000000     ................
e000fa98:	00000000 00000000 00000000 00000000     ................
e000faa8:	00000000 00000000 00000000 00000000     ................
e000fab8:	00000000 00000000 00000000 00000000     ................
e000fac8:	00000000 00000000 00000000 00000000     ................
e000fad8:	00000000 00000000 00000000 00000000     ................
e000fae8:	00000000 00000000 00000000 00000000     ................
e000faf8:	00000000 00000000 00000000 00000000     ................
e000fb08:	00000000 00000000 00000000 00000000     ................
e000fb18:	00000000 00000000 00000000 00000000     ................
e000fb28:	00000000 00000000 00000000 00000000     ................
e000fb38:	00000000 00000000 00000000 00000000     ................
e000fb48:	00000000 00000000 00000000 00000000     ................
e000fb58:	00000000 00000000 00000000 00000000     ................
e000fb68:	00000000 00000000 00000000 00000000     ................
e000fb78:	00000000 00000000 00000000 00000000     ................
e000fb88:	00000000 00000000 00000000 00000000     ................
e000fb98:	00000000 00000000 00000000 00000000     ................
e000fba8:	00000000 00000000 00000000 00000000     ................
e000fbb8:	00000000 00000000 00000000 00000000     ................
e000fbc8:	00000000 00000000 00000000 00000000     ................
e000fbd8:	00000000 00000000 00000000 00000000     ................
e000fbe8:	00000000 00000000 00000000 00000000     ................
e000fbf8:	00000000 00000000 00000000 00000000     ................
e000fc08:	00000000 00000000 00000000 00000000     ................
e000fc18:	00000000 00000000 00000000 00000000     ................
e000fc28:	00000000 00000000 00000000 00000000     ................
e000fc38:	00000000 00000000 00000000 00000000     ................
e000fc48:	00000000 00000000 00000000 00000000     ................
e000fc58:	00000000 00000000 00000000 00000000     ................
e000fc68:	00000000 00000000 00000000 00000000     ................
e000fc78:	00000000 00000000 00000000 00000000     ................
e000fc88:	00000000 00000000 00000000 00000000     ................
e000fc98:	00000000 00000000 00000000 00000000     ................
e000fca8:	00000000 00000000 00000000 00000000     ................
e000fcb8:	00000000 00000000 00000000 00000000     ................
e000fcc8:	00000000 00000000 00000000 00000000     ................
e000fcd8:	00000000 00000000 00000000 00000000     ................
e000fce8:	00000000 00000000 00000000 00000000     ................
e000fcf8:	00000000 00000000 00000000 00000000     ................
e000fd08:	00000000 00000000 00000000 00000000     ................
e000fd18:	00000000 00000000 00000000 00000000     ................
e000fd28:	00000000 00000000 00000000 00000000     ................
e000fd38:	00000000 00000000 00000000 00000000     ................
e000fd48:	00000000 00000000 00000000 00000000     ................
e000fd58:	00000000 00000000 00000000 00000000     ................
e000fd68:	00000000 00000000 00000000 00000000     ................
e000fd78:	00000000 00000000 00000000 00000000     ................
e000fd88:	00000000 00000000 00000000 00000000     ................
e000fd98:	00000000 00000000 00000000 00000000     ................
e000fda8:	00000000 00000000 00000000 00000000     ................
e000fdb8:	00000000 00000000 00000000 00000000     ................
e000fdc8:	00000000 00000000 00000000 00000000     ................
e000fdd8:	00000000 00000000 00000000 00000000     ................
e000fde8:	00000000 00000000 00000000 00000000     ................
e000fdf8:	00000000 00000000 00000000 00000000     ................
e000fe08:	00000000 00000000 00000000 00000000     ................
e000fe18:	00000000 00000000 00000000 00000000     ................
e000fe28:	00000000 00000000 00000000 00000000     ................
e000fe38:	00000000 00000000 00000000 00000000     ................
e000fe48:	00000000 00000000 00000000 00000000     ................
e000fe58:	00000000 00000000 00000000 00000000     ................
e000fe68:	00000000 00000000 00000000 00000000     ................
e000fe78:	00000000 00000000 00000000 00000000     ................
e000fe88:	00000000 00000000 00000000 00000000     ................
e000fe98:	00000000 00000000 00000000 00000000     ................
e000fea8:	00000000 00000000 00000000 00000000     ................
e000feb8:	00000000 00000000 00000000 00000000     ................
e000fec8:	00000000 00000000 00000000 00000000     ................
e000fed8:	00000000 00000000 00000000 00000000     ................
e000fee8:	00000000 00000000 00000000 00000000     ................
e000fef8:	00000000 00000000 00000000 00000000     ................
e000ff08:	00000000 00000000 00000000 00000000     ................
e000ff18:	00000000 00000000 00000000 00000000     ................
e000ff28:	00000000 00000000 00000000 00000000     ................
e000ff38:	00000000 00000000 00000000 00000000     ................
e000ff48:	00000000 00000000 00000000 00000000     ................
e000ff58:	00000000 00000000 00000000 00000000     ................
e000ff68:	00000000 00000000 00000000 00000000     ................
e000ff78:	00000000 00000000 00000000 00000000     ................
e000ff88:	00000000 00000000 00000000 00000000     ................
e000ff98:	00000000 00000000 00000000 00000000     ................
e000ffa8:	00000000 00000000 00000000 00000000     ................
e000ffb8:	00000000 00000000 00000000 00000000     ................
e000ffc8:	00000000 00000000 00000000 00000000     ................
e000ffd8:	00000000 00000000 00000000 00000000     ................
e000ffe8:	00000000 00000000 00000000 00000000     ................
e000fff8:	00000000 00000000                       ........

Disassembly of section .text:

e0010000 <arm_vector_table>:
e0010000:	e59ff018 	ldr	pc, [pc, #24]	; e0010020 <ki_boot_end+0x20>
e0010004:	e59ff018 	ldr	pc, [pc, #24]	; e0010024 <ki_boot_end+0x24>
e0010008:	e59ff018 	ldr	pc, [pc, #24]	; e0010028 <ki_boot_end+0x28>
e001000c:	e59ff018 	ldr	pc, [pc, #24]	; e001002c <ki_boot_end+0x2c>
e0010010:	e59ff018 	ldr	pc, [pc, #24]	; e0010030 <ki_boot_end+0x30>
e0010014:	e59ff004 	ldr	pc, [pc, #4]	; e0010020 <ki_boot_end+0x20>
e0010018:	e59ff014 	ldr	pc, [pc, #20]	; e0010034 <ki_boot_end+0x34>
e001001c:	e59ff014 	ldr	pc, [pc, #20]	; e0010038 <ki_boot_end+0x38>
e0010020:	e0010110 	.word	0xe0010110
e0010024:	e001003c 	.word	0xe001003c
e0010028:	e001005c 	.word	0xe001005c
e001002c:	e0010088 	.word	0xe0010088
e0010030:	e00100b8 	.word	0xe00100b8
e0010034:	e00100ec 	.word	0xe00100ec
e0010038:	e0010114 	.word	0xe0010114

e001003c <arm_undefined_inst_exception>:
e001003c:	f8cd0513 	srsia	sp, #19
e0010040:	f1020013 	cps	#19
e0010044:	e94d7fff 	stmdb	sp, {r0, r1, r2, r3, r4, r5, r6, r7, r8, r9, sl, fp, ip, sp, lr}^
e0010048:	e59d8000 	ldr	r8, [sp]
e001004c:	e2488004 	sub	r8, r8, #4
e0010050:	e58d8008 	str	r8, [sp, #8]
e0010054:	ee1ddf90 	mrc	15, 0, sp, cr13, cr0, {4}
e0010058:	ea00003a 	b	e0010148 <c_handle_undefined_instruction>

e001005c <arm_swi_syscall>:
e001005c:	f8cd0513 	srsia	sp, #19
e0010060:	e24ee004 	sub	lr, lr, #4
e0010064:	e58de008 	str	lr, [sp, #8]
e0010068:	e94d7fff 	stmdb	sp, {r0, r1, r2, r3, r4, r5, r6, r7, r8, r9, sl, fp, ip, sp, lr}^
e001006c:	ee1ddf90 	mrc	15, 0, sp, cr13, cr0, {4}
e0010070:	e3770001 	cmn	r7, #1
e0010074:	0a000049 	beq	e00101a0 <c_handle_fastpath_call>
e0010078:	e3770002 	cmn	r7, #2
e001007c:	0a0000f7 	beq	e0010460 <c_handle_fastpath_reply_recv>
e0010080:	e1a02007 	mov	r2, r7
e0010084:	ea0001a8 	b	e001072c <c_handle_syscall>

e0010088 <arm_prefetch_abort_exception>:
e0010088:	f8cd0513 	srsia	sp, #19
e001008c:	f1020013 	cps	#19
e0010090:	e94d7fff 	stmdb	sp, {r0, r1, r2, r3, r4, r5, r6, r7, r8, r9, sl, fp, ip, sp, lr}^
e0010094:	e89d0300 	ldm	sp, {r8, r9}
e0010098:	e319000f 	tst	r9, #15
e001009c:	e2488004 	sub	r8, r8, #4
e00100a0:	1a000002 	bne	e00100b0 <kernel_prefetch_fault>
e00100a4:	e58d8008 	str	r8, [sp, #8]
e00100a8:	ee1ddf90 	mrc	15, 0, sp, cr13, cr0, {4}
e00100ac:	ea000034 	b	e0010184 <c_handle_instruction_fault>

e00100b0 <kernel_prefetch_fault>:
e00100b0:	ee159f30 	mrc	15, 0, r9, cr5, cr0, {1}
e00100b4:	eafffffe 	b	e00100b4 <kernel_prefetch_fault+0x4>

e00100b8 <arm_data_abort_exception>:
e00100b8:	f8cd0513 	srsia	sp, #19
e00100bc:	f1020013 	cps	#19
e00100c0:	e94d7fff 	stmdb	sp, {r0, r1, r2, r3, r4, r5, r6, r7, r8, r9, sl, fp, ip, sp, lr}^
e00100c4:	e89d0300 	ldm	sp, {r8, r9}
e00100c8:	e319000f 	tst	r9, #15
e00100cc:	e2488008 	sub	r8, r8, #8
e00100d0:	1a000002 	bne	e00100e0 <kernel_data_fault>
e00100d4:	e58d8008 	str	r8, [sp, #8]
e00100d8:	ee1ddf90 	mrc	15, 0, sp, cr13, cr0, {4}
e00100dc:	ea000025 	b	e0010178 <c_handle_data_fault>

e00100e0 <kernel_data_fault>:
e00100e0:	ee159f10 	mrc	15, 0, r9, cr5, cr0, {0}
e00100e4:	ee16af10 	mrc	15, 0, sl, cr6, cr0, {0}
e00100e8:	eafffffe 	b	e00100e8 <kernel_data_fault+0x8>

e00100ec <arm_irq_exception>:
e00100ec:	f8cd0513 	srsia	sp, #19
e00100f0:	f1020013 	cps	#19
e00100f4:	e94d7fff 	stmdb	sp, {r0, r1, r2, r3, r4, r5, r6, r7, r8, r9, sl, fp, ip, sp, lr}^
e00100f8:	e59d8000 	ldr	r8, [sp]
e00100fc:	e2488004 	sub	r8, r8, #4
e0010100:	e58d8000 	str	r8, [sp]
e0010104:	e58d8008 	str	r8, [sp, #8]
e0010108:	ee1ddf90 	mrc	15, 0, sp, cr13, cr0, {4}
e001010c:	ea000003 	b	e0010120 <c_handle_interrupt>

e0010110 <arm_reset_exception>:
e0010110:	eb000249 	bl	e0010a3c <halt>

e0010114 <arm_fiq_exception>:
e0010114:	eb000248 	bl	e0010a3c <halt>
e0010118:	00000000 	andeq	r0, r0, r0
e001011c:	00000000 	andeq	r0, r0, r0

e0010120 <c_handle_interrupt>:
e0010120:	e303364c 	movw	r3, #13900	; 0x364c
e0010124:	e34e3003 	movt	r3, #57347	; 0xe003
e0010128:	e92d4010 	push	{r4, lr}
e001012c:	e5933000 	ldr	r3, [r3]
e0010130:	ee1d2f50 	mrc	15, 0, r2, cr13, cr0, {2}
e0010134:	e5832048 	str	r2, [r3, #72]	; 0x48
e0010138:	ee1d2f70 	mrc	15, 0, r2, cr13, cr0, {3}
e001013c:	e583204c 	str	r2, [r3, #76]	; 0x4c
e0010140:	eb001ddb 	bl	e00178b4 <handleInterruptEntry>
e0010144:	eb000231 	bl	e0010a10 <restore_user_context>

e0010148 <c_handle_undefined_instruction>:
e0010148:	e303364c 	movw	r3, #13900	; 0x364c
e001014c:	e34e3003 	movt	r3, #57347	; 0xe003
e0010150:	e92d4010 	push	{r4, lr}
e0010154:	e5933000 	ldr	r3, [r3]
e0010158:	ee1d2f50 	mrc	15, 0, r2, cr13, cr0, {2}
e001015c:	e5832048 	str	r2, [r3, #72]	; 0x48
e0010160:	ee1d2f70 	mrc	15, 0, r2, cr13, cr0, {3}
e0010164:	e3a01000 	mov	r1, #0
e0010168:	e583204c 	str	r2, [r3, #76]	; 0x4c
e001016c:	e1a00001 	mov	r0, r1
e0010170:	eb002102 	bl	e0018580 <handleUserLevelFault>
e0010174:	eb000225 	bl	e0010a10 <restore_user_context>

e0010178 <c_handle_data_fault>:
e0010178:	e92d4010 	push	{r4, lr}
e001017c:	e3a00000 	mov	r0, #0
e0010180:	eb00211b 	bl	e00185f4 <c_handle_vm_fault>

e0010184 <c_handle_instruction_fault>:
e0010184:	e92d4010 	push	{r4, lr}
e0010188:	e3a00001 	mov	r0, #1
e001018c:	eb002118 	bl	e00185f4 <c_handle_vm_fault>
e0010190:	e320f000 	nop	{0}
e0010194:	e320f000 	nop	{0}
e0010198:	e320f000 	nop	{0}
e001019c:	e320f000 	nop	{0}

e00101a0 <c_handle_fastpath_call>:
e00101a0:	e92d4880 	push	{r7, fp, lr}
e00101a4:	e303764c 	movw	r7, #13900	; 0x364c
e00101a8:	e34e7003 	movt	r7, #57347	; 0xe003
e00101ac:	e24dd01c 	sub	sp, sp, #28
e00101b0:	e5973000 	ldr	r3, [r7]
e00101b4:	ee1d2f50 	mrc	15, 0, r2, cr13, cr0, {2}
e00101b8:	e5832048 	str	r2, [r3, #72]	; 0x48
e00101bc:	ee1d2f70 	mrc	15, 0, r2, cr13, cr0, {3}
e00101c0:	e7e8c051 	ubfx	ip, r1, #0, #9
e00101c4:	e583204c 	str	r2, [r3, #76]	; 0x4c
e00101c8:	e28cc003 	add	ip, ip, #3
e00101cc:	e5932060 	ldr	r2, [r3, #96]	; 0x60
e00101d0:	e31c0ffe 	tst	ip, #1016	; 0x3f8
e00101d4:	1a000093 	bne	e0010428 <c_handle_fastpath_call+0x288>
e00101d8:	e202200f 	and	r2, r2, #15
e00101dc:	e3520000 	cmp	r2, #0
e00101e0:	1a000090 	bne	e0010428 <c_handle_fastpath_call+0x288>
e00101e4:	e3c35f7f 	bic	r5, r3, #508	; 0x1fc
e00101e8:	e3c55003 	bic	r5, r5, #3
e00101ec:	e595e000 	ldr	lr, [r5]
e00101f0:	e595c004 	ldr	ip, [r5, #4]
e00101f4:	e20e400f 	and	r4, lr, #15
e00101f8:	e354000a 	cmp	r4, #10
e00101fc:	1a000089 	bne	e0010428 <c_handle_fastpath_call+0x288>
e0010200:	e7e46bdc 	ubfx	r6, ip, #23, #5
e0010204:	e7e4895c 	ubfx	r8, ip, #18, #5
e0010208:	e3560000 	cmp	r6, #0
e001020c:	e7f1c05c 	ubfx	ip, ip, #0, #18
e0010210:	e1a04210 	lsl	r4, r0, r2
e0010214:	0a000002 	beq	e0010224 <c_handle_fastpath_call+0x84>
e0010218:	e2669020 	rsb	r9, r6, #32
e001021c:	e15c0934 	cmp	ip, r4, lsr r9
e0010220:	1a000080 	bne	e0010428 <c_handle_fastpath_call+0x288>
e0010224:	e1a04614 	lsl	r4, r4, r6
e0010228:	e268c020 	rsb	ip, r8, #32
e001022c:	e0886006 	add	r6, r8, r6
e0010230:	e3cee01f 	bic	lr, lr, #31
e0010234:	e1a04c34 	lsr	r4, r4, ip
e0010238:	e0822006 	add	r2, r2, r6
e001023c:	e352001f 	cmp	r2, #31
e0010240:	e08ec204 	add	ip, lr, r4, lsl #4
e0010244:	e79ee204 	ldr	lr, [lr, r4, lsl #4]
e0010248:	e59cc004 	ldr	ip, [ip, #4]
e001024c:	9a000077 	bls	e0010430 <c_handle_fastpath_call+0x290>
e0010250:	e3520020 	cmp	r2, #32
e0010254:	1a000073 	bne	e0010428 <c_handle_fastpath_call+0x288>
e0010258:	e20e400f 	and	r4, lr, #15
e001025c:	e3540004 	cmp	r4, #4
e0010260:	1a000070 	bne	e0010428 <c_handle_fastpath_call+0x288>
e0010264:	e31c0001 	tst	ip, #1
e0010268:	0a00006e 	beq	e0010428 <c_handle_fastpath_call+0x288>
e001026c:	e3cc000f 	bic	r0, ip, #15
e0010270:	e8900044 	ldm	r0, {r2, r6}
e0010274:	e2022003 	and	r2, r2, #3
e0010278:	e3520002 	cmp	r2, #2
e001027c:	e3c6200f 	bic	r2, r6, #15
e0010280:	1a000068 	bne	e0010428 <c_handle_fastpath_call+0x288>
e0010284:	e3c66f7f 	bic	r6, r6, #508	; 0x1fc
e0010288:	e3c66003 	bic	r6, r6, #3
e001028c:	e5964010 	ldr	r4, [r6, #16]
e0010290:	e204801f 	and	r8, r4, #31
e0010294:	e3c44dff 	bic	r4, r4, #16320	; 0x3fc0
e0010298:	e3580019 	cmp	r8, #25
e001029c:	e3c4403f 	bic	r4, r4, #63	; 0x3f
e00102a0:	1a000060 	bne	e0010428 <c_handle_fastpath_call+0x288>
e00102a4:	e303a000 	movw	sl, #12288	; 0x3000
e00102a8:	e34ea003 	movt	sl, #57347	; 0xe003
e00102ac:	e5929078 	ldr	r9, [r2, #120]	; 0x78
e00102b0:	e2848a03 	add	r8, r4, #12288	; 0x3000
e00102b4:	e593b078 	ldr	fp, [r3, #120]	; 0x78
e00102b8:	e59aa000 	ldr	sl, [sl]
e00102bc:	e159000b 	cmp	r9, fp
e00102c0:	e5988fc0 	ldr	r8, [r8, #4032]	; 0xfc0
e00102c4:	e58da004 	str	sl, [sp, #4]
e00102c8:	3a000041 	bcc	e00103d4 <c_handle_fastpath_call+0x234>
e00102cc:	e1a091ac 	lsr	r9, ip, #3
e00102d0:	e189c12c 	orr	ip, r9, ip, lsr #2
e00102d4:	e31c0001 	tst	ip, #1
e00102d8:	0a000052 	beq	e0010428 <c_handle_fastpath_call+0x288>
e00102dc:	e3180502 	tst	r8, #8388608	; 0x800000
e00102e0:	0a000050 	beq	e0010428 <c_handle_fastpath_call+0x288>
e00102e4:	e592c070 	ldr	ip, [r2, #112]	; 0x70
e00102e8:	e59d9004 	ldr	r9, [sp, #4]
e00102ec:	e159000c 	cmp	r9, ip
e00102f0:	1a00004c 	bne	e0010428 <c_handle_fastpath_call+0x288>
e00102f4:	e592c090 	ldr	ip, [r2, #144]	; 0x90
e00102f8:	e2855020 	add	r5, r5, #32
e00102fc:	e286a030 	add	sl, r6, #48	; 0x30
e0010300:	e35c0000 	cmp	ip, #0
e0010304:	e580c004 	str	ip, [r0, #4]
e0010308:	0580c000 	streq	ip, [r0]
e001030c:	13a00000 	movne	r0, #0
e0010310:	158c0094 	strne	r0, [ip, #148]	; 0x94
e0010314:	e3a00005 	mov	r0, #5
e0010318:	e5830050 	str	r0, [r3, #80]	; 0x50
e001031c:	e1a0022e 	lsr	r0, lr, #4
e0010320:	e5929058 	ldr	r9, [r2, #88]	; 0x58
e0010324:	e211e07f 	ands	lr, r1, #127	; 0x7f
e0010328:	e383c008 	orr	ip, r3, #8
e001032c:	e5865038 	str	r5, [r6, #56]	; 0x38
e0010330:	e1a09109 	lsl	r9, r9, #2
e0010334:	e2099020 	and	r9, r9, #32
e0010338:	e189c00c 	orr	ip, r9, ip
e001033c:	e586c030 	str	ip, [r6, #48]	; 0x30
e0010340:	e38ac003 	orr	ip, sl, #3
e0010344:	e585c00c 	str	ip, [r5, #12]
e0010348:	0a000006 	beq	e0010368 <c_handle_fastpath_call+0x1c8>
e001034c:	e2833004 	add	r3, r3, #4
e0010350:	e282c004 	add	ip, r2, #4
e0010354:	e083e10e 	add	lr, r3, lr, lsl #2
e0010358:	e5b35004 	ldr	r5, [r3, #4]!
e001035c:	e15e0003 	cmp	lr, r3
e0010360:	e5ac5004 	str	r5, [ip, #4]!
e0010364:	1afffffb 	bne	e0010358 <c_handle_fastpath_call+0x1b8>
e0010368:	e3a03001 	mov	r3, #1
e001036c:	e5823050 	str	r3, [r2, #80]	; 0x50
e0010370:	f57ff04f 	dsb	sy
e0010374:	e59f30c4 	ldr	r3, [pc, #196]	; e0010440 <c_handle_fastpath_call+0x2a0>
e0010378:	e3833018 	orr	r3, r3, #24
e001037c:	ee023f10 	mcr	15, 0, r3, cr2, cr0, {0}
e0010380:	f57ff06f 	isb	sy
e0010384:	e1a08c28 	lsr	r8, r8, #24
e0010388:	ee0d8f30 	mcr	15, 0, r8, cr13, cr0, {1}
e001038c:	f57ff06f 	isb	sy
e0010390:	e2844203 	add	r4, r4, #805306368	; 0x30000000
e0010394:	e3844018 	orr	r4, r4, #24
e0010398:	ee024f10 	mcr	15, 0, r4, cr2, cr0, {0}
e001039c:	f57ff06f 	isb	sy
e00103a0:	e3a03000 	mov	r3, #0
e00103a4:	e5872000 	str	r2, [r7]
e00103a8:	e28dc014 	add	ip, sp, #20
e00103ac:	e18c3f9c 	strex	r3, ip, [ip]
e00103b0:	e3c11c0e 	bic	r1, r1, #3584	; 0xe00
e00103b4:	e5923048 	ldr	r3, [r2, #72]	; 0x48
e00103b8:	ee0d3f50 	mcr	15, 0, r3, cr13, cr0, {2}
e00103bc:	e592304c 	ldr	r3, [r2, #76]	; 0x4c
e00103c0:	ee0d3f70 	mcr	15, 0, r3, cr13, cr0, {3}
e00103c4:	e1a0d002 	mov	sp, r2
e00103c8:	e28dd03c 	add	sp, sp, #60	; 0x3c
e00103cc:	e95d7ffc 	ldmdb	sp, {r2, r3, r4, r5, r6, r7, r8, r9, sl, fp, ip, sp, lr}^
e00103d0:	f89d0a00 	rfeia	sp
e00103d4:	e303b208 	movw	fp, #12808	; 0x3208
e00103d8:	e34eb003 	movt	fp, #57347	; 0xe003
e00103dc:	e79bb10a 	ldr	fp, [fp, sl, lsl #2]
e00103e0:	e35b0000 	cmp	fp, #0
e00103e4:	0affffb8 	beq	e00102cc <c_handle_fastpath_call+0x12c>
e00103e8:	e16faf1b 	clz	sl, fp
e00103ec:	e303b004 	movw	fp, #12292	; 0x3004
e00103f0:	e26aa01f 	rsb	sl, sl, #31
e00103f4:	e34eb003 	movt	fp, #57347	; 0xe003
e00103f8:	e1cda0f8 	strd	sl, [sp, #8]
e00103fc:	e26ab007 	rsb	fp, sl, #7
e0010400:	e59da004 	ldr	sl, [sp, #4]
e0010404:	e08bb18a 	add	fp, fp, sl, lsl #3
e0010408:	e59da00c 	ldr	sl, [sp, #12]
e001040c:	e79ab10b 	ldr	fp, [sl, fp, lsl #2]
e0010410:	e59da008 	ldr	sl, [sp, #8]
e0010414:	e16fbf1b 	clz	fp, fp
e0010418:	e26bb01f 	rsb	fp, fp, #31
e001041c:	e18bb28a 	orr	fp, fp, sl, lsl #5
e0010420:	e159000b 	cmp	r9, fp
e0010424:	2affffa8 	bcs	e00102cc <c_handle_fastpath_call+0x12c>
e0010428:	e3e00000 	mvn	r0, #0
e001042c:	eb002b0d 	bl	e001b068 <slowpath>
e0010430:	e20e400f 	and	r4, lr, #15
e0010434:	e354000a 	cmp	r4, #10
e0010438:	1affff87 	bne	e001025c <c_handle_fastpath_call+0xbc>
e001043c:	eaffff6f 	b	e0010200 <c_handle_fastpath_call+0x60>
e0010440:	10024000 	.word	0x10024000
e0010444:	e320f000 	nop	{0}
e0010448:	e320f000 	nop	{0}
e001044c:	e320f000 	nop	{0}
e0010450:	e320f000 	nop	{0}
e0010454:	e320f000 	nop	{0}
e0010458:	e320f000 	nop	{0}
e001045c:	e320f000 	nop	{0}

e0010460 <c_handle_fastpath_reply_recv>:
e0010460:	e303464c 	movw	r4, #13900	; 0x364c
e0010464:	e34e4003 	movt	r4, #57347	; 0xe003
e0010468:	e92d4880 	push	{r7, fp, lr}
e001046c:	e24dd00c 	sub	sp, sp, #12
e0010470:	e5943000 	ldr	r3, [r4]
e0010474:	ee1d2f50 	mrc	15, 0, r2, cr13, cr0, {2}
e0010478:	e5832048 	str	r2, [r3, #72]	; 0x48
e001047c:	ee1d2f70 	mrc	15, 0, r2, cr13, cr0, {3}
e0010480:	e7e8c051 	ubfx	ip, r1, #0, #9
e0010484:	e583204c 	str	r2, [r3, #76]	; 0x4c
e0010488:	e28cc003 	add	ip, ip, #3
e001048c:	e5932060 	ldr	r2, [r3, #96]	; 0x60
e0010490:	e31c0ffe 	tst	ip, #1016	; 0x3f8
e0010494:	1a00009d 	bne	e0010710 <c_handle_fastpath_reply_recv+0x2b0>
e0010498:	e202200f 	and	r2, r2, #15
e001049c:	e3520000 	cmp	r2, #0
e00104a0:	1a00009a 	bne	e0010710 <c_handle_fastpath_reply_recv+0x2b0>
e00104a4:	e3c3ef7f 	bic	lr, r3, #508	; 0x1fc
e00104a8:	e3cee003 	bic	lr, lr, #3
e00104ac:	e89e1100 	ldm	lr, {r8, ip}
e00104b0:	e208500f 	and	r5, r8, #15
e00104b4:	e355000a 	cmp	r5, #10
e00104b8:	1a000094 	bne	e0010710 <c_handle_fastpath_reply_recv+0x2b0>
e00104bc:	e7e46bdc 	ubfx	r6, ip, #23, #5
e00104c0:	e7e4795c 	ubfx	r7, ip, #18, #5
e00104c4:	e3560000 	cmp	r6, #0
e00104c8:	e7f1c05c 	ubfx	ip, ip, #0, #18
e00104cc:	e1a05210 	lsl	r5, r0, r2
e00104d0:	0a000002 	beq	e00104e0 <c_handle_fastpath_reply_recv+0x80>
e00104d4:	e2669020 	rsb	r9, r6, #32
e00104d8:	e15c0935 	cmp	ip, r5, lsr r9
e00104dc:	1a00008b 	bne	e0010710 <c_handle_fastpath_reply_recv+0x2b0>
e00104e0:	e1a05615 	lsl	r5, r5, r6
e00104e4:	e267c020 	rsb	ip, r7, #32
e00104e8:	e0876006 	add	r6, r7, r6
e00104ec:	e3c8801f 	bic	r8, r8, #31
e00104f0:	e1a05c35 	lsr	r5, r5, ip
e00104f4:	e0822006 	add	r2, r2, r6
e00104f8:	e352001f 	cmp	r2, #31
e00104fc:	e088c205 	add	ip, r8, r5, lsl #4
e0010500:	e7988205 	ldr	r8, [r8, r5, lsl #4]
e0010504:	e59cc004 	ldr	ip, [ip, #4]
e0010508:	9a000082 	bls	e0010718 <c_handle_fastpath_reply_recv+0x2b8>
e001050c:	e3520020 	cmp	r2, #32
e0010510:	1a00007e 	bne	e0010710 <c_handle_fastpath_reply_recv+0x2b0>
e0010514:	e208500f 	and	r5, r8, #15
e0010518:	e3550004 	cmp	r5, #4
e001051c:	1a00007b 	bne	e0010710 <c_handle_fastpath_reply_recv+0x2b0>
e0010520:	e31c0002 	tst	ip, #2
e0010524:	0a000079 	beq	e0010710 <c_handle_fastpath_reply_recv+0x2b0>
e0010528:	e593205c 	ldr	r2, [r3, #92]	; 0x5c
e001052c:	e3520000 	cmp	r2, #0
e0010530:	1a000072 	bne	e0010700 <c_handle_fastpath_reply_recv+0x2a0>
e0010534:	e3cc500f 	bic	r5, ip, #15
e0010538:	e5952000 	ldr	r2, [r5]
e001053c:	e2022003 	and	r2, r2, #3
e0010540:	e3520001 	cmp	r2, #1
e0010544:	0a000071 	beq	e0010710 <c_handle_fastpath_reply_recv+0x2b0>
e0010548:	e59e0030 	ldr	r0, [lr, #48]	; 0x30
e001054c:	e28e7030 	add	r7, lr, #48	; 0x30
e0010550:	e200201f 	and	r2, r0, #31
e0010554:	e3520008 	cmp	r2, #8
e0010558:	1a00006c 	bne	e0010710 <c_handle_fastpath_reply_recv+0x2b0>
e001055c:	e3c0203f 	bic	r2, r0, #63	; 0x3f
e0010560:	e5926060 	ldr	r6, [r2, #96]	; 0x60
e0010564:	e316000f 	tst	r6, #15
e0010568:	1a000068 	bne	e0010710 <c_handle_fastpath_reply_recv+0x2b0>
e001056c:	e3c00f7f 	bic	r0, r0, #508	; 0x1fc
e0010570:	e3c00003 	bic	r0, r0, #3
e0010574:	e5900010 	ldr	r0, [r0, #16]
e0010578:	e200601f 	and	r6, r0, #31
e001057c:	e3c00dff 	bic	r0, r0, #16320	; 0x3fc0
e0010580:	e3560019 	cmp	r6, #25
e0010584:	e3c0003f 	bic	r0, r0, #63	; 0x3f
e0010588:	1a000060 	bne	e0010710 <c_handle_fastpath_reply_recv+0x2b0>
e001058c:	e3038000 	movw	r8, #12288	; 0x3000
e0010590:	e34e8003 	movt	r8, #57347	; 0xe003
e0010594:	e3036208 	movw	r6, #12808	; 0x3208
e0010598:	e34e6003 	movt	r6, #57347	; 0xe003
e001059c:	e5989000 	ldr	r9, [r8]
e00105a0:	e2808a03 	add	r8, r0, #12288	; 0x3000
e00105a4:	e5988fc0 	ldr	r8, [r8, #4032]	; 0xfc0
e00105a8:	e7966109 	ldr	r6, [r6, r9, lsl #2]
e00105ac:	e3560000 	cmp	r6, #0
e00105b0:	0a00000c 	beq	e00105e8 <c_handle_fastpath_reply_recv+0x188>
e00105b4:	e16f6f16 	clz	r6, r6
e00105b8:	e303a004 	movw	sl, #12292	; 0x3004
e00105bc:	e266601f 	rsb	r6, r6, #31
e00105c0:	e34ea003 	movt	sl, #57347	; 0xe003
e00105c4:	e266b007 	rsb	fp, r6, #7
e00105c8:	e08bb189 	add	fp, fp, r9, lsl #3
e00105cc:	e79aa10b 	ldr	sl, [sl, fp, lsl #2]
e00105d0:	e16faf1a 	clz	sl, sl
e00105d4:	e26aa01f 	rsb	sl, sl, #31
e00105d8:	e18a6286 	orr	r6, sl, r6, lsl #5
e00105dc:	e592a078 	ldr	sl, [r2, #120]	; 0x78
e00105e0:	e15a0006 	cmp	sl, r6
e00105e4:	3a000049 	bcc	e0010710 <c_handle_fastpath_reply_recv+0x2b0>
e00105e8:	e3180502 	tst	r8, #8388608	; 0x800000
e00105ec:	0a000047 	beq	e0010710 <c_handle_fastpath_reply_recv+0x2b0>
e00105f0:	e5926070 	ldr	r6, [r2, #112]	; 0x70
e00105f4:	e1590006 	cmp	r9, r6
e00105f8:	1a000044 	bne	e0010710 <c_handle_fastpath_reply_recv+0x2b0>
e00105fc:	e5936058 	ldr	r6, [r3, #88]	; 0x58
e0010600:	e1a0c08c 	lsl	ip, ip, #1
e0010604:	e20cc008 	and	ip, ip, #8
e0010608:	e3859003 	orr	r9, r5, #3
e001060c:	e3c66008 	bic	r6, r6, #8
e0010610:	e5839050 	str	r9, [r3, #80]	; 0x50
e0010614:	e18cc006 	orr	ip, ip, r6
e0010618:	e583c058 	str	ip, [r3, #88]	; 0x58
e001061c:	e595c000 	ldr	ip, [r5]
e0010620:	e3836002 	orr	r6, r3, #2
e0010624:	e3dcc00f 	bics	ip, ip, #15
e0010628:	0583c094 	streq	ip, [r3, #148]	; 0x94
e001062c:	0583c090 	streq	ip, [r3, #144]	; 0x90
e0010630:	158c3090 	strne	r3, [ip, #144]	; 0x90
e0010634:	13a09000 	movne	r9, #0
e0010638:	1583c094 	strne	ip, [r3, #148]	; 0x94
e001063c:	e3a0c000 	mov	ip, #0
e0010640:	15839090 	strne	r9, [r3, #144]	; 0x90
e0010644:	e3a09003 	mov	r9, #3
e0010648:	05853004 	streq	r3, [r5, #4]
e001064c:	e5856000 	str	r6, [r5]
e0010650:	e211507f 	ands	r5, r1, #127	; 0x7f
e0010654:	e5976008 	ldr	r6, [r7, #8]
e0010658:	e3c66007 	bic	r6, r6, #7
e001065c:	e586900c 	str	r9, [r6, #12]
e0010660:	e58ec030 	str	ip, [lr, #48]	; 0x30
e0010664:	e587c004 	str	ip, [r7, #4]
e0010668:	e587c008 	str	ip, [r7, #8]
e001066c:	e587c00c 	str	ip, [r7, #12]
e0010670:	0a000006 	beq	e0010690 <c_handle_fastpath_reply_recv+0x230>
e0010674:	e2833004 	add	r3, r3, #4
e0010678:	e282c004 	add	ip, r2, #4
e001067c:	e0835105 	add	r5, r3, r5, lsl #2
e0010680:	e5b3e004 	ldr	lr, [r3, #4]!
e0010684:	e1550003 	cmp	r5, r3
e0010688:	e5ace004 	str	lr, [ip, #4]!
e001068c:	1afffffb 	bne	e0010680 <c_handle_fastpath_reply_recv+0x220>
e0010690:	e3a03001 	mov	r3, #1
e0010694:	e5823050 	str	r3, [r2, #80]	; 0x50
e0010698:	f57ff04f 	dsb	sy
e001069c:	e59f3084 	ldr	r3, [pc, #132]	; e0010728 <c_handle_fastpath_reply_recv+0x2c8>
e00106a0:	e3833018 	orr	r3, r3, #24
e00106a4:	ee023f10 	mcr	15, 0, r3, cr2, cr0, {0}
e00106a8:	f57ff06f 	isb	sy
e00106ac:	e1a08c28 	lsr	r8, r8, #24
e00106b0:	ee0d8f30 	mcr	15, 0, r8, cr13, cr0, {1}
e00106b4:	f57ff06f 	isb	sy
e00106b8:	e2800203 	add	r0, r0, #805306368	; 0x30000000
e00106bc:	e3800018 	orr	r0, r0, #24
e00106c0:	ee020f10 	mcr	15, 0, r0, cr2, cr0, {0}
e00106c4:	f57ff06f 	isb	sy
e00106c8:	e3a00000 	mov	r0, #0
e00106cc:	e5842000 	str	r2, [r4]
e00106d0:	e28dc004 	add	ip, sp, #4
e00106d4:	e1a03000 	mov	r3, r0
e00106d8:	e18c3f9c 	strex	r3, ip, [ip]
e00106dc:	e3c11c0e 	bic	r1, r1, #3584	; 0xe00
e00106e0:	e5923048 	ldr	r3, [r2, #72]	; 0x48
e00106e4:	ee0d3f50 	mcr	15, 0, r3, cr13, cr0, {2}
e00106e8:	e592304c 	ldr	r3, [r2, #76]	; 0x4c
e00106ec:	ee0d3f70 	mcr	15, 0, r3, cr13, cr0, {3}
e00106f0:	e1a0d002 	mov	sp, r2
e00106f4:	e28dd03c 	add	sp, sp, #60	; 0x3c
e00106f8:	e95d7ffc 	ldmdb	sp, {r2, r3, r4, r5, r6, r7, r8, r9, sl, fp, ip, sp, lr}^
e00106fc:	f89d0a00 	rfeia	sp
e0010700:	e5922000 	ldr	r2, [r2]
e0010704:	e2022003 	and	r2, r2, #3
e0010708:	e3520002 	cmp	r2, #2
e001070c:	1affff88 	bne	e0010534 <c_handle_fastpath_reply_recv+0xd4>
e0010710:	e3e00001 	mvn	r0, #1
e0010714:	eb002a53 	bl	e001b068 <slowpath>
e0010718:	e208500f 	and	r5, r8, #15
e001071c:	e355000a 	cmp	r5, #10
e0010720:	1affff7c 	bne	e0010518 <c_handle_fastpath_reply_recv+0xb8>
e0010724:	eaffff64 	b	e00104bc <c_handle_fastpath_reply_recv+0x5c>
e0010728:	10024000 	.word	0x10024000

e001072c <c_handle_syscall>:
e001072c:	e303364c 	movw	r3, #13900	; 0x364c
e0010730:	e34e3003 	movt	r3, #57347	; 0xe003
e0010734:	e92d4010 	push	{r4, lr}
e0010738:	e5933000 	ldr	r3, [r3]
e001073c:	ee1d1f50 	mrc	15, 0, r1, cr13, cr0, {2}
e0010740:	e5831048 	str	r1, [r3, #72]	; 0x48
e0010744:	ee1d1f70 	mrc	15, 0, r1, cr13, cr0, {3}
e0010748:	e583104c 	str	r1, [r3, #76]	; 0x4c
e001074c:	e1a00002 	mov	r0, r2
e0010750:	eb002a44 	bl	e001b068 <slowpath>
e0010754:	00000000 	andeq	r0, r0, r0
e0010758:	00000000 	andeq	r0, r0, r0
e001075c:	00000000 	andeq	r0, r0, r0
e0010760:	00000000 	andeq	r0, r0, r0
e0010764:	00000000 	andeq	r0, r0, r0
e0010768:	00000000 	andeq	r0, r0, r0
e001076c:	00000000 	andeq	r0, r0, r0
e0010770:	00000000 	andeq	r0, r0, r0
e0010774:	00000000 	andeq	r0, r0, r0
e0010778:	00000000 	andeq	r0, r0, r0
e001077c:	00000000 	andeq	r0, r0, r0

e0010780 <lockTLBEntryCritical>:
e0010780:	ee080f37 	mcr	15, 0, r0, cr8, cr7, {1}
e0010784:	ee0a1f30 	mcr	15, 0, r1, cr10, cr0, {1}
e0010788:	ee0a0f31 	mcr	15, 0, r0, cr10, cr1, {1}
e001078c:	ee0a2f30 	mcr	15, 0, r2, cr10, cr0, {1}
e0010790:	ee0a1f10 	mcr	15, 0, r1, cr10, cr0, {0}
e0010794:	ee0a0f11 	mcr	15, 0, r0, cr10, cr1, {0}
e0010798:	ee0a2f10 	mcr	15, 0, r2, cr10, cr0, {0}
e001079c:	e12fff1e 	bx	lr

e00107a0 <idle_thread>:
e00107a0:	e320f003 	wfi
e00107a4:	eafffffd 	b	e00107a0 <idle_thread>

e00107a8 <preemptionPoint.part.161>:
e00107a8:	e30231ff 	movw	r3, #8703	; 0x21ff
e00107ac:	e34f3ff0 	movt	r3, #65520	; 0xfff0
e00107b0:	e3032204 	movw	r2, #12804	; 0x3204
e00107b4:	e34e2003 	movt	r2, #57347	; 0xe003
e00107b8:	e51330e7 	ldr	r3, [r3, #-231]	; 0xffffff19
e00107bc:	e3a01000 	mov	r1, #0
e00107c0:	e5821000 	str	r1, [r2]
e00107c4:	e7e93053 	ubfx	r3, r3, #0, #10
e00107c8:	e3530fff 	cmp	r3, #1020	; 0x3fc
e00107cc:	33a00004 	movcc	r0, #4
e00107d0:	21a00001 	movcs	r0, r1
e00107d4:	e12fff1e 	bx	lr

e00107d8 <tcbSchedEnqueue.part.164>:
e00107d8:	e92d4ff0 	push	{r4, r5, r6, r7, r8, r9, sl, fp, lr}
e00107dc:	e30934cc 	movw	r3, #38092	; 0x94cc
e00107e0:	e5904070 	ldr	r4, [r0, #112]	; 0x70
e00107e4:	e34e3002 	movt	r3, #57346	; 0xe002
e00107e8:	e5902078 	ldr	r2, [r0, #120]	; 0x78
e00107ec:	e0821404 	add	r1, r2, r4, lsl #8
e00107f0:	e083e181 	add	lr, r3, r1, lsl #3
e00107f4:	e7935181 	ldr	r5, [r3, r1, lsl #3]
e00107f8:	e59ec004 	ldr	ip, [lr, #4]
e00107fc:	e35c0000 	cmp	ip, #0
e0010800:	1585008c 	strne	r0, [r5, #140]	; 0x8c
e0010804:	0a000008 	beq	e001082c <tcbSchedEnqueue.part.164+0x54>
e0010808:	e5902054 	ldr	r2, [r0, #84]	; 0x54
e001080c:	e3a04000 	mov	r4, #0
e0010810:	e5805088 	str	r5, [r0, #136]	; 0x88
e0010814:	e580408c 	str	r4, [r0, #140]	; 0x8c
e0010818:	e3822001 	orr	r2, r2, #1
e001081c:	e7830181 	str	r0, [r3, r1, lsl #3]
e0010820:	e58ec004 	str	ip, [lr, #4]
e0010824:	e5802054 	str	r2, [r0, #84]	; 0x54
e0010828:	e8bd8ff0 	pop	{r4, r5, r6, r7, r8, r9, sl, fp, pc}
e001082c:	e1a092a2 	lsr	r9, r2, #5
e0010830:	e303c004 	movw	ip, #12292	; 0x3004
e0010834:	e2697007 	rsb	r7, r9, #7
e0010838:	e34ec003 	movt	ip, #57347	; 0xe003
e001083c:	e0877184 	add	r7, r7, r4, lsl #3
e0010840:	e3036208 	movw	r6, #12808	; 0x3208
e0010844:	e34e6003 	movt	r6, #57347	; 0xe003
e0010848:	e3a0a001 	mov	sl, #1
e001084c:	e79cb107 	ldr	fp, [ip, r7, lsl #2]
e0010850:	e202201f 	and	r2, r2, #31
e0010854:	e7968104 	ldr	r8, [r6, r4, lsl #2]
e0010858:	e18b221a 	orr	r2, fp, sl, lsl r2
e001085c:	e78c2107 	str	r2, [ip, r7, lsl #2]
e0010860:	e188291a 	orr	r2, r8, sl, lsl r9
e0010864:	e1a0c000 	mov	ip, r0
e0010868:	e7862104 	str	r2, [r6, r4, lsl #2]
e001086c:	eaffffe5 	b	e0010808 <tcbSchedEnqueue.part.164+0x30>

e0010870 <tcbSchedAppend.part.171>:
e0010870:	e92d4ff0 	push	{r4, r5, r6, r7, r8, r9, sl, fp, lr}
e0010874:	e30934cc 	movw	r3, #38092	; 0x94cc
e0010878:	e5904070 	ldr	r4, [r0, #112]	; 0x70
e001087c:	e34e3002 	movt	r3, #57346	; 0xe002
e0010880:	e5902078 	ldr	r2, [r0, #120]	; 0x78
e0010884:	e0821404 	add	r1, r2, r4, lsl #8
e0010888:	e083e181 	add	lr, r3, r1, lsl #3
e001088c:	e793c181 	ldr	ip, [r3, r1, lsl #3]
e0010890:	e59e5004 	ldr	r5, [lr, #4]
e0010894:	e35c0000 	cmp	ip, #0
e0010898:	15850088 	strne	r0, [r5, #136]	; 0x88
e001089c:	0a000008 	beq	e00108c4 <tcbSchedAppend.part.171+0x54>
e00108a0:	e5902054 	ldr	r2, [r0, #84]	; 0x54
e00108a4:	e3a04000 	mov	r4, #0
e00108a8:	e580508c 	str	r5, [r0, #140]	; 0x8c
e00108ac:	e5804088 	str	r4, [r0, #136]	; 0x88
e00108b0:	e3822001 	orr	r2, r2, #1
e00108b4:	e783c181 	str	ip, [r3, r1, lsl #3]
e00108b8:	e58e0004 	str	r0, [lr, #4]
e00108bc:	e5802054 	str	r2, [r0, #84]	; 0x54
e00108c0:	e8bd8ff0 	pop	{r4, r5, r6, r7, r8, r9, sl, fp, pc}
e00108c4:	e1a092a2 	lsr	r9, r2, #5
e00108c8:	e303c004 	movw	ip, #12292	; 0x3004
e00108cc:	e2697007 	rsb	r7, r9, #7
e00108d0:	e34ec003 	movt	ip, #57347	; 0xe003
e00108d4:	e0877184 	add	r7, r7, r4, lsl #3
e00108d8:	e3036208 	movw	r6, #12808	; 0x3208
e00108dc:	e34e6003 	movt	r6, #57347	; 0xe003
e00108e0:	e3a0a001 	mov	sl, #1
e00108e4:	e79cb107 	ldr	fp, [ip, r7, lsl #2]
e00108e8:	e202201f 	and	r2, r2, #31
e00108ec:	e7968104 	ldr	r8, [r6, r4, lsl #2]
e00108f0:	e18b221a 	orr	r2, fp, sl, lsl r2
e00108f4:	e78c2107 	str	r2, [ip, r7, lsl #2]
e00108f8:	e188291a 	orr	r2, r8, sl, lsl r9
e00108fc:	e1a0c000 	mov	ip, r0
e0010900:	e7862104 	str	r2, [r6, r4, lsl #2]
e0010904:	eaffffe5 	b	e00108a0 <tcbSchedAppend.part.171+0x30>

e0010908 <invokeTCB_NotificationControl.part.179>:
e0010908:	e590305c 	ldr	r3, [r0, #92]	; 0x5c
e001090c:	e3530000 	cmp	r3, #0
e0010910:	1593200c 	ldrne	r2, [r3, #12]
e0010914:	13a01000 	movne	r1, #0
e0010918:	1202200f 	andne	r2, r2, #15
e001091c:	1583200c 	strne	r2, [r3, #12]
e0010920:	1580105c 	strne	r1, [r0, #92]	; 0x5c
e0010924:	e12fff1e 	bx	lr

e0010928 <emptySlot>:
e0010928:	e52de004 	push	{lr}		; (str lr, [sp, #-4]!)
e001092c:	e24dd00c 	sub	sp, sp, #12
e0010930:	e28d3008 	add	r3, sp, #8
e0010934:	e9030006 	stmdb	r3, {r1, r2}
e0010938:	e5903000 	ldr	r3, [r0]
e001093c:	e203200e 	and	r2, r3, #14
e0010940:	e352000e 	cmp	r2, #14
e0010944:	1203300f 	andne	r3, r3, #15
e0010948:	06ef3073 	uxtbeq	r3, r3
e001094c:	e3530000 	cmp	r3, #0
e0010950:	0a00001a 	beq	e00109c0 <emptySlot+0x98>
e0010954:	e1c020d8 	ldrd	r2, [r0, #8]
e0010958:	e3d22007 	bics	r2, r2, #7
e001095c:	e3c31007 	bic	r1, r3, #7
e0010960:	1592c00c 	ldrne	ip, [r2, #12]
e0010964:	120cc007 	andne	ip, ip, #7
e0010968:	118cc001 	orrne	ip, ip, r1
e001096c:	1582c00c 	strne	ip, [r2, #12]
e0010970:	e3510000 	cmp	r1, #0
e0010974:	0a000008 	beq	e001099c <emptySlot+0x74>
e0010978:	e591e00c 	ldr	lr, [r1, #12]
e001097c:	e591c008 	ldr	ip, [r1, #8]
e0010980:	e183300e 	orr	r3, r3, lr
e0010984:	e3cee001 	bic	lr, lr, #1
e0010988:	e2033001 	and	r3, r3, #1
e001098c:	e20cc007 	and	ip, ip, #7
e0010990:	e183300e 	orr	r3, r3, lr
e0010994:	e18c2002 	orr	r2, ip, r2
e0010998:	e1c120f8 	strd	r2, [r1, #8]
e001099c:	e59d2000 	ldr	r2, [sp]
e00109a0:	e3a03000 	mov	r3, #0
e00109a4:	e5803000 	str	r3, [r0]
e00109a8:	e202100e 	and	r1, r2, #14
e00109ac:	e5803004 	str	r3, [r0, #4]
e00109b0:	e351000e 	cmp	r1, #14
e00109b4:	e5803008 	str	r3, [r0, #8]
e00109b8:	e580300c 	str	r3, [r0, #12]
e00109bc:	0a000001 	beq	e00109c8 <emptySlot+0xa0>
e00109c0:	e28dd00c 	add	sp, sp, #12
e00109c4:	e49df004 	pop	{pc}		; (ldr pc, [sp], #4)
e00109c8:	e6ef2072 	uxtb	r2, r2
e00109cc:	e352001e 	cmp	r2, #30
e00109d0:	1afffffa 	bne	e00109c0 <emptySlot+0x98>
e00109d4:	e5ddc004 	ldrb	ip, [sp, #4]
e00109d8:	e301227f 	movw	r2, #4735	; 0x127f
e00109dc:	e3090048 	movw	r0, #36936	; 0x9048
e00109e0:	e34f2ff0 	movt	r2, #65520	; 0xfff0
e00109e4:	e34e0002 	movt	r0, #57346	; 0xe002
e00109e8:	e20ce01f 	and	lr, ip, #31
e00109ec:	e1a012ac 	lsr	r1, ip, #5
e00109f0:	e780310c 	str	r3, [r0, ip, lsl #2]
e00109f4:	e3a03001 	mov	r3, #1
e00109f8:	e1a01101 	lsl	r1, r1, #2
e00109fc:	e1a03e13 	lsl	r3, r3, lr
e0010a00:	e0812002 	add	r2, r1, r2
e0010a04:	e50230ff 	str	r3, [r2, #-255]	; 0xffffff01
e0010a08:	e28dd00c 	add	sp, sp, #12
e0010a0c:	e49df004 	pop	{pc}		; (ldr pc, [sp], #4)

e0010a10 <restore_user_context>:
e0010a10:	e303364c 	movw	r3, #13900	; 0x364c
e0010a14:	e34e3003 	movt	r3, #57347	; 0xe003
e0010a18:	e5933000 	ldr	r3, [r3]
e0010a1c:	e5932048 	ldr	r2, [r3, #72]	; 0x48
e0010a20:	ee0d2f50 	mcr	15, 0, r2, cr13, cr0, {2}
e0010a24:	e593204c 	ldr	r2, [r3, #76]	; 0x4c
e0010a28:	ee0d2f70 	mcr	15, 0, r2, cr13, cr0, {3}
e0010a2c:	e283303c 	add	r3, r3, #60	; 0x3c
e0010a30:	e1a0d003 	mov	sp, r3
e0010a34:	e95d7fff 	ldmdb	sp, {r0, r1, r2, r3, r4, r5, r6, r7, r8, r9, sl, fp, ip, sp, lr}^
e0010a38:	f89d0a00 	rfeia	sp

e0010a3c <halt>:
e0010a3c:	f10c01c0 	cpsid	aif
e0010a40:	e320f003 	wfi
e0010a44:	eafffffd 	b	e0010a40 <halt+0x4>

e0010a48 <APFromVMRights>:
e0010a48:	e3500003 	cmp	r0, #3
e0010a4c:	979ff100 	ldrls	pc, [pc, r0, lsl #2]
e0010a50:	ea00000b 	b	e0010a84 <APFromVMRights+0x3c>
e0010a54:	e0010a7c 	.word	0xe0010a7c
e0010a58:	e0010a74 	.word	0xe0010a74
e0010a5c:	e0010a6c 	.word	0xe0010a6c
e0010a60:	e0010a64 	.word	0xe0010a64
e0010a64:	e3a00003 	mov	r0, #3
e0010a68:	e12fff1e 	bx	lr
e0010a6c:	e3a00002 	mov	r0, #2
e0010a70:	e12fff1e 	bx	lr
e0010a74:	e3a00001 	mov	r0, #1
e0010a78:	e12fff1e 	bx	lr
e0010a7c:	e3a00000 	mov	r0, #0
e0010a80:	e12fff1e 	bx	lr
e0010a84:	e92d4010 	push	{r4, lr}
e0010a88:	ebffffeb 	bl	e0010a3c <halt>

e0010a8c <setMRs_fault>:
e0010a8c:	e1a03000 	mov	r3, r0
e0010a90:	e5900060 	ldr	r0, [r0, #96]	; 0x60
e0010a94:	e92d4010 	push	{r4, lr}
e0010a98:	e200000f 	and	r0, r0, #15
e0010a9c:	e3500002 	cmp	r0, #2
e0010aa0:	0a000034 	beq	e0010b78 <setMRs_fault+0xec>
e0010aa4:	e3500003 	cmp	r0, #3
e0010aa8:	0a000023 	beq	e0010b3c <setMRs_fault+0xb0>
e0010aac:	e3500001 	cmp	r0, #1
e0010ab0:	0a00000d 	beq	e0010aec <setMRs_fault+0x60>
e0010ab4:	e3500005 	cmp	r0, #5
e0010ab8:	1a000061 	bne	e0010c44 <setMRs_fault+0x1b8>
e0010abc:	e5932044 	ldr	r2, [r3, #68]	; 0x44
e0010ac0:	e3a00004 	mov	r0, #4
e0010ac4:	e5812008 	str	r2, [r1, #8]
e0010ac8:	e5932064 	ldr	r2, [r3, #100]	; 0x64
e0010acc:	e581200c 	str	r2, [r1, #12]
e0010ad0:	e5932060 	ldr	r2, [r3, #96]	; 0x60
e0010ad4:	e7e028d2 	ubfx	r2, r2, #17, #1
e0010ad8:	e5812010 	str	r2, [r1, #16]
e0010adc:	e5933060 	ldr	r3, [r3, #96]	; 0x60
e0010ae0:	e1a03923 	lsr	r3, r3, #18
e0010ae4:	e5813014 	str	r3, [r1, #20]
e0010ae8:	e8bd8010 	pop	{r4, pc}
e0010aec:	e5930044 	ldr	r0, [r3, #68]	; 0x44
e0010af0:	e5810008 	str	r0, [r1, #8]
e0010af4:	e5930064 	ldr	r0, [r3, #100]	; 0x64
e0010af8:	e581000c 	str	r0, [r1, #12]
e0010afc:	e5930060 	ldr	r0, [r3, #96]	; 0x60
e0010b00:	e1a00fa0 	lsr	r0, r0, #31
e0010b04:	e5810010 	str	r0, [r1, #16]
e0010b08:	e5930068 	ldr	r0, [r3, #104]	; 0x68
e0010b0c:	e593e06c 	ldr	lr, [r3, #108]	; 0x6c
e0010b10:	e2003003 	and	r3, r0, #3
e0010b14:	e3530002 	cmp	r3, #2
e0010b18:	e283c001 	add	ip, r3, #1
e0010b1c:	e581c014 	str	ip, [r1, #20]
e0010b20:	0a000030 	beq	e0010be8 <setMRs_fault+0x15c>
e0010b24:	e3530003 	cmp	r3, #3
e0010b28:	0a00003c 	beq	e0010c20 <setMRs_fault+0x194>
e0010b2c:	e3530001 	cmp	r3, #1
e0010b30:	0a000034 	beq	e0010c08 <setMRs_fault+0x17c>
e0010b34:	e3a00004 	mov	r0, #4
e0010b38:	e8bd8010 	pop	{r4, pc}
e0010b3c:	e5930044 	ldr	r0, [r3, #68]	; 0x44
e0010b40:	e3520000 	cmp	r2, #0
e0010b44:	e5810008 	str	r0, [r1, #8]
e0010b48:	e5930034 	ldr	r0, [r3, #52]	; 0x34
e0010b4c:	e581000c 	str	r0, [r1, #12]
e0010b50:	e5930040 	ldr	r0, [r3, #64]	; 0x40
e0010b54:	e5810010 	str	r0, [r1, #16]
e0010b58:	0a00001e 	beq	e0010bd8 <setMRs_fault+0x14c>
e0010b5c:	e593c064 	ldr	ip, [r3, #100]	; 0x64
e0010b60:	e3a00005 	mov	r0, #5
e0010b64:	e581c014 	str	ip, [r1, #20]
e0010b68:	e5933060 	ldr	r3, [r3, #96]	; 0x60
e0010b6c:	e1a03223 	lsr	r3, r3, #4
e0010b70:	e5823014 	str	r3, [r2, #20]
e0010b74:	e8bd8010 	pop	{r4, pc}
e0010b78:	e5930000 	ldr	r0, [r3]
e0010b7c:	e3520000 	cmp	r2, #0
e0010b80:	e5810008 	str	r0, [r1, #8]
e0010b84:	e5930004 	ldr	r0, [r3, #4]
e0010b88:	e581000c 	str	r0, [r1, #12]
e0010b8c:	e5930008 	ldr	r0, [r3, #8]
e0010b90:	e5810010 	str	r0, [r1, #16]
e0010b94:	e593000c 	ldr	r0, [r3, #12]
e0010b98:	e5810014 	str	r0, [r1, #20]
e0010b9c:	0affffe4 	beq	e0010b34 <setMRs_fault+0xa8>
e0010ba0:	e2821010 	add	r1, r2, #16
e0010ba4:	e59fc09c 	ldr	ip, [pc, #156]	; e0010c48 <setMRs_fault+0x1bc>
e0010ba8:	e282e030 	add	lr, r2, #48	; 0x30
e0010bac:	e3a00004 	mov	r0, #4
e0010bb0:	ea000000 	b	e0010bb8 <setMRs_fault+0x12c>
e0010bb4:	e49c0004 	ldr	r0, [ip], #4
e0010bb8:	e7930100 	ldr	r0, [r3, r0, lsl #2]
e0010bbc:	e5a10004 	str	r0, [r1, #4]!
e0010bc0:	e151000e 	cmp	r1, lr
e0010bc4:	1afffffa 	bne	e0010bb4 <setMRs_fault+0x128>
e0010bc8:	e5933064 	ldr	r3, [r3, #100]	; 0x64
e0010bcc:	e3a0000d 	mov	r0, #13
e0010bd0:	e5823034 	str	r3, [r2, #52]	; 0x34
e0010bd4:	e8bd8010 	pop	{r4, pc}
e0010bd8:	e5933064 	ldr	r3, [r3, #100]	; 0x64
e0010bdc:	e3a00004 	mov	r0, #4
e0010be0:	e5813014 	str	r3, [r1, #20]
e0010be4:	e8bd8010 	pop	{r4, pc}
e0010be8:	e3520000 	cmp	r2, #0
e0010bec:	0affffd0 	beq	e0010b34 <setMRs_fault+0xa8>
e0010bf0:	e7e51150 	ubfx	r1, r0, #2, #6
e0010bf4:	e7e53450 	ubfx	r3, r0, #8, #6
e0010bf8:	e5821014 	str	r1, [r2, #20]
e0010bfc:	e3a00006 	mov	r0, #6
e0010c00:	e5823018 	str	r3, [r2, #24]
e0010c04:	e8bd8010 	pop	{r4, pc}
e0010c08:	e3520000 	cmp	r2, #0
e0010c0c:	0affffc8 	beq	e0010b34 <setMRs_fault+0xa8>
e0010c10:	e7e53150 	ubfx	r3, r0, #2, #6
e0010c14:	e3a00005 	mov	r0, #5
e0010c18:	e5823014 	str	r3, [r2, #20]
e0010c1c:	e8bd8010 	pop	{r4, pc}
e0010c20:	e3520000 	cmp	r2, #0
e0010c24:	0affffc2 	beq	e0010b34 <setMRs_fault+0xa8>
e0010c28:	e7e53450 	ubfx	r3, r0, #8, #6
e0010c2c:	e582e018 	str	lr, [r2, #24]
e0010c30:	e7e50150 	ubfx	r0, r0, #2, #6
e0010c34:	e5823014 	str	r3, [r2, #20]
e0010c38:	e582001c 	str	r0, [r2, #28]
e0010c3c:	e3a00007 	mov	r0, #7
e0010c40:	e8bd8010 	pop	{r4, pc}
e0010c44:	ebffff7c 	bl	e0010a3c <halt>
e0010c48:	e001b3dc 	.word	0xe001b3dc

e0010c4c <makeUserPDE.constprop.186>:
e0010c4c:	e92d4010 	push	{r4, lr}
e0010c50:	e1a04000 	mov	r4, r0
e0010c54:	e59d000c 	ldr	r0, [sp, #12]
e0010c58:	ebffff7a 	bl	e0010a48 <APFromVMRights>
e0010c5c:	e59dc008 	ldr	ip, [sp, #8]
e0010c60:	e3540003 	cmp	r4, #3
e0010c64:	03a0e701 	moveq	lr, #262144	; 0x40000
e0010c68:	13a0e000 	movne	lr, #0
e0010c6c:	e3530000 	cmp	r3, #0
e0010c70:	e1a0320c 	lsl	r3, ip, #4
e0010c74:	13833a25 	orrne	r3, r3, #151552	; 0x25000
e0010c78:	03833803 	orreq	r3, r3, #196608	; 0x30000
e0010c7c:	e1a01a21 	lsr	r1, r1, #20
e0010c80:	e1a00500 	lsl	r0, r0, #10
e0010c84:	e1a02482 	lsl	r2, r2, #9
e0010c88:	13833006 	orrne	r3, r3, #6
e0010c8c:	03833002 	orreq	r3, r3, #2
e0010c90:	e200cb03 	and	ip, r0, #3072	; 0xc00
e0010c94:	e1a01a01 	lsl	r1, r1, #20
e0010c98:	01830002 	orreq	r0, r3, r2
e0010c9c:	11833002 	orrne	r3, r3, r2
e0010ca0:	01800001 	orreq	r0, r0, r1
e0010ca4:	11830001 	orrne	r0, r3, r1
e0010ca8:	e180000c 	orr	r0, r0, ip
e0010cac:	e180000e 	orr	r0, r0, lr
e0010cb0:	e8bd8010 	pop	{r4, pc}

e0010cb4 <Arch_activateIdleThread>:
e0010cb4:	e12fff1e 	bx	lr

e0010cb8 <maskVMRights>:
e0010cb8:	e3500000 	cmp	r0, #0
e0010cbc:	012fff1e 	bxeq	lr
e0010cc0:	e3500002 	cmp	r0, #2
e0010cc4:	0a000003 	beq	e0010cd8 <maskVMRights+0x20>
e0010cc8:	e3500003 	cmp	r0, #3
e0010ccc:	0a000004 	beq	e0010ce4 <maskVMRights+0x2c>
e0010cd0:	e3a00001 	mov	r0, #1
e0010cd4:	e12fff1e 	bx	lr
e0010cd8:	e3110002 	tst	r1, #2
e0010cdc:	03a00001 	moveq	r0, #1
e0010ce0:	e12fff1e 	bx	lr
e0010ce4:	e3110002 	tst	r1, #2
e0010ce8:	0afffff8 	beq	e0010cd0 <maskVMRights+0x18>
e0010cec:	e3110001 	tst	r1, #1
e0010cf0:	03a00002 	moveq	r0, #2
e0010cf4:	e12fff1e 	bx	lr

e0010cf8 <findPDForASID>:
e0010cf8:	e30932c8 	movw	r3, #37576	; 0x92c8
e0010cfc:	e1a02521 	lsr	r2, r1, #10
e0010d00:	e34e3002 	movt	r3, #57346	; 0xe002
e0010d04:	e7933102 	ldr	r3, [r3, r2, lsl #2]
e0010d08:	e3530000 	cmp	r3, #0
e0010d0c:	0a000007 	beq	e0010d30 <findPDForASID+0x38>
e0010d10:	e7e91051 	ubfx	r1, r1, #0, #10
e0010d14:	e7933101 	ldr	r3, [r3, r1, lsl #2]
e0010d18:	e3530000 	cmp	r3, #0
e0010d1c:	0a000003 	beq	e0010d30 <findPDForASID+0x38>
e0010d20:	e5803004 	str	r3, [r0, #4]
e0010d24:	e3a03000 	mov	r3, #0
e0010d28:	e5803000 	str	r3, [r0]
e0010d2c:	e12fff1e 	bx	lr
e0010d30:	e3093014 	movw	r3, #36884	; 0x9014
e0010d34:	e34e3002 	movt	r3, #57346	; 0xe002
e0010d38:	e3a02000 	mov	r2, #0
e0010d3c:	e3a01002 	mov	r1, #2
e0010d40:	e5832000 	str	r2, [r3]
e0010d44:	e5832004 	str	r2, [r3, #4]
e0010d48:	e8800006 	stm	r0, {r1, r2}
e0010d4c:	e12fff1e 	bx	lr

e0010d50 <lookupIPCBuffer>:
e0010d50:	e3c12f7f 	bic	r2, r1, #508	; 0x1fc
e0010d54:	e3c22003 	bic	r2, r2, #3
e0010d58:	e52de004 	push	{lr}		; (str lr, [sp, #-4]!)
e0010d5c:	e591e084 	ldr	lr, [r1, #132]	; 0x84
e0010d60:	e5921040 	ldr	r1, [r2, #64]	; 0x40
e0010d64:	e592c044 	ldr	ip, [r2, #68]	; 0x44
e0010d68:	e201300e 	and	r3, r1, #14
e0010d6c:	e353000e 	cmp	r3, #14
e0010d70:	1201300f 	andne	r3, r1, #15
e0010d74:	06ef3071 	uxtbeq	r3, r1
e0010d78:	e3c32002 	bic	r2, r3, #2
e0010d7c:	e3520001 	cmp	r2, #1
e0010d80:	1a00001c 	bne	e0010df8 <lookupIPCBuffer+0xa8>
e0010d84:	e3530001 	cmp	r3, #1
e0010d88:	0a00001c 	beq	e0010e00 <lookupIPCBuffer+0xb0>
e0010d8c:	e7e02ed1 	ubfx	r2, r1, #29, #1
e0010d90:	e3520000 	cmp	r2, #0
e0010d94:	1a000017 	bne	e0010df8 <lookupIPCBuffer+0xa8>
e0010d98:	e3530003 	cmp	r3, #3
e0010d9c:	1a000015 	bne	e0010df8 <lookupIPCBuffer+0xa8>
e0010da0:	e7e1295c 	ubfx	r2, ip, #18, #2
e0010da4:	e3520003 	cmp	r2, #3
e0010da8:	1a00000f 	bne	e0010dec <lookupIPCBuffer+0x9c>
e0010dac:	e1a0cf2c 	lsr	ip, ip, #30
e0010db0:	e3a00903 	mov	r0, #49152	; 0xc000
e0010db4:	e35c0002 	cmp	ip, #2
e0010db8:	e34f0fff 	movt	r0, #65535	; 0xffff
e0010dbc:	e0001501 	and	r1, r0, r1, lsl #10
e0010dc0:	0a000018 	beq	e0010e28 <lookupIPCBuffer+0xd8>
e0010dc4:	e35c0003 	cmp	ip, #3
e0010dc8:	03e034ff 	mvneq	r3, #-16777216	; 0xff000000
e0010dcc:	0a000003 	beq	e0010de0 <lookupIPCBuffer+0x90>
e0010dd0:	e35c0001 	cmp	ip, #1
e0010dd4:	e30f2fff 	movw	r2, #65535	; 0xffff
e0010dd8:	e3003fff 	movw	r3, #4095	; 0xfff
e0010ddc:	01a03002 	moveq	r3, r2
e0010de0:	e003000e 	and	r0, r3, lr
e0010de4:	e0800001 	add	r0, r0, r1
e0010de8:	e49df004 	pop	{pc}		; (ldr pc, [sp], #4)
e0010dec:	e3520002 	cmp	r2, #2
e0010df0:	03500000 	cmpeq	r0, #0
e0010df4:	0affffec 	beq	e0010dac <lookupIPCBuffer+0x5c>
e0010df8:	e3a00000 	mov	r0, #0
e0010dfc:	e49df004 	pop	{pc}		; (ldr pc, [sp], #4)
e0010e00:	e3510000 	cmp	r1, #0
e0010e04:	bafffffb 	blt	e0010df8 <lookupIPCBuffer+0xa8>
e0010e08:	e7e1ca5c 	ubfx	ip, ip, #20, #2
e0010e0c:	e35c0003 	cmp	ip, #3
e0010e10:	1a000007 	bne	e0010e34 <lookupIPCBuffer+0xe4>
e0010e14:	e3a00a0f 	mov	r0, #61440	; 0xf000
e0010e18:	e34f0fff 	movt	r0, #65535	; 0xffff
e0010e1c:	e0001401 	and	r1, r0, r1, lsl #8
e0010e20:	e3003fff 	movw	r3, #4095	; 0xfff
e0010e24:	eaffffed 	b	e0010de0 <lookupIPCBuffer+0x90>
e0010e28:	e30f3fff 	movw	r3, #65535	; 0xffff
e0010e2c:	e340300f 	movt	r3, #15
e0010e30:	eaffffea 	b	e0010de0 <lookupIPCBuffer+0x90>
e0010e34:	e24cc002 	sub	ip, ip, #2
e0010e38:	e3500000 	cmp	r0, #0
e0010e3c:	e16fcf1c 	clz	ip, ip
e0010e40:	13a02000 	movne	r2, #0
e0010e44:	e1a0c2ac 	lsr	ip, ip, #5
e0010e48:	01a0200c 	moveq	r2, ip
e0010e4c:	e3520000 	cmp	r2, #0
e0010e50:	1affffef 	bne	e0010e14 <lookupIPCBuffer+0xc4>
e0010e54:	eaffffe7 	b	e0010df8 <lookupIPCBuffer+0xa8>

e0010e58 <handleFaultReply>:
e0010e58:	e92d41f0 	push	{r4, r5, r6, r7, r8, lr}
e0010e5c:	e1a05000 	mov	r5, r0
e0010e60:	e5916004 	ldr	r6, [r1, #4]
e0010e64:	e5900060 	ldr	r0, [r0, #96]	; 0x60
e0010e68:	e206307f 	and	r3, r6, #127	; 0x7f
e0010e6c:	e3530078 	cmp	r3, #120	; 0x78
e0010e70:	e1a06626 	lsr	r6, r6, #12
e0010e74:	e200000f 	and	r0, r0, #15
e0010e78:	9a00001f 	bls	e0010efc <handleFaultReply+0xa4>
e0010e7c:	e3500002 	cmp	r0, #2
e0010e80:	0a000027 	beq	e0010f24 <handleFaultReply+0xcc>
e0010e84:	e3500003 	cmp	r0, #3
e0010e88:	1a00001f 	bne	e0010f0c <handleFaultReply+0xb4>
e0010e8c:	e3a03078 	mov	r3, #120	; 0x78
e0010e90:	e3530003 	cmp	r3, #3
e0010e94:	31a0e003 	movcc	lr, r3
e0010e98:	23a0e003 	movcs	lr, #3
e0010e9c:	e3530000 	cmp	r3, #0
e0010ea0:	0a000012 	beq	e0010ef0 <handleFaultReply+0x98>
e0010ea4:	e3a03000 	mov	r3, #0
e0010ea8:	e5912008 	ldr	r2, [r1, #8]
e0010eac:	e2833001 	add	r3, r3, #1
e0010eb0:	e59fc13c 	ldr	ip, [pc, #316]	; e0010ff4 <handleFaultReply+0x19c>
e0010eb4:	e15e0003 	cmp	lr, r3
e0010eb8:	e3a00011 	mov	r0, #17
e0010ebc:	e28c402c 	add	r4, ip, #44	; 0x2c
e0010ec0:	e7852100 	str	r2, [r5, r0, lsl #2]
e0010ec4:	9a000009 	bls	e0010ef0 <handleFaultReply+0x98>
e0010ec8:	e7942103 	ldr	r2, [r4, r3, lsl #2]
e0010ecc:	e2833001 	add	r3, r3, #1
e0010ed0:	e49c0004 	ldr	r0, [ip], #4
e0010ed4:	e7912102 	ldr	r2, [r1, r2, lsl #2]
e0010ed8:	e3500010 	cmp	r0, #16
e0010edc:	0202233e 	andeq	r2, r2, #-134217728	; 0xf8000000
e0010ee0:	03822e15 	orreq	r2, r2, #336	; 0x150
e0010ee4:	e15e0003 	cmp	lr, r3
e0010ee8:	e7852100 	str	r2, [r5, r0, lsl #2]
e0010eec:	8afffff5 	bhi	e0010ec8 <handleFaultReply+0x70>
e0010ef0:	e16f0f16 	clz	r0, r6
e0010ef4:	e1a002a0 	lsr	r0, r0, #5
e0010ef8:	e8bd81f0 	pop	{r4, r5, r6, r7, r8, pc}
e0010efc:	e3500002 	cmp	r0, #2
e0010f00:	0a000031 	beq	e0010fcc <handleFaultReply+0x174>
e0010f04:	e3500003 	cmp	r0, #3
e0010f08:	0affffe0 	beq	e0010e90 <handleFaultReply+0x38>
e0010f0c:	e3500001 	cmp	r0, #1
e0010f10:	08bd81f0 	popeq	{r4, r5, r6, r7, r8, pc}
e0010f14:	e3500005 	cmp	r0, #5
e0010f18:	1a000034 	bne	e0010ff0 <handleFaultReply+0x198>
e0010f1c:	e3a00001 	mov	r0, #1
e0010f20:	e8bd81f0 	pop	{r4, r5, r6, r7, r8, pc}
e0010f24:	e3a0c004 	mov	ip, #4
e0010f28:	e3a0700c 	mov	r7, #12
e0010f2c:	e3a04000 	mov	r4, #0
e0010f30:	e5913008 	ldr	r3, [r1, #8]
e0010f34:	e1a02004 	mov	r2, r4
e0010f38:	e2844001 	add	r4, r4, #1
e0010f3c:	e154000c 	cmp	r4, ip
e0010f40:	e30b03c8 	movw	r0, #46024	; 0xb3c8
e0010f44:	e34e0001 	movt	r0, #57345	; 0xe001
e0010f48:	e7853102 	str	r3, [r5, r2, lsl #2]
e0010f4c:	e280e060 	add	lr, r0, #96	; 0x60
e0010f50:	2a000009 	bcs	e0010f7c <handleFaultReply+0x124>
e0010f54:	e79e3104 	ldr	r3, [lr, r4, lsl #2]
e0010f58:	e7902104 	ldr	r2, [r0, r4, lsl #2]
e0010f5c:	e2844001 	add	r4, r4, #1
e0010f60:	e7913103 	ldr	r3, [r1, r3, lsl #2]
e0010f64:	e3520010 	cmp	r2, #16
e0010f68:	0203333e 	andeq	r3, r3, #-134217728	; 0xf8000000
e0010f6c:	03833e15 	orreq	r3, r3, #336	; 0x150
e0010f70:	e154000c 	cmp	r4, ip
e0010f74:	e7853102 	str	r3, [r5, r2, lsl #2]
e0010f78:	3afffff5 	bcc	e0010f54 <handleFaultReply+0xfc>
e0010f7c:	e1540007 	cmp	r4, r7
e0010f80:	2affffda 	bcs	e0010ef0 <handleFaultReply+0x98>
e0010f84:	e3a00000 	mov	r0, #0
e0010f88:	ebffff70 	bl	e0010d50 <lookupIPCBuffer>
e0010f8c:	e3500000 	cmp	r0, #0
e0010f90:	0affffd6 	beq	e0010ef0 <handleFaultReply+0x98>
e0010f94:	e59f305c 	ldr	r3, [pc, #92]	; e0010ff8 <handleFaultReply+0x1a0>
e0010f98:	e1a04104 	lsl	r4, r4, #2
e0010f9c:	e0807107 	add	r7, r0, r7, lsl #2
e0010fa0:	e0800004 	add	r0, r0, r4
e0010fa4:	e0844003 	add	r4, r4, r3
e0010fa8:	e5b42004 	ldr	r2, [r4, #4]!
e0010fac:	e5b03004 	ldr	r3, [r0, #4]!
e0010fb0:	e3520010 	cmp	r2, #16
e0010fb4:	0203333e 	andeq	r3, r3, #-134217728	; 0xf8000000
e0010fb8:	03833e15 	orreq	r3, r3, #336	; 0x150
e0010fbc:	e1500007 	cmp	r0, r7
e0010fc0:	e7853102 	str	r3, [r5, r2, lsl #2]
e0010fc4:	1afffff7 	bne	e0010fa8 <handleFaultReply+0x150>
e0010fc8:	eaffffc8 	b	e0010ef0 <handleFaultReply+0x98>
e0010fcc:	e353000c 	cmp	r3, #12
e0010fd0:	31a07003 	movcc	r7, r3
e0010fd4:	23a0700c 	movcs	r7, #12
e0010fd8:	e3530004 	cmp	r3, #4
e0010fdc:	31a0c003 	movcc	ip, r3
e0010fe0:	23a0c004 	movcs	ip, #4
e0010fe4:	e3530000 	cmp	r3, #0
e0010fe8:	1affffcf 	bne	e0010f2c <handleFaultReply+0xd4>
e0010fec:	eaffffbf 	b	e0010ef0 <handleFaultReply+0x98>
e0010ff0:	ebfffe91 	bl	e0010a3c <halt>
e0010ff4:	e001b3fc 	.word	0xe001b3fc
e0010ff8:	e001b3c4 	.word	0xe001b3c4

e0010ffc <checkValidIPCBuffer>:
e0010ffc:	e24dd008 	sub	sp, sp, #8
e0011000:	e28d3008 	add	r3, sp, #8
e0011004:	e9030006 	stmdb	r3, {r1, r2}
e0011008:	e59d3000 	ldr	r3, [sp]
e001100c:	e203200e 	and	r2, r3, #14
e0011010:	e352000e 	cmp	r2, #14
e0011014:	1203200f 	andne	r2, r3, #15
e0011018:	06ef2073 	uxtbeq	r2, r3
e001101c:	e3c21002 	bic	r1, r2, #2
e0011020:	e3510001 	cmp	r1, #1
e0011024:	1a00000e 	bne	e0011064 <checkValidIPCBuffer+0x68>
e0011028:	e3520001 	cmp	r2, #1
e001102c:	01a03fa3 	lsreq	r3, r3, #31
e0011030:	17e03ed3 	ubfxne	r3, r3, #29, #1
e0011034:	e3530000 	cmp	r3, #0
e0011038:	1a000009 	bne	e0011064 <checkValidIPCBuffer+0x68>
e001103c:	e7e80050 	ubfx	r0, r0, #0, #9
e0011040:	e3500000 	cmp	r0, #0
e0011044:	13093020 	movwne	r3, #36896	; 0x9020
e0011048:	134e3002 	movtne	r3, #57346	; 0xe002
e001104c:	13a02005 	movne	r2, #5
e0011050:	13a00003 	movne	r0, #3
e0011054:	01a00003 	moveq	r0, r3
e0011058:	15832018 	strne	r2, [r3, #24]
e001105c:	e28dd008 	add	sp, sp, #8
e0011060:	e12fff1e 	bx	lr
e0011064:	e3093020 	movw	r3, #36896	; 0x9020
e0011068:	e34e3002 	movt	r3, #57346	; 0xe002
e001106c:	e3a02003 	mov	r2, #3
e0011070:	e1a00002 	mov	r0, r2
e0011074:	e5832018 	str	r2, [r3, #24]
e0011078:	e28dd008 	add	sp, sp, #8
e001107c:	e12fff1e 	bx	lr

e0011080 <lookupPDSlot>:
e0011080:	e1a01a21 	lsr	r1, r1, #20
e0011084:	e0800101 	add	r0, r0, r1, lsl #2
e0011088:	e12fff1e 	bx	lr

e001108c <lookupPTSlot>:
e001108c:	e1a03a22 	lsr	r3, r2, #20
e0011090:	e7913103 	ldr	r3, [r1, r3, lsl #2]
e0011094:	e2031003 	and	r1, r3, #3
e0011098:	e3510001 	cmp	r1, #1
e001109c:	1a000008 	bne	e00110c4 <lookupPTSlot+0x38>
e00110a0:	e3c33fff 	bic	r3, r3, #1020	; 0x3fc
e00110a4:	e7e72652 	ubfx	r2, r2, #12, #8
e00110a8:	e3c33003 	bic	r3, r3, #3
e00110ac:	e3a01000 	mov	r1, #0
e00110b0:	e283320d 	add	r3, r3, #-805306368	; 0xd0000000
e00110b4:	e5801000 	str	r1, [r0]
e00110b8:	e0833102 	add	r3, r3, r2, lsl #2
e00110bc:	e5803004 	str	r3, [r0, #4]
e00110c0:	e12fff1e 	bx	lr
e00110c4:	e3093014 	movw	r3, #36884	; 0x9014
e00110c8:	e34e3002 	movt	r3, #57346	; 0xe002
e00110cc:	e3a02000 	mov	r2, #0
e00110d0:	e3a01051 	mov	r1, #81	; 0x51
e00110d4:	e5832004 	str	r2, [r3, #4]
e00110d8:	e5831000 	str	r1, [r3]
e00110dc:	e3a01002 	mov	r1, #2
e00110e0:	e8800006 	stm	r0, {r1, r2}
e00110e4:	e12fff1e 	bx	lr

e00110e8 <isValidVTableRoot>:
e00110e8:	e24dd008 	sub	sp, sp, #8
e00110ec:	e28d3008 	add	r3, sp, #8
e00110f0:	e9030003 	stmdb	r3, {r0, r1}
e00110f4:	e59d0000 	ldr	r0, [sp]
e00110f8:	e200300e 	and	r3, r0, #14
e00110fc:	e353000e 	cmp	r3, #14
e0011100:	1200300f 	andne	r3, r0, #15
e0011104:	06ef3070 	uxtbeq	r3, r0
e0011108:	e3530009 	cmp	r3, #9
e001110c:	07e00250 	ubfxeq	r0, r0, #4, #1
e0011110:	13a00000 	movne	r0, #0
e0011114:	e28dd008 	add	sp, sp, #8
e0011118:	e12fff1e 	bx	lr

e001111c <isIOSpaceFrameCap>:
e001111c:	e24dd008 	sub	sp, sp, #8
e0011120:	e28d3008 	add	r3, sp, #8
e0011124:	e9030003 	stmdb	r3, {r0, r1}
e0011128:	e3a00000 	mov	r0, #0
e001112c:	e28dd008 	add	sp, sp, #8
e0011130:	e12fff1e 	bx	lr

e0011134 <pageTableMapped>:
e0011134:	e92d4030 	push	{r4, r5, lr}
e0011138:	e24dd00c 	sub	sp, sp, #12
e001113c:	e1a04001 	mov	r4, r1
e0011140:	e1a01000 	mov	r1, r0
e0011144:	e1a0000d 	mov	r0, sp
e0011148:	e1a05002 	mov	r5, r2
e001114c:	ebfffee9 	bl	e0010cf8 <findPDForASID>
e0011150:	e59d1000 	ldr	r1, [sp]
e0011154:	e59d0004 	ldr	r0, [sp, #4]
e0011158:	e3510000 	cmp	r1, #0
e001115c:	1a00000b 	bne	e0011190 <pageTableMapped+0x5c>
e0011160:	e1a04a24 	lsr	r4, r4, #20
e0011164:	e7903104 	ldr	r3, [r0, r4, lsl #2]
e0011168:	e2032003 	and	r2, r3, #3
e001116c:	e3520001 	cmp	r2, #1
e0011170:	1a000009 	bne	e001119c <pageTableMapped+0x68>
e0011174:	e3c33fff 	bic	r3, r3, #1020	; 0x3fc
e0011178:	e3c33003 	bic	r3, r3, #3
e001117c:	e283320d 	add	r3, r3, #-805306368	; 0xd0000000
e0011180:	e1550003 	cmp	r5, r3
e0011184:	13a00000 	movne	r0, #0
e0011188:	e28dd00c 	add	sp, sp, #12
e001118c:	e8bd8030 	pop	{r4, r5, pc}
e0011190:	e3a00000 	mov	r0, #0
e0011194:	e28dd00c 	add	sp, sp, #12
e0011198:	e8bd8030 	pop	{r4, r5, pc}
e001119c:	e1a00001 	mov	r0, r1
e00111a0:	eafffff8 	b	e0011188 <pageTableMapped+0x54>

e00111a4 <findFreeHWASID>:
e00111a4:	e92d4010 	push	{r4, lr}
e00111a8:	e303e648 	movw	lr, #13896	; 0x3648
e00111ac:	e34ee003 	movt	lr, #57347	; 0xe003
e00111b0:	e3031248 	movw	r1, #12872	; 0x3248
e00111b4:	e34e1003 	movt	r1, #57347	; 0xe003
e00111b8:	e3a03000 	mov	r3, #0
e00111bc:	e5dec000 	ldrb	ip, [lr]
e00111c0:	e08c0003 	add	r0, ip, r3
e00111c4:	e2833001 	add	r3, r3, #1
e00111c8:	e6ef0070 	uxtb	r0, r0
e00111cc:	e7912100 	ldr	r2, [r1, r0, lsl #2]
e00111d0:	e3520000 	cmp	r2, #0
e00111d4:	08bd8010 	popeq	{r4, pc}
e00111d8:	e3530c01 	cmp	r3, #256	; 0x100
e00111dc:	1afffff7 	bne	e00111c0 <findFreeHWASID+0x1c>
e00111e0:	e791310c 	ldr	r3, [r1, ip, lsl #2]
e00111e4:	e30922c8 	movw	r2, #37576	; 0x92c8
e00111e8:	e34e2002 	movt	r2, #57346	; 0xe002
e00111ec:	e3a04000 	mov	r4, #0
e00111f0:	e7e90053 	ubfx	r0, r3, #0, #10
e00111f4:	e1a03523 	lsr	r3, r3, #10
e00111f8:	e7923103 	ldr	r3, [r2, r3, lsl #2]
e00111fc:	e7933100 	ldr	r3, [r3, r0, lsl #2]
e0011200:	e2833a03 	add	r3, r3, #12288	; 0x3000
e0011204:	e5834fc0 	str	r4, [r3, #4032]	; 0xfc0
e0011208:	f57ff04f 	dsb	sy
e001120c:	ee08cf57 	mcr	15, 0, ip, cr8, cr7, {2}
e0011210:	f57ff04f 	dsb	sy
e0011214:	f57ff06f 	isb	sy
e0011218:	e5de3000 	ldrb	r3, [lr]
e001121c:	e1a0000c 	mov	r0, ip
e0011220:	e781410c 	str	r4, [r1, ip, lsl #2]
e0011224:	e2833001 	add	r3, r3, #1
e0011228:	e5ce3000 	strb	r3, [lr]
e001122c:	e8bd8010 	pop	{r4, pc}

e0011230 <getHWASID>:
e0011230:	e92d41f0 	push	{r4, r5, r6, r7, r8, lr}
e0011234:	e30942c8 	movw	r4, #37576	; 0x92c8
e0011238:	e1a07520 	lsr	r7, r0, #10
e001123c:	e34e4002 	movt	r4, #57346	; 0xe002
e0011240:	e7e96050 	ubfx	r6, r0, #0, #10
e0011244:	e7943107 	ldr	r3, [r4, r7, lsl #2]
e0011248:	e7933106 	ldr	r3, [r3, r6, lsl #2]
e001124c:	e2833a03 	add	r3, r3, #12288	; 0x3000
e0011250:	e5933fc0 	ldr	r3, [r3, #4032]	; 0xfc0
e0011254:	e3130502 	tst	r3, #8388608	; 0x800000
e0011258:	0a000001 	beq	e0011264 <getHWASID+0x34>
e001125c:	e1a00c23 	lsr	r0, r3, #24
e0011260:	e8bd81f0 	pop	{r4, r5, r6, r7, r8, pc}
e0011264:	e1a05000 	mov	r5, r0
e0011268:	ebffffcd 	bl	e00111a4 <findFreeHWASID>
e001126c:	e7943107 	ldr	r3, [r4, r7, lsl #2]
e0011270:	e3031248 	movw	r1, #12872	; 0x3248
e0011274:	e34e1003 	movt	r1, #57347	; 0xe003
e0011278:	e7933106 	ldr	r3, [r3, r6, lsl #2]
e001127c:	e2833a03 	add	r3, r3, #12288	; 0x3000
e0011280:	e1a02c00 	lsl	r2, r0, #24
e0011284:	e7815100 	str	r5, [r1, r0, lsl #2]
e0011288:	e3822502 	orr	r2, r2, #8388608	; 0x800000
e001128c:	e5832fc0 	str	r2, [r3, #4032]	; 0xfc0
e0011290:	e8bd81f0 	pop	{r4, r5, r6, r7, r8, pc}

e0011294 <setVMRoot>:
e0011294:	e3c00f7f 	bic	r0, r0, #508	; 0x1fc
e0011298:	e3c00003 	bic	r0, r0, #3
e001129c:	e92d40f0 	push	{r4, r5, r6, r7, lr}
e00112a0:	e2801010 	add	r1, r0, #16
e00112a4:	e5902010 	ldr	r2, [r0, #16]
e00112a8:	e24dd00c 	sub	sp, sp, #12
e00112ac:	e202300e 	and	r3, r2, #14
e00112b0:	e353000e 	cmp	r3, #14
e00112b4:	1202300f 	andne	r3, r2, #15
e00112b8:	06ef3072 	uxtbeq	r3, r2
e00112bc:	e3530009 	cmp	r3, #9
e00112c0:	e59f3084 	ldr	r3, [pc, #132]	; e001134c <setVMRoot+0xb8>
e00112c4:	e3834018 	orr	r4, r3, #24
e00112c8:	0a000004 	beq	e00112e0 <setVMRoot+0x4c>
e00112cc:	f57ff04f 	dsb	sy
e00112d0:	ee024f10 	mcr	15, 0, r4, cr2, cr0, {0}
e00112d4:	f57ff06f 	isb	sy
e00112d8:	e28dd00c 	add	sp, sp, #12
e00112dc:	e8bd80f0 	pop	{r4, r5, r6, r7, pc}
e00112e0:	e3120010 	tst	r2, #16
e00112e4:	0afffff8 	beq	e00112cc <setVMRoot+0x38>
e00112e8:	e5917004 	ldr	r7, [r1, #4]
e00112ec:	e1a0000d 	mov	r0, sp
e00112f0:	e3c25dff 	bic	r5, r2, #16320	; 0x3fc0
e00112f4:	e7f07057 	ubfx	r7, r7, #0, #17
e00112f8:	e3c5503f 	bic	r5, r5, #63	; 0x3f
e00112fc:	e1a01007 	mov	r1, r7
e0011300:	ebfffe7c 	bl	e0010cf8 <findPDForASID>
e0011304:	e59d3000 	ldr	r3, [sp]
e0011308:	e3530000 	cmp	r3, #0
e001130c:	1affffee 	bne	e00112cc <setVMRoot+0x38>
e0011310:	e59d6004 	ldr	r6, [sp, #4]
e0011314:	e1560005 	cmp	r6, r5
e0011318:	1affffeb 	bne	e00112cc <setVMRoot+0x38>
e001131c:	e1a00007 	mov	r0, r7
e0011320:	ebffffc2 	bl	e0011230 <getHWASID>
e0011324:	f57ff04f 	dsb	sy
e0011328:	ee024f10 	mcr	15, 0, r4, cr2, cr0, {0}
e001132c:	f57ff06f 	isb	sy
e0011330:	ee0d0f30 	mcr	15, 0, r0, cr13, cr0, {1}
e0011334:	f57ff06f 	isb	sy
e0011338:	e2866203 	add	r6, r6, #805306368	; 0x30000000
e001133c:	e3866018 	orr	r6, r6, #24
e0011340:	ee026f10 	mcr	15, 0, r6, cr2, cr0, {0}
e0011344:	f57ff06f 	isb	sy
e0011348:	eaffffe2 	b	e00112d8 <setVMRoot+0x44>
e001134c:	10024000 	.word	0x10024000

e0011350 <Arch_switchToThread>:
e0011350:	e52de004 	push	{lr}		; (str lr, [sp, #-4]!)
e0011354:	e24dd00c 	sub	sp, sp, #12
e0011358:	ebffffcd 	bl	e0011294 <setVMRoot>
e001135c:	e28d3004 	add	r3, sp, #4
e0011360:	e1830f91 	strex	r0, r1, [r3]
e0011364:	e28dd00c 	add	sp, sp, #12
e0011368:	e49df004 	pop	{pc}		; (ldr pc, [sp], #4)

e001136c <Arch_switchToIdleThread>:
e001136c:	e3093010 	movw	r3, #36880	; 0x9010
e0011370:	e34e3002 	movt	r3, #57346	; 0xe002
e0011374:	e5930000 	ldr	r0, [r3]
e0011378:	eaffffc5 	b	e0011294 <setVMRoot>

e001137c <setVMRootForFlush>:
e001137c:	e303264c 	movw	r2, #13900	; 0x364c
e0011380:	e34e2003 	movt	r2, #57347	; 0xe003
e0011384:	e92d4010 	push	{r4, lr}
e0011388:	e1a04000 	mov	r4, r0
e001138c:	e5922000 	ldr	r2, [r2]
e0011390:	e3c22f7f 	bic	r2, r2, #508	; 0x1fc
e0011394:	e3c22003 	bic	r2, r2, #3
e0011398:	e5922010 	ldr	r2, [r2, #16]
e001139c:	e202000e 	and	r0, r2, #14
e00113a0:	e350000e 	cmp	r0, #14
e00113a4:	1202000f 	andne	r0, r2, #15
e00113a8:	06ef0072 	uxtbeq	r0, r2
e00113ac:	e3500009 	cmp	r0, #9
e00113b0:	1a000005 	bne	e00113cc <setVMRootForFlush+0x50>
e00113b4:	e3120010 	tst	r2, #16
e00113b8:	0a000003 	beq	e00113cc <setVMRootForFlush+0x50>
e00113bc:	e3c22dff 	bic	r2, r2, #16320	; 0x3fc0
e00113c0:	e3c2203f 	bic	r2, r2, #63	; 0x3f
e00113c4:	e1540002 	cmp	r4, r2
e00113c8:	0a000010 	beq	e0011410 <setVMRootForFlush+0x94>
e00113cc:	e1a00001 	mov	r0, r1
e00113d0:	ebffff96 	bl	e0011230 <getHWASID>
e00113d4:	f57ff04f 	dsb	sy
e00113d8:	e59f3038 	ldr	r3, [pc, #56]	; e0011418 <setVMRootForFlush+0x9c>
e00113dc:	e3833018 	orr	r3, r3, #24
e00113e0:	ee023f10 	mcr	15, 0, r3, cr2, cr0, {0}
e00113e4:	f57ff06f 	isb	sy
e00113e8:	ee0d0f30 	mcr	15, 0, r0, cr13, cr0, {1}
e00113ec:	f57ff06f 	isb	sy
e00113f0:	e2840203 	add	r0, r4, #805306368	; 0x30000000
e00113f4:	e3c00d7f 	bic	r0, r0, #8128	; 0x1fc0
e00113f8:	e3c0003f 	bic	r0, r0, #63	; 0x3f
e00113fc:	e3800018 	orr	r0, r0, #24
e0011400:	ee020f10 	mcr	15, 0, r0, cr2, cr0, {0}
e0011404:	f57ff06f 	isb	sy
e0011408:	e3a00001 	mov	r0, #1
e001140c:	e8bd8010 	pop	{r4, pc}
e0011410:	e3a00000 	mov	r0, #0
e0011414:	e8bd8010 	pop	{r4, pc}
e0011418:	10024000 	.word	0x10024000

e001141c <copyGlobalMappings>:
e001141c:	e3041000 	movw	r1, #16384	; 0x4000
e0011420:	e34e1002 	movt	r1, #57346	; 0xe002
e0011424:	e3a03c0e 	mov	r3, #3584	; 0xe00
e0011428:	e300cfff 	movw	ip, #4095	; 0xfff
e001142c:	e3530eff 	cmp	r3, #4080	; 0xff0
e0011430:	0a000003 	beq	e0011444 <copyGlobalMappings+0x28>
e0011434:	e7912103 	ldr	r2, [r1, r3, lsl #2]
e0011438:	e153000c 	cmp	r3, ip
e001143c:	e7802103 	str	r2, [r0, r3, lsl #2]
e0011440:	012fff1e 	bxeq	lr
e0011444:	e2833001 	add	r3, r3, #1
e0011448:	eafffff7 	b	e001142c <copyGlobalMappings+0x10>

e001144c <handleVMFault>:
e001144c:	e3510000 	cmp	r1, #0
e0011450:	0a00000c 	beq	e0011488 <handleVMFault+0x3c>
e0011454:	e3510001 	cmp	r1, #1
e0011458:	1a000014 	bne	e00114b0 <handleVMFault+0x64>
e001145c:	e5901044 	ldr	r1, [r0, #68]	; 0x44
e0011460:	ee150f30 	mrc	15, 0, r0, cr5, cr0, {1}
e0011464:	e3083000 	movw	r3, #32768	; 0x8000
e0011468:	e34e3002 	movt	r3, #57346	; 0xe002
e001146c:	e3a02005 	mov	r2, #5
e0011470:	e3402002 	movt	r2, #2
e0011474:	e1822900 	orr	r2, r2, r0, lsl #18
e0011478:	e5831004 	str	r1, [r3, #4]
e001147c:	e5832000 	str	r2, [r3]
e0011480:	e3a00001 	mov	r0, #1
e0011484:	e12fff1e 	bx	lr
e0011488:	ee161f10 	mrc	15, 0, r1, cr6, cr0, {0}
e001148c:	ee153f10 	mrc	15, 0, r3, cr5, cr0, {0}
e0011490:	e3082000 	movw	r2, #32768	; 0x8000
e0011494:	e34e2002 	movt	r2, #57346	; 0xe002
e0011498:	e1a03903 	lsl	r3, r3, #18
e001149c:	e3a00001 	mov	r0, #1
e00114a0:	e3833005 	orr	r3, r3, #5
e00114a4:	e5821004 	str	r1, [r2, #4]
e00114a8:	e5823000 	str	r3, [r2]
e00114ac:	e12fff1e 	bx	lr
e00114b0:	e92d4010 	push	{r4, lr}
e00114b4:	ebfffd60 	bl	e0010a3c <halt>

e00114b8 <flushPage>:
e00114b8:	e92d4070 	push	{r4, r5, r6, lr}
e00114bc:	e1a00001 	mov	r0, r1
e00114c0:	e1a04002 	mov	r4, r2
e00114c4:	e1a01002 	mov	r1, r2
e00114c8:	e1a05003 	mov	r5, r3
e00114cc:	ebffffaa 	bl	e001137c <setVMRootForFlush>
e00114d0:	e1a02524 	lsr	r2, r4, #10
e00114d4:	e30932c8 	movw	r3, #37576	; 0x92c8
e00114d8:	e34e3002 	movt	r3, #57346	; 0xe002
e00114dc:	e7e94054 	ubfx	r4, r4, #0, #10
e00114e0:	e7933102 	ldr	r3, [r3, r2, lsl #2]
e00114e4:	e7933104 	ldr	r3, [r3, r4, lsl #2]
e00114e8:	e2833a03 	add	r3, r3, #12288	; 0x3000
e00114ec:	e5932fc0 	ldr	r2, [r3, #4032]	; 0xfc0
e00114f0:	e3120502 	tst	r2, #8388608	; 0x800000
e00114f4:	08bd8070 	popeq	{r4, r5, r6, pc}
e00114f8:	f57ff04f 	dsb	sy
e00114fc:	e3c53eff 	bic	r3, r5, #4080	; 0xff0
e0011500:	e3c3300f 	bic	r3, r3, #15
e0011504:	e1833c22 	orr	r3, r3, r2, lsr #24
e0011508:	ee083f37 	mcr	15, 0, r3, cr8, cr7, {1}
e001150c:	f57ff04f 	dsb	sy
e0011510:	f57ff06f 	isb	sy
e0011514:	e3500000 	cmp	r0, #0
e0011518:	08bd8070 	popeq	{r4, r5, r6, pc}
e001151c:	e303364c 	movw	r3, #13900	; 0x364c
e0011520:	e34e3003 	movt	r3, #57347	; 0xe003
e0011524:	e8bd4070 	pop	{r4, r5, r6, lr}
e0011528:	e5930000 	ldr	r0, [r3]
e001152c:	eaffff58 	b	e0011294 <setVMRoot>

e0011530 <unmapPage>:
e0011530:	e92d41f0 	push	{r4, r5, r6, r7, r8, lr}
e0011534:	e24dd010 	sub	sp, sp, #16
e0011538:	e1a04000 	mov	r4, r0
e001153c:	e2838203 	add	r8, r3, #805306368	; 0x30000000
e0011540:	e1a0000d 	mov	r0, sp
e0011544:	e1a06002 	mov	r6, r2
e0011548:	e1a07001 	mov	r7, r1
e001154c:	ebfffde9 	bl	e0010cf8 <findPDForASID>
e0011550:	e89d0028 	ldm	sp, {r3, r5}
e0011554:	e3530000 	cmp	r3, #0
e0011558:	1a000075 	bne	e0011734 <unmapPage+0x204>
e001155c:	e3540003 	cmp	r4, #3
e0011560:	979ff104 	ldrls	pc, [pc, r4, lsl #2]
e0011564:	ea000074 	b	e001173c <unmapPage+0x20c>
e0011568:	e00116e8 	.word	0xe00116e8
e001156c:	e0011654 	.word	0xe0011654
e0011570:	e00115f8 	.word	0xe00115f8
e0011574:	e0011578 	.word	0xe0011578
e0011578:	e1a02a26 	lsr	r2, r6, #20
e001157c:	e7953102 	ldr	r3, [r5, r2, lsl #2]
e0011580:	e0852102 	add	r2, r5, r2, lsl #2
e0011584:	e2031003 	and	r1, r3, #3
e0011588:	e3510002 	cmp	r1, #2
e001158c:	1a000068 	bne	e0011734 <unmapPage+0x204>
e0011590:	e3130701 	tst	r3, #262144	; 0x40000
e0011594:	0a000066 	beq	e0011734 <unmapPage+0x204>
e0011598:	e1a03a23 	lsr	r3, r3, #20
e001159c:	e1a03a03 	lsl	r3, r3, #20
e00115a0:	e1580003 	cmp	r8, r3
e00115a4:	1a000062 	bne	e0011734 <unmapPage+0x204>
e00115a8:	e2423004 	sub	r3, r2, #4
e00115ac:	e282003c 	add	r0, r2, #60	; 0x3c
e00115b0:	e3a01000 	mov	r1, #0
e00115b4:	e5a31004 	str	r1, [r3, #4]!
e00115b8:	e1500003 	cmp	r0, r3
e00115bc:	1afffffc 	bne	e00115b4 <unmapPage+0x84>
e00115c0:	e282103f 	add	r1, r2, #63	; 0x3f
e00115c4:	e1a032a2 	lsr	r3, r2, #5
e00115c8:	e1a022a1 	lsr	r2, r1, #5
e00115cc:	e2822001 	add	r2, r2, #1
e00115d0:	e1520003 	cmp	r2, r3
e00115d4:	9a000017 	bls	e0011638 <unmapPage+0x108>
e00115d8:	e1a03283 	lsl	r3, r3, #5
e00115dc:	e1a02282 	lsl	r2, r2, #5
e00115e0:	ee073f3b 	mcr	15, 0, r3, cr7, cr11, {1}
e00115e4:	f57ff05f 	dmb	sy
e00115e8:	e2833020 	add	r3, r3, #32
e00115ec:	e1520003 	cmp	r2, r3
e00115f0:	1afffffa 	bne	e00115e0 <unmapPage+0xb0>
e00115f4:	ea00000f 	b	e0011638 <unmapPage+0x108>
e00115f8:	e1a02a26 	lsr	r2, r6, #20
e00115fc:	e7953102 	ldr	r3, [r5, r2, lsl #2]
e0011600:	e0850102 	add	r0, r5, r2, lsl #2
e0011604:	e2031003 	and	r1, r3, #3
e0011608:	e3510002 	cmp	r1, #2
e001160c:	1a000048 	bne	e0011734 <unmapPage+0x204>
e0011610:	e7e01953 	ubfx	r1, r3, #18, #1
e0011614:	e3510000 	cmp	r1, #0
e0011618:	1a000045 	bne	e0011734 <unmapPage+0x204>
e001161c:	e1a03a23 	lsr	r3, r3, #20
e0011620:	e1a03a03 	lsl	r3, r3, #20
e0011624:	e1580003 	cmp	r8, r3
e0011628:	1a000041 	bne	e0011734 <unmapPage+0x204>
e001162c:	e7851102 	str	r1, [r5, r2, lsl #2]
e0011630:	ee070f3b 	mcr	15, 0, r0, cr7, cr11, {1}
e0011634:	f57ff05f 	dmb	sy
e0011638:	e1a03006 	mov	r3, r6
e001163c:	e1a02007 	mov	r2, r7
e0011640:	e1a01005 	mov	r1, r5
e0011644:	e1a00004 	mov	r0, r4
e0011648:	e28dd010 	add	sp, sp, #16
e001164c:	e8bd41f0 	pop	{r4, r5, r6, r7, r8, lr}
e0011650:	eaffff98 	b	e00114b8 <flushPage>
e0011654:	e1a02006 	mov	r2, r6
e0011658:	e1a01005 	mov	r1, r5
e001165c:	e28d0008 	add	r0, sp, #8
e0011660:	ebfffe89 	bl	e001108c <lookupPTSlot>
e0011664:	e59d3008 	ldr	r3, [sp, #8]
e0011668:	e59d200c 	ldr	r2, [sp, #12]
e001166c:	e3530000 	cmp	r3, #0
e0011670:	1a00002f 	bne	e0011734 <unmapPage+0x204>
e0011674:	e5923000 	ldr	r3, [r2]
e0011678:	e7e010d3 	ubfx	r1, r3, #1, #1
e001167c:	e3510000 	cmp	r1, #0
e0011680:	1a00002b 	bne	e0011734 <unmapPage+0x204>
e0011684:	e3130001 	tst	r3, #1
e0011688:	0a000029 	beq	e0011734 <unmapPage+0x204>
e001168c:	e1a03823 	lsr	r3, r3, #16
e0011690:	e1a03803 	lsl	r3, r3, #16
e0011694:	e1580003 	cmp	r8, r3
e0011698:	1a000025 	bne	e0011734 <unmapPage+0x204>
e001169c:	e2423004 	sub	r3, r2, #4
e00116a0:	e282003c 	add	r0, r2, #60	; 0x3c
e00116a4:	e5a31004 	str	r1, [r3, #4]!
e00116a8:	e1500003 	cmp	r0, r3
e00116ac:	1afffffc 	bne	e00116a4 <unmapPage+0x174>
e00116b0:	e282103f 	add	r1, r2, #63	; 0x3f
e00116b4:	e1a032a2 	lsr	r3, r2, #5
e00116b8:	e1a022a1 	lsr	r2, r1, #5
e00116bc:	e2822001 	add	r2, r2, #1
e00116c0:	e1520003 	cmp	r2, r3
e00116c4:	9affffdb 	bls	e0011638 <unmapPage+0x108>
e00116c8:	e1a03283 	lsl	r3, r3, #5
e00116cc:	e1a02282 	lsl	r2, r2, #5
e00116d0:	ee073f3b 	mcr	15, 0, r3, cr7, cr11, {1}
e00116d4:	f57ff05f 	dmb	sy
e00116d8:	e2833020 	add	r3, r3, #32
e00116dc:	e1520003 	cmp	r2, r3
e00116e0:	1afffffa 	bne	e00116d0 <unmapPage+0x1a0>
e00116e4:	eaffffd3 	b	e0011638 <unmapPage+0x108>
e00116e8:	e1a02006 	mov	r2, r6
e00116ec:	e1a01005 	mov	r1, r5
e00116f0:	e28d0008 	add	r0, sp, #8
e00116f4:	ebfffe64 	bl	e001108c <lookupPTSlot>
e00116f8:	e59d1008 	ldr	r1, [sp, #8]
e00116fc:	e59d200c 	ldr	r2, [sp, #12]
e0011700:	e3510000 	cmp	r1, #0
e0011704:	1a00000a 	bne	e0011734 <unmapPage+0x204>
e0011708:	e5923000 	ldr	r3, [r2]
e001170c:	e3130002 	tst	r3, #2
e0011710:	0a000007 	beq	e0011734 <unmapPage+0x204>
e0011714:	e3c33eff 	bic	r3, r3, #4080	; 0xff0
e0011718:	e3c3300f 	bic	r3, r3, #15
e001171c:	e1580003 	cmp	r8, r3
e0011720:	1a000003 	bne	e0011734 <unmapPage+0x204>
e0011724:	e5821000 	str	r1, [r2]
e0011728:	ee072f3b 	mcr	15, 0, r2, cr7, cr11, {1}
e001172c:	f57ff05f 	dmb	sy
e0011730:	eaffffc0 	b	e0011638 <unmapPage+0x108>
e0011734:	e28dd010 	add	sp, sp, #16
e0011738:	e8bd81f0 	pop	{r4, r5, r6, r7, r8, pc}
e001173c:	ebfffcbe 	bl	e0010a3c <halt>

e0011740 <flushTable>:
e0011740:	e92d4010 	push	{r4, lr}
e0011744:	e1a04001 	mov	r4, r1
e0011748:	ebffff0b 	bl	e001137c <setVMRootForFlush>
e001174c:	e1a02524 	lsr	r2, r4, #10
e0011750:	e30932c8 	movw	r3, #37576	; 0x92c8
e0011754:	e34e3002 	movt	r3, #57346	; 0xe002
e0011758:	e7e94054 	ubfx	r4, r4, #0, #10
e001175c:	e7933102 	ldr	r3, [r3, r2, lsl #2]
e0011760:	e7933104 	ldr	r3, [r3, r4, lsl #2]
e0011764:	e2833a03 	add	r3, r3, #12288	; 0x3000
e0011768:	e5933fc0 	ldr	r3, [r3, #4032]	; 0xfc0
e001176c:	e3130502 	tst	r3, #8388608	; 0x800000
e0011770:	08bd8010 	popeq	{r4, pc}
e0011774:	f57ff04f 	dsb	sy
e0011778:	e1a03c23 	lsr	r3, r3, #24
e001177c:	ee083f57 	mcr	15, 0, r3, cr8, cr7, {2}
e0011780:	f57ff04f 	dsb	sy
e0011784:	f57ff06f 	isb	sy
e0011788:	e3500000 	cmp	r0, #0
e001178c:	08bd8010 	popeq	{r4, pc}
e0011790:	e303364c 	movw	r3, #13900	; 0x364c
e0011794:	e34e3003 	movt	r3, #57347	; 0xe003
e0011798:	e8bd4010 	pop	{r4, lr}
e001179c:	e5930000 	ldr	r0, [r3]
e00117a0:	eafffebb 	b	e0011294 <setVMRoot>

e00117a4 <unmapPageTable>:
e00117a4:	e92d4070 	push	{r4, r5, r6, lr}
e00117a8:	e1a06002 	mov	r6, r2
e00117ac:	e1a05000 	mov	r5, r0
e00117b0:	e1a04001 	mov	r4, r1
e00117b4:	ebfffe5e 	bl	e0011134 <pageTableMapped>
e00117b8:	e2502000 	subs	r2, r0, #0
e00117bc:	08bd8070 	popeq	{r4, r5, r6, pc}
e00117c0:	e1a01a24 	lsr	r1, r4, #20
e00117c4:	e3a03000 	mov	r3, #0
e00117c8:	e7823101 	str	r3, [r2, r1, lsl #2]
e00117cc:	e0822101 	add	r2, r2, r1, lsl #2
e00117d0:	ee072f3b 	mcr	15, 0, r2, cr7, cr11, {1}
e00117d4:	f57ff05f 	dmb	sy
e00117d8:	e1a03006 	mov	r3, r6
e00117dc:	e1a02004 	mov	r2, r4
e00117e0:	e1a01005 	mov	r1, r5
e00117e4:	e8bd4070 	pop	{r4, r5, r6, lr}
e00117e8:	eaffffd4 	b	e0011740 <flushTable>

e00117ec <invalidateTLBByASID>:
e00117ec:	e1a02520 	lsr	r2, r0, #10
e00117f0:	e30932c8 	movw	r3, #37576	; 0x92c8
e00117f4:	e34e3002 	movt	r3, #57346	; 0xe002
e00117f8:	e7e90050 	ubfx	r0, r0, #0, #10
e00117fc:	e7933102 	ldr	r3, [r3, r2, lsl #2]
e0011800:	e7933100 	ldr	r3, [r3, r0, lsl #2]
e0011804:	e2833a03 	add	r3, r3, #12288	; 0x3000
e0011808:	e5933fc0 	ldr	r3, [r3, #4032]	; 0xfc0
e001180c:	e3130502 	tst	r3, #8388608	; 0x800000
e0011810:	012fff1e 	bxeq	lr
e0011814:	f57ff04f 	dsb	sy
e0011818:	e1a03c23 	lsr	r3, r3, #24
e001181c:	ee083f57 	mcr	15, 0, r3, cr8, cr7, {2}
e0011820:	f57ff04f 	dsb	sy
e0011824:	f57ff06f 	isb	sy
e0011828:	e12fff1e 	bx	lr

e001182c <Arch_isFrameType>:
e001182c:	e2400005 	sub	r0, r0, #5
e0011830:	e3500003 	cmp	r0, #3
e0011834:	83a00000 	movhi	r0, #0
e0011838:	93a00001 	movls	r0, #1
e001183c:	e12fff1e 	bx	lr

e0011840 <Arch_deriveCap>:
e0011840:	e52de004 	push	{lr}		; (str lr, [sp, #-4]!)
e0011844:	e24dd00c 	sub	sp, sp, #12
e0011848:	e28d1008 	add	r1, sp, #8
e001184c:	e901000c 	stmdb	r1, {r2, r3}
e0011850:	e59d3000 	ldr	r3, [sp]
e0011854:	e59d1004 	ldr	r1, [sp, #4]
e0011858:	e203200e 	and	r2, r3, #14
e001185c:	e352000e 	cmp	r2, #14
e0011860:	1203200f 	andne	r2, r3, #15
e0011864:	06ef2073 	uxtbeq	r2, r3
e0011868:	e2422001 	sub	r2, r2, #1
e001186c:	e352000a 	cmp	r2, #10
e0011870:	979ff102 	ldrls	pc, [pc, r2, lsl #2]
e0011874:	ea000034 	b	e001194c <Arch_deriveCap+0x10c>
e0011878:	e001192c 	.word	0xe001192c
e001187c:	e001194c 	.word	0xe001194c
e0011880:	e0011908 	.word	0xe0011908
e0011884:	e001194c 	.word	0xe001194c
e0011888:	e00118f0 	.word	0xe00118f0
e001188c:	e001194c 	.word	0xe001194c
e0011890:	e00118dc 	.word	0xe00118dc
e0011894:	e001194c 	.word	0xe001194c
e0011898:	e00118a4 	.word	0xe00118a4
e001189c:	e001194c 	.word	0xe001194c
e00118a0:	e00118f0 	.word	0xe00118f0
e00118a4:	e7e02253 	ubfx	r2, r3, #4, #1
e00118a8:	e3520000 	cmp	r2, #0
e00118ac:	1a00000d 	bne	e00118e8 <Arch_deriveCap+0xa8>
e00118b0:	e3093020 	movw	r3, #36896	; 0x9020
e00118b4:	e34e3002 	movt	r3, #57346	; 0xe002
e00118b8:	e1a01002 	mov	r1, r2
e00118bc:	e3a0c003 	mov	ip, #3
e00118c0:	e1a0200c 	mov	r2, ip
e00118c4:	e583c018 	str	ip, [r3, #24]
e00118c8:	e1a03001 	mov	r3, r1
e00118cc:	e1c020f0 	strd	r2, [r0]
e00118d0:	e5801008 	str	r1, [r0, #8]
e00118d4:	e28dd00c 	add	sp, sp, #12
e00118d8:	e49df004 	pop	{pc}		; (ldr pc, [sp], #4)
e00118dc:	e7e02ed1 	ubfx	r2, r1, #29, #1
e00118e0:	e3520000 	cmp	r2, #0
e00118e4:	0afffff1 	beq	e00118b0 <Arch_deriveCap+0x70>
e00118e8:	e3a02000 	mov	r2, #0
e00118ec:	eafffff6 	b	e00118cc <Arch_deriveCap+0x8c>
e00118f0:	e5803004 	str	r3, [r0, #4]
e00118f4:	e3a03000 	mov	r3, #0
e00118f8:	e5801008 	str	r1, [r0, #8]
e00118fc:	e5803000 	str	r3, [r0]
e0011900:	e28dd00c 	add	sp, sp, #12
e0011904:	e49df004 	pop	{pc}		; (ldr pc, [sp], #4)
e0011908:	e3c115ff 	bic	r1, r1, #1069547520	; 0x3fc00000
e001190c:	e3c3357f 	bic	r3, r3, #532676608	; 0x1fc00000
e0011910:	e3c11603 	bic	r1, r1, #3145728	; 0x300000
e0011914:	e5803004 	str	r3, [r0, #4]
e0011918:	e5801008 	str	r1, [r0, #8]
e001191c:	e3a03000 	mov	r3, #0
e0011920:	e5803000 	str	r3, [r0]
e0011924:	e28dd00c 	add	sp, sp, #12
e0011928:	e49df004 	pop	{pc}		; (ldr pc, [sp], #4)
e001192c:	e3c3347f 	bic	r3, r3, #2130706432	; 0x7f000000
e0011930:	e7f51051 	ubfx	r1, r1, #0, #22
e0011934:	e5803004 	str	r3, [r0, #4]
e0011938:	e3a03000 	mov	r3, #0
e001193c:	e5801008 	str	r1, [r0, #8]
e0011940:	e5803000 	str	r3, [r0]
e0011944:	e28dd00c 	add	sp, sp, #12
e0011948:	e49df004 	pop	{pc}		; (ldr pc, [sp], #4)
e001194c:	ebfffc3a 	bl	e0010a3c <halt>

e0011950 <Arch_updateCapData>:
e0011950:	e24dd008 	sub	sp, sp, #8
e0011954:	e1a0c000 	mov	ip, r0
e0011958:	e24d2004 	sub	r2, sp, #4
e001195c:	e28dd008 	add	sp, sp, #8
e0011960:	e5a23008 	str	r3, [r2, #8]!
e0011964:	e8920003 	ldm	r2, {r0, r1}
e0011968:	e88c0003 	stm	ip, {r0, r1}
e001196c:	e1a0000c 	mov	r0, ip
e0011970:	e12fff1e 	bx	lr

e0011974 <Arch_maskCapRights>:
e0011974:	e92d4010 	push	{r4, lr}
e0011978:	e24dd008 	sub	sp, sp, #8
e001197c:	e28dc008 	add	ip, sp, #8
e0011980:	e90c000c 	stmdb	ip, {r2, r3}
e0011984:	e1a03000 	mov	r3, r0
e0011988:	e89d0014 	ldm	sp, {r2, r4}
e001198c:	e202000e 	and	r0, r2, #14
e0011990:	e350000e 	cmp	r0, #14
e0011994:	1202000f 	andne	r0, r2, #15
e0011998:	06ef0072 	uxtbeq	r0, r2
e001199c:	e3500001 	cmp	r0, #1
e00119a0:	0a000010 	beq	e00119e8 <Arch_maskCapRights+0x74>
e00119a4:	e3500003 	cmp	r0, #3
e00119a8:	0a000003 	beq	e00119bc <Arch_maskCapRights+0x48>
e00119ac:	e1a00003 	mov	r0, r3
e00119b0:	e8830014 	stm	r3, {r2, r4}
e00119b4:	e28dd008 	add	sp, sp, #8
e00119b8:	e8bd8010 	pop	{r4, pc}
e00119bc:	e7e10954 	ubfx	r0, r4, #18, #2
e00119c0:	e3c44703 	bic	r4, r4, #786432	; 0xc0000
e00119c4:	ebfffcbb 	bl	e0010cb8 <maskVMRights>
e00119c8:	e1a00900 	lsl	r0, r0, #18
e00119cc:	e5832000 	str	r2, [r3]
e00119d0:	e2000703 	and	r0, r0, #786432	; 0xc0000
e00119d4:	e1804004 	orr	r4, r0, r4
e00119d8:	e1a00003 	mov	r0, r3
e00119dc:	e5834004 	str	r4, [r3, #4]
e00119e0:	e28dd008 	add	sp, sp, #8
e00119e4:	e8bd8010 	pop	{r4, pc}
e00119e8:	e7e10a54 	ubfx	r0, r4, #20, #2
e00119ec:	e3c44603 	bic	r4, r4, #3145728	; 0x300000
e00119f0:	ebfffcb0 	bl	e0010cb8 <maskVMRights>
e00119f4:	e1a00a00 	lsl	r0, r0, #20
e00119f8:	e5832000 	str	r2, [r3]
e00119fc:	e2000603 	and	r0, r0, #3145728	; 0x300000
e0011a00:	e1804004 	orr	r4, r0, r4
e0011a04:	e1a00003 	mov	r0, r3
e0011a08:	e5834004 	str	r4, [r3, #4]
e0011a0c:	e28dd008 	add	sp, sp, #8
e0011a10:	e8bd8010 	pop	{r4, pc}

e0011a14 <Arch_sameRegionAs>:
e0011a14:	e92d4030 	push	{r4, r5, lr}
e0011a18:	e24dd014 	sub	sp, sp, #20
e0011a1c:	e28dc010 	add	ip, sp, #16
e0011a20:	e90c0003 	stmdb	ip, {r0, r1}
e0011a24:	e1a0000d 	mov	r0, sp
e0011a28:	e59d1008 	ldr	r1, [sp, #8]
e0011a2c:	e880000c 	stm	r0, {r2, r3}
e0011a30:	e1a00002 	mov	r0, r2
e0011a34:	e201300e 	and	r3, r1, #14
e0011a38:	e353000e 	cmp	r3, #14
e0011a3c:	1201200f 	andne	r2, r1, #15
e0011a40:	06ef2071 	uxtbeq	r2, r1
e0011a44:	e2423001 	sub	r3, r2, #1
e0011a48:	e353000a 	cmp	r3, #10
e0011a4c:	979ff103 	ldrls	pc, [pc, r3, lsl #2]
e0011a50:	ea00000a 	b	e0011a80 <Arch_sameRegionAs+0x6c>
e0011a54:	e0011ab0 	.word	0xe0011ab0
e0011a58:	e0011a80 	.word	0xe0011a80
e0011a5c:	e0011ab0 	.word	0xe0011ab0
e0011a60:	e0011a80 	.word	0xe0011a80
e0011a64:	e0011b94 	.word	0xe0011b94
e0011a68:	e0011a80 	.word	0xe0011a80
e0011a6c:	e0011bc4 	.word	0xe0011bc4
e0011a70:	e0011a80 	.word	0xe0011a80
e0011a74:	e0011c00 	.word	0xe0011c00
e0011a78:	e0011a80 	.word	0xe0011a80
e0011a7c:	e0011a8c 	.word	0xe0011a8c
e0011a80:	e3a00000 	mov	r0, #0
e0011a84:	e28dd014 	add	sp, sp, #20
e0011a88:	e8bd8030 	pop	{r4, r5, pc}
e0011a8c:	e200300e 	and	r3, r0, #14
e0011a90:	e353000e 	cmp	r3, #14
e0011a94:	1200000f 	andne	r0, r0, #15
e0011a98:	06ef0070 	uxtbeq	r0, r0
e0011a9c:	e240000b 	sub	r0, r0, #11
e0011aa0:	e16f0f10 	clz	r0, r0
e0011aa4:	e1a002a0 	lsr	r0, r0, #5
e0011aa8:	e28dd014 	add	sp, sp, #20
e0011aac:	e8bd8030 	pop	{r4, r5, pc}
e0011ab0:	e200300e 	and	r3, r0, #14
e0011ab4:	e353000e 	cmp	r3, #14
e0011ab8:	1200c00f 	andne	ip, r0, #15
e0011abc:	06efc070 	uxtbeq	ip, r0
e0011ac0:	e3cce002 	bic	lr, ip, #2
e0011ac4:	e35e0001 	cmp	lr, #1
e0011ac8:	1affffec 	bne	e0011a80 <Arch_sameRegionAs+0x6c>
e0011acc:	e3520001 	cmp	r2, #1
e0011ad0:	0a000060 	beq	e0011c58 <Arch_sameRegionAs+0x244>
e0011ad4:	e3520003 	cmp	r2, #3
e0011ad8:	1a000050 	bne	e0011c20 <Arch_sameRegionAs+0x20c>
e0011adc:	e35c0001 	cmp	ip, #1
e0011ae0:	e3a03903 	mov	r3, #49152	; 0xc000
e0011ae4:	e34f3fff 	movt	r3, #65535	; 0xffff
e0011ae8:	e59d400c 	ldr	r4, [sp, #12]
e0011aec:	e0031501 	and	r1, r3, r1, lsl #10
e0011af0:	0a000067 	beq	e0011c94 <Arch_sameRegionAs+0x280>
e0011af4:	e35c0003 	cmp	ip, #3
e0011af8:	00032500 	andeq	r2, r3, r0, lsl #10
e0011afc:	0a000067 	beq	e0011ca0 <Arch_sameRegionAs+0x28c>
e0011b00:	e16f0f11 	clz	r0, r1
e0011b04:	e59de004 	ldr	lr, [sp, #4]
e0011b08:	e3e05000 	mvn	r5, #0
e0011b0c:	e3a02000 	mov	r2, #0
e0011b10:	e1a002a0 	lsr	r0, r0, #5
e0011b14:	e1a04f24 	lsr	r4, r4, #30
e0011b18:	e3540002 	cmp	r4, #2
e0011b1c:	03a03601 	moveq	r3, #1048576	; 0x100000
e0011b20:	0a000005 	beq	e0011b3c <Arch_sameRegionAs+0x128>
e0011b24:	e3540003 	cmp	r4, #3
e0011b28:	03a03401 	moveq	r3, #16777216	; 0x1000000
e0011b2c:	0a000002 	beq	e0011b3c <Arch_sameRegionAs+0x128>
e0011b30:	e3540001 	cmp	r4, #1
e0011b34:	03a03801 	moveq	r3, #65536	; 0x10000
e0011b38:	13a03a01 	movne	r3, #4096	; 0x1000
e0011b3c:	e35c0003 	cmp	ip, #3
e0011b40:	e0811003 	add	r1, r1, r3
e0011b44:	e2411001 	sub	r1, r1, #1
e0011b48:	13a03a01 	movne	r3, #4096	; 0x1000
e0011b4c:	1a000009 	bne	e0011b78 <Arch_sameRegionAs+0x164>
e0011b50:	e1a0cf2e 	lsr	ip, lr, #30
e0011b54:	e35c0002 	cmp	ip, #2
e0011b58:	03a03601 	moveq	r3, #1048576	; 0x100000
e0011b5c:	0a000005 	beq	e0011b78 <Arch_sameRegionAs+0x164>
e0011b60:	e35c0003 	cmp	ip, #3
e0011b64:	03a03401 	moveq	r3, #16777216	; 0x1000000
e0011b68:	0a000002 	beq	e0011b78 <Arch_sameRegionAs+0x164>
e0011b6c:	e35c0001 	cmp	ip, #1
e0011b70:	03a03801 	moveq	r3, #65536	; 0x10000
e0011b74:	13a03a01 	movne	r3, #4096	; 0x1000
e0011b78:	e0833005 	add	r3, r3, r5
e0011b7c:	e1530001 	cmp	r3, r1
e0011b80:	91520003 	cmpls	r2, r3
e0011b84:	93a03001 	movls	r3, #1
e0011b88:	83a03000 	movhi	r3, #0
e0011b8c:	e0000003 	and	r0, r0, r3
e0011b90:	eaffffbb 	b	e0011a84 <Arch_sameRegionAs+0x70>
e0011b94:	e200300e 	and	r3, r0, #14
e0011b98:	e353000e 	cmp	r3, #14
e0011b9c:	1200300f 	andne	r3, r0, #15
e0011ba0:	06ef3070 	uxtbeq	r3, r0
e0011ba4:	e3530005 	cmp	r3, #5
e0011ba8:	1affffb4 	bne	e0011a80 <Arch_sameRegionAs+0x6c>
e0011bac:	e3c0000f 	bic	r0, r0, #15
e0011bb0:	e3c1100f 	bic	r1, r1, #15
e0011bb4:	e0400001 	sub	r0, r0, r1
e0011bb8:	e16f0f10 	clz	r0, r0
e0011bbc:	e1a002a0 	lsr	r0, r0, #5
e0011bc0:	eaffffaf 	b	e0011a84 <Arch_sameRegionAs+0x70>
e0011bc4:	e200300e 	and	r3, r0, #14
e0011bc8:	e353000e 	cmp	r3, #14
e0011bcc:	06ef3070 	uxtbeq	r3, r0
e0011bd0:	1200300f 	andne	r3, r0, #15
e0011bd4:	e3530007 	cmp	r3, #7
e0011bd8:	03a03b3f 	moveq	r3, #64512	; 0xfc00
e0011bdc:	1affffa7 	bne	e0011a80 <Arch_sameRegionAs+0x6c>
e0011be0:	e34f3fff 	movt	r3, #65535	; 0xffff
e0011be4:	e0000003 	and	r0, r0, r3
e0011be8:	e0011003 	and	r1, r1, r3
e0011bec:	e0400001 	sub	r0, r0, r1
e0011bf0:	e16f0f10 	clz	r0, r0
e0011bf4:	e1a002a0 	lsr	r0, r0, #5
e0011bf8:	e28dd014 	add	sp, sp, #20
e0011bfc:	e8bd8030 	pop	{r4, r5, pc}
e0011c00:	e200300e 	and	r3, r0, #14
e0011c04:	e353000e 	cmp	r3, #14
e0011c08:	1200300f 	andne	r3, r0, #15
e0011c0c:	06ef3070 	uxtbeq	r3, r0
e0011c10:	e3530009 	cmp	r3, #9
e0011c14:	1affff99 	bne	e0011a80 <Arch_sameRegionAs+0x6c>
e0011c18:	e3a03903 	mov	r3, #49152	; 0xc000
e0011c1c:	eaffffef 	b	e0011be0 <Arch_sameRegionAs+0x1cc>
e0011c20:	e35c0001 	cmp	ip, #1
e0011c24:	0a000023 	beq	e0011cb8 <Arch_sameRegionAs+0x2a4>
e0011c28:	e35c0003 	cmp	ip, #3
e0011c2c:	1a00003a 	bne	e0011d1c <Arch_sameRegionAs+0x308>
e0011c30:	e3a03903 	mov	r3, #49152	; 0xc000
e0011c34:	e34f3fff 	movt	r3, #65535	; 0xffff
e0011c38:	e0032500 	and	r2, r3, r0, lsl #10
e0011c3c:	e1a0000e 	mov	r0, lr
e0011c40:	e59de004 	ldr	lr, [sp, #4]
e0011c44:	e2425001 	sub	r5, r2, #1
e0011c48:	e3a01000 	mov	r1, #0
e0011c4c:	e2811eff 	add	r1, r1, #4080	; 0xff0
e0011c50:	e281100f 	add	r1, r1, #15
e0011c54:	eaffffbd 	b	e0011b50 <Arch_sameRegionAs+0x13c>
e0011c58:	e35c0001 	cmp	ip, #1
e0011c5c:	e3a03a0f 	mov	r3, #61440	; 0xf000
e0011c60:	e34f3fff 	movt	r3, #65535	; 0xffff
e0011c64:	e0031401 	and	r1, r3, r1, lsl #8
e0011c68:	0a000025 	beq	e0011d04 <Arch_sameRegionAs+0x2f0>
e0011c6c:	e35c0003 	cmp	ip, #3
e0011c70:	0a00001a 	beq	e0011ce0 <Arch_sameRegionAs+0x2cc>
e0011c74:	e16f0f11 	clz	r0, r1
e0011c78:	e2811eff 	add	r1, r1, #4080	; 0xff0
e0011c7c:	e281100f 	add	r1, r1, #15
e0011c80:	e3e05000 	mvn	r5, #0
e0011c84:	e1a002a0 	lsr	r0, r0, #5
e0011c88:	e3a03a01 	mov	r3, #4096	; 0x1000
e0011c8c:	e3a02000 	mov	r2, #0
e0011c90:	eaffffb8 	b	e0011b78 <Arch_sameRegionAs+0x164>
e0011c94:	e3a03a0f 	mov	r3, #61440	; 0xf000
e0011c98:	e34f3fff 	movt	r3, #65535	; 0xffff
e0011c9c:	e0032400 	and	r2, r3, r0, lsl #8
e0011ca0:	e1510002 	cmp	r1, r2
e0011ca4:	e59de004 	ldr	lr, [sp, #4]
e0011ca8:	e2425001 	sub	r5, r2, #1
e0011cac:	83a00000 	movhi	r0, #0
e0011cb0:	93a00001 	movls	r0, #1
e0011cb4:	eaffff96 	b	e0011b14 <Arch_sameRegionAs+0x100>
e0011cb8:	e3a03a0f 	mov	r3, #61440	; 0xf000
e0011cbc:	e34f3fff 	movt	r3, #65535	; 0xffff
e0011cc0:	e0032400 	and	r2, r3, r0, lsl #8
e0011cc4:	e3a01000 	mov	r1, #0
e0011cc8:	e2425001 	sub	r5, r2, #1
e0011ccc:	e1a0000c 	mov	r0, ip
e0011cd0:	e2811eff 	add	r1, r1, #4080	; 0xff0
e0011cd4:	e3a03a01 	mov	r3, #4096	; 0x1000
e0011cd8:	e281100f 	add	r1, r1, #15
e0011cdc:	eaffffa5 	b	e0011b78 <Arch_sameRegionAs+0x164>
e0011ce0:	e3a03903 	mov	r3, #49152	; 0xc000
e0011ce4:	e34f3fff 	movt	r3, #65535	; 0xffff
e0011ce8:	e0032500 	and	r2, r3, r0, lsl #10
e0011cec:	e59de004 	ldr	lr, [sp, #4]
e0011cf0:	e1510002 	cmp	r1, r2
e0011cf4:	e2425001 	sub	r5, r2, #1
e0011cf8:	83a00000 	movhi	r0, #0
e0011cfc:	93a00001 	movls	r0, #1
e0011d00:	eaffffd1 	b	e0011c4c <Arch_sameRegionAs+0x238>
e0011d04:	e0032400 	and	r2, r3, r0, lsl #8
e0011d08:	e1510002 	cmp	r1, r2
e0011d0c:	e2425001 	sub	r5, r2, #1
e0011d10:	83a00000 	movhi	r0, #0
e0011d14:	93a00001 	movls	r0, #1
e0011d18:	eaffffec 	b	e0011cd0 <Arch_sameRegionAs+0x2bc>
e0011d1c:	e3a01000 	mov	r1, #0
e0011d20:	e1a0000e 	mov	r0, lr
e0011d24:	e1a02001 	mov	r2, r1
e0011d28:	e59de004 	ldr	lr, [sp, #4]
e0011d2c:	e3e05000 	mvn	r5, #0
e0011d30:	e3a03a01 	mov	r3, #4096	; 0x1000
e0011d34:	eaffff80 	b	e0011b3c <Arch_sameRegionAs+0x128>

e0011d38 <Arch_sameObjectAs>:
e0011d38:	e52de004 	push	{lr}		; (str lr, [sp, #-4]!)
e0011d3c:	e24dd014 	sub	sp, sp, #20
e0011d40:	e28dc008 	add	ip, sp, #8
e0011d44:	e1a0e00d 	mov	lr, sp
e0011d48:	e88e000c 	stm	lr, {r2, r3}
e0011d4c:	e200200e 	and	r2, r0, #14
e0011d50:	e352000e 	cmp	r2, #14
e0011d54:	e88c0003 	stm	ip, {r0, r1}
e0011d58:	1200200f 	andne	r2, r0, #15
e0011d5c:	06ef2070 	uxtbeq	r2, r0
e0011d60:	e3520001 	cmp	r2, #1
e0011d64:	e1a01000 	mov	r1, r0
e0011d68:	e59d3000 	ldr	r3, [sp]
e0011d6c:	0a000011 	beq	e0011db8 <Arch_sameObjectAs+0x80>
e0011d70:	e3520003 	cmp	r2, #3
e0011d74:	0a000004 	beq	e0011d8c <Arch_sameObjectAs+0x54>
e0011d78:	e89e000c 	ldm	lr, {r2, r3}
e0011d7c:	e89c0003 	ldm	ip, {r0, r1}
e0011d80:	e28dd014 	add	sp, sp, #20
e0011d84:	e49de004 	pop	{lr}		; (ldr lr, [sp], #4)
e0011d88:	eaffff21 	b	e0011a14 <Arch_sameRegionAs>
e0011d8c:	e203200e 	and	r2, r3, #14
e0011d90:	e352000e 	cmp	r2, #14
e0011d94:	1203200f 	andne	r2, r3, #15
e0011d98:	06ef2073 	uxtbeq	r2, r3
e0011d9c:	e3520003 	cmp	r2, #3
e0011da0:	0a00000d 	beq	e0011ddc <Arch_sameObjectAs+0xa4>
e0011da4:	e3520001 	cmp	r2, #1
e0011da8:	1afffff2 	bne	e0011d78 <Arch_sameObjectAs+0x40>
e0011dac:	e3a00000 	mov	r0, #0
e0011db0:	e28dd014 	add	sp, sp, #20
e0011db4:	e49df004 	pop	{pc}		; (ldr pc, [sp], #4)
e0011db8:	e203200e 	and	r2, r3, #14
e0011dbc:	e352000e 	cmp	r2, #14
e0011dc0:	1203200f 	andne	r2, r3, #15
e0011dc4:	06ef2073 	uxtbeq	r2, r3
e0011dc8:	e3520001 	cmp	r2, #1
e0011dcc:	0a000013 	beq	e0011e20 <Arch_sameObjectAs+0xe8>
e0011dd0:	e3520003 	cmp	r2, #3
e0011dd4:	1affffe7 	bne	e0011d78 <Arch_sameObjectAs+0x40>
e0011dd8:	eafffff3 	b	e0011dac <Arch_sameObjectAs+0x74>
e0011ddc:	e3a02903 	mov	r2, #49152	; 0xc000
e0011de0:	e34f2fff 	movt	r2, #65535	; 0xffff
e0011de4:	e0020503 	and	r0, r2, r3, lsl #10
e0011de8:	e0022501 	and	r2, r2, r1, lsl #10
e0011dec:	e1500002 	cmp	r0, r2
e0011df0:	1affffed 	bne	e0011dac <Arch_sameObjectAs+0x74>
e0011df4:	e59d200c 	ldr	r2, [sp, #12]
e0011df8:	e59d0004 	ldr	r0, [sp, #4]
e0011dfc:	e1a02f22 	lsr	r2, r2, #30
e0011e00:	e1520f20 	cmp	r2, r0, lsr #30
e0011e04:	1affffe8 	bne	e0011dac <Arch_sameObjectAs+0x74>
e0011e08:	e1e00ea3 	mvn	r0, r3, lsr #29
e0011e0c:	e7e02ed1 	ubfx	r2, r1, #29, #1
e0011e10:	e2000001 	and	r0, r0, #1
e0011e14:	e0500002 	subs	r0, r0, r2
e0011e18:	13a00001 	movne	r0, #1
e0011e1c:	eaffffe3 	b	e0011db0 <Arch_sameObjectAs+0x78>
e0011e20:	e3a02a0f 	mov	r2, #61440	; 0xf000
e0011e24:	e34f2fff 	movt	r2, #65535	; 0xffff
e0011e28:	e0020403 	and	r0, r2, r3, lsl #8
e0011e2c:	e0022401 	and	r2, r2, r1, lsl #8
e0011e30:	e1500002 	cmp	r0, r2
e0011e34:	1affffdc 	bne	e0011dac <Arch_sameObjectAs+0x74>
e0011e38:	e1a03fa3 	lsr	r3, r3, #31
e0011e3c:	e2233001 	eor	r3, r3, #1
e0011e40:	e1530fa1 	cmp	r3, r1, lsr #31
e0011e44:	13a00001 	movne	r0, #1
e0011e48:	03a00000 	moveq	r0, #0
e0011e4c:	eaffffd7 	b	e0011db0 <Arch_sameObjectAs+0x78>

e0011e50 <Arch_getObjectSize>:
e0011e50:	e2400005 	sub	r0, r0, #5
e0011e54:	e3500005 	cmp	r0, #5
e0011e58:	979ff100 	ldrls	pc, [pc, r0, lsl #2]
e0011e5c:	ea000011 	b	e0011ea8 <Arch_getObjectSize+0x58>
e0011e60:	e0011e80 	.word	0xe0011e80
e0011e64:	e0011e88 	.word	0xe0011e88
e0011e68:	e0011e90 	.word	0xe0011e90
e0011e6c:	e0011e98 	.word	0xe0011e98
e0011e70:	e0011ea0 	.word	0xe0011ea0
e0011e74:	e0011e78 	.word	0xe0011e78
e0011e78:	e3a0000e 	mov	r0, #14
e0011e7c:	e12fff1e 	bx	lr
e0011e80:	e3a0000c 	mov	r0, #12
e0011e84:	e12fff1e 	bx	lr
e0011e88:	e3a00010 	mov	r0, #16
e0011e8c:	e12fff1e 	bx	lr
e0011e90:	e3a00014 	mov	r0, #20
e0011e94:	e12fff1e 	bx	lr
e0011e98:	e3a00018 	mov	r0, #24
e0011e9c:	e12fff1e 	bx	lr
e0011ea0:	e3a0000a 	mov	r0, #10
e0011ea4:	e12fff1e 	bx	lr
e0011ea8:	e92d4010 	push	{r4, lr}
e0011eac:	ebfffae2 	bl	e0010a3c <halt>

e0011eb0 <Arch_createObject>:
e0011eb0:	e2411005 	sub	r1, r1, #5
e0011eb4:	e92d4010 	push	{r4, lr}
e0011eb8:	e3510005 	cmp	r1, #5
e0011ebc:	979ff101 	ldrls	pc, [pc, r1, lsl #2]
e0011ec0:	ea000060 	b	e0012048 <Arch_createObject+0x198>
e0011ec4:	e0011f60 	.word	0xe0011f60
e0011ec8:	e0011f90 	.word	0xe0011f90
e0011ecc:	e0011fc4 	.word	0xe0011fc4
e0011ed0:	e0011ff8 	.word	0xe0011ff8
e0011ed4:	e001202c 	.word	0xe001202c
e0011ed8:	e0011edc 	.word	0xe0011edc
e0011edc:	e304c000 	movw	ip, #16384	; 0x4000
e0011ee0:	e3a03c0e 	mov	r3, #3584	; 0xe00
e0011ee4:	e34ec002 	movt	ip, #57346	; 0xe002
e0011ee8:	e300efff 	movw	lr, #4095	; 0xfff
e0011eec:	ea000000 	b	e0011ef4 <Arch_createObject+0x44>
e0011ef0:	e2833001 	add	r3, r3, #1
e0011ef4:	e3530eff 	cmp	r3, #4080	; 0xff0
e0011ef8:	0afffffc 	beq	e0011ef0 <Arch_createObject+0x40>
e0011efc:	e79c1103 	ldr	r1, [ip, r3, lsl #2]
e0011f00:	e153000e 	cmp	r3, lr
e0011f04:	e7821103 	str	r1, [r2, r3, lsl #2]
e0011f08:	1afffff8 	bne	e0011ef0 <Arch_createObject+0x40>
e0011f0c:	e2821dff 	add	r1, r2, #16320	; 0x3fc0
e0011f10:	e1a032a2 	lsr	r3, r2, #5
e0011f14:	e281103f 	add	r1, r1, #63	; 0x3f
e0011f18:	e1a012a1 	lsr	r1, r1, #5
e0011f1c:	e2811001 	add	r1, r1, #1
e0011f20:	e1530001 	cmp	r3, r1
e0011f24:	2a000006 	bcs	e0011f44 <Arch_createObject+0x94>
e0011f28:	e1a03283 	lsl	r3, r3, #5
e0011f2c:	e1a01281 	lsl	r1, r1, #5
e0011f30:	ee073f3b 	mcr	15, 0, r3, cr7, cr11, {1}
e0011f34:	f57ff05f 	dmb	sy
e0011f38:	e2833020 	add	r3, r3, #32
e0011f3c:	e1510003 	cmp	r1, r3
e0011f40:	1afffffa 	bne	e0011f30 <Arch_createObject+0x80>
e0011f44:	e3c22dff 	bic	r2, r2, #16320	; 0x3fc0
e0011f48:	e3a03000 	mov	r3, #0
e0011f4c:	e3c2203f 	bic	r2, r2, #63	; 0x3f
e0011f50:	e5803004 	str	r3, [r0, #4]
e0011f54:	e3822009 	orr	r2, r2, #9
e0011f58:	e5802000 	str	r2, [r0]
e0011f5c:	e8bd8010 	pop	{r4, pc}
e0011f60:	e30f3ff0 	movw	r3, #65520	; 0xfff0
e0011f64:	e34030ff 	movt	r3, #255	; 0xff
e0011f68:	e0033422 	and	r3, r3, r2, lsr #8
e0011f6c:	e59d2008 	ldr	r2, [sp, #8]
e0011f70:	e3520000 	cmp	r2, #0
e0011f74:	13a02106 	movne	r2, #-2147483647	; 0x80000001
e0011f78:	03a02001 	moveq	r2, #1
e0011f7c:	e1823003 	orr	r3, r2, r3
e0011f80:	e3a02603 	mov	r2, #3145728	; 0x300000
e0011f84:	e5803000 	str	r3, [r0]
e0011f88:	e5802004 	str	r2, [r0, #4]
e0011f8c:	e8bd8010 	pop	{r4, pc}
e0011f90:	e30f3ff0 	movw	r3, #65520	; 0xfff0
e0011f94:	e340303f 	movt	r3, #63	; 0x3f
e0011f98:	e0033522 	and	r3, r3, r2, lsr #10
e0011f9c:	e59d2008 	ldr	r2, [sp, #8]
e0011fa0:	e3520000 	cmp	r2, #0
e0011fa4:	13a02232 	movne	r2, #536870915	; 0x20000003
e0011fa8:	03a02003 	moveq	r2, #3
e0011fac:	e1823003 	orr	r3, r2, r3
e0011fb0:	e3a02000 	mov	r2, #0
e0011fb4:	e5803000 	str	r3, [r0]
e0011fb8:	e344200c 	movt	r2, #16396	; 0x400c
e0011fbc:	e5802004 	str	r2, [r0, #4]
e0011fc0:	e8bd8010 	pop	{r4, pc}
e0011fc4:	e30f3ff0 	movw	r3, #65520	; 0xfff0
e0011fc8:	e340303f 	movt	r3, #63	; 0x3f
e0011fcc:	e0033522 	and	r3, r3, r2, lsr #10
e0011fd0:	e59d2008 	ldr	r2, [sp, #8]
e0011fd4:	e3520000 	cmp	r2, #0
e0011fd8:	13a02232 	movne	r2, #536870915	; 0x20000003
e0011fdc:	03a02003 	moveq	r2, #3
e0011fe0:	e1823003 	orr	r3, r2, r3
e0011fe4:	e3a02000 	mov	r2, #0
e0011fe8:	e5803000 	str	r3, [r0]
e0011fec:	e348200c 	movt	r2, #32780	; 0x800c
e0011ff0:	e5802004 	str	r2, [r0, #4]
e0011ff4:	e8bd8010 	pop	{r4, pc}
e0011ff8:	e30f3ff0 	movw	r3, #65520	; 0xfff0
e0011ffc:	e340303f 	movt	r3, #63	; 0x3f
e0012000:	e0032522 	and	r2, r3, r2, lsr #10
e0012004:	e59d3008 	ldr	r3, [sp, #8]
e0012008:	e3530000 	cmp	r3, #0
e001200c:	13a03232 	movne	r3, #536870915	; 0x20000003
e0012010:	03a03003 	moveq	r3, #3
e0012014:	e1833002 	orr	r3, r3, r2
e0012018:	e3a02000 	mov	r2, #0
e001201c:	e5803000 	str	r3, [r0]
e0012020:	e34c200c 	movt	r2, #49164	; 0xc00c
e0012024:	e5802004 	str	r2, [r0, #4]
e0012028:	e8bd8010 	pop	{r4, pc}
e001202c:	e3c22fff 	bic	r2, r2, #1020	; 0x3fc
e0012030:	e3a03000 	mov	r3, #0
e0012034:	e3c22003 	bic	r2, r2, #3
e0012038:	e5803004 	str	r3, [r0, #4]
e001203c:	e3822007 	orr	r2, r2, #7
e0012040:	e5802000 	str	r2, [r0]
e0012044:	e8bd8010 	pop	{r4, pc}
e0012048:	ebfffa7b 	bl	e0010a3c <halt>

e001204c <Arch_prepareThreadDelete>:
e001204c:	e12fff1e 	bx	lr

e0012050 <Arch_handleFaultReply>:
e0012050:	e3520005 	cmp	r2, #5
e0012054:	1a000001 	bne	e0012060 <Arch_handleFaultReply+0x10>
e0012058:	e3a00001 	mov	r0, #1
e001205c:	e12fff1e 	bx	lr
e0012060:	e92d4010 	push	{r4, lr}
e0012064:	ebfffa74 	bl	e0010a3c <halt>

e0012068 <Arch_setMRs_fault>:
e0012068:	e3530005 	cmp	r3, #5
e001206c:	1a00000b 	bne	e00120a0 <Arch_setMRs_fault+0x38>
e0012070:	e5903044 	ldr	r3, [r0, #68]	; 0x44
e0012074:	e5813008 	str	r3, [r1, #8]
e0012078:	e5903064 	ldr	r3, [r0, #100]	; 0x64
e001207c:	e581300c 	str	r3, [r1, #12]
e0012080:	e5903060 	ldr	r3, [r0, #96]	; 0x60
e0012084:	e7e038d3 	ubfx	r3, r3, #17, #1
e0012088:	e5813010 	str	r3, [r1, #16]
e001208c:	e5903060 	ldr	r3, [r0, #96]	; 0x60
e0012090:	e3a00004 	mov	r0, #4
e0012094:	e1a03923 	lsr	r3, r3, #18
e0012098:	e5813014 	str	r3, [r1, #20]
e001209c:	e12fff1e 	bx	lr
e00120a0:	e92d4010 	push	{r4, lr}
e00120a4:	ebfffa64 	bl	e0010a3c <halt>

e00120a8 <clean_D_PoU>:
e00120a8:	e92d4ff0 	push	{r4, r5, r6, r7, r8, r9, sl, fp, lr}
e00120ac:	ee30bf30 	mrc	15, 1, fp, cr0, cr0, {1}
e00120b0:	e7e2addb 	ubfx	sl, fp, #27, #3
e00120b4:	e35a0000 	cmp	sl, #0
e00120b8:	08bd8ff0 	popeq	{r4, r5, r6, r7, r8, r9, sl, fp, pc}
e00120bc:	e3a06000 	mov	r6, #0
e00120c0:	e1a0a08a 	lsl	sl, sl, #1
e00120c4:	e1a09006 	mov	r9, r6
e00120c8:	e1a0395b 	asr	r3, fp, r9
e00120cc:	e2033007 	and	r3, r3, #7
e00120d0:	e3530001 	cmp	r3, #1
e00120d4:	9a00001c 	bls	e001214c <clean_D_PoU+0xa4>
e00120d8:	ee503f10 	mrc	15, 2, r3, cr0, cr0, {0}
e00120dc:	ee406f10 	mcr	15, 2, r6, cr0, cr0, {0}
e00120e0:	ee300f10 	mrc	15, 1, r0, cr0, cr0, {0}
e00120e4:	ee403f10 	mcr	15, 2, r3, cr0, cr0, {0}
e00120e8:	e7e951d0 	ubfx	r5, r0, #3, #10
e00120ec:	e200e007 	and	lr, r0, #7
e00120f0:	e3a03001 	mov	r3, #1
e00120f4:	e16f7f15 	clz	r7, r5
e00120f8:	e28ee004 	add	lr, lr, #4
e00120fc:	e7ee06d0 	ubfx	r0, r0, #13, #15
e0012100:	e3a04000 	mov	r4, #0
e0012104:	e1a07713 	lsl	r7, r3, r7
e0012108:	e0855003 	add	r5, r5, r3
e001210c:	e1a0ee13 	lsl	lr, r3, lr
e0012110:	e0800003 	add	r0, r0, r3
e0012114:	e1a08004 	mov	r8, r4
e0012118:	e3a03000 	mov	r3, #0
e001211c:	e184c006 	orr	ip, r4, r6
e0012120:	e1a02003 	mov	r2, r3
e0012124:	e183100c 	orr	r1, r3, ip
e0012128:	ee071f5a 	mcr	15, 0, r1, cr7, cr10, {2}
e001212c:	e2822001 	add	r2, r2, #1
e0012130:	e083300e 	add	r3, r3, lr
e0012134:	e1500002 	cmp	r0, r2
e0012138:	cafffff9 	bgt	e0012124 <clean_D_PoU+0x7c>
e001213c:	e2888001 	add	r8, r8, #1
e0012140:	e0844007 	add	r4, r4, r7
e0012144:	e1550008 	cmp	r5, r8
e0012148:	cafffff2 	bgt	e0012118 <clean_D_PoU+0x70>
e001214c:	e2866002 	add	r6, r6, #2
e0012150:	e2899003 	add	r9, r9, #3
e0012154:	e156000a 	cmp	r6, sl
e0012158:	1affffda 	bne	e00120c8 <clean_D_PoU+0x20>
e001215c:	e8bd8ff0 	pop	{r4, r5, r6, r7, r8, r9, sl, fp, pc}

e0012160 <flushSpace>:
e0012160:	e1a02520 	lsr	r2, r0, #10
e0012164:	e30932c8 	movw	r3, #37576	; 0x92c8
e0012168:	e34e3002 	movt	r3, #57346	; 0xe002
e001216c:	e7e90050 	ubfx	r0, r0, #0, #10
e0012170:	e92d4010 	push	{r4, lr}
e0012174:	e7933102 	ldr	r3, [r3, r2, lsl #2]
e0012178:	e7933100 	ldr	r3, [r3, r0, lsl #2]
e001217c:	e2833a03 	add	r3, r3, #12288	; 0x3000
e0012180:	e5934fc0 	ldr	r4, [r3, #4032]	; 0xfc0
e0012184:	f57ff04f 	dsb	sy
e0012188:	ebffffc6 	bl	e00120a8 <clean_D_PoU>
e001218c:	f57ff04f 	dsb	sy
e0012190:	e3a03000 	mov	r3, #0
e0012194:	ee073f15 	mcr	15, 0, r3, cr7, cr5, {0}
e0012198:	f57ff06f 	isb	sy
e001219c:	f57ff04f 	dsb	sy
e00121a0:	e3140502 	tst	r4, #8388608	; 0x800000
e00121a4:	08bd8010 	popeq	{r4, pc}
e00121a8:	f57ff04f 	dsb	sy
e00121ac:	e1a04c24 	lsr	r4, r4, #24
e00121b0:	ee084f57 	mcr	15, 0, r4, cr8, cr7, {2}
e00121b4:	f57ff04f 	dsb	sy
e00121b8:	f57ff06f 	isb	sy
e00121bc:	e8bd8010 	pop	{r4, pc}

e00121c0 <deleteASIDPool>:
e00121c0:	e92d47f0 	push	{r4, r5, r6, r7, r8, r9, sl, lr}
e00121c4:	e30982c8 	movw	r8, #37576	; 0x92c8
e00121c8:	e1a0a520 	lsr	sl, r0, #10
e00121cc:	e34e8002 	movt	r8, #57346	; 0xe002
e00121d0:	e798510a 	ldr	r5, [r8, sl, lsl #2]
e00121d4:	e1550001 	cmp	r5, r1
e00121d8:	18bd87f0 	popne	{r4, r5, r6, r7, r8, r9, sl, pc}
e00121dc:	e2856eff 	add	r6, r5, #4080	; 0xff0
e00121e0:	e3039248 	movw	r9, #12872	; 0x3248
e00121e4:	e2455004 	sub	r5, r5, #4
e00121e8:	e286600c 	add	r6, r6, #12
e00121ec:	e34e9003 	movt	r9, #57347	; 0xe003
e00121f0:	e1a04000 	mov	r4, r0
e00121f4:	e3a07000 	mov	r7, #0
e00121f8:	e5b53004 	ldr	r3, [r5, #4]!
e00121fc:	e1a00004 	mov	r0, r4
e0012200:	e3530000 	cmp	r3, #0
e0012204:	0a00000a 	beq	e0012234 <deleteASIDPool+0x74>
e0012208:	ebffffd4 	bl	e0012160 <flushSpace>
e001220c:	e1a02524 	lsr	r2, r4, #10
e0012210:	e7e93054 	ubfx	r3, r4, #0, #10
e0012214:	e7982102 	ldr	r2, [r8, r2, lsl #2]
e0012218:	e7923103 	ldr	r3, [r2, r3, lsl #2]
e001221c:	e2833a03 	add	r3, r3, #12288	; 0x3000
e0012220:	e5932fc0 	ldr	r2, [r3, #4032]	; 0xfc0
e0012224:	e5837fc0 	str	r7, [r3, #4032]	; 0xfc0
e0012228:	e3120502 	tst	r2, #8388608	; 0x800000
e001222c:	e1a02c22 	lsr	r2, r2, #24
e0012230:	17897102 	strne	r7, [r9, r2, lsl #2]
e0012234:	e1550006 	cmp	r5, r6
e0012238:	e2844001 	add	r4, r4, #1
e001223c:	1affffed 	bne	e00121f8 <deleteASIDPool+0x38>
e0012240:	e303364c 	movw	r3, #13900	; 0x364c
e0012244:	e34e3003 	movt	r3, #57347	; 0xe003
e0012248:	e3a02000 	mov	r2, #0
e001224c:	e788210a 	str	r2, [r8, sl, lsl #2]
e0012250:	e5930000 	ldr	r0, [r3]
e0012254:	e8bd47f0 	pop	{r4, r5, r6, r7, r8, r9, sl, lr}
e0012258:	eafffc0d 	b	e0011294 <setVMRoot>

e001225c <deleteASID>:
e001225c:	e92d41f0 	push	{r4, r5, r6, r7, r8, lr}
e0012260:	e30942c8 	movw	r4, #37576	; 0x92c8
e0012264:	e1a07520 	lsr	r7, r0, #10
e0012268:	e34e4002 	movt	r4, #57346	; 0xe002
e001226c:	e7946107 	ldr	r6, [r4, r7, lsl #2]
e0012270:	e3560000 	cmp	r6, #0
e0012274:	08bd81f0 	popeq	{r4, r5, r6, r7, r8, pc}
e0012278:	e7e95050 	ubfx	r5, r0, #0, #10
e001227c:	e7963105 	ldr	r3, [r6, r5, lsl #2]
e0012280:	e1530001 	cmp	r3, r1
e0012284:	18bd81f0 	popne	{r4, r5, r6, r7, r8, pc}
e0012288:	ebffffb4 	bl	e0012160 <flushSpace>
e001228c:	e7943107 	ldr	r3, [r4, r7, lsl #2]
e0012290:	e7933105 	ldr	r3, [r3, r5, lsl #2]
e0012294:	e2833a03 	add	r3, r3, #12288	; 0x3000
e0012298:	e5932fc0 	ldr	r2, [r3, #4032]	; 0xfc0
e001229c:	e3120502 	tst	r2, #8388608	; 0x800000
e00122a0:	11a02c22 	lsrne	r2, r2, #24
e00122a4:	13031248 	movwne	r1, #12872	; 0x3248
e00122a8:	13a00000 	movne	r0, #0
e00122ac:	134e1003 	movtne	r1, #57347	; 0xe003
e00122b0:	17810102 	strne	r0, [r1, r2, lsl #2]
e00122b4:	e303264c 	movw	r2, #13900	; 0x364c
e00122b8:	e34e2003 	movt	r2, #57347	; 0xe003
e00122bc:	e3a01000 	mov	r1, #0
e00122c0:	e5831fc0 	str	r1, [r3, #4032]	; 0xfc0
e00122c4:	e5920000 	ldr	r0, [r2]
e00122c8:	e7861105 	str	r1, [r6, r5, lsl #2]
e00122cc:	e8bd41f0 	pop	{r4, r5, r6, r7, r8, lr}
e00122d0:	eafffbef 	b	e0011294 <setVMRoot>

e00122d4 <Arch_finaliseCap>:
e00122d4:	e92d4010 	push	{r4, lr}
e00122d8:	e24dd008 	sub	sp, sp, #8
e00122dc:	e28dc008 	add	ip, sp, #8
e00122e0:	e1a04000 	mov	r4, r0
e00122e4:	e90c0006 	stmdb	ip, {r1, r2}
e00122e8:	e59dc000 	ldr	ip, [sp]
e00122ec:	e59d0004 	ldr	r0, [sp, #4]
e00122f0:	e20c200e 	and	r2, ip, #14
e00122f4:	e352000e 	cmp	r2, #14
e00122f8:	120c200f 	andne	r2, ip, #15
e00122fc:	06ef207c 	uxtbeq	r2, ip
e0012300:	e2422001 	sub	r2, r2, #1
e0012304:	e3520008 	cmp	r2, #8
e0012308:	979ff102 	ldrls	pc, [pc, r2, lsl #2]
e001230c:	ea00000d 	b	e0012348 <Arch_finaliseCap+0x74>
e0012310:	e001238c 	.word	0xe001238c
e0012314:	e0012348 	.word	0xe0012348
e0012318:	e00123b8 	.word	0xe00123b8
e001231c:	e0012348 	.word	0xe0012348
e0012320:	e0012334 	.word	0xe0012334
e0012324:	e0012348 	.word	0xe0012348
e0012328:	e00123e8 	.word	0xe00123e8
e001232c:	e0012348 	.word	0xe0012348
e0012330:	e0012368 	.word	0xe0012368
e0012334:	e3530000 	cmp	r3, #0
e0012338:	0a000002 	beq	e0012348 <Arch_finaliseCap+0x74>
e001233c:	e3cc100f 	bic	r1, ip, #15
e0012340:	e7f00050 	ubfx	r0, r0, #0, #17
e0012344:	ebffff9d 	bl	e00121c0 <deleteASIDPool>
e0012348:	e3a03000 	mov	r3, #0
e001234c:	e1a00004 	mov	r0, r4
e0012350:	e5843000 	str	r3, [r4]
e0012354:	e5843004 	str	r3, [r4, #4]
e0012358:	e5843008 	str	r3, [r4, #8]
e001235c:	e584300c 	str	r3, [r4, #12]
e0012360:	e28dd008 	add	sp, sp, #8
e0012364:	e8bd8010 	pop	{r4, pc}
e0012368:	e3530000 	cmp	r3, #0
e001236c:	0afffff5 	beq	e0012348 <Arch_finaliseCap+0x74>
e0012370:	e31c0010 	tst	ip, #16
e0012374:	0afffff3 	beq	e0012348 <Arch_finaliseCap+0x74>
e0012378:	e3cc1dff 	bic	r1, ip, #16320	; 0x3fc0
e001237c:	e7f00050 	ubfx	r0, r0, #0, #17
e0012380:	e3c1103f 	bic	r1, r1, #63	; 0x3f
e0012384:	ebffffb4 	bl	e001225c <deleteASID>
e0012388:	eaffffee 	b	e0012348 <Arch_finaliseCap+0x74>
e001238c:	e1a0172c 	lsr	r1, ip, #14
e0012390:	e2011b7f 	and	r1, r1, #130048	; 0x1fc00
e0012394:	e0911b20 	adds	r1, r1, r0, lsr #22
e0012398:	0affffea 	beq	e0012348 <Arch_finaliseCap+0x74>
e001239c:	e3a03a0f 	mov	r3, #61440	; 0xf000
e00123a0:	e34f3fff 	movt	r3, #65535	; 0xffff
e00123a4:	e1a02600 	lsl	r2, r0, #12
e00123a8:	e003340c 	and	r3, r3, ip, lsl #8
e00123ac:	e3a00000 	mov	r0, #0
e00123b0:	ebfffc5e 	bl	e0011530 <unmapPage>
e00123b4:	eaffffe3 	b	e0012348 <Arch_finaliseCap+0x74>
e00123b8:	e1a0162c 	lsr	r1, ip, #12
e00123bc:	e7e93a50 	ubfx	r3, r0, #20, #10
e00123c0:	e2011b7f 	and	r1, r1, #130048	; 0x1fc00
e00123c4:	e1911003 	orrs	r1, r1, r3
e00123c8:	0affffde 	beq	e0012348 <Arch_finaliseCap+0x74>
e00123cc:	e3a03903 	mov	r3, #49152	; 0xc000
e00123d0:	e34f3fff 	movt	r3, #65535	; 0xffff
e00123d4:	e1a02700 	lsl	r2, r0, #14
e00123d8:	e003350c 	and	r3, r3, ip, lsl #10
e00123dc:	e1a00f20 	lsr	r0, r0, #30
e00123e0:	ebfffc52 	bl	e0011530 <unmapPage>
e00123e4:	eaffffd7 	b	e0012348 <Arch_finaliseCap+0x74>
e00123e8:	e3530000 	cmp	r3, #0
e00123ec:	0affffd5 	beq	e0012348 <Arch_finaliseCap+0x74>
e00123f0:	e3100202 	tst	r0, #536870912	; 0x20000000
e00123f4:	0affffd3 	beq	e0012348 <Arch_finaliseCap+0x74>
e00123f8:	e3cc2fff 	bic	r2, ip, #1020	; 0x3fc
e00123fc:	e1a01a00 	lsl	r1, r0, #20
e0012400:	e3c22003 	bic	r2, r2, #3
e0012404:	e7f00650 	ubfx	r0, r0, #12, #17
e0012408:	ebfffce5 	bl	e00117a4 <unmapPageTable>
e001240c:	eaffffcd 	b	e0012348 <Arch_finaliseCap+0x74>

e0012410 <cleanInvalidate_D_PoC>:
e0012410:	e92d4ff0 	push	{r4, r5, r6, r7, r8, r9, sl, fp, lr}
e0012414:	ee30bf30 	mrc	15, 1, fp, cr0, cr0, {1}
e0012418:	e7e2ac5b 	ubfx	sl, fp, #24, #3
e001241c:	e35a0000 	cmp	sl, #0
e0012420:	08bd8ff0 	popeq	{r4, r5, r6, r7, r8, r9, sl, fp, pc}
e0012424:	e3a06000 	mov	r6, #0
e0012428:	e1a0a08a 	lsl	sl, sl, #1
e001242c:	e1a09006 	mov	r9, r6
e0012430:	ea000003 	b	e0012444 <cleanInvalidate_D_PoC+0x34>
e0012434:	e2866002 	add	r6, r6, #2
e0012438:	e2899003 	add	r9, r9, #3
e001243c:	e15a0006 	cmp	sl, r6
e0012440:	08bd8ff0 	popeq	{r4, r5, r6, r7, r8, r9, sl, fp, pc}
e0012444:	e1a0395b 	asr	r3, fp, r9
e0012448:	e2033007 	and	r3, r3, #7
e001244c:	e3530001 	cmp	r3, #1
e0012450:	9afffff7 	bls	e0012434 <cleanInvalidate_D_PoC+0x24>
e0012454:	ee503f10 	mrc	15, 2, r3, cr0, cr0, {0}
e0012458:	ee406f10 	mcr	15, 2, r6, cr0, cr0, {0}
e001245c:	ee300f10 	mrc	15, 1, r0, cr0, cr0, {0}
e0012460:	ee403f10 	mcr	15, 2, r3, cr0, cr0, {0}
e0012464:	e7e951d0 	ubfx	r5, r0, #3, #10
e0012468:	e200e007 	and	lr, r0, #7
e001246c:	e3a03001 	mov	r3, #1
e0012470:	e16f7f15 	clz	r7, r5
e0012474:	e28ee004 	add	lr, lr, #4
e0012478:	e7ee06d0 	ubfx	r0, r0, #13, #15
e001247c:	e3a04000 	mov	r4, #0
e0012480:	e1a07713 	lsl	r7, r3, r7
e0012484:	e0855003 	add	r5, r5, r3
e0012488:	e1a0ee13 	lsl	lr, r3, lr
e001248c:	e0800003 	add	r0, r0, r3
e0012490:	e1a08004 	mov	r8, r4
e0012494:	e3a03000 	mov	r3, #0
e0012498:	e184c006 	orr	ip, r4, r6
e001249c:	e1a02003 	mov	r2, r3
e00124a0:	e183100c 	orr	r1, r3, ip
e00124a4:	ee071f5e 	mcr	15, 0, r1, cr7, cr14, {2}
e00124a8:	e2822001 	add	r2, r2, #1
e00124ac:	e083300e 	add	r3, r3, lr
e00124b0:	e1500002 	cmp	r0, r2
e00124b4:	cafffff9 	bgt	e00124a0 <cleanInvalidate_D_PoC+0x90>
e00124b8:	e2888001 	add	r8, r8, #1
e00124bc:	e0844007 	add	r4, r4, r7
e00124c0:	e1550008 	cmp	r5, r8
e00124c4:	cafffff2 	bgt	e0012494 <cleanInvalidate_D_PoC+0x84>
e00124c8:	eaffffd9 	b	e0012434 <cleanInvalidate_D_PoC+0x24>

e00124cc <cleanInvalidate_L1D>:
e00124cc:	e92d4070 	push	{r4, r5, r6, lr}
e00124d0:	ee503f10 	mrc	15, 2, r3, cr0, cr0, {0}
e00124d4:	e3a00000 	mov	r0, #0
e00124d8:	ee400f10 	mcr	15, 2, r0, cr0, cr0, {0}
e00124dc:	ee30cf10 	mrc	15, 1, ip, cr0, cr0, {0}
e00124e0:	ee403f10 	mcr	15, 2, r3, cr0, cr0, {0}
e00124e4:	e7e951dc 	ubfx	r5, ip, #3, #10
e00124e8:	e20c3007 	and	r3, ip, #7
e00124ec:	e3a0e001 	mov	lr, #1
e00124f0:	e16f6f15 	clz	r6, r5
e00124f4:	e2833004 	add	r3, r3, #4
e00124f8:	e7eec6dc 	ubfx	ip, ip, #13, #15
e00124fc:	e085500e 	add	r5, r5, lr
e0012500:	e1a0661e 	lsl	r6, lr, r6
e0012504:	e28cc001 	add	ip, ip, #1
e0012508:	e1a0e31e 	lsl	lr, lr, r3
e001250c:	e1a04000 	mov	r4, r0
e0012510:	e3a03000 	mov	r3, #0
e0012514:	e1a02003 	mov	r2, r3
e0012518:	e1831000 	orr	r1, r3, r0
e001251c:	ee071f5e 	mcr	15, 0, r1, cr7, cr14, {2}
e0012520:	e2822001 	add	r2, r2, #1
e0012524:	e083300e 	add	r3, r3, lr
e0012528:	e15c0002 	cmp	ip, r2
e001252c:	cafffff9 	bgt	e0012518 <cleanInvalidate_L1D+0x4c>
e0012530:	e2844001 	add	r4, r4, #1
e0012534:	e0800006 	add	r0, r0, r6
e0012538:	e1550004 	cmp	r5, r4
e001253c:	cafffff3 	bgt	e0012510 <cleanInvalidate_L1D+0x44>
e0012540:	e8bd8070 	pop	{r4, r5, r6, pc}

e0012544 <lockTLBEntry>:
e0012544:	e30b37b4 	movw	r3, #47028	; 0xb7b4
e0012548:	e34e3001 	movt	r3, #57345	; 0xe001
e001254c:	e5931000 	ldr	r1, [r3]
e0012550:	e2812001 	add	r2, r1, #1
e0012554:	e5832000 	str	r2, [r3]
e0012558:	e1a01e01 	lsl	r1, r1, #28
e001255c:	e1a02e02 	lsl	r2, r2, #28
e0012560:	e3811001 	orr	r1, r1, #1
e0012564:	eafff885 	b	e0010780 <lockTLBEntryCritical>

e0012568 <armv_init_user_access>:
e0012568:	ee103f51 	mrc	15, 0, r3, cr0, cr1, {2}
e001256c:	ee103f31 	mrc	15, 0, r3, cr0, cr1, {1}
e0012570:	e3130801 	tst	r3, #65536	; 0x10000
e0012574:	012fff1e 	bxeq	lr
e0012578:	e3a03000 	mov	r3, #0
e001257c:	ee0e3f11 	mcr	15, 0, r3, cr14, cr1, {0}
e0012580:	e12fff1e 	bx	lr

e0012584 <Arch_postModifyRegisters>:
e0012584:	e12fff1e 	bx	lr

e0012588 <cleanInvalidateCacheRange_RAM>:
e0012588:	e92d4010 	push	{r4, lr}
e001258c:	e1a0e2a1 	lsr	lr, r1, #5
e0012590:	e1a032a0 	lsr	r3, r0, #5
e0012594:	e28ee001 	add	lr, lr, #1
e0012598:	e153000e 	cmp	r3, lr
e001259c:	2a000006 	bcs	e00125bc <cleanInvalidateCacheRange_RAM+0x34>
e00125a0:	e1a0c283 	lsl	ip, r3, #5
e00125a4:	e1a0428e 	lsl	r4, lr, #5
e00125a8:	ee07cf3a 	mcr	15, 0, ip, cr7, cr10, {1}
e00125ac:	f57ff05f 	dmb	sy
e00125b0:	e28cc020 	add	ip, ip, #32
e00125b4:	e15c0004 	cmp	ip, r4
e00125b8:	1afffffa 	bne	e00125a8 <cleanInvalidateCacheRange_RAM+0x20>
e00125bc:	f57ff04f 	dsb	sy
e00125c0:	e282c020 	add	ip, r2, #32
e00125c4:	e3c2201f 	bic	r2, r2, #31
e00125c8:	e08c1001 	add	r1, ip, r1
e00125cc:	e0410000 	sub	r0, r1, r0
e00125d0:	e3c0001f 	bic	r0, r0, #31
e00125d4:	e1520000 	cmp	r2, r0
e00125d8:	0a000007 	beq	e00125fc <cleanInvalidateCacheRange_RAM+0x74>
e00125dc:	e30310ff 	movw	r1, #12543	; 0x30ff
e00125e0:	e34f1ff0 	movt	r1, #65520	; 0xfff0
e00125e4:	e58126b1 	str	r2, [r1, #1713]	; 0x6b1
e00125e8:	f57ff05f 	dmb	sy
e00125ec:	e5812671 	str	r2, [r1, #1649]	; 0x671
e00125f0:	e2822020 	add	r2, r2, #32
e00125f4:	e1520000 	cmp	r2, r0
e00125f8:	1afffff9 	bne	e00125e4 <cleanInvalidateCacheRange_RAM+0x5c>
e00125fc:	f57ff05f 	dmb	sy
e0012600:	e30320ff 	movw	r2, #12543	; 0x30ff
e0012604:	e34f2ff0 	movt	r2, #65520	; 0xfff0
e0012608:	e3a00000 	mov	r0, #0
e001260c:	e1a01002 	mov	r1, r2
e0012610:	e5820631 	str	r0, [r2, #1585]	; 0x631
e0012614:	e5912631 	ldr	r2, [r1, #1585]	; 0x631
e0012618:	e3120001 	tst	r2, #1
e001261c:	1afffffc 	bne	e0012614 <cleanInvalidateCacheRange_RAM+0x8c>
e0012620:	e153000e 	cmp	r3, lr
e0012624:	2a000006 	bcs	e0012644 <cleanInvalidateCacheRange_RAM+0xbc>
e0012628:	e1a03283 	lsl	r3, r3, #5
e001262c:	e1a0228e 	lsl	r2, lr, #5
e0012630:	ee073f3e 	mcr	15, 0, r3, cr7, cr14, {1}
e0012634:	f57ff04f 	dsb	sy
e0012638:	e2833020 	add	r3, r3, #32
e001263c:	e1520003 	cmp	r2, r3
e0012640:	1afffffa 	bne	e0012630 <cleanInvalidateCacheRange_RAM+0xa8>
e0012644:	f57ff04f 	dsb	sy
e0012648:	e8bd8010 	pop	{r4, pc}

e001264c <cleanCacheRange_RAM>:
e001264c:	e1a0c2a1 	lsr	ip, r1, #5
e0012650:	e1a032a0 	lsr	r3, r0, #5
e0012654:	e28cc001 	add	ip, ip, #1
e0012658:	e153000c 	cmp	r3, ip
e001265c:	2a000006 	bcs	e001267c <cleanCacheRange_RAM+0x30>
e0012660:	e1a03283 	lsl	r3, r3, #5
e0012664:	e1a0c28c 	lsl	ip, ip, #5
e0012668:	ee073f3a 	mcr	15, 0, r3, cr7, cr10, {1}
e001266c:	f57ff05f 	dmb	sy
e0012670:	e2833020 	add	r3, r3, #32
e0012674:	e15c0003 	cmp	ip, r3
e0012678:	1afffffa 	bne	e0012668 <cleanCacheRange_RAM+0x1c>
e001267c:	f57ff04f 	dsb	sy
e0012680:	e2823020 	add	r3, r2, #32
e0012684:	e3c2201f 	bic	r2, r2, #31
e0012688:	e0831001 	add	r1, r3, r1
e001268c:	e0410000 	sub	r0, r1, r0
e0012690:	e3c0001f 	bic	r0, r0, #31
e0012694:	e1520000 	cmp	r2, r0
e0012698:	0a000005 	beq	e00126b4 <cleanCacheRange_RAM+0x68>
e001269c:	e30330ff 	movw	r3, #12543	; 0x30ff
e00126a0:	e34f3ff0 	movt	r3, #65520	; 0xfff0
e00126a4:	e58326b1 	str	r2, [r3, #1713]	; 0x6b1
e00126a8:	e2822020 	add	r2, r2, #32
e00126ac:	e1520000 	cmp	r2, r0
e00126b0:	1afffffb 	bne	e00126a4 <cleanCacheRange_RAM+0x58>
e00126b4:	f57ff05f 	dmb	sy
e00126b8:	e30330ff 	movw	r3, #12543	; 0x30ff
e00126bc:	e34f3ff0 	movt	r3, #65520	; 0xfff0
e00126c0:	e3a01000 	mov	r1, #0
e00126c4:	e1a02003 	mov	r2, r3
e00126c8:	e5831631 	str	r1, [r3, #1585]	; 0x631
e00126cc:	e5923631 	ldr	r3, [r2, #1585]	; 0x631
e00126d0:	e3130001 	tst	r3, #1
e00126d4:	1afffffc 	bne	e00126cc <cleanCacheRange_RAM+0x80>
e00126d8:	e12fff1e 	bx	lr

e00126dc <cleanCacheRange_PoU>:
e00126dc:	e1a012a1 	lsr	r1, r1, #5
e00126e0:	e1a002a0 	lsr	r0, r0, #5
e00126e4:	e2811001 	add	r1, r1, #1
e00126e8:	e1500001 	cmp	r0, r1
e00126ec:	212fff1e 	bxcs	lr
e00126f0:	e1a00280 	lsl	r0, r0, #5
e00126f4:	e1a01281 	lsl	r1, r1, #5
e00126f8:	ee070f3b 	mcr	15, 0, r0, cr7, cr11, {1}
e00126fc:	f57ff05f 	dmb	sy
e0012700:	e2800020 	add	r0, r0, #32
e0012704:	e1500001 	cmp	r0, r1
e0012708:	1afffffa 	bne	e00126f8 <cleanCacheRange_PoU+0x1c>
e001270c:	e12fff1e 	bx	lr

e0012710 <invalidateCacheRange_RAM>:
e0012710:	e310001f 	tst	r0, #31
e0012714:	e92d4070 	push	{r4, r5, r6, lr}
e0012718:	e1a04000 	mov	r4, r0
e001271c:	e1a05001 	mov	r5, r1
e0012720:	e1a06002 	mov	r6, r2
e0012724:	0a000001 	beq	e0012730 <invalidateCacheRange_RAM+0x20>
e0012728:	e1a01000 	mov	r1, r0
e001272c:	ebffffc6 	bl	e001264c <cleanCacheRange_RAM>
e0012730:	e2853001 	add	r3, r5, #1
e0012734:	e313001f 	tst	r3, #31
e0012738:	0a000004 	beq	e0012750 <invalidateCacheRange_RAM+0x40>
e001273c:	e3c5101f 	bic	r1, r5, #31
e0012740:	e0862001 	add	r2, r6, r1
e0012744:	e0422004 	sub	r2, r2, r4
e0012748:	e1a00001 	mov	r0, r1
e001274c:	ebffffbe 	bl	e001264c <cleanCacheRange_RAM>
e0012750:	e2852020 	add	r2, r5, #32
e0012754:	e3c6301f 	bic	r3, r6, #31
e0012758:	e0822006 	add	r2, r2, r6
e001275c:	e0422004 	sub	r2, r2, r4
e0012760:	e3c2201f 	bic	r2, r2, #31
e0012764:	e1530002 	cmp	r3, r2
e0012768:	0a000005 	beq	e0012784 <invalidateCacheRange_RAM+0x74>
e001276c:	e30310ff 	movw	r1, #12543	; 0x30ff
e0012770:	e34f1ff0 	movt	r1, #65520	; 0xfff0
e0012774:	e5813671 	str	r3, [r1, #1649]	; 0x671
e0012778:	e2833020 	add	r3, r3, #32
e001277c:	e1530002 	cmp	r3, r2
e0012780:	1afffffb 	bne	e0012774 <invalidateCacheRange_RAM+0x64>
e0012784:	f57ff05f 	dmb	sy
e0012788:	e30330ff 	movw	r3, #12543	; 0x30ff
e001278c:	e34f3ff0 	movt	r3, #65520	; 0xfff0
e0012790:	e3a01000 	mov	r1, #0
e0012794:	e1a02003 	mov	r2, r3
e0012798:	e5831631 	str	r1, [r3, #1585]	; 0x631
e001279c:	e5923631 	ldr	r3, [r2, #1585]	; 0x631
e00127a0:	e3130001 	tst	r3, #1
e00127a4:	1afffffc 	bne	e001279c <invalidateCacheRange_RAM+0x8c>
e00127a8:	e1a022a5 	lsr	r2, r5, #5
e00127ac:	e1a032a4 	lsr	r3, r4, #5
e00127b0:	e2822001 	add	r2, r2, #1
e00127b4:	e1530002 	cmp	r3, r2
e00127b8:	2a000006 	bcs	e00127d8 <invalidateCacheRange_RAM+0xc8>
e00127bc:	e1a03283 	lsl	r3, r3, #5
e00127c0:	e1a02282 	lsl	r2, r2, #5
e00127c4:	ee073f36 	mcr	15, 0, r3, cr7, cr6, {1}
e00127c8:	f57ff05f 	dmb	sy
e00127cc:	e2833020 	add	r3, r3, #32
e00127d0:	e1520003 	cmp	r2, r3
e00127d4:	1afffffa 	bne	e00127c4 <invalidateCacheRange_RAM+0xb4>
e00127d8:	f57ff04f 	dsb	sy
e00127dc:	e8bd8070 	pop	{r4, r5, r6, pc}

e00127e0 <performPDFlush>:
e00127e0:	e92d41f0 	push	{r4, r5, r6, r7, r8, lr}
e00127e4:	e59d5018 	ldr	r5, [sp, #24]
e00127e8:	e1530005 	cmp	r3, r5
e00127ec:	3a000001 	bcc	e00127f8 <performPDFlush+0x18>
e00127f0:	e3a00000 	mov	r0, #0
e00127f4:	e8bd81f0 	pop	{r4, r5, r6, r7, r8, pc}
e00127f8:	e1a0c001 	mov	ip, r1
e00127fc:	e1a07000 	mov	r7, r0
e0012800:	e1a01002 	mov	r1, r2
e0012804:	e1a0000c 	mov	r0, ip
e0012808:	e1a04003 	mov	r4, r3
e001280c:	ebfffada 	bl	e001137c <setVMRootForFlush>
e0012810:	e1a06000 	mov	r6, r0
e0012814:	e247001e 	sub	r0, r7, #30
e0012818:	e350000b 	cmp	r0, #11
e001281c:	979ff100 	ldrls	pc, [pc, r0, lsl #2]
e0012820:	ea00003e 	b	e0012920 <performPDFlush+0x140>
e0012824:	e00128f8 	.word	0xe00128f8
e0012828:	e001290c 	.word	0xe001290c
e001282c:	e00128c8 	.word	0xe00128c8
e0012830:	e0012854 	.word	0xe0012854
e0012834:	e0012920 	.word	0xe0012920
e0012838:	e0012920 	.word	0xe0012920
e001283c:	e0012920 	.word	0xe0012920
e0012840:	e0012920 	.word	0xe0012920
e0012844:	e00128f8 	.word	0xe00128f8
e0012848:	e001290c 	.word	0xe001290c
e001284c:	e00128c8 	.word	0xe00128c8
e0012850:	e0012854 	.word	0xe0012854
e0012854:	e1a052a5 	lsr	r5, r5, #5
e0012858:	e1a032a4 	lsr	r3, r4, #5
e001285c:	e2855001 	add	r5, r5, #1
e0012860:	e1530005 	cmp	r3, r5
e0012864:	2a000006 	bcs	e0012884 <performPDFlush+0xa4>
e0012868:	e1a02283 	lsl	r2, r3, #5
e001286c:	e1a01285 	lsl	r1, r5, #5
e0012870:	ee072f3b 	mcr	15, 0, r2, cr7, cr11, {1}
e0012874:	f57ff05f 	dmb	sy
e0012878:	e2822020 	add	r2, r2, #32
e001287c:	e1520001 	cmp	r2, r1
e0012880:	1afffffa 	bne	e0012870 <performPDFlush+0x90>
e0012884:	f57ff04f 	dsb	sy
e0012888:	e1530005 	cmp	r3, r5
e001288c:	2a00000b 	bcs	e00128c0 <performPDFlush+0xe0>
e0012890:	e1a03283 	lsl	r3, r3, #5
e0012894:	e1a05285 	lsl	r5, r5, #5
e0012898:	e1a02003 	mov	r2, r3
e001289c:	ee072f35 	mcr	15, 0, r2, cr7, cr5, {1}
e00128a0:	f57ff06f 	isb	sy
e00128a4:	e2822020 	add	r2, r2, #32
e00128a8:	e1550002 	cmp	r5, r2
e00128ac:	1afffffa 	bne	e001289c <performPDFlush+0xbc>
e00128b0:	ee073ff5 	mcr	15, 0, r3, cr7, cr5, {7}
e00128b4:	e2833020 	add	r3, r3, #32
e00128b8:	e1520003 	cmp	r2, r3
e00128bc:	1afffffb 	bne	e00128b0 <performPDFlush+0xd0>
e00128c0:	f57ff06f 	isb	sy
e00128c4:	ea000003 	b	e00128d8 <performPDFlush+0xf8>
e00128c8:	e1a01005 	mov	r1, r5
e00128cc:	e1a00004 	mov	r0, r4
e00128d0:	e59d201c 	ldr	r2, [sp, #28]
e00128d4:	ebffff2b 	bl	e0012588 <cleanInvalidateCacheRange_RAM>
e00128d8:	e3560000 	cmp	r6, #0
e00128dc:	0affffc3 	beq	e00127f0 <performPDFlush+0x10>
e00128e0:	e303364c 	movw	r3, #13900	; 0x364c
e00128e4:	e34e3003 	movt	r3, #57347	; 0xe003
e00128e8:	e5930000 	ldr	r0, [r3]
e00128ec:	ebfffa68 	bl	e0011294 <setVMRoot>
e00128f0:	e3a00000 	mov	r0, #0
e00128f4:	e8bd81f0 	pop	{r4, r5, r6, r7, r8, pc}
e00128f8:	e1a01005 	mov	r1, r5
e00128fc:	e1a00004 	mov	r0, r4
e0012900:	e59d201c 	ldr	r2, [sp, #28]
e0012904:	ebffff50 	bl	e001264c <cleanCacheRange_RAM>
e0012908:	eafffff2 	b	e00128d8 <performPDFlush+0xf8>
e001290c:	e1a01005 	mov	r1, r5
e0012910:	e1a00004 	mov	r0, r4
e0012914:	e59d201c 	ldr	r2, [sp, #28]
e0012918:	ebffff7c 	bl	e0012710 <invalidateCacheRange_RAM>
e001291c:	eaffffed 	b	e00128d8 <performPDFlush+0xf8>
e0012920:	ebfff845 	bl	e0010a3c <halt>

e0012924 <invalidateCacheRange_I>:
e0012924:	e1a012a1 	lsr	r1, r1, #5
e0012928:	e1a002a0 	lsr	r0, r0, #5
e001292c:	e2811001 	add	r1, r1, #1
e0012930:	e1500001 	cmp	r0, r1
e0012934:	212fff1e 	bxcs	lr
e0012938:	e1a00280 	lsl	r0, r0, #5
e001293c:	e1a01281 	lsl	r1, r1, #5
e0012940:	ee070f35 	mcr	15, 0, r0, cr7, cr5, {1}
e0012944:	f57ff06f 	isb	sy
e0012948:	e2800020 	add	r0, r0, #32
e001294c:	e1500001 	cmp	r0, r1
e0012950:	1afffffa 	bne	e0012940 <invalidateCacheRange_I+0x1c>
e0012954:	e12fff1e 	bx	lr

e0012958 <branchFlushRange>:
e0012958:	e1a012a1 	lsr	r1, r1, #5
e001295c:	e1a002a0 	lsr	r0, r0, #5
e0012960:	e2811001 	add	r1, r1, #1
e0012964:	e1500001 	cmp	r0, r1
e0012968:	212fff1e 	bxcs	lr
e001296c:	e1a00280 	lsl	r0, r0, #5
e0012970:	e1a01281 	lsl	r1, r1, #5
e0012974:	ee070ff5 	mcr	15, 0, r0, cr7, cr5, {7}
e0012978:	e2800020 	add	r0, r0, #32
e001297c:	e1500001 	cmp	r0, r1
e0012980:	1afffffb 	bne	e0012974 <branchFlushRange+0x1c>
e0012984:	e12fff1e 	bx	lr

e0012988 <cleanCaches_PoU>:
e0012988:	e92d4010 	push	{r4, lr}
e001298c:	f57ff04f 	dsb	sy
e0012990:	ebfffdc4 	bl	e00120a8 <clean_D_PoU>
e0012994:	f57ff04f 	dsb	sy
e0012998:	e3a03000 	mov	r3, #0
e001299c:	ee073f15 	mcr	15, 0, r3, cr7, cr5, {0}
e00129a0:	f57ff06f 	isb	sy
e00129a4:	f57ff04f 	dsb	sy
e00129a8:	e8bd8010 	pop	{r4, pc}

e00129ac <cleanInvalidateL1Caches>:
e00129ac:	e92d4010 	push	{r4, lr}
e00129b0:	f57ff04f 	dsb	sy
e00129b4:	ebfffe95 	bl	e0012410 <cleanInvalidate_D_PoC>
e00129b8:	f57ff04f 	dsb	sy
e00129bc:	e3a03000 	mov	r3, #0
e00129c0:	ee073f15 	mcr	15, 0, r3, cr7, cr5, {0}
e00129c4:	f57ff06f 	isb	sy
e00129c8:	f57ff04f 	dsb	sy
e00129cc:	e8bd8010 	pop	{r4, pc}

e00129d0 <arch_clean_invalidate_caches>:
e00129d0:	e92d4010 	push	{r4, lr}
e00129d4:	f57ff04f 	dsb	sy
e00129d8:	ebfffdb2 	bl	e00120a8 <clean_D_PoU>
e00129dc:	f57ff04f 	dsb	sy
e00129e0:	e3a03000 	mov	r3, #0
e00129e4:	ee073f15 	mcr	15, 0, r3, cr7, cr5, {0}
e00129e8:	f57ff06f 	isb	sy
e00129ec:	f57ff04f 	dsb	sy
e00129f0:	e30330ff 	movw	r3, #12543	; 0x30ff
e00129f4:	e34f3ff0 	movt	r3, #65520	; 0xfff0
e00129f8:	e30f1fff 	movw	r1, #65535	; 0xffff
e00129fc:	e1a02003 	mov	r2, r3
e0012a00:	e58316bd 	str	r1, [r3, #1725]	; 0x6bd
e0012a04:	e59236bd 	ldr	r3, [r2, #1725]	; 0x6bd
e0012a08:	e3530000 	cmp	r3, #0
e0012a0c:	1afffffc 	bne	e0012a04 <arch_clean_invalidate_caches+0x34>
e0012a10:	f57ff05f 	dmb	sy
e0012a14:	e30310ff 	movw	r1, #12543	; 0x30ff
e0012a18:	e34f1ff0 	movt	r1, #65520	; 0xfff0
e0012a1c:	e5823631 	str	r3, [r2, #1585]	; 0x631
e0012a20:	e5913631 	ldr	r3, [r1, #1585]	; 0x631
e0012a24:	e3130001 	tst	r3, #1
e0012a28:	1afffffc 	bne	e0012a20 <arch_clean_invalidate_caches+0x50>
e0012a2c:	e30320ff 	movw	r2, #12543	; 0x30ff
e0012a30:	e34f2ff0 	movt	r2, #65520	; 0xfff0
e0012a34:	e30f3fff 	movw	r3, #65535	; 0xffff
e0012a38:	e581367d 	str	r3, [r1, #1661]	; 0x67d
e0012a3c:	e592367d 	ldr	r3, [r2, #1661]	; 0x67d
e0012a40:	e3530000 	cmp	r3, #0
e0012a44:	1afffffc 	bne	e0012a3c <arch_clean_invalidate_caches+0x6c>
e0012a48:	f57ff05f 	dmb	sy
e0012a4c:	e30310ff 	movw	r1, #12543	; 0x30ff
e0012a50:	e34f1ff0 	movt	r1, #65520	; 0xfff0
e0012a54:	e5823631 	str	r3, [r2, #1585]	; 0x631
e0012a58:	e5913631 	ldr	r3, [r1, #1585]	; 0x631
e0012a5c:	e2134001 	ands	r4, r3, #1
e0012a60:	1afffffc 	bne	e0012a58 <arch_clean_invalidate_caches+0x88>
e0012a64:	f57ff04f 	dsb	sy
e0012a68:	ebfffe68 	bl	e0012410 <cleanInvalidate_D_PoC>
e0012a6c:	f57ff04f 	dsb	sy
e0012a70:	ee074f15 	mcr	15, 0, r4, cr7, cr5, {0}
e0012a74:	f57ff06f 	isb	sy
e0012a78:	f57ff04f 	dsb	sy
e0012a7c:	f57ff06f 	isb	sy
e0012a80:	e8bd8010 	pop	{r4, pc}

e0012a84 <arch_clean_invalidate_L1_caches>:
e0012a84:	e92d40f0 	push	{r4, r5, r6, r7, lr}
e0012a88:	f57ff04f 	dsb	sy
e0012a8c:	e3100002 	tst	r0, #2
e0012a90:	1a000007 	bne	e0012ab4 <arch_clean_invalidate_L1_caches+0x30>
e0012a94:	e3100001 	tst	r0, #1
e0012a98:	08bd80f0 	popeq	{r4, r5, r6, r7, pc}
e0012a9c:	e3a03000 	mov	r3, #0
e0012aa0:	ee073f15 	mcr	15, 0, r3, cr7, cr5, {0}
e0012aa4:	f57ff06f 	isb	sy
e0012aa8:	f57ff04f 	dsb	sy
e0012aac:	f57ff06f 	isb	sy
e0012ab0:	e8bd80f0 	pop	{r4, r5, r6, r7, pc}
e0012ab4:	ee503f10 	mrc	15, 2, r3, cr0, cr0, {0}
e0012ab8:	e3a0c000 	mov	ip, #0
e0012abc:	ee40cf10 	mcr	15, 2, ip, cr0, cr0, {0}
e0012ac0:	ee30ef10 	mrc	15, 1, lr, cr0, cr0, {0}
e0012ac4:	ee403f10 	mcr	15, 2, r3, cr0, cr0, {0}
e0012ac8:	e7e961de 	ubfx	r6, lr, #3, #10
e0012acc:	e20e3007 	and	r3, lr, #7
e0012ad0:	e3a04001 	mov	r4, #1
e0012ad4:	e16f7f16 	clz	r7, r6
e0012ad8:	e2833004 	add	r3, r3, #4
e0012adc:	e7eee6de 	ubfx	lr, lr, #13, #15
e0012ae0:	e0866004 	add	r6, r6, r4
e0012ae4:	e1a07714 	lsl	r7, r4, r7
e0012ae8:	e28ee001 	add	lr, lr, #1
e0012aec:	e1a04314 	lsl	r4, r4, r3
e0012af0:	e1a0500c 	mov	r5, ip
e0012af4:	e3a03000 	mov	r3, #0
e0012af8:	e1a02003 	mov	r2, r3
e0012afc:	e183100c 	orr	r1, r3, ip
e0012b00:	ee071f5e 	mcr	15, 0, r1, cr7, cr14, {2}
e0012b04:	e2822001 	add	r2, r2, #1
e0012b08:	e0833004 	add	r3, r3, r4
e0012b0c:	e15e0002 	cmp	lr, r2
e0012b10:	cafffff9 	bgt	e0012afc <arch_clean_invalidate_L1_caches+0x78>
e0012b14:	e2855001 	add	r5, r5, #1
e0012b18:	e08cc007 	add	ip, ip, r7
e0012b1c:	e1560005 	cmp	r6, r5
e0012b20:	cafffff3 	bgt	e0012af4 <arch_clean_invalidate_L1_caches+0x70>
e0012b24:	f57ff04f 	dsb	sy
e0012b28:	e3100001 	tst	r0, #1
e0012b2c:	1affffda 	bne	e0012a9c <arch_clean_invalidate_L1_caches+0x18>
e0012b30:	e8bd80f0 	pop	{r4, r5, r6, r7, pc}

e0012b34 <setIRQTrigger>:
e0012b34:	e200300f 	and	r3, r0, #15
e0012b38:	e1a00220 	lsr	r0, r0, #4
e0012b3c:	e3a02001 	mov	r2, #1
e0012b40:	e3510000 	cmp	r1, #0
e0012b44:	e1a00100 	lsl	r0, r0, #2
e0012b48:	e1a03213 	lsl	r3, r3, r2
e0012b4c:	e2400aff 	sub	r0, r0, #1044480	; 0xff000
e0012b50:	e0833002 	add	r3, r3, r2
e0012b54:	e1a03312 	lsl	r3, r2, r3
e0012b58:	e5902c00 	ldr	r2, [r0, #3072]	; 0xc00
e0012b5c:	11823003 	orrne	r3, r2, r3
e0012b60:	01c23003 	biceq	r3, r2, r3
e0012b64:	e5803c00 	str	r3, [r0, #3072]	; 0xc00
e0012b68:	e12fff1e 	bx	lr

e0012b6c <getRestartPC>:
e0012b6c:	e5900044 	ldr	r0, [r0, #68]	; 0x44
e0012b70:	e12fff1e 	bx	lr

e0012b74 <setNextPC>:
e0012b74:	e580103c 	str	r1, [r0, #60]	; 0x3c
e0012b78:	e12fff1e 	bx	lr

e0012b7c <plat_cleanCache>:
e0012b7c:	e30330ff 	movw	r3, #12543	; 0x30ff
e0012b80:	e34f3ff0 	movt	r3, #65520	; 0xfff0
e0012b84:	e30f1fff 	movw	r1, #65535	; 0xffff
e0012b88:	e1a02003 	mov	r2, r3
e0012b8c:	e58316bd 	str	r1, [r3, #1725]	; 0x6bd
e0012b90:	e59236bd 	ldr	r3, [r2, #1725]	; 0x6bd
e0012b94:	e6ff3073 	uxth	r3, r3
e0012b98:	e3530000 	cmp	r3, #0
e0012b9c:	1afffffb 	bne	e0012b90 <plat_cleanCache+0x14>
e0012ba0:	f57ff05f 	dmb	sy
e0012ba4:	e30310ff 	movw	r1, #12543	; 0x30ff
e0012ba8:	e34f1ff0 	movt	r1, #65520	; 0xfff0
e0012bac:	e5823631 	str	r3, [r2, #1585]	; 0x631
e0012bb0:	e5913631 	ldr	r3, [r1, #1585]	; 0x631
e0012bb4:	e3130001 	tst	r3, #1
e0012bb8:	1afffffc 	bne	e0012bb0 <plat_cleanCache+0x34>
e0012bbc:	e12fff1e 	bx	lr

e0012bc0 <Arch_decodeTransfer>:
e0012bc0:	e3a00000 	mov	r0, #0
e0012bc4:	e12fff1e 	bx	lr

e0012bc8 <Arch_performTransfer>:
e0012bc8:	e3a00000 	mov	r0, #0
e0012bcc:	e12fff1e 	bx	lr

e0012bd0 <resolveAddressBits>:
e0012bd0:	e92d43f0 	push	{r4, r5, r6, r7, r8, r9, lr}
e0012bd4:	e24dd00c 	sub	sp, sp, #12
e0012bd8:	e28dc008 	add	ip, sp, #8
e0012bdc:	e90c0006 	stmdb	ip, {r1, r2}
e0012be0:	e59dc000 	ldr	ip, [sp]
e0012be4:	e59de004 	ldr	lr, [sp, #4]
e0012be8:	e20c200e 	and	r2, ip, #14
e0012bec:	e352000e 	cmp	r2, #14
e0012bf0:	120c200f 	andne	r2, ip, #15
e0012bf4:	06ef207c 	uxtbeq	r2, ip
e0012bf8:	e352000a 	cmp	r2, #10
e0012bfc:	059d1028 	ldreq	r1, [sp, #40]	; 0x28
e0012c00:	03e07000 	mvneq	r7, #0
e0012c04:	1a000018 	bne	e0012c6c <resolveAddressBits+0x9c>
e0012c08:	e7e44bde 	ubfx	r4, lr, #23, #5
e0012c0c:	e7f1605e 	ubfx	r6, lr, #0, #18
e0012c10:	e0412004 	sub	r2, r1, r4
e0012c14:	e7e4e95e 	ubfx	lr, lr, #18, #5
e0012c18:	e202501f 	and	r5, r2, #31
e0012c1c:	e1e02417 	mvn	r2, r7, lsl r4
e0012c20:	e0022533 	and	r2, r2, r3, lsr r5
e0012c24:	e084800e 	add	r8, r4, lr
e0012c28:	e1510004 	cmp	r1, r4
e0012c2c:	21520006 	cmpcs	r2, r6
e0012c30:	e0419008 	sub	r9, r1, r8
e0012c34:	e3ccc01f 	bic	ip, ip, #31
e0012c38:	e1a05933 	lsr	r5, r3, r9
e0012c3c:	13a02001 	movne	r2, #1
e0012c40:	03a02000 	moveq	r2, #0
e0012c44:	1a000013 	bne	e0012c98 <resolveAddressBits+0xc8>
e0012c48:	e1510008 	cmp	r1, r8
e0012c4c:	e1c5ee17 	bic	lr, r5, r7, lsl lr
e0012c50:	3a00001d 	bcc	e0012ccc <resolveAddressBits+0xfc>
e0012c54:	e08c420e 	add	r4, ip, lr, lsl #4
e0012c58:	8a000028 	bhi	e0012d00 <resolveAddressBits+0x130>
e0012c5c:	e8800014 	stm	r0, {r2, r4}
e0012c60:	e5802008 	str	r2, [r0, #8]
e0012c64:	e28dd00c 	add	sp, sp, #12
e0012c68:	e8bd83f0 	pop	{r4, r5, r6, r7, r8, r9, pc}
e0012c6c:	e59d2028 	ldr	r2, [sp, #40]	; 0x28
e0012c70:	e3093014 	movw	r3, #36884	; 0x9014
e0012c74:	e34e3002 	movt	r3, #57346	; 0xe002
e0012c78:	e3a01002 	mov	r1, #2
e0012c7c:	e5802008 	str	r2, [r0, #8]
e0012c80:	e3a02000 	mov	r2, #0
e0012c84:	e5832000 	str	r2, [r3]
e0012c88:	e5832004 	str	r2, [r3, #4]
e0012c8c:	e8800006 	stm	r0, {r1, r2}
e0012c90:	e28dd00c 	add	sp, sp, #12
e0012c94:	e8bd83f0 	pop	{r4, r5, r6, r7, r8, r9, pc}
e0012c98:	e1a03401 	lsl	r3, r1, #8
e0012c9c:	e3092014 	movw	r2, #36884	; 0x9014
e0012ca0:	e2033c3f 	and	r3, r3, #16128	; 0x3f00
e0012ca4:	e34e2002 	movt	r2, #57346	; 0xe002
e0012ca8:	e1834104 	orr	r4, r3, r4, lsl #2
e0012cac:	e59d3028 	ldr	r3, [sp, #40]	; 0x28
e0012cb0:	e3844003 	orr	r4, r4, #3
e0012cb4:	e8820050 	stm	r2, {r4, r6}
e0012cb8:	e3a02002 	mov	r2, #2
e0012cbc:	e5803008 	str	r3, [r0, #8]
e0012cc0:	e3a03000 	mov	r3, #0
e0012cc4:	e1c020f0 	strd	r2, [r0]
e0012cc8:	eaffffe5 	b	e0012c64 <resolveAddressBits+0x94>
e0012ccc:	e59dc028 	ldr	ip, [sp, #40]	; 0x28
e0012cd0:	e1a03101 	lsl	r3, r1, #2
e0012cd4:	e3091014 	movw	r1, #36884	; 0x9014
e0012cd8:	e34e1002 	movt	r1, #57346	; 0xe002
e0012cdc:	e1833408 	orr	r3, r3, r8, lsl #8
e0012ce0:	e5802004 	str	r2, [r0, #4]
e0012ce4:	e3833002 	orr	r3, r3, #2
e0012ce8:	e580c008 	str	ip, [r0, #8]
e0012cec:	e5813000 	str	r3, [r1]
e0012cf0:	e3a0c002 	mov	ip, #2
e0012cf4:	e5812004 	str	r2, [r1, #4]
e0012cf8:	e580c000 	str	ip, [r0]
e0012cfc:	eaffffd8 	b	e0012c64 <resolveAddressBits+0x94>
e0012d00:	e79cc20e 	ldr	ip, [ip, lr, lsl #4]
e0012d04:	e594e004 	ldr	lr, [r4, #4]
e0012d08:	e20c100e 	and	r1, ip, #14
e0012d0c:	e20c200f 	and	r2, ip, #15
e0012d10:	e351000e 	cmp	r1, #14
e0012d14:	e1a01009 	mov	r1, r9
e0012d18:	06ef207c 	uxtbeq	r2, ip
e0012d1c:	e352000a 	cmp	r2, #10
e0012d20:	0affffb8 	beq	e0012c08 <resolveAddressBits+0x38>
e0012d24:	e3a03000 	mov	r3, #0
e0012d28:	e5804004 	str	r4, [r0, #4]
e0012d2c:	e5809008 	str	r9, [r0, #8]
e0012d30:	e5803000 	str	r3, [r0]
e0012d34:	eaffffca 	b	e0012c64 <resolveAddressBits+0x94>

e0012d38 <lookupSlot>:
e0012d38:	e3c11f7f 	bic	r1, r1, #508	; 0x1fc
e0012d3c:	e1a03002 	mov	r3, r2
e0012d40:	e3c11003 	bic	r1, r1, #3
e0012d44:	e3a02020 	mov	r2, #32
e0012d48:	e92d4010 	push	{r4, lr}
e0012d4c:	e1a04000 	mov	r4, r0
e0012d50:	e24dd020 	sub	sp, sp, #32
e0012d54:	e8910003 	ldm	r1, {r0, r1}
e0012d58:	e28dc00c 	add	ip, sp, #12
e0012d5c:	e58d2000 	str	r2, [sp]
e0012d60:	e88c0003 	stm	ip, {r0, r1}
e0012d64:	e28d0014 	add	r0, sp, #20
e0012d68:	e89c0006 	ldm	ip, {r1, r2}
e0012d6c:	ebffff97 	bl	e0012bd0 <resolveAddressBits>
e0012d70:	e1cd21d4 	ldrd	r2, [sp, #20]
e0012d74:	e1a00004 	mov	r0, r4
e0012d78:	e1c420f0 	strd	r2, [r4]
e0012d7c:	e28dd020 	add	sp, sp, #32
e0012d80:	e8bd8010 	pop	{r4, pc}

e0012d84 <lookupCap>:
e0012d84:	e92d4010 	push	{r4, lr}
e0012d88:	e24dd008 	sub	sp, sp, #8
e0012d8c:	e1a04000 	mov	r4, r0
e0012d90:	e1a0000d 	mov	r0, sp
e0012d94:	ebffffe7 	bl	e0012d38 <lookupSlot>
e0012d98:	e59d3000 	ldr	r3, [sp]
e0012d9c:	e1a00004 	mov	r0, r4
e0012da0:	e3530000 	cmp	r3, #0
e0012da4:	05843000 	streq	r3, [r4]
e0012da8:	059d2004 	ldreq	r2, [sp, #4]
e0012dac:	15843000 	strne	r3, [r4]
e0012db0:	13a03000 	movne	r3, #0
e0012db4:	15843004 	strne	r3, [r4, #4]
e0012db8:	15843008 	strne	r3, [r4, #8]
e0012dbc:	0892000a 	ldmeq	r2, {r1, r3}
e0012dc0:	0984000a 	stmibeq	r4, {r1, r3}
e0012dc4:	e28dd008 	add	sp, sp, #8
e0012dc8:	e8bd8010 	pop	{r4, pc}

e0012dcc <lookupCapAndSlot>:
e0012dcc:	e92d4010 	push	{r4, lr}
e0012dd0:	e24dd008 	sub	sp, sp, #8
e0012dd4:	e1a04000 	mov	r4, r0
e0012dd8:	e1a0000d 	mov	r0, sp
e0012ddc:	ebffffd5 	bl	e0012d38 <lookupSlot>
e0012de0:	e1cd20d0 	ldrd	r2, [sp]
e0012de4:	e3520000 	cmp	r2, #0
e0012de8:	1a000005 	bne	e0012e04 <lookupCapAndSlot+0x38>
e0012dec:	e1c300d0 	ldrd	r0, [r3]
e0012df0:	e5842000 	str	r2, [r4]
e0012df4:	e984000b 	stmib	r4, {r0, r1, r3}
e0012df8:	e1a00004 	mov	r0, r4
e0012dfc:	e28dd008 	add	sp, sp, #8
e0012e00:	e8bd8010 	pop	{r4, pc}
e0012e04:	e3a03000 	mov	r3, #0
e0012e08:	e1a00004 	mov	r0, r4
e0012e0c:	e5842000 	str	r2, [r4]
e0012e10:	e5843004 	str	r3, [r4, #4]
e0012e14:	e5843008 	str	r3, [r4, #8]
e0012e18:	e584300c 	str	r3, [r4, #12]
e0012e1c:	e28dd008 	add	sp, sp, #8
e0012e20:	e8bd8010 	pop	{r4, pc}

e0012e24 <lookupSlotForCNodeOp>:
e0012e24:	e92d4030 	push	{r4, r5, lr}
e0012e28:	e24dd024 	sub	sp, sp, #36	; 0x24
e0012e2c:	e28dc008 	add	ip, sp, #8
e0012e30:	e1a05001 	mov	r5, r1
e0012e34:	e1a04000 	mov	r4, r0
e0012e38:	e88c000c 	stm	ip, {r2, r3}
e0012e3c:	e1a03002 	mov	r3, r2
e0012e40:	e203100e 	and	r1, r3, #14
e0012e44:	e59d2034 	ldr	r2, [sp, #52]	; 0x34
e0012e48:	e351000e 	cmp	r1, #14
e0012e4c:	1203300f 	andne	r3, r3, #15
e0012e50:	06ef3073 	uxtbeq	r3, r3
e0012e54:	e353000a 	cmp	r3, #10
e0012e58:	1a000013 	bne	e0012eac <lookupSlotForCNodeOp+0x88>
e0012e5c:	e2423001 	sub	r3, r2, #1
e0012e60:	e353001f 	cmp	r3, #31
e0012e64:	8a00001f 	bhi	e0012ee8 <lookupSlotForCNodeOp+0xc4>
e0012e68:	e58d2000 	str	r2, [sp]
e0012e6c:	e28d0014 	add	r0, sp, #20
e0012e70:	e59d3030 	ldr	r3, [sp, #48]	; 0x30
e0012e74:	e89c0006 	ldm	ip, {r1, r2}
e0012e78:	ebffff54 	bl	e0012bd0 <resolveAddressBits>
e0012e7c:	e59d2014 	ldr	r2, [sp, #20]
e0012e80:	e59d301c 	ldr	r3, [sp, #28]
e0012e84:	e3520000 	cmp	r2, #0
e0012e88:	1a000022 	bne	e0012f18 <lookupSlotForCNodeOp+0xf4>
e0012e8c:	e3530000 	cmp	r3, #0
e0012e90:	05843000 	streq	r3, [r4]
e0012e94:	059d2018 	ldreq	r2, [sp, #24]
e0012e98:	05842004 	streq	r2, [r4, #4]
e0012e9c:	1a000026 	bne	e0012f3c <lookupSlotForCNodeOp+0x118>
e0012ea0:	e1a00004 	mov	r0, r4
e0012ea4:	e28dd024 	add	sp, sp, #36	; 0x24
e0012ea8:	e8bd8030 	pop	{r4, r5, pc}
e0012eac:	e3092020 	movw	r2, #36896	; 0x9020
e0012eb0:	e3093014 	movw	r3, #36884	; 0x9014
e0012eb4:	e34e2002 	movt	r2, #57346	; 0xe002
e0012eb8:	e34e3002 	movt	r3, #57346	; 0xe002
e0012ebc:	e3a01000 	mov	r1, #0
e0012ec0:	e3a0c006 	mov	ip, #6
e0012ec4:	e3a00003 	mov	r0, #3
e0012ec8:	e5825014 	str	r5, [r2, #20]
e0012ecc:	e1c400f0 	strd	r0, [r4]
e0012ed0:	e1a00004 	mov	r0, r4
e0012ed4:	e582c018 	str	ip, [r2, #24]
e0012ed8:	e5831000 	str	r1, [r3]
e0012edc:	e5831004 	str	r1, [r3, #4]
e0012ee0:	e28dd024 	add	sp, sp, #36	; 0x24
e0012ee4:	e8bd8030 	pop	{r4, r5, pc}
e0012ee8:	e3093020 	movw	r3, #36896	; 0x9020
e0012eec:	e34e3002 	movt	r3, #57346	; 0xe002
e0012ef0:	e3a01004 	mov	r1, #4
e0012ef4:	e3a02001 	mov	r2, #1
e0012ef8:	e5831018 	str	r1, [r3, #24]
e0012efc:	e3a01020 	mov	r1, #32
e0012f00:	e5832008 	str	r2, [r3, #8]
e0012f04:	e3a02003 	mov	r2, #3
e0012f08:	e583100c 	str	r1, [r3, #12]
e0012f0c:	e3a03000 	mov	r3, #0
e0012f10:	e1c020f0 	strd	r2, [r0]
e0012f14:	eaffffe1 	b	e0012ea0 <lookupSlotForCNodeOp+0x7c>
e0012f18:	e3093020 	movw	r3, #36896	; 0x9020
e0012f1c:	e34e3002 	movt	r3, #57346	; 0xe002
e0012f20:	e3a00006 	mov	r0, #6
e0012f24:	e3a01003 	mov	r1, #3
e0012f28:	e3a02000 	mov	r2, #0
e0012f2c:	e5835014 	str	r5, [r3, #20]
e0012f30:	e5830018 	str	r0, [r3, #24]
e0012f34:	e8840006 	stm	r4, {r1, r2}
e0012f38:	eaffffd8 	b	e0012ea0 <lookupSlotForCNodeOp+0x7c>
e0012f3c:	e1a03103 	lsl	r3, r3, #2
e0012f40:	e3090014 	movw	r0, #36884	; 0x9014
e0012f44:	e3091020 	movw	r1, #36896	; 0x9020
e0012f48:	e34e0002 	movt	r0, #57346	; 0xe002
e0012f4c:	e34e1002 	movt	r1, #57346	; 0xe002
e0012f50:	e6ef3073 	uxtb	r3, r3
e0012f54:	e3833002 	orr	r3, r3, #2
e0012f58:	e3a0c006 	mov	ip, #6
e0012f5c:	e5803000 	str	r3, [r0]
e0012f60:	e3a03003 	mov	r3, #3
e0012f64:	e5842004 	str	r2, [r4, #4]
e0012f68:	e5802004 	str	r2, [r0, #4]
e0012f6c:	e5815014 	str	r5, [r1, #20]
e0012f70:	e581c018 	str	ip, [r1, #24]
e0012f74:	e5843000 	str	r3, [r4]
e0012f78:	eaffffc8 	b	e0012ea0 <lookupSlotForCNodeOp+0x7c>

e0012f7c <lookupSourceSlot>:
e0012f7c:	e92d4010 	push	{r4, lr}
e0012f80:	e24dd010 	sub	sp, sp, #16
e0012f84:	e28dc008 	add	ip, sp, #8
e0012f88:	e1a04000 	mov	r4, r0
e0012f8c:	e59de018 	ldr	lr, [sp, #24]
e0012f90:	e58d3000 	str	r3, [sp]
e0012f94:	e88c0006 	stm	ip, {r1, r2}
e0012f98:	e3a01001 	mov	r1, #1
e0012f9c:	e89c000c 	ldm	ip, {r2, r3}
e0012fa0:	e58de004 	str	lr, [sp, #4]
e0012fa4:	ebffff9e 	bl	e0012e24 <lookupSlotForCNodeOp>
e0012fa8:	e1a00004 	mov	r0, r4
e0012fac:	e28dd010 	add	sp, sp, #16
e0012fb0:	e8bd8010 	pop	{r4, pc}

e0012fb4 <lookupPivotSlot>:
e0012fb4:	e92d4010 	push	{r4, lr}
e0012fb8:	e24dd010 	sub	sp, sp, #16
e0012fbc:	e28dc008 	add	ip, sp, #8
e0012fc0:	e1a04000 	mov	r4, r0
e0012fc4:	e59de018 	ldr	lr, [sp, #24]
e0012fc8:	e88c0006 	stm	ip, {r1, r2}
e0012fcc:	e89c0006 	ldm	ip, {r1, r2}
e0012fd0:	e58de000 	str	lr, [sp]
e0012fd4:	ebffffe8 	bl	e0012f7c <lookupSourceSlot>
e0012fd8:	e1a00004 	mov	r0, r4
e0012fdc:	e28dd010 	add	sp, sp, #16
e0012fe0:	e8bd8010 	pop	{r4, pc}

e0012fe4 <lookupTargetSlot>:
e0012fe4:	e92d4010 	push	{r4, lr}
e0012fe8:	e24dd010 	sub	sp, sp, #16
e0012fec:	e28dc008 	add	ip, sp, #8
e0012ff0:	e1a04000 	mov	r4, r0
e0012ff4:	e59de018 	ldr	lr, [sp, #24]
e0012ff8:	e58d3000 	str	r3, [sp]
e0012ffc:	e88c0006 	stm	ip, {r1, r2}
e0013000:	e3a01000 	mov	r1, #0
e0013004:	e89c000c 	ldm	ip, {r2, r3}
e0013008:	e58de004 	str	lr, [sp, #4]
e001300c:	ebffff84 	bl	e0012e24 <lookupSlotForCNodeOp>
e0013010:	e1a00004 	mov	r0, r4
e0013014:	e28dd010 	add	sp, sp, #16
e0013018:	e8bd8010 	pop	{r4, pc}

e001301c <doFaultTransfer>:
e001301c:	e92d4070 	push	{r4, r5, r6, lr}
e0013020:	e1a04002 	mov	r4, r2
e0013024:	e1a05001 	mov	r5, r1
e0013028:	e1a06000 	mov	r6, r0
e001302c:	e1a02003 	mov	r2, r3
e0013030:	e1a01004 	mov	r1, r4
e0013034:	e1a00005 	mov	r0, r5
e0013038:	ebfff693 	bl	e0010a8c <setMRs_fault>
e001303c:	e5953060 	ldr	r3, [r5, #96]	; 0x60
e0013040:	e5846000 	str	r6, [r4]
e0013044:	e1a03603 	lsl	r3, r3, #12
e0013048:	e6ff3073 	uxth	r3, r3
e001304c:	e200007f 	and	r0, r0, #127	; 0x7f
e0013050:	e1833000 	orr	r3, r3, r0
e0013054:	e5843004 	str	r3, [r4, #4]
e0013058:	e8bd8070 	pop	{r4, r5, r6, pc}

e001305c <doNBRecvFailedTransfer>:
e001305c:	e3a03000 	mov	r3, #0
e0013060:	e5803000 	str	r3, [r0]
e0013064:	e12fff1e 	bx	lr

e0013068 <switchToIdleThread>:
e0013068:	e92d4010 	push	{r4, lr}
e001306c:	e3094010 	movw	r4, #36880	; 0x9010
e0013070:	e34e4002 	movt	r4, #57346	; 0xe002
e0013074:	e5940000 	ldr	r0, [r4]
e0013078:	ebfff885 	bl	e0011294 <setVMRoot>
e001307c:	e5942000 	ldr	r2, [r4]
e0013080:	e303364c 	movw	r3, #13900	; 0x364c
e0013084:	e34e3003 	movt	r3, #57347	; 0xe003
e0013088:	e5832000 	str	r2, [r3]
e001308c:	e8bd8010 	pop	{r4, pc}

e0013090 <setMCPriority>:
e0013090:	e5801074 	str	r1, [r0, #116]	; 0x74
e0013094:	e12fff1e 	bx	lr

e0013098 <rescheduleRequired>:
e0013098:	e92d4010 	push	{r4, lr}
e001309c:	e309401c 	movw	r4, #36892	; 0x901c
e00130a0:	e34e4002 	movt	r4, #57346	; 0xe002
e00130a4:	e5940000 	ldr	r0, [r4]
e00130a8:	e3500001 	cmp	r0, #1
e00130ac:	9a000002 	bls	e00130bc <rescheduleRequired+0x24>
e00130b0:	e5903054 	ldr	r3, [r0, #84]	; 0x54
e00130b4:	e3130001 	tst	r3, #1
e00130b8:	0a000002 	beq	e00130c8 <rescheduleRequired+0x30>
e00130bc:	e3a03001 	mov	r3, #1
e00130c0:	e5843000 	str	r3, [r4]
e00130c4:	e8bd8010 	pop	{r4, pc}
e00130c8:	ebfff5c2 	bl	e00107d8 <tcbSchedEnqueue.part.164>
e00130cc:	eafffffa 	b	e00130bc <rescheduleRequired+0x24>

e00130d0 <scheduleTCB.part.165>:
e00130d0:	e5903050 	ldr	r3, [r0, #80]	; 0x50
e00130d4:	e203300f 	and	r3, r3, #15
e00130d8:	e2433001 	sub	r3, r3, #1
e00130dc:	e3530001 	cmp	r3, #1
e00130e0:	912fff1e 	bxls	lr
e00130e4:	eaffffeb 	b	e0013098 <rescheduleRequired>

e00130e8 <scheduleTCB>:
e00130e8:	e303364c 	movw	r3, #13900	; 0x364c
e00130ec:	e34e3003 	movt	r3, #57347	; 0xe003
e00130f0:	e5933000 	ldr	r3, [r3]
e00130f4:	e1530000 	cmp	r3, r0
e00130f8:	112fff1e 	bxne	lr
e00130fc:	e309301c 	movw	r3, #36892	; 0x901c
e0013100:	e34e3002 	movt	r3, #57346	; 0xe002
e0013104:	e5933000 	ldr	r3, [r3]
e0013108:	e3530000 	cmp	r3, #0
e001310c:	112fff1e 	bxne	lr
e0013110:	eaffffee 	b	e00130d0 <scheduleTCB.part.165>

e0013114 <setThreadState.part.166>:
e0013114:	e309301c 	movw	r3, #36892	; 0x901c
e0013118:	e34e3002 	movt	r3, #57346	; 0xe002
e001311c:	e5933000 	ldr	r3, [r3]
e0013120:	e3530000 	cmp	r3, #0
e0013124:	112fff1e 	bxne	lr
e0013128:	eaffffe8 	b	e00130d0 <scheduleTCB.part.165>

e001312c <setThreadState>:
e001312c:	e303264c 	movw	r2, #13900	; 0x364c
e0013130:	e34e2003 	movt	r2, #57347	; 0xe003
e0013134:	e201c00f 	and	ip, r1, #15
e0013138:	e5901050 	ldr	r1, [r0, #80]	; 0x50
e001313c:	e5922000 	ldr	r2, [r2]
e0013140:	e3c1100f 	bic	r1, r1, #15
e0013144:	e1500002 	cmp	r0, r2
e0013148:	e181100c 	orr	r1, r1, ip
e001314c:	e5801050 	str	r1, [r0, #80]	; 0x50
e0013150:	112fff1e 	bxne	lr
e0013154:	eaffffee 	b	e0013114 <setThreadState.part.166>

e0013158 <handleDoubleFault>:
e0013158:	e52de004 	push	{lr}		; (str lr, [sp, #-4]!)
e001315c:	e24dd00c 	sub	sp, sp, #12
e0013160:	e303c64c 	movw	ip, #13900	; 0x364c
e0013164:	e28de008 	add	lr, sp, #8
e0013168:	e34ec003 	movt	ip, #57347	; 0xe003
e001316c:	e90e0006 	stmdb	lr, {r1, r2}
e0013170:	e59c1000 	ldr	r1, [ip]
e0013174:	e5902050 	ldr	r2, [r0, #80]	; 0x50
e0013178:	e1500001 	cmp	r0, r1
e001317c:	e3c2200f 	bic	r2, r2, #15
e0013180:	e5802050 	str	r2, [r0, #80]	; 0x50
e0013184:	0a000001 	beq	e0013190 <handleDoubleFault+0x38>
e0013188:	e28dd00c 	add	sp, sp, #12
e001318c:	e49df004 	pop	{pc}		; (ldr pc, [sp], #4)
e0013190:	e28dd00c 	add	sp, sp, #12
e0013194:	e49de004 	pop	{lr}		; (ldr lr, [sp], #4)
e0013198:	eaffffdd 	b	e0013114 <setThreadState.part.166>

e001319c <activateThread>:
e001319c:	e303364c 	movw	r3, #13900	; 0x364c
e00131a0:	e34e3003 	movt	r3, #57347	; 0xe003
e00131a4:	e5932000 	ldr	r2, [r3]
e00131a8:	e5923050 	ldr	r3, [r2, #80]	; 0x50
e00131ac:	e203100f 	and	r1, r3, #15
e00131b0:	e3510002 	cmp	r1, #2
e00131b4:	0a000005 	beq	e00131d0 <activateThread+0x34>
e00131b8:	e3510007 	cmp	r1, #7
e00131bc:	012fff1e 	bxeq	lr
e00131c0:	e3510001 	cmp	r1, #1
e00131c4:	012fff1e 	bxeq	lr
e00131c8:	e92d4010 	push	{r4, lr}
e00131cc:	ebfff61a 	bl	e0010a3c <halt>
e00131d0:	e5921044 	ldr	r1, [r2, #68]	; 0x44
e00131d4:	e3c3300f 	bic	r3, r3, #15
e00131d8:	e3833001 	orr	r3, r3, #1
e00131dc:	e1a00002 	mov	r0, r2
e00131e0:	e5823050 	str	r3, [r2, #80]	; 0x50
e00131e4:	e582103c 	str	r1, [r2, #60]	; 0x3c
e00131e8:	eaffffc9 	b	e0013114 <setThreadState.part.166>

e00131ec <possibleSwitchTo>:
e00131ec:	e3033000 	movw	r3, #12288	; 0x3000
e00131f0:	e34e3003 	movt	r3, #57347	; 0xe003
e00131f4:	e5902070 	ldr	r2, [r0, #112]	; 0x70
e00131f8:	e5933000 	ldr	r3, [r3]
e00131fc:	e1520003 	cmp	r2, r3
e0013200:	0a000003 	beq	e0013214 <possibleSwitchTo+0x28>
e0013204:	e5903054 	ldr	r3, [r0, #84]	; 0x54
e0013208:	e3130001 	tst	r3, #1
e001320c:	112fff1e 	bxne	lr
e0013210:	eafff570 	b	e00107d8 <tcbSchedEnqueue.part.164>
e0013214:	e309301c 	movw	r3, #36892	; 0x901c
e0013218:	e34e3002 	movt	r3, #57346	; 0xe002
e001321c:	e5932000 	ldr	r2, [r3]
e0013220:	e3520000 	cmp	r2, #0
e0013224:	0a000009 	beq	e0013250 <possibleSwitchTo+0x64>
e0013228:	e52de004 	push	{lr}		; (str lr, [sp, #-4]!)
e001322c:	e24dd00c 	sub	sp, sp, #12
e0013230:	e58d0004 	str	r0, [sp, #4]
e0013234:	ebffff97 	bl	e0013098 <rescheduleRequired>
e0013238:	e59d0004 	ldr	r0, [sp, #4]
e001323c:	e5903054 	ldr	r3, [r0, #84]	; 0x54
e0013240:	e3130001 	tst	r3, #1
e0013244:	0a000003 	beq	e0013258 <possibleSwitchTo+0x6c>
e0013248:	e28dd00c 	add	sp, sp, #12
e001324c:	e49df004 	pop	{pc}		; (ldr pc, [sp], #4)
e0013250:	e5830000 	str	r0, [r3]
e0013254:	e12fff1e 	bx	lr
e0013258:	e28dd00c 	add	sp, sp, #12
e001325c:	e49de004 	pop	{lr}		; (ldr lr, [sp], #4)
e0013260:	eafff55c 	b	e00107d8 <tcbSchedEnqueue.part.164>

e0013264 <timerTick>:
e0013264:	e303364c 	movw	r3, #13900	; 0x364c
e0013268:	e34e3003 	movt	r3, #57347	; 0xe003
e001326c:	e92d4010 	push	{r4, lr}
e0013270:	e5930000 	ldr	r0, [r3]
e0013274:	e5903050 	ldr	r3, [r0, #80]	; 0x50
e0013278:	e203300f 	and	r3, r3, #15
e001327c:	e3530001 	cmp	r3, #1
e0013280:	1a000004 	bne	e0013298 <timerTick+0x34>
e0013284:	e590307c 	ldr	r3, [r0, #124]	; 0x7c
e0013288:	e3530001 	cmp	r3, #1
e001328c:	9a00000a 	bls	e00132bc <timerTick+0x58>
e0013290:	e2433001 	sub	r3, r3, #1
e0013294:	e580307c 	str	r3, [r0, #124]	; 0x7c
e0013298:	e30124cc 	movw	r2, #5324	; 0x14cc
e001329c:	e34e2003 	movt	r2, #57347	; 0xe003
e00132a0:	e5923000 	ldr	r3, [r2]
e00132a4:	e2433001 	sub	r3, r3, #1
e00132a8:	e5823000 	str	r3, [r2]
e00132ac:	e3530000 	cmp	r3, #0
e00132b0:	18bd8010 	popne	{r4, pc}
e00132b4:	e8bd4010 	pop	{r4, lr}
e00132b8:	eaffff76 	b	e0013098 <rescheduleRequired>
e00132bc:	e5903054 	ldr	r3, [r0, #84]	; 0x54
e00132c0:	e3a02005 	mov	r2, #5
e00132c4:	e580207c 	str	r2, [r0, #124]	; 0x7c
e00132c8:	e3130001 	tst	r3, #1
e00132cc:	0a000001 	beq	e00132d8 <timerTick+0x74>
e00132d0:	ebffff70 	bl	e0013098 <rescheduleRequired>
e00132d4:	eaffffef 	b	e0013298 <timerTick+0x34>
e00132d8:	ebfff564 	bl	e0010870 <tcbSchedAppend.part.171>
e00132dc:	eafffffb 	b	e00132d0 <timerTick+0x6c>

e00132e0 <preemptionPoint>:
e00132e0:	e3032204 	movw	r2, #12804	; 0x3204
e00132e4:	e34e2003 	movt	r2, #57347	; 0xe003
e00132e8:	e5923000 	ldr	r3, [r2]
e00132ec:	e2833001 	add	r3, r3, #1
e00132f0:	e5823000 	str	r3, [r2]
e00132f4:	e3530063 	cmp	r3, #99	; 0x63
e00132f8:	9a000000 	bls	e0013300 <preemptionPoint+0x20>
e00132fc:	eafff529 	b	e00107a8 <preemptionPoint.part.161>
e0013300:	e3a00000 	mov	r0, #0
e0013304:	e12fff1e 	bx	lr

e0013308 <cteInsert>:
e0013308:	e92d47f0 	push	{r4, r5, r6, r7, r8, r9, sl, lr}
e001330c:	e24dd008 	sub	sp, sp, #8
e0013310:	e1a06001 	mov	r6, r1
e0013314:	e592e008 	ldr	lr, [r2, #8]
e0013318:	e1a0400d 	mov	r4, sp
e001331c:	e592c00c 	ldr	ip, [r2, #12]
e0013320:	e8840003 	stm	r4, {r0, r1}
e0013324:	e200100e 	and	r1, r0, #14
e0013328:	e351000e 	cmp	r1, #14
e001332c:	e8920082 	ldm	r2, {r1, r7}
e0013330:	1200500f 	andne	r5, r0, #15
e0013334:	06ef5070 	uxtbeq	r5, r0
e0013338:	e3150001 	tst	r5, #1
e001333c:	e201a00e 	and	sl, r1, #14
e0013340:	1a000020 	bne	e00133c8 <cteInsert+0xc0>
e0013344:	e2458002 	sub	r8, r5, #2
e0013348:	e358001c 	cmp	r8, #28
e001334c:	979ff108 	ldrls	pc, [pc, r8, lsl #2]
e0013350:	ea00001c 	b	e00133c8 <cteInsert+0xc0>
e0013354:	e0013478 	.word	0xe0013478
e0013358:	e00133c8 	.word	0xe00133c8
e001335c:	e00134a4 	.word	0xe00134a4
e0013360:	e00133c8 	.word	0xe00133c8
e0013364:	e00134bc 	.word	0xe00134bc
e0013368:	e00133c8 	.word	0xe00133c8
e001336c:	e00133c8 	.word	0xe00133c8
e0013370:	e00133c8 	.word	0xe00133c8
e0013374:	e00133c8 	.word	0xe00133c8
e0013378:	e00133c8 	.word	0xe00133c8
e001337c:	e00133c8 	.word	0xe00133c8
e0013380:	e00133c8 	.word	0xe00133c8
e0013384:	e00133c8 	.word	0xe00133c8
e0013388:	e00133c8 	.word	0xe00133c8
e001338c:	e00133c8 	.word	0xe00133c8
e0013390:	e00133c8 	.word	0xe00133c8
e0013394:	e00133c8 	.word	0xe00133c8
e0013398:	e00133c8 	.word	0xe00133c8
e001339c:	e00133c8 	.word	0xe00133c8
e00133a0:	e00133c8 	.word	0xe00133c8
e00133a4:	e00133c8 	.word	0xe00133c8
e00133a8:	e00133c8 	.word	0xe00133c8
e00133ac:	e00133c8 	.word	0xe00133c8
e00133b0:	e00133c8 	.word	0xe00133c8
e00133b4:	e00133c8 	.word	0xe00133c8
e00133b8:	e00133c8 	.word	0xe00133c8
e00133bc:	e00133c8 	.word	0xe00133c8
e00133c0:	e00133c8 	.word	0xe00133c8
e00133c4:	e0013484 	.word	0xe0013484
e00133c8:	e3a08000 	mov	r8, #0
e00133cc:	e1a09008 	mov	r9, r8
e00133d0:	e3ccc003 	bic	ip, ip, #3
e00133d4:	e35a000e 	cmp	sl, #14
e00133d8:	e18cc008 	orr	ip, ip, r8
e00133dc:	e20ee007 	and	lr, lr, #7
e00133e0:	e3c28007 	bic	r8, r2, #7
e00133e4:	e18cc009 	orr	ip, ip, r9
e00133e8:	e18ee008 	orr	lr, lr, r8
e00133ec:	1201800f 	andne	r8, r1, #15
e00133f0:	06ef8071 	uxtbeq	r8, r1
e00133f4:	e3580002 	cmp	r8, #2
e00133f8:	0a00000f 	beq	e001343c <cteInsert+0x134>
e00133fc:	e8940003 	ldm	r4, {r0, r1}
e0013400:	e583e008 	str	lr, [r3, #8]
e0013404:	e3dce007 	bics	lr, ip, #7
e0013408:	e583c00c 	str	ip, [r3, #12]
e001340c:	e3c3c007 	bic	ip, r3, #7
e0013410:	e8830003 	stm	r3, {r0, r1}
e0013414:	e592300c 	ldr	r3, [r2, #12]
e0013418:	e2033007 	and	r3, r3, #7
e001341c:	e183300c 	orr	r3, r3, ip
e0013420:	e582300c 	str	r3, [r2, #12]
e0013424:	159e3008 	ldrne	r3, [lr, #8]
e0013428:	12033007 	andne	r3, r3, #7
e001342c:	1183300c 	orrne	r3, r3, ip
e0013430:	158e3008 	strne	r3, [lr, #8]
e0013434:	e28dd008 	add	sp, sp, #8
e0013438:	e8bd87f0 	pop	{r4, r5, r6, r7, r8, r9, sl, pc}
e001343c:	e3550002 	cmp	r5, #2
e0013440:	1affffed 	bne	e00133fc <cteInsert+0xf4>
e0013444:	e3c1100f 	bic	r1, r1, #15
e0013448:	e3c0000f 	bic	r0, r0, #15
e001344c:	e1510000 	cmp	r1, r0
e0013450:	1affffe9 	bne	e00133fc <cteInsert+0xf4>
e0013454:	e206601f 	and	r6, r6, #31
e0013458:	e207101f 	and	r1, r7, #31
e001345c:	e1560001 	cmp	r6, r1
e0013460:	02466004 	subeq	r6, r6, #4
e0013464:	0207703f 	andeq	r7, r7, #63	; 0x3f
e0013468:	03a01040 	moveq	r1, #64	; 0x40
e001346c:	01876611 	orreq	r6, r7, r1, lsl r6
e0013470:	05826004 	streq	r6, [r2, #4]
e0013474:	eaffffe0 	b	e00133fc <cteInsert+0xf4>
e0013478:	e3a08002 	mov	r8, #2
e001347c:	e3a09001 	mov	r9, #1
e0013480:	eaffffd2 	b	e00133d0 <cteInsert+0xc8>
e0013484:	e35a000e 	cmp	sl, #14
e0013488:	1201900f 	andne	r9, r1, #15
e001348c:	06ef9071 	uxtbeq	r9, r1
e0013490:	e249900e 	sub	r9, r9, #14
e0013494:	e16f9f19 	clz	r9, r9
e0013498:	e1a092a9 	lsr	r9, r9, #5
e001349c:	e1a08089 	lsl	r8, r9, #1
e00134a0:	eaffffca 	b	e00133d0 <cteInsert+0xc8>
e00134a4:	e1a08221 	lsr	r8, r1, #4
e00134a8:	e1580220 	cmp	r8, r0, lsr #4
e00134ac:	13a09001 	movne	r9, #1
e00134b0:	03a09000 	moveq	r9, #0
e00134b4:	e1a08089 	lsl	r8, r9, #1
e00134b8:	eaffffc4 	b	e00133d0 <cteInsert+0xc8>
e00134bc:	e1a08227 	lsr	r8, r7, #4
e00134c0:	e1580226 	cmp	r8, r6, lsr #4
e00134c4:	13a09001 	movne	r9, #1
e00134c8:	03a09000 	moveq	r9, #0
e00134cc:	e1a08089 	lsl	r8, r9, #1
e00134d0:	eaffffbe 	b	e00133d0 <cteInsert+0xc8>

e00134d4 <invokeCNodeInsert>:
e00134d4:	e52de004 	push	{lr}		; (str lr, [sp, #-4]!)
e00134d8:	e24dd00c 	sub	sp, sp, #12
e00134dc:	e1a0c00d 	mov	ip, sp
e00134e0:	e88c0003 	stm	ip, {r0, r1}
e00134e4:	e89c0003 	ldm	ip, {r0, r1}
e00134e8:	ebffff86 	bl	e0013308 <cteInsert>
e00134ec:	e3a00000 	mov	r0, #0
e00134f0:	e28dd00c 	add	sp, sp, #12
e00134f4:	e49df004 	pop	{pc}		; (ldr pc, [sp], #4)

e00134f8 <cteMove>:
e00134f8:	e92d4030 	push	{r4, r5, lr}
e00134fc:	e24dd00c 	sub	sp, sp, #12
e0013500:	e5924008 	ldr	r4, [r2, #8]
e0013504:	e3a0e000 	mov	lr, #0
e0013508:	e1a0c00d 	mov	ip, sp
e001350c:	e88c0003 	stm	ip, {r0, r1}
e0013510:	e3d45007 	bics	r5, r4, #7
e0013514:	e89c0003 	ldm	ip, {r0, r1}
e0013518:	e592c00c 	ldr	ip, [r2, #12]
e001351c:	e8830003 	stm	r3, {r0, r1}
e0013520:	e582e000 	str	lr, [r2]
e0013524:	e582e004 	str	lr, [r2, #4]
e0013528:	e583c00c 	str	ip, [r3, #12]
e001352c:	e5834008 	str	r4, [r3, #8]
e0013530:	e582e008 	str	lr, [r2, #8]
e0013534:	e582e00c 	str	lr, [r2, #12]
e0013538:	13c32007 	bicne	r2, r3, #7
e001353c:	1595100c 	ldrne	r1, [r5, #12]
e0013540:	12011007 	andne	r1, r1, #7
e0013544:	11812002 	orrne	r2, r1, r2
e0013548:	1585200c 	strne	r2, [r5, #12]
e001354c:	e3dcc007 	bics	ip, ip, #7
e0013550:	13c33007 	bicne	r3, r3, #7
e0013554:	159c2008 	ldrne	r2, [ip, #8]
e0013558:	12022007 	andne	r2, r2, #7
e001355c:	11823003 	orrne	r3, r2, r3
e0013560:	158c3008 	strne	r3, [ip, #8]
e0013564:	e28dd00c 	add	sp, sp, #12
e0013568:	e8bd8030 	pop	{r4, r5, pc}

e001356c <invokeCNodeMove>:
e001356c:	e52de004 	push	{lr}		; (str lr, [sp, #-4]!)
e0013570:	e24dd00c 	sub	sp, sp, #12
e0013574:	e1a0c00d 	mov	ip, sp
e0013578:	e88c0003 	stm	ip, {r0, r1}
e001357c:	e89c0003 	ldm	ip, {r0, r1}
e0013580:	ebffffdc 	bl	e00134f8 <cteMove>
e0013584:	e3a00000 	mov	r0, #0
e0013588:	e28dd00c 	add	sp, sp, #12
e001358c:	e49df004 	pop	{pc}		; (ldr pc, [sp], #4)

e0013590 <invokeCNodeSaveCaller>:
e0013590:	e303264c 	movw	r2, #13900	; 0x364c
e0013594:	e34e2003 	movt	r2, #57347	; 0xe003
e0013598:	e1a03000 	mov	r3, r0
e001359c:	e5922000 	ldr	r2, [r2]
e00135a0:	e92d4010 	push	{r4, lr}
e00135a4:	e3c22f7f 	bic	r2, r2, #508	; 0x1fc
e00135a8:	e3c22003 	bic	r2, r2, #3
e00135ac:	e24dd008 	sub	sp, sp, #8
e00135b0:	e2822030 	add	r2, r2, #48	; 0x30
e00135b4:	e1a0e00d 	mov	lr, sp
e00135b8:	e8920003 	ldm	r2, {r0, r1}
e00135bc:	e200400e 	and	r4, r0, #14
e00135c0:	e354000e 	cmp	r4, #14
e00135c4:	e88e0003 	stm	lr, {r0, r1}
e00135c8:	1200100f 	andne	r1, r0, #15
e00135cc:	06ef1070 	uxtbeq	r1, r0
e00135d0:	e3510000 	cmp	r1, #0
e00135d4:	0a000003 	beq	e00135e8 <invokeCNodeSaveCaller+0x58>
e00135d8:	e3510008 	cmp	r1, #8
e00135dc:	1a00000a 	bne	e001360c <invokeCNodeSaveCaller+0x7c>
e00135e0:	e3100010 	tst	r0, #16
e00135e4:	0a000002 	beq	e00135f4 <invokeCNodeSaveCaller+0x64>
e00135e8:	e3a00000 	mov	r0, #0
e00135ec:	e28dd008 	add	sp, sp, #8
e00135f0:	e8bd8010 	pop	{r4, pc}
e00135f4:	e58d0000 	str	r0, [sp]
e00135f8:	e89e0003 	ldm	lr, {r0, r1}
e00135fc:	ebffffbd 	bl	e00134f8 <cteMove>
e0013600:	e3a00000 	mov	r0, #0
e0013604:	e28dd008 	add	sp, sp, #8
e0013608:	e8bd8010 	pop	{r4, pc}
e001360c:	ebfff50a 	bl	e0010a3c <halt>

e0013610 <cteSwap>:
e0013610:	e24dd008 	sub	sp, sp, #8
e0013614:	e92d4010 	push	{r4, lr}
e0013618:	e24dd008 	sub	sp, sp, #8
e001361c:	e28de014 	add	lr, sp, #20
e0013620:	e1a0c00d 	mov	ip, sp
e0013624:	e58d3014 	str	r3, [sp, #20]
e0013628:	e88c0003 	stm	ip, {r0, r1}
e001362c:	e89e0003 	ldm	lr, {r0, r1}
e0013630:	e59d301c 	ldr	r3, [sp, #28]
e0013634:	e8820003 	stm	r2, {r0, r1}
e0013638:	e89c0003 	ldm	ip, {r0, r1}
e001363c:	e8830003 	stm	r3, {r0, r1}
e0013640:	e592c008 	ldr	ip, [r2, #8]
e0013644:	e592000c 	ldr	r0, [r2, #12]
e0013648:	e3dc4007 	bics	r4, ip, #7
e001364c:	13c31007 	bicne	r1, r3, #7
e0013650:	1594e00c 	ldrne	lr, [r4, #12]
e0013654:	120ee007 	andne	lr, lr, #7
e0013658:	118e1001 	orrne	r1, lr, r1
e001365c:	1584100c 	strne	r1, [r4, #12]
e0013660:	e3d04007 	bics	r4, r0, #7
e0013664:	13c31007 	bicne	r1, r3, #7
e0013668:	1594e008 	ldrne	lr, [r4, #8]
e001366c:	120ee007 	andne	lr, lr, #7
e0013670:	118e1001 	orrne	r1, lr, r1
e0013674:	15841008 	strne	r1, [r4, #8]
e0013678:	e593e008 	ldr	lr, [r3, #8]
e001367c:	e593100c 	ldr	r1, [r3, #12]
e0013680:	e3de4007 	bics	r4, lr, #7
e0013684:	e582e008 	str	lr, [r2, #8]
e0013688:	e582100c 	str	r1, [r2, #12]
e001368c:	e583000c 	str	r0, [r3, #12]
e0013690:	e583c008 	str	ip, [r3, #8]
e0013694:	13c23007 	bicne	r3, r2, #7
e0013698:	1594000c 	ldrne	r0, [r4, #12]
e001369c:	12000007 	andne	r0, r0, #7
e00136a0:	11803003 	orrne	r3, r0, r3
e00136a4:	1584300c 	strne	r3, [r4, #12]
e00136a8:	e3d11007 	bics	r1, r1, #7
e00136ac:	13c22007 	bicne	r2, r2, #7
e00136b0:	15913008 	ldrne	r3, [r1, #8]
e00136b4:	12033007 	andne	r3, r3, #7
e00136b8:	11832002 	orrne	r2, r3, r2
e00136bc:	15812008 	strne	r2, [r1, #8]
e00136c0:	e28dd008 	add	sp, sp, #8
e00136c4:	e8bd4010 	pop	{r4, lr}
e00136c8:	e28dd008 	add	sp, sp, #8
e00136cc:	e12fff1e 	bx	lr

e00136d0 <invokeCNodeRotate>:
e00136d0:	e92d4030 	push	{r4, r5, lr}
e00136d4:	e24dd01c 	sub	sp, sp, #28
e00136d8:	e28d4010 	add	r4, sp, #16
e00136dc:	e28dc008 	add	ip, sp, #8
e00136e0:	e59d5028 	ldr	r5, [sp, #40]	; 0x28
e00136e4:	e59de030 	ldr	lr, [sp, #48]	; 0x30
e00136e8:	e8840003 	stm	r4, {r0, r1}
e00136ec:	e155000e 	cmp	r5, lr
e00136f0:	e88c000c 	stm	ip, {r2, r3}
e00136f4:	0a00000a 	beq	e0013724 <invokeCNodeRotate+0x54>
e00136f8:	e1a0300e 	mov	r3, lr
e00136fc:	e89c0003 	ldm	ip, {r0, r1}
e0013700:	e59d202c 	ldr	r2, [sp, #44]	; 0x2c
e0013704:	ebffff7b 	bl	e00134f8 <cteMove>
e0013708:	e8940003 	ldm	r4, {r0, r1}
e001370c:	e59d302c 	ldr	r3, [sp, #44]	; 0x2c
e0013710:	e1a02005 	mov	r2, r5
e0013714:	ebffff77 	bl	e00134f8 <cteMove>
e0013718:	e3a00000 	mov	r0, #0
e001371c:	e28dd01c 	add	sp, sp, #28
e0013720:	e8bd8030 	pop	{r4, r5, pc}
e0013724:	e59d100c 	ldr	r1, [sp, #12]
e0013728:	e1a02005 	mov	r2, r5
e001372c:	e59d302c 	ldr	r3, [sp, #44]	; 0x2c
e0013730:	e58d1000 	str	r1, [sp]
e0013734:	e58d3004 	str	r3, [sp, #4]
e0013738:	e59d3008 	ldr	r3, [sp, #8]
e001373c:	e8940003 	ldm	r4, {r0, r1}
e0013740:	ebffffb2 	bl	e0013610 <cteSwap>
e0013744:	e3a00000 	mov	r0, #0
e0013748:	e28dd01c 	add	sp, sp, #28
e001374c:	e8bd8030 	pop	{r4, r5, pc}

e0013750 <capSwapForDelete.part.162>:
e0013750:	e52de004 	push	{lr}		; (str lr, [sp, #-4]!)
e0013754:	e1a03001 	mov	r3, r1
e0013758:	e24dd01c 	sub	sp, sp, #28
e001375c:	e1a02000 	mov	r2, r0
e0013760:	e8900003 	ldm	r0, {r0, r1}
e0013764:	e28dc008 	add	ip, sp, #8
e0013768:	e58d3004 	str	r3, [sp, #4]
e001376c:	e88c0003 	stm	ip, {r0, r1}
e0013770:	e8930003 	ldm	r3, {r0, r1}
e0013774:	e28d3018 	add	r3, sp, #24
e0013778:	e9030003 	stmdb	r3, {r0, r1}
e001377c:	e59de014 	ldr	lr, [sp, #20]
e0013780:	e89c0003 	ldm	ip, {r0, r1}
e0013784:	e59d3010 	ldr	r3, [sp, #16]
e0013788:	e58de000 	str	lr, [sp]
e001378c:	ebffff9f 	bl	e0013610 <cteSwap>
e0013790:	e28dd01c 	add	sp, sp, #28
e0013794:	e49df004 	pop	{pc}		; (ldr pc, [sp], #4)

e0013798 <capSwapForDelete>:
e0013798:	e1510000 	cmp	r1, r0
e001379c:	012fff1e 	bxeq	lr
e00137a0:	eaffffea 	b	e0013750 <capSwapForDelete.part.162>

e00137a4 <insertNewCap>:
e00137a4:	e590c00c 	ldr	ip, [r0, #12]
e00137a8:	e92d4010 	push	{r4, lr}
e00137ac:	e3ccc007 	bic	ip, ip, #7
e00137b0:	e24dd008 	sub	sp, sp, #8
e00137b4:	e35c0000 	cmp	ip, #0
e00137b8:	e28d4008 	add	r4, sp, #8
e00137bc:	e881000c 	stm	r1, {r2, r3}
e00137c0:	e3c0e007 	bic	lr, r0, #7
e00137c4:	e581e008 	str	lr, [r1, #8]
e00137c8:	e904000c 	stmdb	r4, {r2, r3}
e00137cc:	e38c3003 	orr	r3, ip, #3
e00137d0:	e581300c 	str	r3, [r1, #12]
e00137d4:	e3c1e007 	bic	lr, r1, #7
e00137d8:	159c2008 	ldrne	r2, [ip, #8]
e00137dc:	12022007 	andne	r2, r2, #7
e00137e0:	1182200e 	orrne	r2, r2, lr
e00137e4:	158c2008 	strne	r2, [ip, #8]
e00137e8:	e590300c 	ldr	r3, [r0, #12]
e00137ec:	e2033007 	and	r3, r3, #7
e00137f0:	e183300e 	orr	r3, r3, lr
e00137f4:	e580300c 	str	r3, [r0, #12]
e00137f8:	e28dd008 	add	sp, sp, #8
e00137fc:	e8bd8010 	pop	{r4, pc}

e0013800 <setupReplyMaster>:
e0013800:	e3c02f7f 	bic	r2, r0, #508	; 0x1fc
e0013804:	e3c22003 	bic	r2, r2, #3
e0013808:	e2821020 	add	r1, r2, #32
e001380c:	e5923020 	ldr	r3, [r2, #32]
e0013810:	e203c00e 	and	ip, r3, #14
e0013814:	e35c000e 	cmp	ip, #14
e0013818:	1203300f 	andne	r3, r3, #15
e001381c:	06ef3073 	uxtbeq	r3, r3
e0013820:	e3530000 	cmp	r3, #0
e0013824:	112fff1e 	bxne	lr
e0013828:	e3c0003f 	bic	r0, r0, #63	; 0x3f
e001382c:	e3a0c003 	mov	ip, #3
e0013830:	e3800038 	orr	r0, r0, #56	; 0x38
e0013834:	e5820020 	str	r0, [r2, #32]
e0013838:	e5813004 	str	r3, [r1, #4]
e001383c:	e5813008 	str	r3, [r1, #8]
e0013840:	e581c00c 	str	ip, [r1, #12]
e0013844:	e12fff1e 	bx	lr

e0013848 <ensureEmptySlot>:
e0013848:	e5900000 	ldr	r0, [r0]
e001384c:	e200300e 	and	r3, r0, #14
e0013850:	e353000e 	cmp	r3, #14
e0013854:	1200000f 	andne	r0, r0, #15
e0013858:	06ef0070 	uxtbeq	r0, r0
e001385c:	e3500000 	cmp	r0, #0
e0013860:	13093020 	movwne	r3, #36896	; 0x9020
e0013864:	134e3002 	movtne	r3, #57346	; 0xe002
e0013868:	13a02008 	movne	r2, #8
e001386c:	13a00003 	movne	r0, #3
e0013870:	15832018 	strne	r2, [r3, #24]
e0013874:	e12fff1e 	bx	lr

e0013878 <getReceiveSlots>:
e0013878:	e2513000 	subs	r3, r1, #0
e001387c:	0a000023 	beq	e0013910 <getReceiveSlots+0x98>
e0013880:	e92d4070 	push	{r4, r5, r6, lr}
e0013884:	e24dd018 	sub	sp, sp, #24
e0013888:	e28d4010 	add	r4, sp, #16
e001388c:	e1a01000 	mov	r1, r0
e0013890:	e59321f4 	ldr	r2, [r3, #500]	; 0x1f4
e0013894:	e1a00004 	mov	r0, r4
e0013898:	e59351f8 	ldr	r5, [r3, #504]	; 0x1f8
e001389c:	e59361fc 	ldr	r6, [r3, #508]	; 0x1fc
e00138a0:	ebfffd24 	bl	e0012d38 <lookupSlot>
e00138a4:	e59d1010 	ldr	r1, [sp, #16]
e00138a8:	e3510000 	cmp	r1, #0
e00138ac:	1a000014 	bne	e0013904 <getReceiveSlots+0x8c>
e00138b0:	e59d3014 	ldr	r3, [sp, #20]
e00138b4:	e28d0008 	add	r0, sp, #8
e00138b8:	e1c320d0 	ldrd	r2, [r3]
e00138bc:	e58d6004 	str	r6, [sp, #4]
e00138c0:	e58d5000 	str	r5, [sp]
e00138c4:	e1cd21f0 	strd	r2, [sp, #16]
e00138c8:	e894000c 	ldm	r4, {r2, r3}
e00138cc:	ebfffd54 	bl	e0012e24 <lookupSlotForCNodeOp>
e00138d0:	e59d3008 	ldr	r3, [sp, #8]
e00138d4:	e3530000 	cmp	r3, #0
e00138d8:	1a000009 	bne	e0013904 <getReceiveSlots+0x8c>
e00138dc:	e59d000c 	ldr	r0, [sp, #12]
e00138e0:	e5903000 	ldr	r3, [r0]
e00138e4:	e203200e 	and	r2, r3, #14
e00138e8:	e352000e 	cmp	r2, #14
e00138ec:	1203300f 	andne	r3, r3, #15
e00138f0:	06ef3073 	uxtbeq	r3, r3
e00138f4:	e3530000 	cmp	r3, #0
e00138f8:	1a000001 	bne	e0013904 <getReceiveSlots+0x8c>
e00138fc:	e28dd018 	add	sp, sp, #24
e0013900:	e8bd8070 	pop	{r4, r5, r6, pc}
e0013904:	e3a00000 	mov	r0, #0
e0013908:	e28dd018 	add	sp, sp, #24
e001390c:	e8bd8070 	pop	{r4, r5, r6, pc}
e0013910:	e3a00000 	mov	r0, #0
e0013914:	e12fff1e 	bx	lr

e0013918 <loadCapTransfer>:
e0013918:	e52de004 	push	{lr}		; (str lr, [sp, #-4]!)
e001391c:	e591c1f4 	ldr	ip, [r1, #500]	; 0x1f4
e0013920:	e591e1f8 	ldr	lr, [r1, #504]	; 0x1f8
e0013924:	e59121fc 	ldr	r2, [r1, #508]	; 0x1fc
e0013928:	e8805000 	stm	r0, {ip, lr}
e001392c:	e5802008 	str	r2, [r0, #8]
e0013930:	e49df004 	pop	{pc}		; (ldr pc, [sp], #4)

e0013934 <replyFromKernel_success_empty>:
e0013934:	e3a03000 	mov	r3, #0
e0013938:	e5803000 	str	r3, [r0]
e001393c:	e5803004 	str	r3, [r0, #4]
e0013940:	e12fff1e 	bx	lr

e0013944 <cancelAllIPC>:
e0013944:	e5903000 	ldr	r3, [r0]
e0013948:	e3130003 	tst	r3, #3
e001394c:	012fff1e 	bxeq	lr
e0013950:	e5902004 	ldr	r2, [r0, #4]
e0013954:	e203300c 	and	r3, r3, #12
e0013958:	e92d4070 	push	{r4, r5, r6, lr}
e001395c:	e3d2400f 	bics	r4, r2, #15
e0013960:	e5803000 	str	r3, [r0]
e0013964:	e202200f 	and	r2, r2, #15
e0013968:	e5802004 	str	r2, [r0, #4]
e001396c:	0a000014 	beq	e00139c4 <cancelAllIPC+0x80>
e0013970:	e303564c 	movw	r5, #13900	; 0x364c
e0013974:	e34e5003 	movt	r5, #57347	; 0xe003
e0013978:	ea000002 	b	e0013988 <cancelAllIPC+0x44>
e001397c:	e5944090 	ldr	r4, [r4, #144]	; 0x90
e0013980:	e3540000 	cmp	r4, #0
e0013984:	0a00000e 	beq	e00139c4 <cancelAllIPC+0x80>
e0013988:	e5952000 	ldr	r2, [r5]
e001398c:	e5943050 	ldr	r3, [r4, #80]	; 0x50
e0013990:	e1520004 	cmp	r2, r4
e0013994:	e3c3300f 	bic	r3, r3, #15
e0013998:	e3833002 	orr	r3, r3, #2
e001399c:	e5843050 	str	r3, [r4, #80]	; 0x50
e00139a0:	0a000009 	beq	e00139cc <cancelAllIPC+0x88>
e00139a4:	e5943054 	ldr	r3, [r4, #84]	; 0x54
e00139a8:	e3130001 	tst	r3, #1
e00139ac:	1afffff2 	bne	e001397c <cancelAllIPC+0x38>
e00139b0:	e1a00004 	mov	r0, r4
e00139b4:	ebfff387 	bl	e00107d8 <tcbSchedEnqueue.part.164>
e00139b8:	e5944090 	ldr	r4, [r4, #144]	; 0x90
e00139bc:	e3540000 	cmp	r4, #0
e00139c0:	1afffff0 	bne	e0013988 <cancelAllIPC+0x44>
e00139c4:	e8bd4070 	pop	{r4, r5, r6, lr}
e00139c8:	eafffdb2 	b	e0013098 <rescheduleRequired>
e00139cc:	e1a00004 	mov	r0, r4
e00139d0:	ebfffdcf 	bl	e0013114 <setThreadState.part.166>
e00139d4:	eafffff2 	b	e00139a4 <cancelAllIPC+0x60>

e00139d8 <cancelBadgedSends>:
e00139d8:	e5903000 	ldr	r3, [r0]
e00139dc:	e92d47f0 	push	{r4, r5, r6, r7, r8, r9, sl, lr}
e00139e0:	e2032003 	and	r2, r3, #3
e00139e4:	e3520001 	cmp	r2, #1
e00139e8:	0a000003 	beq	e00139fc <cancelBadgedSends+0x24>
e00139ec:	38bd87f0 	popcc	{r4, r5, r6, r7, r8, r9, sl, pc}
e00139f0:	e3520002 	cmp	r2, #2
e00139f4:	08bd87f0 	popeq	{r4, r5, r6, r7, r8, r9, sl, pc}
e00139f8:	ebfff40f 	bl	e0010a3c <halt>
e00139fc:	e5902004 	ldr	r2, [r0, #4]
e0013a00:	e1a07001 	mov	r7, r1
e0013a04:	e1a06000 	mov	r6, r0
e0013a08:	e203100c 	and	r1, r3, #12
e0013a0c:	e3d2400f 	bics	r4, r2, #15
e0013a10:	e5801000 	str	r1, [r0]
e0013a14:	e202200f 	and	r2, r2, #15
e0013a18:	e3c3a00f 	bic	sl, r3, #15
e0013a1c:	e5802004 	str	r2, [r0, #4]
e0013a20:	0a000032 	beq	e0013af0 <cancelBadgedSends+0x118>
e0013a24:	e303964c 	movw	r9, #13900	; 0x364c
e0013a28:	e1a08004 	mov	r8, r4
e0013a2c:	e34e9003 	movt	r9, #57347	; 0xe003
e0013a30:	ea000002 	b	e0013a40 <cancelBadgedSends+0x68>
e0013a34:	e3550000 	cmp	r5, #0
e0013a38:	e1a04005 	mov	r4, r5
e0013a3c:	0a000019 	beq	e0013aa8 <cancelBadgedSends+0xd0>
e0013a40:	e5943058 	ldr	r3, [r4, #88]	; 0x58
e0013a44:	e5945090 	ldr	r5, [r4, #144]	; 0x90
e0013a48:	e1570223 	cmp	r7, r3, lsr #4
e0013a4c:	1afffff8 	bne	e0013a34 <cancelBadgedSends+0x5c>
e0013a50:	e5992000 	ldr	r2, [r9]
e0013a54:	e5943050 	ldr	r3, [r4, #80]	; 0x50
e0013a58:	e1520004 	cmp	r2, r4
e0013a5c:	e3c3300f 	bic	r3, r3, #15
e0013a60:	e3833002 	orr	r3, r3, #2
e0013a64:	e5843050 	str	r3, [r4, #80]	; 0x50
e0013a68:	0a000023 	beq	e0013afc <cancelBadgedSends+0x124>
e0013a6c:	e5943054 	ldr	r3, [r4, #84]	; 0x54
e0013a70:	e3130001 	tst	r3, #1
e0013a74:	0a00001a 	beq	e0013ae4 <cancelBadgedSends+0x10c>
e0013a78:	e5942094 	ldr	r2, [r4, #148]	; 0x94
e0013a7c:	e5943090 	ldr	r3, [r4, #144]	; 0x90
e0013a80:	e3520000 	cmp	r2, #0
e0013a84:	15823090 	strne	r3, [r2, #144]	; 0x90
e0013a88:	01a08003 	moveq	r8, r3
e0013a8c:	15943090 	ldrne	r3, [r4, #144]	; 0x90
e0013a90:	e1a04005 	mov	r4, r5
e0013a94:	e3530000 	cmp	r3, #0
e0013a98:	15832094 	strne	r2, [r3, #148]	; 0x94
e0013a9c:	01a0a002 	moveq	sl, r2
e0013aa0:	e3550000 	cmp	r5, #0
e0013aa4:	1affffe5 	bne	e0013a40 <cancelBadgedSends+0x68>
e0013aa8:	e5963000 	ldr	r3, [r6]
e0013aac:	e3caa00f 	bic	sl, sl, #15
e0013ab0:	e5962004 	ldr	r2, [r6, #4]
e0013ab4:	e3580000 	cmp	r8, #0
e0013ab8:	e203300f 	and	r3, r3, #15
e0013abc:	e3c8800f 	bic	r8, r8, #15
e0013ac0:	e183300a 	orr	r3, r3, sl
e0013ac4:	e202200f 	and	r2, r2, #15
e0013ac8:	13c33003 	bicne	r3, r3, #3
e0013acc:	e1828008 	orr	r8, r2, r8
e0013ad0:	13833001 	orrne	r3, r3, #1
e0013ad4:	e5868004 	str	r8, [r6, #4]
e0013ad8:	e5863000 	str	r3, [r6]
e0013adc:	e8bd47f0 	pop	{r4, r5, r6, r7, r8, r9, sl, lr}
e0013ae0:	eafffd6c 	b	e0013098 <rescheduleRequired>
e0013ae4:	e1a00004 	mov	r0, r4
e0013ae8:	ebfff33a 	bl	e00107d8 <tcbSchedEnqueue.part.164>
e0013aec:	eaffffe1 	b	e0013a78 <cancelBadgedSends+0xa0>
e0013af0:	e3c33003 	bic	r3, r3, #3
e0013af4:	e5803000 	str	r3, [r0]
e0013af8:	eafffff7 	b	e0013adc <cancelBadgedSends+0x104>
e0013afc:	e1a00004 	mov	r0, r4
e0013b00:	ebfffd83 	bl	e0013114 <setThreadState.part.166>
e0013b04:	eaffffd8 	b	e0013a6c <cancelBadgedSends+0x94>

e0013b08 <invokeCNodeCancelBadgedSends>:
e0013b08:	e52de004 	push	{lr}		; (str lr, [sp, #-4]!)
e0013b0c:	e24dd00c 	sub	sp, sp, #12
e0013b10:	e28d3008 	add	r3, sp, #8
e0013b14:	e9030003 	stmdb	r3, {r0, r1}
e0013b18:	e59d1000 	ldr	r1, [sp]
e0013b1c:	e1b01221 	lsrs	r1, r1, #4
e0013b20:	0a000002 	beq	e0013b30 <invokeCNodeCancelBadgedSends+0x28>
e0013b24:	e59d0004 	ldr	r0, [sp, #4]
e0013b28:	e3c0000f 	bic	r0, r0, #15
e0013b2c:	ebffffa9 	bl	e00139d8 <cancelBadgedSends>
e0013b30:	e3a00000 	mov	r0, #0
e0013b34:	e28dd00c 	add	sp, sp, #12
e0013b38:	e49df004 	pop	{pc}		; (ldr pc, [sp], #4)

e0013b3c <invokeIRQControl>:
e0013b3c:	e1a032a0 	lsr	r3, r0, #5
e0013b40:	e301c1ff 	movw	ip, #4607	; 0x11ff
e0013b44:	e34fcff0 	movt	ip, #65520	; 0xfff0
e0013b48:	e1a03103 	lsl	r3, r3, #2
e0013b4c:	e92d4030 	push	{r4, r5, lr}
e0013b50:	e083c00c 	add	ip, r3, ip
e0013b54:	e24dd00c 	sub	sp, sp, #12
e0013b58:	e3094048 	movw	r4, #36936	; 0x9048
e0013b5c:	e34e4002 	movt	r4, #57346	; 0xe002
e0013b60:	e200501f 	and	r5, r0, #31
e0013b64:	e3a0e001 	mov	lr, #1
e0013b68:	e1a03001 	mov	r3, r1
e0013b6c:	e784e100 	str	lr, [r4, r0, lsl #2]
e0013b70:	e3a0101e 	mov	r1, #30
e0013b74:	e1a0e51e 	lsl	lr, lr, r5
e0013b78:	e50ce0ff 	str	lr, [ip, #-255]	; 0xffffff01
e0013b7c:	e58d1000 	str	r1, [sp]
e0013b80:	e28d1008 	add	r1, sp, #8
e0013b84:	e6ef0070 	uxtb	r0, r0
e0013b88:	e58d0004 	str	r0, [sp, #4]
e0013b8c:	e9110003 	ldmdb	r1, {r0, r1}
e0013b90:	ebfffddc 	bl	e0013308 <cteInsert>
e0013b94:	e3a00000 	mov	r0, #0
e0013b98:	e28dd00c 	add	sp, sp, #12
e0013b9c:	e8bd8030 	pop	{r4, r5, pc}

e0013ba0 <Arch_decodeIRQControlInvocation>:
e0013ba0:	e24dd008 	sub	sp, sp, #8
e0013ba4:	e350002d 	cmp	r0, #45	; 0x2d
e0013ba8:	e92d41f0 	push	{r4, r5, r6, r7, r8, lr}
e0013bac:	e24dd018 	sub	sp, sp, #24
e0013bb0:	e58d3034 	str	r3, [sp, #52]	; 0x34
e0013bb4:	1a00000d 	bne	e0013bf0 <Arch_decodeIRQControlInvocation+0x50>
e0013bb8:	e3530000 	cmp	r3, #0
e0013bbc:	13510003 	cmpne	r1, #3
e0013bc0:	93a01001 	movls	r1, #1
e0013bc4:	83a01000 	movhi	r1, #0
e0013bc8:	8a000011 	bhi	e0013c14 <Arch_decodeIRQControlInvocation+0x74>
e0013bcc:	e3093020 	movw	r3, #36896	; 0x9020
e0013bd0:	e34e3002 	movt	r3, #57346	; 0xe002
e0013bd4:	e3a00003 	mov	r0, #3
e0013bd8:	e3a02007 	mov	r2, #7
e0013bdc:	e5832018 	str	r2, [r3, #24]
e0013be0:	e28dd018 	add	sp, sp, #24
e0013be4:	e8bd41f0 	pop	{r4, r5, r6, r7, r8, lr}
e0013be8:	e28dd008 	add	sp, sp, #8
e0013bec:	e12fff1e 	bx	lr
e0013bf0:	e3093020 	movw	r3, #36896	; 0x9020
e0013bf4:	e34e3002 	movt	r3, #57346	; 0xe002
e0013bf8:	e3a02003 	mov	r2, #3
e0013bfc:	e1a00002 	mov	r0, r2
e0013c00:	e5832018 	str	r2, [r3, #24]
e0013c04:	e28dd018 	add	sp, sp, #24
e0013c08:	e8bd41f0 	pop	{r4, r5, r6, r7, r8, lr}
e0013c0c:	e28dd008 	add	sp, sp, #8
e0013c10:	e12fff1e 	bx	lr
e0013c14:	e303564c 	movw	r5, #13900	; 0x364c
e0013c18:	e34e5003 	movt	r5, #57347	; 0xe003
e0013c1c:	e595c000 	ldr	ip, [r5]
e0013c20:	e59c6008 	ldr	r6, [ip, #8]
e0013c24:	e356009f 	cmp	r6, #159	; 0x9f
e0013c28:	8a00000d 	bhi	e0013c64 <Arch_decodeIRQControlInvocation+0xc4>
e0013c2c:	e3091048 	movw	r1, #36936	; 0x9048
e0013c30:	e34e1002 	movt	r1, #57346	; 0xe002
e0013c34:	e7911106 	ldr	r1, [r1, r6, lsl #2]
e0013c38:	e3510000 	cmp	r1, #0
e0013c3c:	0a000011 	beq	e0013c88 <Arch_decodeIRQControlInvocation+0xe8>
e0013c40:	e3093020 	movw	r3, #36896	; 0x9020
e0013c44:	e34e3002 	movt	r3, #57346	; 0xe002
e0013c48:	e3a02009 	mov	r2, #9
e0013c4c:	e3a00003 	mov	r0, #3
e0013c50:	e5832018 	str	r2, [r3, #24]
e0013c54:	e28dd018 	add	sp, sp, #24
e0013c58:	e8bd41f0 	pop	{r4, r5, r6, r7, r8, lr}
e0013c5c:	e28dd008 	add	sp, sp, #8
e0013c60:	e12fff1e 	bx	lr
e0013c64:	e3093020 	movw	r3, #36896	; 0x9020
e0013c68:	e34e3002 	movt	r3, #57346	; 0xe002
e0013c6c:	e3a0c004 	mov	ip, #4
e0013c70:	e3a0209f 	mov	r2, #159	; 0x9f
e0013c74:	e5831008 	str	r1, [r3, #8]
e0013c78:	e3a00003 	mov	r0, #3
e0013c7c:	e583c018 	str	ip, [r3, #24]
e0013c80:	e583200c 	str	r2, [r3, #12]
e0013c84:	eaffffd5 	b	e0013be0 <Arch_decodeIRQControlInvocation+0x40>
e0013c88:	e1a04002 	mov	r4, r2
e0013c8c:	e5932004 	ldr	r2, [r3, #4]
e0013c90:	e5933000 	ldr	r3, [r3]
e0013c94:	e28d0008 	add	r0, sp, #8
e0013c98:	e59c8010 	ldr	r8, [ip, #16]
e0013c9c:	e59ce014 	ldr	lr, [ip, #20]
e0013ca0:	e58d3010 	str	r3, [sp, #16]
e0013ca4:	e28d3018 	add	r3, sp, #24
e0013ca8:	e58d2014 	str	r2, [sp, #20]
e0013cac:	e59c700c 	ldr	r7, [ip, #12]
e0013cb0:	e913000c 	ldmdb	r3, {r2, r3}
e0013cb4:	e88d4100 	stm	sp, {r8, lr}
e0013cb8:	ebfffc59 	bl	e0012e24 <lookupSlotForCNodeOp>
e0013cbc:	e59d0008 	ldr	r0, [sp, #8]
e0013cc0:	e3500000 	cmp	r0, #0
e0013cc4:	1affffc5 	bne	e0013be0 <Arch_decodeIRQControlInvocation+0x40>
e0013cc8:	e59d800c 	ldr	r8, [sp, #12]
e0013ccc:	e5983000 	ldr	r3, [r8]
e0013cd0:	e203200e 	and	r2, r3, #14
e0013cd4:	e352000e 	cmp	r2, #14
e0013cd8:	1203300f 	andne	r3, r3, #15
e0013cdc:	06ef3073 	uxtbeq	r3, r3
e0013ce0:	e3530000 	cmp	r3, #0
e0013ce4:	0a000005 	beq	e0013d00 <Arch_decodeIRQControlInvocation+0x160>
e0013ce8:	e3093020 	movw	r3, #36896	; 0x9020
e0013cec:	e34e3002 	movt	r3, #57346	; 0xe002
e0013cf0:	e3a02008 	mov	r2, #8
e0013cf4:	e3a00003 	mov	r0, #3
e0013cf8:	e5832018 	str	r2, [r3, #24]
e0013cfc:	eaffffb7 	b	e0013be0 <Arch_decodeIRQControlInvocation+0x40>
e0013d00:	e5952000 	ldr	r2, [r5]
e0013d04:	e5923050 	ldr	r3, [r2, #80]	; 0x50
e0013d08:	e1a00002 	mov	r0, r2
e0013d0c:	e3c3300f 	bic	r3, r3, #15
e0013d10:	e3833002 	orr	r3, r3, #2
e0013d14:	e5823050 	str	r3, [r2, #80]	; 0x50
e0013d18:	ebfffcfd 	bl	e0013114 <setThreadState.part.166>
e0013d1c:	e206300f 	and	r3, r6, #15
e0013d20:	e3a01001 	mov	r1, #1
e0013d24:	e1a02226 	lsr	r2, r6, #4
e0013d28:	e1a03113 	lsl	r3, r3, r1
e0013d2c:	e3570000 	cmp	r7, #0
e0013d30:	e0833001 	add	r3, r3, r1
e0013d34:	e1a00006 	mov	r0, r6
e0013d38:	e1a01311 	lsl	r1, r1, r3
e0013d3c:	e1a03102 	lsl	r3, r2, #2
e0013d40:	e2433aff 	sub	r3, r3, #1044480	; 0xff000
e0013d44:	e5932c00 	ldr	r2, [r3, #3072]	; 0xc00
e0013d48:	11811002 	orrne	r1, r1, r2
e0013d4c:	01c21001 	biceq	r1, r2, r1
e0013d50:	e1a02004 	mov	r2, r4
e0013d54:	e5831c00 	str	r1, [r3, #3072]	; 0xc00
e0013d58:	e1a01008 	mov	r1, r8
e0013d5c:	e28dd018 	add	sp, sp, #24
e0013d60:	e8bd41f0 	pop	{r4, r5, r6, r7, r8, lr}
e0013d64:	e28dd008 	add	sp, sp, #8
e0013d68:	eaffff73 	b	e0013b3c <invokeIRQControl>

e0013d6c <decodeIRQControlInvocation>:
e0013d6c:	e24dd008 	sub	sp, sp, #8
e0013d70:	e3500019 	cmp	r0, #25
e0013d74:	e1a0c001 	mov	ip, r1
e0013d78:	e92d40f0 	push	{r4, r5, r6, r7, lr}
e0013d7c:	e24dd024 	sub	sp, sp, #36	; 0x24
e0013d80:	e58d303c 	str	r3, [sp, #60]	; 0x3c
e0013d84:	e59d1048 	ldr	r1, [sp, #72]	; 0x48
e0013d88:	1a00000d 	bne	e0013dc4 <decodeIRQControlInvocation+0x58>
e0013d8c:	e3530000 	cmp	r3, #0
e0013d90:	135c0002 	cmpne	ip, #2
e0013d94:	93a0c001 	movls	ip, #1
e0013d98:	83a0c000 	movhi	ip, #0
e0013d9c:	8a000014 	bhi	e0013df4 <decodeIRQControlInvocation+0x88>
e0013da0:	e3093020 	movw	r3, #36896	; 0x9020
e0013da4:	e34e3002 	movt	r3, #57346	; 0xe002
e0013da8:	e3a00003 	mov	r0, #3
e0013dac:	e3a02007 	mov	r2, #7
e0013db0:	e5832018 	str	r2, [r3, #24]
e0013db4:	e28dd024 	add	sp, sp, #36	; 0x24
e0013db8:	e8bd40f0 	pop	{r4, r5, r6, r7, lr}
e0013dbc:	e28dd008 	add	sp, sp, #8
e0013dc0:	e12fff1e 	bx	lr
e0013dc4:	e1a0e000 	mov	lr, r0
e0013dc8:	e28d0040 	add	r0, sp, #64	; 0x40
e0013dcc:	e58d1008 	str	r1, [sp, #8]
e0013dd0:	e8900003 	ldm	r0, {r0, r1}
e0013dd4:	e88d0003 	stm	sp, {r0, r1}
e0013dd8:	e1a0100c 	mov	r1, ip
e0013ddc:	e1a0000e 	mov	r0, lr
e0013de0:	ebffff6e 	bl	e0013ba0 <Arch_decodeIRQControlInvocation>
e0013de4:	e28dd024 	add	sp, sp, #36	; 0x24
e0013de8:	e8bd40f0 	pop	{r4, r5, r6, r7, lr}
e0013dec:	e28dd008 	add	sp, sp, #8
e0013df0:	e12fff1e 	bx	lr
e0013df4:	e303564c 	movw	r5, #13900	; 0x364c
e0013df8:	e34e5003 	movt	r5, #57347	; 0xe003
e0013dfc:	e595e000 	ldr	lr, [r5]
e0013e00:	e59e6008 	ldr	r6, [lr, #8]
e0013e04:	e356009f 	cmp	r6, #159	; 0x9f
e0013e08:	8a00000e 	bhi	e0013e48 <decodeIRQControlInvocation+0xdc>
e0013e0c:	e1a04002 	mov	r4, r2
e0013e10:	e3092048 	movw	r2, #36936	; 0x9048
e0013e14:	e34e2002 	movt	r2, #57346	; 0xe002
e0013e18:	e7921106 	ldr	r1, [r2, r6, lsl #2]
e0013e1c:	e3510000 	cmp	r1, #0
e0013e20:	0a000011 	beq	e0013e6c <decodeIRQControlInvocation+0x100>
e0013e24:	e3093020 	movw	r3, #36896	; 0x9020
e0013e28:	e34e3002 	movt	r3, #57346	; 0xe002
e0013e2c:	e3a02009 	mov	r2, #9
e0013e30:	e3a00003 	mov	r0, #3
e0013e34:	e5832018 	str	r2, [r3, #24]
e0013e38:	e28dd024 	add	sp, sp, #36	; 0x24
e0013e3c:	e8bd40f0 	pop	{r4, r5, r6, r7, lr}
e0013e40:	e28dd008 	add	sp, sp, #8
e0013e44:	e12fff1e 	bx	lr
e0013e48:	e3093020 	movw	r3, #36896	; 0x9020
e0013e4c:	e34e3002 	movt	r3, #57346	; 0xe002
e0013e50:	e3a01004 	mov	r1, #4
e0013e54:	e3a0209f 	mov	r2, #159	; 0x9f
e0013e58:	e583c008 	str	ip, [r3, #8]
e0013e5c:	e3a00003 	mov	r0, #3
e0013e60:	e5831018 	str	r1, [r3, #24]
e0013e64:	e583200c 	str	r2, [r3, #12]
e0013e68:	eaffffd1 	b	e0013db4 <decodeIRQControlInvocation+0x48>
e0013e6c:	e8930084 	ldm	r3, {r2, r7}
e0013e70:	e28d0010 	add	r0, sp, #16
e0013e74:	e59e3010 	ldr	r3, [lr, #16]
e0013e78:	e59ec00c 	ldr	ip, [lr, #12]
e0013e7c:	e58d701c 	str	r7, [sp, #28]
e0013e80:	e58d3004 	str	r3, [sp, #4]
e0013e84:	e28d3020 	add	r3, sp, #32
e0013e88:	e58d2018 	str	r2, [sp, #24]
e0013e8c:	e913000c 	ldmdb	r3, {r2, r3}
e0013e90:	e58dc000 	str	ip, [sp]
e0013e94:	ebfffbe2 	bl	e0012e24 <lookupSlotForCNodeOp>
e0013e98:	e59d0010 	ldr	r0, [sp, #16]
e0013e9c:	e3500000 	cmp	r0, #0
e0013ea0:	1affffc3 	bne	e0013db4 <decodeIRQControlInvocation+0x48>
e0013ea4:	e59d7014 	ldr	r7, [sp, #20]
e0013ea8:	e5973000 	ldr	r3, [r7]
e0013eac:	e203200e 	and	r2, r3, #14
e0013eb0:	e352000e 	cmp	r2, #14
e0013eb4:	1203300f 	andne	r3, r3, #15
e0013eb8:	06ef3073 	uxtbeq	r3, r3
e0013ebc:	e3530000 	cmp	r3, #0
e0013ec0:	0a000005 	beq	e0013edc <decodeIRQControlInvocation+0x170>
e0013ec4:	e3093020 	movw	r3, #36896	; 0x9020
e0013ec8:	e34e3002 	movt	r3, #57346	; 0xe002
e0013ecc:	e3a02008 	mov	r2, #8
e0013ed0:	e3a00003 	mov	r0, #3
e0013ed4:	e5832018 	str	r2, [r3, #24]
e0013ed8:	eaffffb5 	b	e0013db4 <decodeIRQControlInvocation+0x48>
e0013edc:	e5952000 	ldr	r2, [r5]
e0013ee0:	e5923050 	ldr	r3, [r2, #80]	; 0x50
e0013ee4:	e1a00002 	mov	r0, r2
e0013ee8:	e3c3300f 	bic	r3, r3, #15
e0013eec:	e3833002 	orr	r3, r3, #2
e0013ef0:	e5823050 	str	r3, [r2, #80]	; 0x50
e0013ef4:	ebfffc86 	bl	e0013114 <setThreadState.part.166>
e0013ef8:	e1a02004 	mov	r2, r4
e0013efc:	e1a01007 	mov	r1, r7
e0013f00:	e1a00006 	mov	r0, r6
e0013f04:	e28dd024 	add	sp, sp, #36	; 0x24
e0013f08:	e8bd40f0 	pop	{r4, r5, r6, r7, lr}
e0013f0c:	e28dd008 	add	sp, sp, #8
e0013f10:	eaffff09 	b	e0013b3c <invokeIRQControl>

e0013f14 <invokeIRQHandler_AckIRQ>:
e0013f14:	e1a012a0 	lsr	r1, r0, #5
e0013f18:	e30131ff 	movw	r3, #4607	; 0x11ff
e0013f1c:	e34f3ff0 	movt	r3, #65520	; 0xfff0
e0013f20:	e200001f 	and	r0, r0, #31
e0013f24:	e1a01101 	lsl	r1, r1, #2
e0013f28:	e3a02001 	mov	r2, #1
e0013f2c:	e0813003 	add	r3, r1, r3
e0013f30:	e1a00012 	lsl	r0, r2, r0
e0013f34:	e50300ff 	str	r0, [r3, #-255]	; 0xffffff01
e0013f38:	e12fff1e 	bx	lr

e0013f3c <deletedIRQHandler>:
e0013f3c:	e1a022a0 	lsr	r2, r0, #5
e0013f40:	e301327f 	movw	r3, #4735	; 0x127f
e0013f44:	e34f3ff0 	movt	r3, #65520	; 0xfff0
e0013f48:	e3091048 	movw	r1, #36936	; 0x9048
e0013f4c:	e1a02102 	lsl	r2, r2, #2
e0013f50:	e34e1002 	movt	r1, #57346	; 0xe002
e0013f54:	e0823003 	add	r3, r2, r3
e0013f58:	e200c01f 	and	ip, r0, #31
e0013f5c:	e3a02001 	mov	r2, #1
e0013f60:	e52de004 	push	{lr}		; (str lr, [sp, #-4]!)
e0013f64:	e1a02c12 	lsl	r2, r2, ip
e0013f68:	e3a0e000 	mov	lr, #0
e0013f6c:	e781e100 	str	lr, [r1, r0, lsl #2]
e0013f70:	e50320ff 	str	r2, [r3, #-255]	; 0xffffff01
e0013f74:	e49df004 	pop	{pc}		; (ldr pc, [sp], #4)

e0013f78 <isIRQActive>:
e0013f78:	e3093048 	movw	r3, #36936	; 0x9048
e0013f7c:	e34e3002 	movt	r3, #57346	; 0xe002
e0013f80:	e7930100 	ldr	r0, [r3, r0, lsl #2]
e0013f84:	e2900000 	adds	r0, r0, #0
e0013f88:	13a00001 	movne	r0, #1
e0013f8c:	e12fff1e 	bx	lr

e0013f90 <setIRQState>:
e0013f90:	e3093048 	movw	r3, #36936	; 0x9048
e0013f94:	e34e3002 	movt	r3, #57346	; 0xe002
e0013f98:	e3500000 	cmp	r0, #0
e0013f9c:	e201c01f 	and	ip, r1, #31
e0013fa0:	e7830101 	str	r0, [r3, r1, lsl #2]
e0013fa4:	e1a012a1 	lsr	r1, r1, #5
e0013fa8:	0301327f 	movweq	r3, #4735	; 0x127f
e0013fac:	130131ff 	movwne	r3, #4607	; 0x11ff
e0013fb0:	e1a01101 	lsl	r1, r1, #2
e0013fb4:	e34f3ff0 	movt	r3, #65520	; 0xfff0
e0013fb8:	e0813003 	add	r3, r1, r3
e0013fbc:	e3a02001 	mov	r2, #1
e0013fc0:	e1a02c12 	lsl	r2, r2, ip
e0013fc4:	e50320ff 	str	r2, [r3, #-255]	; 0xffffff01
e0013fc8:	e12fff1e 	bx	lr

e0013fcc <receiveSignal>:
e0013fcc:	e92d4010 	push	{r4, lr}
e0013fd0:	e24dd010 	sub	sp, sp, #16
e0013fd4:	e28dc010 	add	ip, sp, #16
e0013fd8:	e90c0006 	stmdb	ip, {r1, r2}
e0013fdc:	e1a01000 	mov	r1, r0
e0013fe0:	e59d4008 	ldr	r4, [sp, #8]
e0013fe4:	e3c4400f 	bic	r4, r4, #15
e0013fe8:	e5942000 	ldr	r2, [r4]
e0013fec:	e202c003 	and	ip, r2, #3
e0013ff0:	e35c0001 	cmp	ip, #1
e0013ff4:	9a000006 	bls	e0014014 <receiveSignal+0x48>
e0013ff8:	e35c0002 	cmp	ip, #2
e0013ffc:	05943008 	ldreq	r3, [r4, #8]
e0014000:	03c22003 	biceq	r2, r2, #3
e0014004:	05803000 	streq	r3, [r0]
e0014008:	05842000 	streq	r2, [r4]
e001400c:	e28dd010 	add	sp, sp, #16
e0014010:	e8bd8010 	pop	{r4, pc}
e0014014:	e3530000 	cmp	r3, #0
e0014018:	05803000 	streq	r3, [r0]
e001401c:	0afffffa 	beq	e001400c <receiveSignal+0x40>
e0014020:	e303364c 	movw	r3, #13900	; 0x364c
e0014024:	e34e3003 	movt	r3, #57347	; 0xe003
e0014028:	e3842006 	orr	r2, r4, #6
e001402c:	e5802050 	str	r2, [r0, #80]	; 0x50
e0014030:	e5933000 	ldr	r3, [r3]
e0014034:	e1500003 	cmp	r0, r3
e0014038:	0a000013 	beq	e001408c <receiveSignal+0xc0>
e001403c:	e5942004 	ldr	r2, [r4, #4]
e0014040:	e3c1e00f 	bic	lr, r1, #15
e0014044:	e5943000 	ldr	r3, [r4]
e0014048:	e3d2000f 	bics	r0, r2, #15
e001404c:	e202200f 	and	r2, r2, #15
e0014050:	e3c3c00f 	bic	ip, r3, #15
e0014054:	e203300c 	and	r3, r3, #12
e0014058:	01a00001 	moveq	r0, r1
e001405c:	e3833001 	orr	r3, r3, #1
e0014060:	e3c0000f 	bic	r0, r0, #15
e0014064:	158c1090 	strne	r1, [ip, #144]	; 0x90
e0014068:	e1822000 	orr	r2, r2, r0
e001406c:	e581c094 	str	ip, [r1, #148]	; 0x94
e0014070:	e183300e 	orr	r3, r3, lr
e0014074:	e3a00000 	mov	r0, #0
e0014078:	e5810090 	str	r0, [r1, #144]	; 0x90
e001407c:	e5843000 	str	r3, [r4]
e0014080:	e5842004 	str	r2, [r4, #4]
e0014084:	e28dd010 	add	sp, sp, #16
e0014088:	e8bd8010 	pop	{r4, pc}
e001408c:	e309301c 	movw	r3, #36892	; 0x901c
e0014090:	e34e3002 	movt	r3, #57346	; 0xe002
e0014094:	e5933000 	ldr	r3, [r3]
e0014098:	e3530000 	cmp	r3, #0
e001409c:	1affffe6 	bne	e001403c <receiveSignal+0x70>
e00140a0:	e58d0004 	str	r0, [sp, #4]
e00140a4:	ebfffc09 	bl	e00130d0 <scheduleTCB.part.165>
e00140a8:	e59d1004 	ldr	r1, [sp, #4]
e00140ac:	eaffffe2 	b	e001403c <receiveSignal+0x70>

e00140b0 <cancelAllSignals>:
e00140b0:	e5903000 	ldr	r3, [r0]
e00140b4:	e2032003 	and	r2, r3, #3
e00140b8:	e3520001 	cmp	r2, #1
e00140bc:	112fff1e 	bxne	lr
e00140c0:	e5902004 	ldr	r2, [r0, #4]
e00140c4:	e203300c 	and	r3, r3, #12
e00140c8:	e92d4070 	push	{r4, r5, r6, lr}
e00140cc:	e3d2400f 	bics	r4, r2, #15
e00140d0:	e5803000 	str	r3, [r0]
e00140d4:	e202200f 	and	r2, r2, #15
e00140d8:	e5802004 	str	r2, [r0, #4]
e00140dc:	0a000014 	beq	e0014134 <cancelAllSignals+0x84>
e00140e0:	e303564c 	movw	r5, #13900	; 0x364c
e00140e4:	e34e5003 	movt	r5, #57347	; 0xe003
e00140e8:	ea000002 	b	e00140f8 <cancelAllSignals+0x48>
e00140ec:	e5944090 	ldr	r4, [r4, #144]	; 0x90
e00140f0:	e3540000 	cmp	r4, #0
e00140f4:	0a00000e 	beq	e0014134 <cancelAllSignals+0x84>
e00140f8:	e5952000 	ldr	r2, [r5]
e00140fc:	e5943050 	ldr	r3, [r4, #80]	; 0x50
e0014100:	e1520004 	cmp	r2, r4
e0014104:	e3c3300f 	bic	r3, r3, #15
e0014108:	e3833002 	orr	r3, r3, #2
e001410c:	e5843050 	str	r3, [r4, #80]	; 0x50
e0014110:	0a000009 	beq	e001413c <cancelAllSignals+0x8c>
e0014114:	e5943054 	ldr	r3, [r4, #84]	; 0x54
e0014118:	e3130001 	tst	r3, #1
e001411c:	1afffff2 	bne	e00140ec <cancelAllSignals+0x3c>
e0014120:	e1a00004 	mov	r0, r4
e0014124:	ebfff1ab 	bl	e00107d8 <tcbSchedEnqueue.part.164>
e0014128:	e5944090 	ldr	r4, [r4, #144]	; 0x90
e001412c:	e3540000 	cmp	r4, #0
e0014130:	1afffff0 	bne	e00140f8 <cancelAllSignals+0x48>
e0014134:	e8bd4070 	pop	{r4, r5, r6, lr}
e0014138:	eafffbd6 	b	e0013098 <rescheduleRequired>
e001413c:	e1a00004 	mov	r0, r4
e0014140:	ebfffbf3 	bl	e0013114 <setThreadState.part.166>
e0014144:	eafffff2 	b	e0014114 <cancelAllSignals+0x64>

e0014148 <cancelSignal>:
e0014148:	e5903094 	ldr	r3, [r0, #148]	; 0x94
e001414c:	e92d4010 	push	{r4, lr}
e0014150:	e3530000 	cmp	r3, #0
e0014154:	e5904090 	ldr	r4, [r0, #144]	; 0x90
e0014158:	e591c004 	ldr	ip, [r1, #4]
e001415c:	e5912000 	ldr	r2, [r1]
e0014160:	15834090 	strne	r4, [r3, #144]	; 0x90
e0014164:	13cce00f 	bicne	lr, ip, #15
e0014168:	15904090 	ldrne	r4, [r0, #144]	; 0x90
e001416c:	01a0e004 	moveq	lr, r4
e0014170:	e20cc00f 	and	ip, ip, #15
e0014174:	e3540000 	cmp	r4, #0
e0014178:	15843094 	strne	r3, [r4, #148]	; 0x94
e001417c:	13c2300f 	bicne	r3, r2, #15
e0014180:	e3c3300f 	bic	r3, r3, #15
e0014184:	e202200f 	and	r2, r2, #15
e0014188:	e1823003 	orr	r3, r2, r3
e001418c:	e303264c 	movw	r2, #13900	; 0x364c
e0014190:	e34e2003 	movt	r2, #57347	; 0xe003
e0014194:	e35e0000 	cmp	lr, #0
e0014198:	e3cee00f 	bic	lr, lr, #15
e001419c:	03c33003 	biceq	r3, r3, #3
e00141a0:	e5922000 	ldr	r2, [r2]
e00141a4:	e18cc00e 	orr	ip, ip, lr
e00141a8:	e5813000 	str	r3, [r1]
e00141ac:	e581c004 	str	ip, [r1, #4]
e00141b0:	e1500002 	cmp	r0, r2
e00141b4:	e5903050 	ldr	r3, [r0, #80]	; 0x50
e00141b8:	e3c3300f 	bic	r3, r3, #15
e00141bc:	e5803050 	str	r3, [r0, #80]	; 0x50
e00141c0:	18bd8010 	popne	{r4, pc}
e00141c4:	e8bd4010 	pop	{r4, lr}
e00141c8:	eafffbd1 	b	e0013114 <setThreadState.part.166>

e00141cc <completeSignal>:
e00141cc:	e3510000 	cmp	r1, #0
e00141d0:	0a000008 	beq	e00141f8 <completeSignal+0x2c>
e00141d4:	e5903000 	ldr	r3, [r0]
e00141d8:	e2032003 	and	r2, r3, #3
e00141dc:	e3520002 	cmp	r2, #2
e00141e0:	1a000004 	bne	e00141f8 <completeSignal+0x2c>
e00141e4:	e5902008 	ldr	r2, [r0, #8]
e00141e8:	e3c33003 	bic	r3, r3, #3
e00141ec:	e5812000 	str	r2, [r1]
e00141f0:	e5803000 	str	r3, [r0]
e00141f4:	e12fff1e 	bx	lr
e00141f8:	e92d4010 	push	{r4, lr}
e00141fc:	ebfff20e 	bl	e0010a3c <halt>

e0014200 <unbindMaybeNotification>:
e0014200:	e590300c 	ldr	r3, [r0, #12]
e0014204:	e3d3200f 	bics	r2, r3, #15
e0014208:	1203300f 	andne	r3, r3, #15
e001420c:	1580300c 	strne	r3, [r0, #12]
e0014210:	13a01000 	movne	r1, #0
e0014214:	1582105c 	strne	r1, [r2, #92]	; 0x5c
e0014218:	e12fff1e 	bx	lr

e001421c <unbindNotification>:
e001421c:	e590305c 	ldr	r3, [r0, #92]	; 0x5c
e0014220:	e3530000 	cmp	r3, #0
e0014224:	1593200c 	ldrne	r2, [r3, #12]
e0014228:	13a01000 	movne	r1, #0
e001422c:	1202200f 	andne	r2, r2, #15
e0014230:	1583200c 	strne	r2, [r3, #12]
e0014234:	1580105c 	strne	r1, [r0, #92]	; 0x5c
e0014238:	e12fff1e 	bx	lr

e001423c <bindNotification>:
e001423c:	e591300c 	ldr	r3, [r1, #12]
e0014240:	e3c0200f 	bic	r2, r0, #15
e0014244:	e203300f 	and	r3, r3, #15
e0014248:	e1833002 	orr	r3, r3, r2
e001424c:	e581300c 	str	r3, [r1, #12]
e0014250:	e580105c 	str	r1, [r0, #92]	; 0x5c
e0014254:	e12fff1e 	bx	lr

e0014258 <getObjectSize>:
e0014258:	e3500004 	cmp	r0, #4
e001425c:	8a000009 	bhi	e0014288 <getObjectSize+0x30>
e0014260:	e2403001 	sub	r3, r0, #1
e0014264:	e3530003 	cmp	r3, #3
e0014268:	979ff103 	ldrls	pc, [pc, r3, lsl #2]
e001426c:	ea000008 	b	e0014294 <getObjectSize+0x3c>
e0014270:	e001428c 	.word	0xe001428c
e0014274:	e0014280 	.word	0xe0014280
e0014278:	e0014280 	.word	0xe0014280
e001427c:	e001429c 	.word	0xe001429c
e0014280:	e3a00004 	mov	r0, #4
e0014284:	e12fff1e 	bx	lr
e0014288:	eafff6f0 	b	e0011e50 <Arch_getObjectSize>
e001428c:	e3a00009 	mov	r0, #9
e0014290:	e12fff1e 	bx	lr
e0014294:	e1a00001 	mov	r0, r1
e0014298:	e12fff1e 	bx	lr
e001429c:	e2810004 	add	r0, r1, #4
e00142a0:	e12fff1e 	bx	lr

e00142a4 <hasCancelSendRights>:
e00142a4:	e24dd008 	sub	sp, sp, #8
e00142a8:	e28d3008 	add	r3, sp, #8
e00142ac:	e9030003 	stmdb	r3, {r0, r1}
e00142b0:	e59d3000 	ldr	r3, [sp]
e00142b4:	e59d0004 	ldr	r0, [sp, #4]
e00142b8:	e203200e 	and	r2, r3, #14
e00142bc:	e352000e 	cmp	r2, #14
e00142c0:	1203300f 	andne	r3, r3, #15
e00142c4:	06ef3073 	uxtbeq	r3, r3
e00142c8:	e3530004 	cmp	r3, #4
e00142cc:	1a000002 	bne	e00142dc <hasCancelSendRights+0x38>
e00142d0:	e2003003 	and	r3, r0, #3
e00142d4:	e3530003 	cmp	r3, #3
e00142d8:	0a000002 	beq	e00142e8 <hasCancelSendRights+0x44>
e00142dc:	e3a00000 	mov	r0, #0
e00142e0:	e28dd008 	add	sp, sp, #8
e00142e4:	e12fff1e 	bx	lr
e00142e8:	e200000c 	and	r0, r0, #12
e00142ec:	e240000c 	sub	r0, r0, #12
e00142f0:	e16f0f10 	clz	r0, r0
e00142f4:	e1a002a0 	lsr	r0, r0, #5
e00142f8:	e28dd008 	add	sp, sp, #8
e00142fc:	e12fff1e 	bx	lr

e0014300 <sameRegionAs>:
e0014300:	e92d41f0 	push	{r4, r5, r6, r7, r8, lr}
e0014304:	e24dd010 	sub	sp, sp, #16
e0014308:	e28dc008 	add	ip, sp, #8
e001430c:	e1a0e00d 	mov	lr, sp
e0014310:	e88e000c 	stm	lr, {r2, r3}
e0014314:	e200300e 	and	r3, r0, #14
e0014318:	e88c0003 	stm	ip, {r0, r1}
e001431c:	e353000e 	cmp	r3, #14
e0014320:	e1a01000 	mov	r1, r0
e0014324:	1200000f 	andne	r0, r0, #15
e0014328:	06ef0071 	uxtbeq	r0, r1
e001432c:	e59d400c 	ldr	r4, [sp, #12]
e0014330:	e2403002 	sub	r3, r0, #2
e0014334:	e59d5004 	ldr	r5, [sp, #4]
e0014338:	e353003c 	cmp	r3, #60	; 0x3c
e001433c:	979ff103 	ldrls	pc, [pc, r3, lsl #2]
e0014340:	ea0000a8 	b	e00145e8 <sameRegionAs+0x2e8>
e0014344:	e0014450 	.word	0xe0014450
e0014348:	e00145e8 	.word	0xe00145e8
e001434c:	e00144a4 	.word	0xe00144a4
e0014350:	e00145e8 	.word	0xe00145e8
e0014354:	e00144d4 	.word	0xe00144d4
e0014358:	e00145e8 	.word	0xe00145e8
e001435c:	e0014504 	.word	0xe0014504
e0014360:	e00145e8 	.word	0xe00145e8
e0014364:	e0014534 	.word	0xe0014534
e0014368:	e00145e8 	.word	0xe00145e8
e001436c:	e0014574 	.word	0xe0014574
e0014370:	e00145e8 	.word	0xe00145e8
e0014374:	e0014590 	.word	0xe0014590
e0014378:	e00145e8 	.word	0xe00145e8
e001437c:	e00145e8 	.word	0xe00145e8
e0014380:	e00145e8 	.word	0xe00145e8
e0014384:	e00145e8 	.word	0xe00145e8
e0014388:	e00145e8 	.word	0xe00145e8
e001438c:	e00145e8 	.word	0xe00145e8
e0014390:	e00145e8 	.word	0xe00145e8
e0014394:	e00145e8 	.word	0xe00145e8
e0014398:	e00145e8 	.word	0xe00145e8
e001439c:	e00145e8 	.word	0xe00145e8
e00143a0:	e00145e8 	.word	0xe00145e8
e00143a4:	e00145e8 	.word	0xe00145e8
e00143a8:	e00145e8 	.word	0xe00145e8
e00143ac:	e00145e8 	.word	0xe00145e8
e00143b0:	e00145e8 	.word	0xe00145e8
e00143b4:	e00145b8 	.word	0xe00145b8
e00143b8:	e00145e8 	.word	0xe00145e8
e00143bc:	e00145e8 	.word	0xe00145e8
e00143c0:	e00145e8 	.word	0xe00145e8
e00143c4:	e00145e8 	.word	0xe00145e8
e00143c8:	e00145e8 	.word	0xe00145e8
e00143cc:	e00145e8 	.word	0xe00145e8
e00143d0:	e00145e8 	.word	0xe00145e8
e00143d4:	e00145e8 	.word	0xe00145e8
e00143d8:	e00145e8 	.word	0xe00145e8
e00143dc:	e00145e8 	.word	0xe00145e8
e00143e0:	e00145e8 	.word	0xe00145e8
e00143e4:	e00145e8 	.word	0xe00145e8
e00143e8:	e00145e8 	.word	0xe00145e8
e00143ec:	e00145e8 	.word	0xe00145e8
e00143f0:	e00145e8 	.word	0xe00145e8
e00143f4:	e00145e8 	.word	0xe00145e8
e00143f8:	e00145e8 	.word	0xe00145e8
e00143fc:	e00145e8 	.word	0xe00145e8
e0014400:	e00145e8 	.word	0xe00145e8
e0014404:	e00145e8 	.word	0xe00145e8
e0014408:	e00145e8 	.word	0xe00145e8
e001440c:	e00145e8 	.word	0xe00145e8
e0014410:	e00145e8 	.word	0xe00145e8
e0014414:	e00145e8 	.word	0xe00145e8
e0014418:	e00145e8 	.word	0xe00145e8
e001441c:	e00145e8 	.word	0xe00145e8
e0014420:	e00145e8 	.word	0xe00145e8
e0014424:	e00145e8 	.word	0xe00145e8
e0014428:	e00145e8 	.word	0xe00145e8
e001442c:	e00145e8 	.word	0xe00145e8
e0014430:	e00145e8 	.word	0xe00145e8
e0014434:	e0014438 	.word	0xe0014438
e0014438:	e202300e 	and	r3, r2, #14
e001443c:	e353000e 	cmp	r3, #14
e0014440:	0a0001a8 	beq	e0014ae8 <sameRegionAs+0x7e8>
e0014444:	e3a00000 	mov	r0, #0
e0014448:	e28dd010 	add	sp, sp, #16
e001444c:	e8bd81f0 	pop	{r4, r5, r6, r7, r8, pc}
e0014450:	e202e00e 	and	lr, r2, #14
e0014454:	e35e000e 	cmp	lr, #14
e0014458:	0a000160 	beq	e00149e0 <sameRegionAs+0x6e0>
e001445c:	e202600f 	and	r6, r2, #15
e0014460:	e246c002 	sub	ip, r6, #2
e0014464:	e35c000c 	cmp	ip, #12
e0014468:	979ff10c 	ldrls	pc, [pc, ip, lsl #2]
e001446c:	ea0000f4 	b	e0014844 <sameRegionAs+0x544>
e0014470:	e001461c 	.word	0xe001461c
e0014474:	e0014844 	.word	0xe0014844
e0014478:	e001461c 	.word	0xe001461c
e001447c:	e0014844 	.word	0xe0014844
e0014480:	e001461c 	.word	0xe001461c
e0014484:	e0014844 	.word	0xe0014844
e0014488:	e0014444 	.word	0xe0014444
e001448c:	e0014844 	.word	0xe0014844
e0014490:	e001461c 	.word	0xe001461c
e0014494:	e0014844 	.word	0xe0014844
e0014498:	e001461c 	.word	0xe001461c
e001449c:	e0014844 	.word	0xe0014844
e00144a0:	e0014444 	.word	0xe0014444
e00144a4:	e202300e 	and	r3, r2, #14
e00144a8:	e353000e 	cmp	r3, #14
e00144ac:	1202000f 	andne	r0, r2, #15
e00144b0:	06ef0072 	uxtbeq	r0, r2
e00144b4:	e3500004 	cmp	r0, #4
e00144b8:	1affffe1 	bne	e0014444 <sameRegionAs+0x144>
e00144bc:	e3c5000f 	bic	r0, r5, #15
e00144c0:	e3c4400f 	bic	r4, r4, #15
e00144c4:	e0400004 	sub	r0, r0, r4
e00144c8:	e16f0f10 	clz	r0, r0
e00144cc:	e1a002a0 	lsr	r0, r0, #5
e00144d0:	eaffffdc 	b	e0014448 <sameRegionAs+0x148>
e00144d4:	e202300e 	and	r3, r2, #14
e00144d8:	e353000e 	cmp	r3, #14
e00144dc:	1202300f 	andne	r3, r2, #15
e00144e0:	06ef3072 	uxtbeq	r3, r2
e00144e4:	e3530006 	cmp	r3, #6
e00144e8:	1affffd5 	bne	e0014444 <sameRegionAs+0x144>
e00144ec:	e3c2000f 	bic	r0, r2, #15
e00144f0:	e3c1100f 	bic	r1, r1, #15
e00144f4:	e0400001 	sub	r0, r0, r1
e00144f8:	e16f0f10 	clz	r0, r0
e00144fc:	e1a002a0 	lsr	r0, r0, #5
e0014500:	eaffffd0 	b	e0014448 <sameRegionAs+0x148>
e0014504:	e202300e 	and	r3, r2, #14
e0014508:	e353000e 	cmp	r3, #14
e001450c:	1202300f 	andne	r3, r2, #15
e0014510:	06ef3072 	uxtbeq	r3, r2
e0014514:	e3530008 	cmp	r3, #8
e0014518:	1affffc9 	bne	e0014444 <sameRegionAs+0x144>
e001451c:	e3c2003f 	bic	r0, r2, #63	; 0x3f
e0014520:	e3c1103f 	bic	r1, r1, #63	; 0x3f
e0014524:	e0400001 	sub	r0, r0, r1
e0014528:	e16f0f10 	clz	r0, r0
e001452c:	e1a002a0 	lsr	r0, r0, #5
e0014530:	eaffffc4 	b	e0014448 <sameRegionAs+0x148>
e0014534:	e202300e 	and	r3, r2, #14
e0014538:	e353000e 	cmp	r3, #14
e001453c:	1202300f 	andne	r3, r2, #15
e0014540:	06ef3072 	uxtbeq	r3, r2
e0014544:	e353000a 	cmp	r3, #10
e0014548:	1affffbd 	bne	e0014444 <sameRegionAs+0x144>
e001454c:	e3c2001f 	bic	r0, r2, #31
e0014550:	e3c1101f 	bic	r1, r1, #31
e0014554:	e1500001 	cmp	r0, r1
e0014558:	1affffb9 	bne	e0014444 <sameRegionAs+0x144>
e001455c:	e7e43955 	ubfx	r3, r5, #18, #5
e0014560:	e7e40954 	ubfx	r0, r4, #18, #5
e0014564:	e0430000 	sub	r0, r3, r0
e0014568:	e16f0f10 	clz	r0, r0
e001456c:	e1a002a0 	lsr	r0, r0, #5
e0014570:	eaffffb4 	b	e0014448 <sameRegionAs+0x148>
e0014574:	e202300e 	and	r3, r2, #14
e0014578:	e353000e 	cmp	r3, #14
e001457c:	1202300f 	andne	r3, r2, #15
e0014580:	06ef3072 	uxtbeq	r3, r2
e0014584:	e353000c 	cmp	r3, #12
e0014588:	1affffad 	bne	e0014444 <sameRegionAs+0x144>
e001458c:	eaffffd6 	b	e00144ec <sameRegionAs+0x1ec>
e0014590:	e202300e 	and	r3, r2, #14
e0014594:	e353000e 	cmp	r3, #14
e0014598:	1202000f 	andne	r0, r2, #15
e001459c:	06ef0072 	uxtbeq	r0, r2
e00145a0:	e3c00010 	bic	r0, r0, #16
e00145a4:	e240000e 	sub	r0, r0, #14
e00145a8:	e16f0f10 	clz	r0, r0
e00145ac:	e1a002a0 	lsr	r0, r0, #5
e00145b0:	e28dd010 	add	sp, sp, #16
e00145b4:	e8bd81f0 	pop	{r4, r5, r6, r7, r8, pc}
e00145b8:	e202300e 	and	r3, r2, #14
e00145bc:	e353000e 	cmp	r3, #14
e00145c0:	1affff9f 	bne	e0014444 <sameRegionAs+0x144>
e00145c4:	e6ef0072 	uxtb	r0, r2
e00145c8:	e350001e 	cmp	r0, #30
e00145cc:	1affff9c 	bne	e0014444 <sameRegionAs+0x144>
e00145d0:	e6ef0075 	uxtb	r0, r5
e00145d4:	e6ef4074 	uxtb	r4, r4
e00145d8:	e0400004 	sub	r0, r0, r4
e00145dc:	e16f0f10 	clz	r0, r0
e00145e0:	e1a002a0 	lsr	r0, r0, #5
e00145e4:	eaffff97 	b	e0014448 <sameRegionAs+0x148>
e00145e8:	e2100001 	ands	r0, r0, #1
e00145ec:	0affff95 	beq	e0014448 <sameRegionAs+0x148>
e00145f0:	e202300e 	and	r3, r2, #14
e00145f4:	e353000e 	cmp	r3, #14
e00145f8:	1202000f 	andne	r0, r2, #15
e00145fc:	06ef0072 	uxtbeq	r0, r2
e0014600:	e2100001 	ands	r0, r0, #1
e0014604:	0affff8f 	beq	e0014448 <sameRegionAs+0x148>
e0014608:	e89e000c 	ldm	lr, {r2, r3}
e001460c:	e89c0003 	ldm	ip, {r0, r1}
e0014610:	e28dd010 	add	sp, sp, #16
e0014614:	e8bd41f0 	pop	{r4, r5, r6, r7, r8, lr}
e0014618:	eafff4fd 	b	e0011a14 <Arch_sameRegionAs>
e001461c:	e3c1100f 	bic	r1, r1, #15
e0014620:	e204401f 	and	r4, r4, #31
e0014624:	e2410001 	sub	r0, r1, #1
e0014628:	e3a03001 	mov	r3, #1
e001462c:	e0800413 	add	r0, r0, r3, lsl r4
e0014630:	e35c002c 	cmp	ip, #44	; 0x2c
e0014634:	979ff10c 	ldrls	pc, [pc, ip, lsl #2]
e0014638:	ea0000a3 	b	e00148cc <sameRegionAs+0x5cc>
e001463c:	e00146f0 	.word	0xe00146f0
e0014640:	e00148cc 	.word	0xe00148cc
e0014644:	e00147f0 	.word	0xe00147f0
e0014648:	e00148cc 	.word	0xe00148cc
e001464c:	e00146f0 	.word	0xe00146f0
e0014650:	e00148cc 	.word	0xe00148cc
e0014654:	e00147e4 	.word	0xe00147e4
e0014658:	e00148cc 	.word	0xe00148cc
e001465c:	e00147fc 	.word	0xe00147fc
e0014660:	e00148cc 	.word	0xe00148cc
e0014664:	e0014808 	.word	0xe0014808
e0014668:	e00148cc 	.word	0xe00148cc
e001466c:	e00147e4 	.word	0xe00147e4
e0014670:	e00148cc 	.word	0xe00148cc
e0014674:	e00148cc 	.word	0xe00148cc
e0014678:	e00148cc 	.word	0xe00148cc
e001467c:	e00148cc 	.word	0xe00148cc
e0014680:	e00148cc 	.word	0xe00148cc
e0014684:	e00148cc 	.word	0xe00148cc
e0014688:	e00148cc 	.word	0xe00148cc
e001468c:	e00148cc 	.word	0xe00148cc
e0014690:	e00148cc 	.word	0xe00148cc
e0014694:	e00148cc 	.word	0xe00148cc
e0014698:	e00148cc 	.word	0xe00148cc
e001469c:	e00148cc 	.word	0xe00148cc
e00146a0:	e00148cc 	.word	0xe00148cc
e00146a4:	e00148cc 	.word	0xe00148cc
e00146a8:	e00148cc 	.word	0xe00148cc
e00146ac:	e00147e4 	.word	0xe00147e4
e00146b0:	e00148cc 	.word	0xe00148cc
e00146b4:	e00148cc 	.word	0xe00148cc
e00146b8:	e00148cc 	.word	0xe00148cc
e00146bc:	e00148cc 	.word	0xe00148cc
e00146c0:	e00148cc 	.word	0xe00148cc
e00146c4:	e00148cc 	.word	0xe00148cc
e00146c8:	e00148cc 	.word	0xe00148cc
e00146cc:	e00148cc 	.word	0xe00148cc
e00146d0:	e00148cc 	.word	0xe00148cc
e00146d4:	e00148cc 	.word	0xe00148cc
e00146d8:	e00148cc 	.word	0xe00148cc
e00146dc:	e00148cc 	.word	0xe00148cc
e00146e0:	e00148cc 	.word	0xe00148cc
e00146e4:	e00148cc 	.word	0xe00148cc
e00146e8:	e00148cc 	.word	0xe00148cc
e00146ec:	e0014818 	.word	0xe0014818
e00146f0:	e3c2400f 	bic	r4, r2, #15
e00146f4:	e2447001 	sub	r7, r4, #1
e00146f8:	e35c002c 	cmp	ip, #44	; 0x2c
e00146fc:	979ff10c 	ldrls	pc, [pc, ip, lsl #2]
e0014700:	ea0000b2 	b	e00149d0 <sameRegionAs+0x6d0>
e0014704:	e0014898 	.word	0xe0014898
e0014708:	e00149d0 	.word	0xe00149d0
e001470c:	e0014874 	.word	0xe0014874
e0014710:	e00149d0 	.word	0xe00149d0
e0014714:	e0014874 	.word	0xe0014874
e0014718:	e00149d0 	.word	0xe00149d0
e001471c:	e00147b8 	.word	0xe00147b8
e0014720:	e00149d0 	.word	0xe00149d0
e0014724:	e0014884 	.word	0xe0014884
e0014728:	e00149d0 	.word	0xe00149d0
e001472c:	e001487c 	.word	0xe001487c
e0014730:	e00149d0 	.word	0xe00149d0
e0014734:	e00147b8 	.word	0xe00147b8
e0014738:	e00149d0 	.word	0xe00149d0
e001473c:	e00149d0 	.word	0xe00149d0
e0014740:	e00149d0 	.word	0xe00149d0
e0014744:	e00149d0 	.word	0xe00149d0
e0014748:	e00149d0 	.word	0xe00149d0
e001474c:	e00149d0 	.word	0xe00149d0
e0014750:	e00149d0 	.word	0xe00149d0
e0014754:	e00149d0 	.word	0xe00149d0
e0014758:	e00149d0 	.word	0xe00149d0
e001475c:	e00149d0 	.word	0xe00149d0
e0014760:	e00149d0 	.word	0xe00149d0
e0014764:	e00149d0 	.word	0xe00149d0
e0014768:	e00149d0 	.word	0xe00149d0
e001476c:	e00149d0 	.word	0xe00149d0
e0014770:	e00149d0 	.word	0xe00149d0
e0014774:	e00147b8 	.word	0xe00147b8
e0014778:	e00149d0 	.word	0xe00149d0
e001477c:	e00149d0 	.word	0xe00149d0
e0014780:	e00149d0 	.word	0xe00149d0
e0014784:	e00149d0 	.word	0xe00149d0
e0014788:	e00149d0 	.word	0xe00149d0
e001478c:	e00149d0 	.word	0xe00149d0
e0014790:	e00149d0 	.word	0xe00149d0
e0014794:	e00149d0 	.word	0xe00149d0
e0014798:	e00149d0 	.word	0xe00149d0
e001479c:	e00149d0 	.word	0xe00149d0
e00147a0:	e00149d0 	.word	0xe00149d0
e00147a4:	e00149d0 	.word	0xe00149d0
e00147a8:	e00149d0 	.word	0xe00149d0
e00147ac:	e00149d0 	.word	0xe00149d0
e00147b0:	e00149d0 	.word	0xe00149d0
e00147b4:	e00148a8 	.word	0xe00148a8
e00147b8:	e3a03001 	mov	r3, #1
e00147bc:	e0833007 	add	r3, r3, r7
e00147c0:	e1530000 	cmp	r3, r0
e00147c4:	83a02000 	movhi	r2, #0
e00147c8:	93a02001 	movls	r2, #1
e00147cc:	e1530004 	cmp	r3, r4
e00147d0:	33a02000 	movcc	r2, #0
e00147d4:	e1510004 	cmp	r1, r4
e00147d8:	83a00000 	movhi	r0, #0
e00147dc:	92020001 	andls	r0, r2, #1
e00147e0:	eaffff18 	b	e0014448 <sameRegionAs+0x148>
e00147e4:	e3e07000 	mvn	r7, #0
e00147e8:	e3a04000 	mov	r4, #0
e00147ec:	eaffffc1 	b	e00146f8 <sameRegionAs+0x3f8>
e00147f0:	e3c5400f 	bic	r4, r5, #15
e00147f4:	e2447001 	sub	r7, r4, #1
e00147f8:	eaffffbe 	b	e00146f8 <sameRegionAs+0x3f8>
e00147fc:	e3c2401f 	bic	r4, r2, #31
e0014800:	e2447001 	sub	r7, r4, #1
e0014804:	eaffffbb 	b	e00146f8 <sameRegionAs+0x3f8>
e0014808:	e3c24f7f 	bic	r4, r2, #508	; 0x1fc
e001480c:	e3c44003 	bic	r4, r4, #3
e0014810:	e2447001 	sub	r7, r4, #1
e0014814:	eaffffb7 	b	e00146f8 <sameRegionAs+0x3f8>
e0014818:	e1a03422 	lsr	r3, r2, #8
e001481c:	e203403f 	and	r4, r3, #63	; 0x3f
e0014820:	e3540020 	cmp	r4, #32
e0014824:	1203301f 	andne	r3, r3, #31
e0014828:	13e04000 	mvnne	r4, #0
e001482c:	12833001 	addne	r3, r3, #1
e0014830:	11a03314 	lslne	r3, r4, r3
e0014834:	03e0301f 	mvneq	r3, #31
e0014838:	e0054003 	and	r4, r5, r3
e001483c:	e2447001 	sub	r7, r4, #1
e0014840:	eaffffac 	b	e00146f8 <sameRegionAs+0x3f8>
e0014844:	e2468001 	sub	r8, r6, #1
e0014848:	e358000a 	cmp	r8, #10
e001484c:	8afffefc 	bhi	e0014444 <sameRegionAs+0x144>
e0014850:	e3a07001 	mov	r7, #1
e0014854:	e3003155 	movw	r3, #341	; 0x155
e0014858:	e0133817 	ands	r3, r3, r7, lsl r8
e001485c:	0afffef8 	beq	e0014444 <sameRegionAs+0x144>
e0014860:	e3c1100f 	bic	r1, r1, #15
e0014864:	e204401f 	and	r4, r4, #31
e0014868:	e2410001 	sub	r0, r1, #1
e001486c:	e0800417 	add	r0, r0, r7, lsl r4
e0014870:	eaffff6e 	b	e0014630 <sameRegionAs+0x330>
e0014874:	e3a03010 	mov	r3, #16
e0014878:	eaffffcf 	b	e00147bc <sameRegionAs+0x4bc>
e001487c:	e3a03c02 	mov	r3, #512	; 0x200
e0014880:	eaffffcd 	b	e00147bc <sameRegionAs+0x4bc>
e0014884:	e7e43955 	ubfx	r3, r5, #18, #5
e0014888:	e3a02001 	mov	r2, #1
e001488c:	e2833004 	add	r3, r3, #4
e0014890:	e1a03312 	lsl	r3, r2, r3
e0014894:	eaffffc8 	b	e00147bc <sameRegionAs+0x4bc>
e0014898:	e205301f 	and	r3, r5, #31
e001489c:	e3a02001 	mov	r2, #1
e00148a0:	e1a03312 	lsl	r3, r2, r3
e00148a4:	eaffffc4 	b	e00147bc <sameRegionAs+0x4bc>
e00148a8:	e1a02422 	lsr	r2, r2, #8
e00148ac:	e202303f 	and	r3, r2, #63	; 0x3f
e00148b0:	e3530020 	cmp	r3, #32
e00148b4:	0afffff0 	beq	e001487c <sameRegionAs+0x57c>
e00148b8:	e202201f 	and	r2, r2, #31
e00148bc:	e3a03001 	mov	r3, #1
e00148c0:	e2822004 	add	r2, r2, #4
e00148c4:	e1a03213 	lsl	r3, r3, r2
e00148c8:	eaffffbb 	b	e00147bc <sameRegionAs+0x4bc>
e00148cc:	e2468001 	sub	r8, r6, #1
e00148d0:	e3580008 	cmp	r8, #8
e00148d4:	979ff108 	ldrls	pc, [pc, r8, lsl #2]
e00148d8:	eaffffc1 	b	e00147e4 <sameRegionAs+0x4e4>
e00148dc:	e0014978 	.word	0xe0014978
e00148e0:	e00147e4 	.word	0xe00147e4
e00148e4:	e0014978 	.word	0xe0014978
e00148e8:	e00147e4 	.word	0xe00147e4
e00148ec:	e0014938 	.word	0xe0014938
e00148f0:	e00147e4 	.word	0xe00147e4
e00148f4:	e001491c 	.word	0xe001491c
e00148f8:	e00147e4 	.word	0xe00147e4
e00148fc:	e0014900 	.word	0xe0014900
e0014900:	e3c24dff 	bic	r4, r2, #16320	; 0x3fc0
e0014904:	e35e000e 	cmp	lr, #14
e0014908:	e3c4403f 	bic	r4, r4, #63	; 0x3f
e001490c:	e2447001 	sub	r7, r4, #1
e0014910:	0affff78 	beq	e00146f8 <sameRegionAs+0x3f8>
e0014914:	e3a03901 	mov	r3, #16384	; 0x4000
e0014918:	eaffffa7 	b	e00147bc <sameRegionAs+0x4bc>
e001491c:	e3c24fff 	bic	r4, r2, #1020	; 0x3fc
e0014920:	e35e000e 	cmp	lr, #14
e0014924:	e3c44003 	bic	r4, r4, #3
e0014928:	e2447001 	sub	r7, r4, #1
e001492c:	0affff71 	beq	e00146f8 <sameRegionAs+0x3f8>
e0014930:	e3a03b01 	mov	r3, #1024	; 0x400
e0014934:	eaffffa0 	b	e00147bc <sameRegionAs+0x4bc>
e0014938:	e35e000e 	cmp	lr, #14
e001493c:	e3c2400f 	bic	r4, r2, #15
e0014940:	e2447001 	sub	r7, r4, #1
e0014944:	0a000023 	beq	e00149d8 <sameRegionAs+0x6d8>
e0014948:	e3580008 	cmp	r8, #8
e001494c:	979ff108 	ldrls	pc, [pc, r8, lsl #2]
e0014950:	eaffff98 	b	e00147b8 <sameRegionAs+0x4b8>
e0014954:	e001499c 	.word	0xe001499c
e0014958:	e00147b8 	.word	0xe00147b8
e001495c:	e001499c 	.word	0xe001499c
e0014960:	e00147b8 	.word	0xe00147b8
e0014964:	e00149d8 	.word	0xe00149d8
e0014968:	e00147b8 	.word	0xe00147b8
e001496c:	e0014930 	.word	0xe0014930
e0014970:	e00147b8 	.word	0xe00147b8
e0014974:	e0014914 	.word	0xe0014914
e0014978:	e3560001 	cmp	r6, #1
e001497c:	0a000060 	beq	e0014b04 <sameRegionAs+0x804>
e0014980:	e3560003 	cmp	r6, #3
e0014984:	1a00005c 	bne	e0014afc <sameRegionAs+0x7fc>
e0014988:	e3a04903 	mov	r4, #49152	; 0xc000
e001498c:	e34f4fff 	movt	r4, #65535	; 0xffff
e0014990:	e0044502 	and	r4, r4, r2, lsl #10
e0014994:	e2447001 	sub	r7, r4, #1
e0014998:	eaffff56 	b	e00146f8 <sameRegionAs+0x3f8>
e001499c:	e3560003 	cmp	r6, #3
e00149a0:	1a00000c 	bne	e00149d8 <sameRegionAs+0x6d8>
e00149a4:	e1a03f25 	lsr	r3, r5, #30
e00149a8:	e3530002 	cmp	r3, #2
e00149ac:	03a03601 	moveq	r3, #1048576	; 0x100000
e00149b0:	0affff81 	beq	e00147bc <sameRegionAs+0x4bc>
e00149b4:	e3530003 	cmp	r3, #3
e00149b8:	03a03401 	moveq	r3, #16777216	; 0x1000000
e00149bc:	0affff7e 	beq	e00147bc <sameRegionAs+0x4bc>
e00149c0:	e3530001 	cmp	r3, #1
e00149c4:	03a03801 	moveq	r3, #65536	; 0x10000
e00149c8:	13a03a01 	movne	r3, #4096	; 0x1000
e00149cc:	eaffff7a 	b	e00147bc <sameRegionAs+0x4bc>
e00149d0:	e2468001 	sub	r8, r6, #1
e00149d4:	eaffffdb 	b	e0014948 <sameRegionAs+0x648>
e00149d8:	e3a03a01 	mov	r3, #4096	; 0x1000
e00149dc:	eaffff76 	b	e00147bc <sameRegionAs+0x4bc>
e00149e0:	e6ef6072 	uxtb	r6, r2
e00149e4:	e246c002 	sub	ip, r6, #2
e00149e8:	e35c003c 	cmp	ip, #60	; 0x3c
e00149ec:	979ff10c 	ldrls	pc, [pc, ip, lsl #2]
e00149f0:	eaffff93 	b	e0014844 <sameRegionAs+0x544>
e00149f4:	e001461c 	.word	0xe001461c
e00149f8:	e0014844 	.word	0xe0014844
e00149fc:	e001461c 	.word	0xe001461c
e0014a00:	e0014844 	.word	0xe0014844
e0014a04:	e001461c 	.word	0xe001461c
e0014a08:	e0014844 	.word	0xe0014844
e0014a0c:	e0014444 	.word	0xe0014444
e0014a10:	e0014844 	.word	0xe0014844
e0014a14:	e001461c 	.word	0xe001461c
e0014a18:	e0014844 	.word	0xe0014844
e0014a1c:	e001461c 	.word	0xe001461c
e0014a20:	e0014844 	.word	0xe0014844
e0014a24:	e0014444 	.word	0xe0014444
e0014a28:	e0014844 	.word	0xe0014844
e0014a2c:	e0014844 	.word	0xe0014844
e0014a30:	e0014844 	.word	0xe0014844
e0014a34:	e0014844 	.word	0xe0014844
e0014a38:	e0014844 	.word	0xe0014844
e0014a3c:	e0014844 	.word	0xe0014844
e0014a40:	e0014844 	.word	0xe0014844
e0014a44:	e0014844 	.word	0xe0014844
e0014a48:	e0014844 	.word	0xe0014844
e0014a4c:	e0014844 	.word	0xe0014844
e0014a50:	e0014844 	.word	0xe0014844
e0014a54:	e0014844 	.word	0xe0014844
e0014a58:	e0014844 	.word	0xe0014844
e0014a5c:	e0014844 	.word	0xe0014844
e0014a60:	e0014844 	.word	0xe0014844
e0014a64:	e0014444 	.word	0xe0014444
e0014a68:	e0014844 	.word	0xe0014844
e0014a6c:	e0014844 	.word	0xe0014844
e0014a70:	e0014844 	.word	0xe0014844
e0014a74:	e0014844 	.word	0xe0014844
e0014a78:	e0014844 	.word	0xe0014844
e0014a7c:	e0014844 	.word	0xe0014844
e0014a80:	e0014844 	.word	0xe0014844
e0014a84:	e0014844 	.word	0xe0014844
e0014a88:	e0014844 	.word	0xe0014844
e0014a8c:	e0014844 	.word	0xe0014844
e0014a90:	e0014844 	.word	0xe0014844
e0014a94:	e0014844 	.word	0xe0014844
e0014a98:	e0014844 	.word	0xe0014844
e0014a9c:	e0014844 	.word	0xe0014844
e0014aa0:	e0014844 	.word	0xe0014844
e0014aa4:	e001461c 	.word	0xe001461c
e0014aa8:	e0014844 	.word	0xe0014844
e0014aac:	e0014844 	.word	0xe0014844
e0014ab0:	e0014844 	.word	0xe0014844
e0014ab4:	e0014844 	.word	0xe0014844
e0014ab8:	e0014844 	.word	0xe0014844
e0014abc:	e0014844 	.word	0xe0014844
e0014ac0:	e0014844 	.word	0xe0014844
e0014ac4:	e0014844 	.word	0xe0014844
e0014ac8:	e0014844 	.word	0xe0014844
e0014acc:	e0014844 	.word	0xe0014844
e0014ad0:	e0014844 	.word	0xe0014844
e0014ad4:	e0014844 	.word	0xe0014844
e0014ad8:	e0014844 	.word	0xe0014844
e0014adc:	e0014844 	.word	0xe0014844
e0014ae0:	e0014844 	.word	0xe0014844
e0014ae4:	e0014444 	.word	0xe0014444
e0014ae8:	e6ef0072 	uxtb	r0, r2
e0014aec:	e240003e 	sub	r0, r0, #62	; 0x3e
e0014af0:	e16f0f10 	clz	r0, r0
e0014af4:	e1a002a0 	lsr	r0, r0, #5
e0014af8:	eafffe52 	b	e0014448 <sameRegionAs+0x148>
e0014afc:	e3a04000 	mov	r4, #0
e0014b00:	eaffffa3 	b	e0014994 <sameRegionAs+0x694>
e0014b04:	e3a04a0f 	mov	r4, #61440	; 0xf000
e0014b08:	e34f4fff 	movt	r4, #65535	; 0xffff
e0014b0c:	e0044402 	and	r4, r4, r2, lsl #8
e0014b10:	eaffff9f 	b	e0014994 <sameRegionAs+0x694>

e0014b14 <isMDBParentOf>:
e0014b14:	e590300c 	ldr	r3, [r0, #12]
e0014b18:	e7e030d3 	ubfx	r3, r3, #1, #1
e0014b1c:	e3530000 	cmp	r3, #0
e0014b20:	0a000018 	beq	e0014b88 <isMDBParentOf+0x74>
e0014b24:	e92d4070 	push	{r4, r5, r6, lr}
e0014b28:	e1a05001 	mov	r5, r1
e0014b2c:	e891000c 	ldm	r1, {r2, r3}
e0014b30:	e1a04000 	mov	r4, r0
e0014b34:	e8900003 	ldm	r0, {r0, r1}
e0014b38:	ebfffdf0 	bl	e0014300 <sameRegionAs>
e0014b3c:	e3500000 	cmp	r0, #0
e0014b40:	08bd8070 	popeq	{r4, r5, r6, pc}
e0014b44:	e5943000 	ldr	r3, [r4]
e0014b48:	e203200e 	and	r2, r3, #14
e0014b4c:	e352000e 	cmp	r2, #14
e0014b50:	1203200f 	andne	r2, r3, #15
e0014b54:	06ef2073 	uxtbeq	r2, r3
e0014b58:	e3520004 	cmp	r2, #4
e0014b5c:	0a00000b 	beq	e0014b90 <isMDBParentOf+0x7c>
e0014b60:	e3520006 	cmp	r2, #6
e0014b64:	1a000012 	bne	e0014bb4 <isMDBParentOf+0xa0>
e0014b68:	e5943004 	ldr	r3, [r4, #4]
e0014b6c:	e1b03223 	lsrs	r3, r3, #4
e0014b70:	0a00000f 	beq	e0014bb4 <isMDBParentOf+0xa0>
e0014b74:	e5952004 	ldr	r2, [r5, #4]
e0014b78:	e1530222 	cmp	r3, r2, lsr #4
e0014b7c:	0a000008 	beq	e0014ba4 <isMDBParentOf+0x90>
e0014b80:	e3a00000 	mov	r0, #0
e0014b84:	e8bd8070 	pop	{r4, r5, r6, pc}
e0014b88:	e1a00003 	mov	r0, r3
e0014b8c:	e12fff1e 	bx	lr
e0014b90:	e1b03223 	lsrs	r3, r3, #4
e0014b94:	0a000006 	beq	e0014bb4 <isMDBParentOf+0xa0>
e0014b98:	e5952000 	ldr	r2, [r5]
e0014b9c:	e1530222 	cmp	r3, r2, lsr #4
e0014ba0:	1afffff6 	bne	e0014b80 <isMDBParentOf+0x6c>
e0014ba4:	e595300c 	ldr	r3, [r5, #12]
e0014ba8:	e2233001 	eor	r3, r3, #1
e0014bac:	e2030001 	and	r0, r3, #1
e0014bb0:	e8bd8070 	pop	{r4, r5, r6, pc}
e0014bb4:	e3a00001 	mov	r0, #1
e0014bb8:	e8bd8070 	pop	{r4, r5, r6, pc}

e0014bbc <ensureNoChildren>:
e0014bbc:	e590100c 	ldr	r1, [r0, #12]
e0014bc0:	e3d11007 	bics	r1, r1, #7
e0014bc4:	0a000008 	beq	e0014bec <ensureNoChildren+0x30>
e0014bc8:	e92d4010 	push	{r4, lr}
e0014bcc:	ebffffd0 	bl	e0014b14 <isMDBParentOf>
e0014bd0:	e3500000 	cmp	r0, #0
e0014bd4:	13093020 	movwne	r3, #36896	; 0x9020
e0014bd8:	134e3002 	movtne	r3, #57346	; 0xe002
e0014bdc:	13a02009 	movne	r2, #9
e0014be0:	13a00003 	movne	r0, #3
e0014be4:	15832018 	strne	r2, [r3, #24]
e0014be8:	e8bd8010 	pop	{r4, pc}
e0014bec:	e1a00001 	mov	r0, r1
e0014bf0:	e12fff1e 	bx	lr

e0014bf4 <deriveCap>:
e0014bf4:	e92d40f0 	push	{r4, r5, r6, r7, lr}
e0014bf8:	e24dd00c 	sub	sp, sp, #12
e0014bfc:	e1a05000 	mov	r5, r0
e0014c00:	e1a04002 	mov	r4, r2
e0014c04:	e1a0c00d 	mov	ip, sp
e0014c08:	e88c000c 	stm	ip, {r2, r3}
e0014c0c:	e202300e 	and	r3, r2, #14
e0014c10:	e353000e 	cmp	r3, #14
e0014c14:	1202300f 	andne	r3, r2, #15
e0014c18:	06ef3072 	uxtbeq	r3, r2
e0014c1c:	e2137001 	ands	r7, r3, #1
e0014c20:	1a000018 	bne	e0014c88 <deriveCap+0x94>
e0014c24:	e3530008 	cmp	r3, #8
e0014c28:	e59d6004 	ldr	r6, [sp, #4]
e0014c2c:	0a000011 	beq	e0014c78 <deriveCap+0x84>
e0014c30:	8a00000a 	bhi	e0014c60 <deriveCap+0x6c>
e0014c34:	e3530002 	cmp	r3, #2
e0014c38:	1a00000c 	bne	e0014c70 <deriveCap+0x7c>
e0014c3c:	e1a00001 	mov	r0, r1
e0014c40:	ebffffdd 	bl	e0014bbc <ensureNoChildren>
e0014c44:	e3500000 	cmp	r0, #0
e0014c48:	11a04007 	movne	r4, r7
e0014c4c:	11a06004 	movne	r6, r4
e0014c50:	e8850051 	stm	r5, {r0, r4, r6}
e0014c54:	e1a00005 	mov	r0, r5
e0014c58:	e28dd00c 	add	sp, sp, #12
e0014c5c:	e8bd80f0 	pop	{r4, r5, r6, r7, pc}
e0014c60:	e353000e 	cmp	r3, #14
e0014c64:	0a000003 	beq	e0014c78 <deriveCap+0x84>
e0014c68:	e353002e 	cmp	r3, #46	; 0x2e
e0014c6c:	0a000001 	beq	e0014c78 <deriveCap+0x84>
e0014c70:	e3a00000 	mov	r0, #0
e0014c74:	eafffff5 	b	e0014c50 <deriveCap+0x5c>
e0014c78:	e3a06000 	mov	r6, #0
e0014c7c:	e1a04006 	mov	r4, r6
e0014c80:	e1a00006 	mov	r0, r6
e0014c84:	eafffff1 	b	e0014c50 <deriveCap+0x5c>
e0014c88:	e89c000c 	ldm	ip, {r2, r3}
e0014c8c:	ebfff2eb 	bl	e0011840 <Arch_deriveCap>
e0014c90:	e1a00005 	mov	r0, r5
e0014c94:	e28dd00c 	add	sp, sp, #12
e0014c98:	e8bd80f0 	pop	{r4, r5, r6, r7, pc}

e0014c9c <sameObjectAs>:
e0014c9c:	e52de004 	push	{lr}		; (str lr, [sp, #-4]!)
e0014ca0:	e24dd014 	sub	sp, sp, #20
e0014ca4:	e28dc008 	add	ip, sp, #8
e0014ca8:	e1a0e00d 	mov	lr, sp
e0014cac:	e88e000c 	stm	lr, {r2, r3}
e0014cb0:	e200300e 	and	r3, r0, #14
e0014cb4:	e353000e 	cmp	r3, #14
e0014cb8:	e88c0003 	stm	ip, {r0, r1}
e0014cbc:	1200300f 	andne	r3, r0, #15
e0014cc0:	06ef3070 	uxtbeq	r3, r0
e0014cc4:	e3530002 	cmp	r3, #2
e0014cc8:	0a000015 	beq	e0014d24 <sameObjectAs+0x88>
e0014ccc:	e353000e 	cmp	r3, #14
e0014cd0:	e59d2000 	ldr	r2, [sp]
e0014cd4:	0a00000c 	beq	e0014d0c <sameObjectAs+0x70>
e0014cd8:	e3130001 	tst	r3, #1
e0014cdc:	0a000005 	beq	e0014cf8 <sameObjectAs+0x5c>
e0014ce0:	e202300e 	and	r3, r2, #14
e0014ce4:	e353000e 	cmp	r3, #14
e0014ce8:	1202200f 	andne	r2, r2, #15
e0014cec:	06ef2072 	uxtbeq	r2, r2
e0014cf0:	e3120001 	tst	r2, #1
e0014cf4:	1a00000d 	bne	e0014d30 <sameObjectAs+0x94>
e0014cf8:	e89e000c 	ldm	lr, {r2, r3}
e0014cfc:	e89c0003 	ldm	ip, {r0, r1}
e0014d00:	e28dd014 	add	sp, sp, #20
e0014d04:	e49de004 	pop	{lr}		; (ldr lr, [sp], #4)
e0014d08:	eafffd7c 	b	e0014300 <sameRegionAs>
e0014d0c:	e202300e 	and	r3, r2, #14
e0014d10:	e353000e 	cmp	r3, #14
e0014d14:	1afffff7 	bne	e0014cf8 <sameObjectAs+0x5c>
e0014d18:	e6ef2072 	uxtb	r2, r2
e0014d1c:	e352001e 	cmp	r2, #30
e0014d20:	1afffff4 	bne	e0014cf8 <sameObjectAs+0x5c>
e0014d24:	e3a00000 	mov	r0, #0
e0014d28:	e28dd014 	add	sp, sp, #20
e0014d2c:	e49df004 	pop	{pc}		; (ldr pc, [sp], #4)
e0014d30:	e89e000c 	ldm	lr, {r2, r3}
e0014d34:	e89c0003 	ldm	ip, {r0, r1}
e0014d38:	e28dd014 	add	sp, sp, #20
e0014d3c:	e49de004 	pop	{lr}		; (ldr lr, [sp], #4)
e0014d40:	eafff3fc 	b	e0011d38 <Arch_sameObjectAs>

e0014d44 <isFinalCapability>:
e0014d44:	e5903008 	ldr	r3, [r0, #8]
e0014d48:	e92d4010 	push	{r4, lr}
e0014d4c:	e3d31007 	bics	r1, r3, #7
e0014d50:	e1a04000 	mov	r4, r0
e0014d54:	0a000004 	beq	e0014d6c <isFinalCapability+0x28>
e0014d58:	e890000c 	ldm	r0, {r2, r3}
e0014d5c:	e8910003 	ldm	r1, {r0, r1}
e0014d60:	ebffffcd 	bl	e0014c9c <sameObjectAs>
e0014d64:	e3500000 	cmp	r0, #0
e0014d68:	1a00000a 	bne	e0014d98 <isFinalCapability+0x54>
e0014d6c:	e594300c 	ldr	r3, [r4, #12]
e0014d70:	e3d33007 	bics	r3, r3, #7
e0014d74:	0a000005 	beq	e0014d90 <isFinalCapability+0x4c>
e0014d78:	e893000c 	ldm	r3, {r2, r3}
e0014d7c:	e8940003 	ldm	r4, {r0, r1}
e0014d80:	ebffffc5 	bl	e0014c9c <sameObjectAs>
e0014d84:	e16f0f10 	clz	r0, r0
e0014d88:	e1a002a0 	lsr	r0, r0, #5
e0014d8c:	e8bd8010 	pop	{r4, pc}
e0014d90:	e3a00001 	mov	r0, #1
e0014d94:	e8bd8010 	pop	{r4, pc}
e0014d98:	e3a00000 	mov	r0, #0
e0014d9c:	e8bd8010 	pop	{r4, pc}

e0014da0 <slotCapLongRunningDelete>:
e0014da0:	e92d4010 	push	{r4, lr}
e0014da4:	e5904000 	ldr	r4, [r0]
e0014da8:	e204300e 	and	r3, r4, #14
e0014dac:	e353000e 	cmp	r3, #14
e0014db0:	1204400f 	andne	r4, r4, #15
e0014db4:	06ef4074 	uxtbeq	r4, r4
e0014db8:	e3540000 	cmp	r4, #0
e0014dbc:	0a000008 	beq	e0014de4 <slotCapLongRunningDelete+0x44>
e0014dc0:	ebffffdf 	bl	e0014d44 <isFinalCapability>
e0014dc4:	e3500000 	cmp	r0, #0
e0014dc8:	08bd8010 	popeq	{r4, pc}
e0014dcc:	e354000c 	cmp	r4, #12
e0014dd0:	0a000005 	beq	e0014dec <slotCapLongRunningDelete+0x4c>
e0014dd4:	e354002e 	cmp	r4, #46	; 0x2e
e0014dd8:	0a000003 	beq	e0014dec <slotCapLongRunningDelete+0x4c>
e0014ddc:	e354000a 	cmp	r4, #10
e0014de0:	0a000001 	beq	e0014dec <slotCapLongRunningDelete+0x4c>
e0014de4:	e3a00000 	mov	r0, #0
e0014de8:	e8bd8010 	pop	{r4, pc}
e0014dec:	e3a00001 	mov	r0, #1
e0014df0:	e8bd8010 	pop	{r4, pc}

e0014df4 <decodeARMMMUInvocation>:
e0014df4:	e92d4ff0 	push	{r4, r5, r6, r7, r8, r9, sl, fp, lr}
e0014df8:	e24dd04c 	sub	sp, sp, #76	; 0x4c
e0014dfc:	e1a0a003 	mov	sl, r3
e0014e00:	e1a0b000 	mov	fp, r0
e0014e04:	e59d8070 	ldr	r8, [sp, #112]	; 0x70
e0014e08:	e59d7074 	ldr	r7, [sp, #116]	; 0x74
e0014e0c:	e208300e 	and	r3, r8, #14
e0014e10:	e59d6078 	ldr	r6, [sp, #120]	; 0x78
e0014e14:	e353000e 	cmp	r3, #14
e0014e18:	1208900f 	andne	r9, r8, #15
e0014e1c:	06ef9078 	uxtbeq	r9, r8
e0014e20:	e2493001 	sub	r3, r9, #1
e0014e24:	e353000a 	cmp	r3, #10
e0014e28:	979ff103 	ldrls	pc, [pc, r3, lsl #2]
e0014e2c:	ea000209 	b	e0015658 <decodeARMMMUInvocation+0x864>
e0014e30:	e001521c 	.word	0xe001521c
e0014e34:	e0015658 	.word	0xe0015658
e0014e38:	e001521c 	.word	0xe001521c
e0014e3c:	e0015658 	.word	0xe0015658
e0014e40:	e0015134 	.word	0xe0015134
e0014e44:	e0015658 	.word	0xe0015658
e0014e48:	e001500c 	.word	0xe001500c
e0014e4c:	e0015658 	.word	0xe0015658
e0014e50:	e0014f0c 	.word	0xe0014f0c
e0014e54:	e0015658 	.word	0xe0015658
e0014e58:	e0014e5c 	.word	0xe0014e5c
e0014e5c:	e350002b 	cmp	r0, #43	; 0x2b
e0014e60:	1a00010c 	bne	e0015298 <decodeARMMMUInvocation+0x4a4>
e0014e64:	e59dc07c 	ldr	ip, [sp, #124]	; 0x7c
e0014e68:	e3560000 	cmp	r6, #0
e0014e6c:	e16f4f1c 	clz	r4, ip
e0014e70:	e1a042a4 	lsr	r4, r4, #5
e0014e74:	03a04001 	moveq	r4, #1
e0014e78:	e3510001 	cmp	r1, #1
e0014e7c:	93844001 	orrls	r4, r4, #1
e0014e80:	e3540000 	cmp	r4, #0
e0014e84:	1a000112 	bne	e00152d4 <decodeARMMMUInvocation+0x4e0>
e0014e88:	e30972c8 	movw	r7, #37576	; 0x92c8
e0014e8c:	e34e7002 	movt	r7, #57346	; 0xe002
e0014e90:	e5968000 	ldr	r8, [r6]
e0014e94:	e1a03007 	mov	r3, r7
e0014e98:	ea000002 	b	e0014ea8 <decodeARMMMUInvocation+0xb4>
e0014e9c:	e2844001 	add	r4, r4, #1
e0014ea0:	e3540080 	cmp	r4, #128	; 0x80
e0014ea4:	0a0001e5 	beq	e0015640 <decodeARMMMUInvocation+0x84c>
e0014ea8:	e4932004 	ldr	r2, [r3], #4
e0014eac:	e3520000 	cmp	r2, #0
e0014eb0:	1afffff9 	bne	e0014e9c <decodeARMMMUInvocation+0xa8>
e0014eb4:	e208300e 	and	r3, r8, #14
e0014eb8:	e353000e 	cmp	r3, #14
e0014ebc:	1208300f 	andne	r3, r8, #15
e0014ec0:	06ef3078 	uxtbeq	r3, r8
e0014ec4:	e3530002 	cmp	r3, #2
e0014ec8:	1a000005 	bne	e0014ee4 <decodeARMMMUInvocation+0xf0>
e0014ecc:	e5963004 	ldr	r3, [r6, #4]
e0014ed0:	e203101f 	and	r1, r3, #31
e0014ed4:	e351000c 	cmp	r1, #12
e0014ed8:	1a000001 	bne	e0014ee4 <decodeARMMMUInvocation+0xf0>
e0014edc:	e3130020 	tst	r3, #32
e0014ee0:	0a0001dd 	beq	e001565c <decodeARMMMUInvocation+0x868>
e0014ee4:	e3093020 	movw	r3, #36896	; 0x9020
e0014ee8:	e34e3002 	movt	r3, #57346	; 0xe002
e0014eec:	e3a05003 	mov	r5, #3
e0014ef0:	e3a01002 	mov	r1, #2
e0014ef4:	e3a02001 	mov	r2, #1
e0014ef8:	e1a00005 	mov	r0, r5
e0014efc:	e5831018 	str	r1, [r3, #24]
e0014f00:	e5832004 	str	r2, [r3, #4]
e0014f04:	e28dd04c 	add	sp, sp, #76	; 0x4c
e0014f08:	e8bd8ff0 	pop	{r4, r5, r6, r7, r8, r9, sl, fp, pc}
e0014f0c:	e240301e 	sub	r3, r0, #30
e0014f10:	e3530003 	cmp	r3, #3
e0014f14:	8a0000df 	bhi	e0015298 <decodeARMMMUInvocation+0x4a4>
e0014f18:	e3510001 	cmp	r1, #1
e0014f1c:	9a0000ec 	bls	e00152d4 <decodeARMMMUInvocation+0x4e0>
e0014f20:	e303364c 	movw	r3, #13900	; 0x364c
e0014f24:	e34e3003 	movt	r3, #57347	; 0xe003
e0014f28:	e58d3008 	str	r3, [sp, #8]
e0014f2c:	e5933000 	ldr	r3, [r3]
e0014f30:	e5934008 	ldr	r4, [r3, #8]
e0014f34:	e593600c 	ldr	r6, [r3, #12]
e0014f38:	e1540006 	cmp	r4, r6
e0014f3c:	2a0000dd 	bcs	e00152b8 <decodeARMMMUInvocation+0x4c4>
e0014f40:	e3740212 	cmn	r4, #536870913	; 0x20000001
e0014f44:	9356020e 	cmpls	r6, #-536870912	; 0xe0000000
e0014f48:	83a09001 	movhi	r9, #1
e0014f4c:	93a09000 	movls	r9, #0
e0014f50:	8a0000d0 	bhi	e0015298 <decodeARMMMUInvocation+0x4a4>
e0014f54:	e3180010 	tst	r8, #16
e0014f58:	0a000202 	beq	e0015768 <decodeARMMMUInvocation+0x974>
e0014f5c:	e7f07057 	ubfx	r7, r7, #0, #17
e0014f60:	e28d0038 	add	r0, sp, #56	; 0x38
e0014f64:	e3c88dff 	bic	r8, r8, #16320	; 0x3fc0
e0014f68:	e1a01007 	mov	r1, r7
e0014f6c:	e3c8803f 	bic	r8, r8, #63	; 0x3f
e0014f70:	ebffef60 	bl	e0010cf8 <findPDForASID>
e0014f74:	e59d5038 	ldr	r5, [sp, #56]	; 0x38
e0014f78:	e3550000 	cmp	r5, #0
e0014f7c:	1a0003a1 	bne	e0015e08 <decodeARMMMUInvocation+0x1014>
e0014f80:	e59d303c 	ldr	r3, [sp, #60]	; 0x3c
e0014f84:	e1580003 	cmp	r8, r3
e0014f88:	1a0001f6 	bne	e0015768 <decodeARMMMUInvocation+0x974>
e0014f8c:	e1a03a24 	lsr	r3, r4, #20
e0014f90:	e7982103 	ldr	r2, [r8, r3, lsl #2]
e0014f94:	e2023003 	and	r3, r2, #3
e0014f98:	e3530001 	cmp	r3, #1
e0014f9c:	0a0002d9 	beq	e0015b08 <decodeARMMMUInvocation+0xd14>
e0014fa0:	e3530002 	cmp	r3, #2
e0014fa4:	1a0002c0 	bne	e0015aac <decodeARMMMUInvocation+0xcb8>
e0014fa8:	e7e01952 	ubfx	r1, r2, #18, #1
e0014fac:	e3a03000 	mov	r3, #0
e0014fb0:	e1510003 	cmp	r1, r3
e0014fb4:	e34f3ff0 	movt	r3, #65520	; 0xfff0
e0014fb8:	e0022003 	and	r2, r2, r3
e0014fbc:	13a01401 	movne	r1, #16777216	; 0x1000000
e0014fc0:	13a034ff 	movne	r3, #-16777216	; 0xff000000
e0014fc4:	03a01601 	moveq	r1, #1048576	; 0x100000
e0014fc8:	13a0c018 	movne	ip, #24
e0014fcc:	03a0c014 	moveq	ip, #20
e0014fd0:	e2466001 	sub	r6, r6, #1
e0014fd4:	e0040003 	and	r0, r4, r3
e0014fd8:	e0033006 	and	r3, r3, r6
e0014fdc:	e1500003 	cmp	r0, r3
e0014fe0:	0a000374 	beq	e0015db8 <decodeARMMMUInvocation+0xfc4>
e0014fe4:	e3092020 	movw	r2, #36896	; 0x9020
e0014fe8:	e34e2002 	movt	r2, #57346	; 0xe002
e0014fec:	e2413001 	sub	r3, r1, #1
e0014ff0:	e3a05003 	mov	r5, #3
e0014ff4:	e3a01004 	mov	r1, #4
e0014ff8:	e0833000 	add	r3, r3, r0
e0014ffc:	e5824008 	str	r4, [r2, #8]
e0015000:	e582300c 	str	r3, [r2, #12]
e0015004:	e5821018 	str	r1, [r2, #24]
e0015008:	ea000080 	b	e0015210 <decodeARMMMUInvocation+0x41c>
e001500c:	e3500023 	cmp	r0, #35	; 0x23
e0015010:	0a00008c 	beq	e0015248 <decodeARMMMUInvocation+0x454>
e0015014:	e3500022 	cmp	r0, #34	; 0x22
e0015018:	1a00009e 	bne	e0015298 <decodeARMMMUInvocation+0x4a4>
e001501c:	e3560000 	cmp	r6, #0
e0015020:	13510001 	cmpne	r1, #1
e0015024:	9a0000aa 	bls	e00152d4 <decodeARMMMUInvocation+0x4e0>
e0015028:	e3170202 	tst	r7, #536870912	; 0x20000000
e001502c:	1a0001cd 	bne	e0015768 <decodeARMMMUInvocation+0x974>
e0015030:	e5964000 	ldr	r4, [r6]
e0015034:	e204300e 	and	r3, r4, #14
e0015038:	e353000e 	cmp	r3, #14
e001503c:	1204300f 	andne	r3, r4, #15
e0015040:	06ef3074 	uxtbeq	r3, r4
e0015044:	e3530009 	cmp	r3, #9
e0015048:	1affffa5 	bne	e0014ee4 <decodeARMMMUInvocation+0xf0>
e001504c:	e3140010 	tst	r4, #16
e0015050:	0affffa3 	beq	e0014ee4 <decodeARMMMUInvocation+0xf0>
e0015054:	e303b64c 	movw	fp, #13900	; 0x364c
e0015058:	e34eb003 	movt	fp, #57347	; 0xe003
e001505c:	e5966004 	ldr	r6, [r6, #4]
e0015060:	e3c44dff 	bic	r4, r4, #16320	; 0x3fc0
e0015064:	e59b3000 	ldr	r3, [fp]
e0015068:	e3c4403f 	bic	r4, r4, #63	; 0x3f
e001506c:	e7f06056 	ubfx	r6, r6, #0, #17
e0015070:	e5939008 	ldr	r9, [r3, #8]
e0015074:	e3790212 	cmn	r9, #536870913	; 0x20000001
e0015078:	8a0000e3 	bhi	e001540c <decodeARMMMUInvocation+0x618>
e001507c:	e593300c 	ldr	r3, [r3, #12]
e0015080:	e1a01006 	mov	r1, r6
e0015084:	e28d0038 	add	r0, sp, #56	; 0x38
e0015088:	e58d3008 	str	r3, [sp, #8]
e001508c:	ebffef19 	bl	e0010cf8 <findPDForASID>
e0015090:	e59d5038 	ldr	r5, [sp, #56]	; 0x38
e0015094:	e3550000 	cmp	r5, #0
e0015098:	1a00026f 	bne	e0015a5c <decodeARMMMUInvocation+0xc68>
e001509c:	e59d303c 	ldr	r3, [sp, #60]	; 0x3c
e00150a0:	e1540003 	cmp	r4, r3
e00150a4:	1a000279 	bne	e0015a90 <decodeARMMMUInvocation+0xc9c>
e00150a8:	e1a09a29 	lsr	r9, r9, #20
e00150ac:	e7941109 	ldr	r1, [r4, r9, lsl #2]
e00150b0:	e0843109 	add	r3, r4, r9, lsl #2
e00150b4:	e3110003 	tst	r1, #3
e00150b8:	1a000160 	bne	e0015640 <decodeARMMMUInvocation+0x84c>
e00150bc:	e59b0000 	ldr	r0, [fp]
e00150c0:	e3002fff 	movw	r2, #4095	; 0xfff
e00150c4:	e34c2000 	movt	r2, #49152	; 0xc000
e00150c8:	e58d300c 	str	r3, [sp, #12]
e00150cc:	e0022007 	and	r2, r2, r7
e00150d0:	e59d3008 	ldr	r3, [sp, #8]
e00150d4:	e590c050 	ldr	ip, [r0, #80]	; 0x50
e00150d8:	e3c81fff 	bic	r1, r8, #1020	; 0x3fc
e00150dc:	e3822202 	orr	r2, r2, #536870912	; 0x20000000
e00150e0:	e3c11003 	bic	r1, r1, #3
e00150e4:	e1822606 	orr	r2, r2, r6, lsl #12
e00150e8:	e1a0b403 	lsl	fp, r3, #8
e00150ec:	e2816203 	add	r6, r1, #805306368	; 0x30000000
e00150f0:	e3ccc00f 	bic	ip, ip, #15
e00150f4:	e3c22eff 	bic	r2, r2, #4080	; 0xff0
e00150f8:	e38cc002 	orr	ip, ip, #2
e00150fc:	e3c2200f 	bic	r2, r2, #15
e0015100:	e20bbc02 	and	fp, fp, #512	; 0x200
e0015104:	e580c050 	str	ip, [r0, #80]	; 0x50
e0015108:	e3866001 	orr	r6, r6, #1
e001510c:	e1827009 	orr	r7, r2, r9
e0015110:	e186600b 	orr	r6, r6, fp
e0015114:	ebfff7fe 	bl	e0013114 <setThreadState.part.166>
e0015118:	e58a7004 	str	r7, [sl, #4]
e001511c:	e58a8000 	str	r8, [sl]
e0015120:	e59d300c 	ldr	r3, [sp, #12]
e0015124:	e7846109 	str	r6, [r4, r9, lsl #2]
e0015128:	ee073f3b 	mcr	15, 0, r3, cr7, cr11, {1}
e001512c:	f57ff05f 	dmb	sy
e0015130:	ea000036 	b	e0015210 <decodeARMMMUInvocation+0x41c>
e0015134:	e350002c 	cmp	r0, #44	; 0x2c
e0015138:	1a000056 	bne	e0015298 <decodeARMMMUInvocation+0x4a4>
e001513c:	e3560000 	cmp	r6, #0
e0015140:	0a000063 	beq	e00152d4 <decodeARMMMUInvocation+0x4e0>
e0015144:	e5963000 	ldr	r3, [r6]
e0015148:	e203200e 	and	r2, r3, #14
e001514c:	e352000e 	cmp	r2, #14
e0015150:	1203200f 	andne	r2, r3, #15
e0015154:	06ef2073 	uxtbeq	r2, r3
e0015158:	e3520009 	cmp	r2, #9
e001515c:	1affff60 	bne	e0014ee4 <decodeARMMMUInvocation+0xf0>
e0015160:	e3130010 	tst	r3, #16
e0015164:	1affff5e 	bne	e0014ee4 <decodeARMMMUInvocation+0xf0>
e0015168:	e7f07057 	ubfx	r7, r7, #0, #17
e001516c:	e30932c8 	movw	r3, #37576	; 0x92c8
e0015170:	e34e3002 	movt	r3, #57346	; 0xe002
e0015174:	e1a02527 	lsr	r2, r7, #10
e0015178:	e7934102 	ldr	r4, [r3, r2, lsl #2]
e001517c:	e3540000 	cmp	r4, #0
e0015180:	0a000220 	beq	e0015a08 <decodeARMMMUInvocation+0xc14>
e0015184:	e3c8800f 	bic	r8, r8, #15
e0015188:	e1540008 	cmp	r4, r8
e001518c:	1a000175 	bne	e0015768 <decodeARMMMUInvocation+0x974>
e0015190:	e2872b01 	add	r2, r7, #1024	; 0x400
e0015194:	e0443107 	sub	r3, r4, r7, lsl #2
e0015198:	ea000002 	b	e00151a8 <decodeARMMMUInvocation+0x3b4>
e001519c:	e2877001 	add	r7, r7, #1
e00151a0:	e1520007 	cmp	r2, r7
e00151a4:	0a000125 	beq	e0015640 <decodeARMMMUInvocation+0x84c>
e00151a8:	e3570000 	cmp	r7, #0
e00151ac:	0afffffa 	beq	e001519c <decodeARMMMUInvocation+0x3a8>
e00151b0:	e7935107 	ldr	r5, [r3, r7, lsl #2]
e00151b4:	e3550000 	cmp	r5, #0
e00151b8:	1afffff7 	bne	e001519c <decodeARMMMUInvocation+0x3a8>
e00151bc:	e303364c 	movw	r3, #13900	; 0x364c
e00151c0:	e34e3003 	movt	r3, #57347	; 0xe003
e00151c4:	e5932000 	ldr	r2, [r3]
e00151c8:	e5923050 	ldr	r3, [r2, #80]	; 0x50
e00151cc:	e1a00002 	mov	r0, r2
e00151d0:	e3c3300f 	bic	r3, r3, #15
e00151d4:	e3833002 	orr	r3, r3, #2
e00151d8:	e5823050 	str	r3, [r2, #80]	; 0x50
e00151dc:	ebfff7cc 	bl	e0013114 <setThreadState.part.166>
e00151e0:	e1c620d0 	ldrd	r2, [r6]
e00151e4:	e7f00057 	ubfx	r0, r7, #0, #17
e00151e8:	e7e97057 	ubfx	r7, r7, #0, #10
e00151ec:	e3c21dff 	bic	r1, r2, #16320	; 0x3fc0
e00151f0:	e3822010 	orr	r2, r2, #16
e00151f4:	e1a038a3 	lsr	r3, r3, #17
e00151f8:	e3c1103f 	bic	r1, r1, #63	; 0x3f
e00151fc:	e5862000 	str	r2, [r6]
e0015200:	e1a03883 	lsl	r3, r3, #17
e0015204:	e1833000 	orr	r3, r3, r0
e0015208:	e5863004 	str	r3, [r6, #4]
e001520c:	e7841107 	str	r1, [r4, r7, lsl #2]
e0015210:	e1a00005 	mov	r0, r5
e0015214:	e28dd04c 	add	sp, sp, #76	; 0x4c
e0015218:	e8bd8ff0 	pop	{r4, r5, r6, r7, r8, r9, sl, fp, pc}
e001521c:	e2403024 	sub	r3, r0, #36	; 0x24
e0015220:	e3530006 	cmp	r3, #6
e0015224:	979ff103 	ldrls	pc, [pc, r3, lsl #2]
e0015228:	ea00001a 	b	e0015298 <decodeARMMMUInvocation+0x4a4>
e001522c:	e0015354 	.word	0xe0015354
e0015230:	e001542c 	.word	0xe001542c
e0015234:	e00154dc 	.word	0xe00154dc
e0015238:	e00154dc 	.word	0xe00154dc
e001523c:	e00154dc 	.word	0xe00154dc
e0015240:	e00154dc 	.word	0xe00154dc
e0015244:	e00152f4 	.word	0xe00152f4
e0015248:	e1a0000a 	mov	r0, sl
e001524c:	ebfffebc 	bl	e0014d44 <isFinalCapability>
e0015250:	e3500000 	cmp	r0, #0
e0015254:	0a000207 	beq	e0015a78 <decodeARMMMUInvocation+0xc84>
e0015258:	e303364c 	movw	r3, #13900	; 0x364c
e001525c:	e34e3003 	movt	r3, #57347	; 0xe003
e0015260:	e5932000 	ldr	r2, [r3]
e0015264:	e5923050 	ldr	r3, [r2, #80]	; 0x50
e0015268:	e1a00002 	mov	r0, r2
e001526c:	e3c3300f 	bic	r3, r3, #15
e0015270:	e3833002 	orr	r3, r3, #2
e0015274:	e5823050 	str	r3, [r2, #80]	; 0x50
e0015278:	ebfff7a5 	bl	e0013114 <setThreadState.part.166>
e001527c:	e3170202 	tst	r7, #536870912	; 0x20000000
e0015280:	1a0000cf 	bne	e00155c4 <decodeARMMMUInvocation+0x7d0>
e0015284:	e59a3004 	ldr	r3, [sl, #4]
e0015288:	e3a05000 	mov	r5, #0
e001528c:	e3c33202 	bic	r3, r3, #536870912	; 0x20000000
e0015290:	e58a3004 	str	r3, [sl, #4]
e0015294:	eaffffdd 	b	e0015210 <decodeARMMMUInvocation+0x41c>
e0015298:	e3a02003 	mov	r2, #3
e001529c:	e3093020 	movw	r3, #36896	; 0x9020
e00152a0:	e34e3002 	movt	r3, #57346	; 0xe002
e00152a4:	e1a05002 	mov	r5, r2
e00152a8:	e1a00005 	mov	r0, r5
e00152ac:	e5832018 	str	r2, [r3, #24]
e00152b0:	e28dd04c 	add	sp, sp, #76	; 0x4c
e00152b4:	e8bd8ff0 	pop	{r4, r5, r6, r7, r8, r9, sl, fp, pc}
e00152b8:	e3093020 	movw	r3, #36896	; 0x9020
e00152bc:	e34e3002 	movt	r3, #57346	; 0xe002
e00152c0:	e3a02001 	mov	r2, #1
e00152c4:	e3a05003 	mov	r5, #3
e00152c8:	e5832018 	str	r2, [r3, #24]
e00152cc:	e5832000 	str	r2, [r3]
e00152d0:	eaffffce 	b	e0015210 <decodeARMMMUInvocation+0x41c>
e00152d4:	e3093020 	movw	r3, #36896	; 0x9020
e00152d8:	e34e3002 	movt	r3, #57346	; 0xe002
e00152dc:	e3a05003 	mov	r5, #3
e00152e0:	e3a02007 	mov	r2, #7
e00152e4:	e1a00005 	mov	r0, r5
e00152e8:	e5832018 	str	r2, [r3, #24]
e00152ec:	e28dd04c 	add	sp, sp, #76	; 0x4c
e00152f0:	e8bd8ff0 	pop	{r4, r5, r6, r7, r8, r9, sl, fp, pc}
e00152f4:	e303364c 	movw	r3, #13900	; 0x364c
e00152f8:	e34e3003 	movt	r3, #57347	; 0xe003
e00152fc:	e58d3008 	str	r3, [sp, #8]
e0015300:	e5932000 	ldr	r2, [r3]
e0015304:	e5923050 	ldr	r3, [r2, #80]	; 0x50
e0015308:	e1a00002 	mov	r0, r2
e001530c:	e3c3300f 	bic	r3, r3, #15
e0015310:	e3833002 	orr	r3, r3, #2
e0015314:	e5823050 	str	r3, [r2, #80]	; 0x50
e0015318:	ebfff77d 	bl	e0013114 <setThreadState.part.166>
e001531c:	e3590001 	cmp	r9, #1
e0015320:	0a0001b3 	beq	e00159f4 <decodeARMMMUInvocation+0xc00>
e0015324:	e3590003 	cmp	r9, #3
e0015328:	1a0001af 	bne	e00159ec <decodeARMMMUInvocation+0xbf8>
e001532c:	e3a03903 	mov	r3, #49152	; 0xc000
e0015330:	e34f3fff 	movt	r3, #65535	; 0xffff
e0015334:	e0033508 	and	r3, r3, r8, lsl #10
e0015338:	e2833203 	add	r3, r3, #805306368	; 0x30000000
e001533c:	e59d2008 	ldr	r2, [sp, #8]
e0015340:	e3a01001 	mov	r1, #1
e0015344:	e3a05000 	mov	r5, #0
e0015348:	e5922000 	ldr	r2, [r2]
e001534c:	e982000a 	stmib	r2, {r1, r3}
e0015350:	eaffffae 	b	e0015210 <decodeARMMMUInvocation+0x41c>
e0015354:	e3560000 	cmp	r6, #0
e0015358:	13510002 	cmpne	r1, #2
e001535c:	93a04001 	movls	r4, #1
e0015360:	83a04000 	movhi	r4, #0
e0015364:	9affffda 	bls	e00152d4 <decodeARMMMUInvocation+0x4e0>
e0015368:	e3590003 	cmp	r9, #3
e001536c:	e596b000 	ldr	fp, [r6]
e0015370:	01a04f27 	lsreq	r4, r7, #30
e0015374:	07e13957 	ubfxeq	r3, r7, #18, #2
e0015378:	0a000002 	beq	e0015388 <decodeARMMMUInvocation+0x594>
e001537c:	e3590001 	cmp	r9, #1
e0015380:	07e13a57 	ubfxeq	r3, r7, #20, #2
e0015384:	11a03004 	movne	r3, r4
e0015388:	e20b200e 	and	r2, fp, #14
e001538c:	e352000e 	cmp	r2, #14
e0015390:	120b200f 	andne	r2, fp, #15
e0015394:	06ef207b 	uxtbeq	r2, fp
e0015398:	e3520009 	cmp	r2, #9
e001539c:	1afffed0 	bne	e0014ee4 <decodeARMMMUInvocation+0xf0>
e00153a0:	e31b0010 	tst	fp, #16
e00153a4:	0afffece 	beq	e0014ee4 <decodeARMMMUInvocation+0xf0>
e00153a8:	e5962004 	ldr	r2, [r6, #4]
e00153ac:	e3590001 	cmp	r9, #1
e00153b0:	17e91a57 	ubfxne	r1, r7, #20, #10
e00153b4:	01a01728 	lsreq	r1, r8, #14
e00153b8:	e7f06052 	ubfx	r6, r2, #0, #17
e00153bc:	02011b7f 	andeq	r1, r1, #130048	; 0x1fc00
e00153c0:	e58d200c 	str	r2, [sp, #12]
e00153c4:	11a02628 	lsrne	r2, r8, #12
e00153c8:	12022b7f 	andne	r2, r2, #130048	; 0x1fc00
e00153cc:	00811b27 	addeq	r1, r1, r7, lsr #22
e00153d0:	11821001 	orrne	r1, r2, r1
e00153d4:	e303264c 	movw	r2, #13900	; 0x364c
e00153d8:	e34e2003 	movt	r2, #57347	; 0xe003
e00153dc:	e3510000 	cmp	r1, #0
e00153e0:	e58d2008 	str	r2, [sp, #8]
e00153e4:	e592c000 	ldr	ip, [r2]
e00153e8:	e59c2008 	ldr	r2, [ip, #8]
e00153ec:	0a0000e5 	beq	e0015788 <decodeARMMMUInvocation+0x994>
e00153f0:	e1560001 	cmp	r6, r1
e00153f4:	1afffeba 	bne	e0014ee4 <decodeARMMMUInvocation+0xf0>
e00153f8:	e3590001 	cmp	r9, #1
e00153fc:	01a01607 	lsleq	r1, r7, #12
e0015400:	11a01707 	lslne	r1, r7, #14
e0015404:	e1520001 	cmp	r2, r1
e0015408:	0a0000eb 	beq	e00157bc <decodeARMMMUInvocation+0x9c8>
e001540c:	e3093020 	movw	r3, #36896	; 0x9020
e0015410:	e34e3002 	movt	r3, #57346	; 0xe002
e0015414:	e3a01001 	mov	r1, #1
e0015418:	e3a02000 	mov	r2, #0
e001541c:	e5831018 	str	r1, [r3, #24]
e0015420:	e3a05003 	mov	r5, #3
e0015424:	e5832000 	str	r2, [r3]
e0015428:	eaffff78 	b	e0015210 <decodeARMMMUInvocation+0x41c>
e001542c:	e303364c 	movw	r3, #13900	; 0x364c
e0015430:	e34e3003 	movt	r3, #57347	; 0xe003
e0015434:	e5932000 	ldr	r2, [r3]
e0015438:	e5923050 	ldr	r3, [r2, #80]	; 0x50
e001543c:	e1a00002 	mov	r0, r2
e0015440:	e3c3300f 	bic	r3, r3, #15
e0015444:	e3833002 	orr	r3, r3, #2
e0015448:	e5823050 	str	r3, [r2, #80]	; 0x50
e001544c:	ebfff730 	bl	e0013114 <setThreadState.part.166>
e0015450:	e3590001 	cmp	r9, #1
e0015454:	0a000176 	beq	e0015a34 <decodeARMMMUInvocation+0xc40>
e0015458:	e1a03628 	lsr	r3, r8, #12
e001545c:	e7e91a57 	ubfx	r1, r7, #20, #10
e0015460:	e1a02003 	mov	r2, r3
e0015464:	e2033b7f 	and	r3, r3, #130048	; 0x1fc00
e0015468:	e1931001 	orrs	r1, r3, r1
e001546c:	0a000009 	beq	e0015498 <decodeARMMMUInvocation+0x6a4>
e0015470:	e3590003 	cmp	r9, #3
e0015474:	01a00f27 	lsreq	r0, r7, #30
e0015478:	01a02707 	lsleq	r2, r7, #14
e001547c:	03a03903 	moveq	r3, #49152	; 0xc000
e0015480:	034f3fff 	movteq	r3, #65535	; 0xffff
e0015484:	13a03000 	movne	r3, #0
e0015488:	00033508 	andeq	r3, r3, r8, lsl #10
e001548c:	11a02707 	lslne	r2, r7, #14
e0015490:	11a00003 	movne	r0, r3
e0015494:	ebfff025 	bl	e0011530 <unmapPage>
e0015498:	e59a3000 	ldr	r3, [sl]
e001549c:	e3a05000 	mov	r5, #0
e00154a0:	e59a2004 	ldr	r2, [sl, #4]
e00154a4:	e203100e 	and	r1, r3, #14
e00154a8:	e351000e 	cmp	r1, #14
e00154ac:	1203100f 	andne	r1, r3, #15
e00154b0:	06ef1073 	uxtbeq	r1, r3
e00154b4:	e3510001 	cmp	r1, #1
e00154b8:	03c3347f 	biceq	r3, r3, #2130706432	; 0x7f000000
e00154bc:	02022603 	andeq	r2, r2, #3145728	; 0x300000
e00154c0:	13a01000 	movne	r1, #0
e00154c4:	134c100c 	movtne	r1, #49164	; 0xc00c
e00154c8:	13c3357f 	bicne	r3, r3, #532676608	; 0x1fc00000
e00154cc:	10022001 	andne	r2, r2, r1
e00154d0:	e58a3000 	str	r3, [sl]
e00154d4:	e58a2004 	str	r2, [sl, #4]
e00154d8:	eaffff4c 	b	e0015210 <decodeARMMMUInvocation+0x41c>
e00154dc:	e3510001 	cmp	r1, #1
e00154e0:	9affff7b 	bls	e00152d4 <decodeARMMMUInvocation+0x4e0>
e00154e4:	e3590001 	cmp	r9, #1
e00154e8:	01a04728 	lsreq	r4, r8, #14
e00154ec:	11a03628 	lsrne	r3, r8, #12
e00154f0:	02044b7f 	andeq	r4, r4, #130048	; 0x1fc00
e00154f4:	17e94a57 	ubfxne	r4, r7, #20, #10
e00154f8:	12033b7f 	andne	r3, r3, #130048	; 0x1fc00
e00154fc:	00844b27 	addeq	r4, r4, r7, lsr #22
e0015500:	11834004 	orrne	r4, r3, r4
e0015504:	01a05607 	lsleq	r5, r7, #12
e0015508:	11a05707 	lslne	r5, r7, #14
e001550c:	e3540000 	cmp	r4, #0
e0015510:	0affff60 	beq	e0015298 <decodeARMMMUInvocation+0x4a4>
e0015514:	e1a01004 	mov	r1, r4
e0015518:	e28d0038 	add	r0, sp, #56	; 0x38
e001551c:	ebffedf5 	bl	e0010cf8 <findPDForASID>
e0015520:	e59d2038 	ldr	r2, [sp, #56]	; 0x38
e0015524:	e3520000 	cmp	r2, #0
e0015528:	1a00021a 	bne	e0015d98 <decodeARMMMUInvocation+0xfa4>
e001552c:	e303364c 	movw	r3, #13900	; 0x364c
e0015530:	e34e3003 	movt	r3, #57347	; 0xe003
e0015534:	e5933000 	ldr	r3, [r3]
e0015538:	e5931008 	ldr	r1, [r3, #8]
e001553c:	e593600c 	ldr	r6, [r3, #12]
e0015540:	e1510006 	cmp	r1, r6
e0015544:	2affff5b 	bcs	e00152b8 <decodeARMMMUInvocation+0x4c4>
e0015548:	e3590003 	cmp	r9, #3
e001554c:	0a00015f 	beq	e0015ad0 <decodeARMMMUInvocation+0xcdc>
e0015550:	e3590001 	cmp	r9, #1
e0015554:	0a0001da 	beq	e0015cc4 <decodeARMMMUInvocation+0xed0>
e0015558:	e3590003 	cmp	r9, #3
e001555c:	11a08002 	movne	r8, r2
e0015560:	13a00a01 	movne	r0, #4096	; 0x1000
e0015564:	0a000162 	beq	e0015af4 <decodeARMMMUInvocation+0xd00>
e0015568:	e1560000 	cmp	r6, r0
e001556c:	91510000 	cmpls	r1, r0
e0015570:	2affffa5 	bcs	e001540c <decodeARMMMUInvocation+0x618>
e0015574:	e5932050 	ldr	r2, [r3, #80]	; 0x50
e0015578:	e281c203 	add	ip, r1, #805306368	; 0x30000000
e001557c:	e1a00003 	mov	r0, r3
e0015580:	e0817005 	add	r7, r1, r5
e0015584:	e3c2200f 	bic	r2, r2, #15
e0015588:	e08c8008 	add	r8, ip, r8
e001558c:	e3822002 	orr	r2, r2, #2
e0015590:	e5832050 	str	r2, [r3, #80]	; 0x50
e0015594:	ebfff6de 	bl	e0013114 <setThreadState.part.166>
e0015598:	e2466001 	sub	r6, r6, #1
e001559c:	e0865005 	add	r5, r6, r5
e00155a0:	e59d103c 	ldr	r1, [sp, #60]	; 0x3c
e00155a4:	e58d8074 	str	r8, [sp, #116]	; 0x74
e00155a8:	e1a03007 	mov	r3, r7
e00155ac:	e58d5070 	str	r5, [sp, #112]	; 0x70
e00155b0:	e1a02004 	mov	r2, r4
e00155b4:	e1a0000b 	mov	r0, fp
e00155b8:	e28dd04c 	add	sp, sp, #76	; 0x4c
e00155bc:	e8bd4ff0 	pop	{r4, r5, r6, r7, r8, r9, sl, fp, lr}
e00155c0:	eafff486 	b	e00127e0 <performPDFlush>
e00155c4:	e3c88fff 	bic	r8, r8, #1020	; 0x3fc
e00155c8:	e1a01a07 	lsl	r1, r7, #20
e00155cc:	e3c88003 	bic	r8, r8, #3
e00155d0:	e7f00657 	ubfx	r0, r7, #12, #17
e00155d4:	e1a02008 	mov	r2, r8
e00155d8:	e1a04008 	mov	r4, r8
e00155dc:	ebfff070 	bl	e00117a4 <unmapPageTable>
e00155e0:	e2882b01 	add	r2, r8, #1024	; 0x400
e00155e4:	e3a03000 	mov	r3, #0
e00155e8:	e4843004 	str	r3, [r4], #4
e00155ec:	e1540002 	cmp	r4, r2
e00155f0:	1afffffc 	bne	e00155e8 <decodeARMMMUInvocation+0x7f4>
e00155f4:	e2883fff 	add	r3, r8, #1020	; 0x3fc
e00155f8:	e1a082a8 	lsr	r8, r8, #5
e00155fc:	e2833003 	add	r3, r3, #3
e0015600:	e1a022a3 	lsr	r2, r3, #5
e0015604:	e2822001 	add	r2, r2, #1
e0015608:	e1580002 	cmp	r8, r2
e001560c:	2affff1c 	bcs	e0015284 <decodeARMMMUInvocation+0x490>
e0015610:	e1a03288 	lsl	r3, r8, #5
e0015614:	e1a02282 	lsl	r2, r2, #5
e0015618:	ee073f3b 	mcr	15, 0, r3, cr7, cr11, {1}
e001561c:	f57ff05f 	dmb	sy
e0015620:	e2833020 	add	r3, r3, #32
e0015624:	e1520003 	cmp	r2, r3
e0015628:	1afffffa 	bne	e0015618 <decodeARMMMUInvocation+0x824>
e001562c:	eaffff14 	b	e0015284 <decodeARMMMUInvocation+0x490>
e0015630:	e3530002 	cmp	r3, #2
e0015634:	1a000001 	bne	e0015640 <decodeARMMMUInvocation+0x84c>
e0015638:	e3160701 	tst	r6, #262144	; 0x40000
e001563c:	0a0000a9 	beq	e00158e8 <decodeARMMMUInvocation+0xaf4>
e0015640:	e3093020 	movw	r3, #36896	; 0x9020
e0015644:	e34e3002 	movt	r3, #57346	; 0xe002
e0015648:	e3a02008 	mov	r2, #8
e001564c:	e3a05003 	mov	r5, #3
e0015650:	e5832018 	str	r2, [r3, #24]
e0015654:	eafffeed 	b	e0015210 <decodeARMMMUInvocation+0x41c>
e0015658:	ebffecf7 	bl	e0010a3c <halt>
e001565c:	e303364c 	movw	r3, #13900	; 0x364c
e0015660:	e34e3003 	movt	r3, #57347	; 0xe003
e0015664:	e58d3008 	str	r3, [sp, #8]
e0015668:	e1a00006 	mov	r0, r6
e001566c:	e5933000 	ldr	r3, [r3]
e0015670:	e59cb000 	ldr	fp, [ip]
e0015674:	e59ca004 	ldr	sl, [ip, #4]
e0015678:	e5932008 	ldr	r2, [r3, #8]
e001567c:	e593900c 	ldr	r9, [r3, #12]
e0015680:	e58d200c 	str	r2, [sp, #12]
e0015684:	ebfffd4c 	bl	e0014bbc <ensureNoChildren>
e0015688:	e2505000 	subs	r5, r0, #0
e001568c:	1afffedf 	bne	e0015210 <decodeARMMMUInvocation+0x41c>
e0015690:	e59d200c 	ldr	r2, [sp, #12]
e0015694:	e28d3020 	add	r3, sp, #32
e0015698:	e58db020 	str	fp, [sp, #32]
e001569c:	e1a01005 	mov	r1, r5
e00156a0:	e58da024 	str	sl, [sp, #36]	; 0x24
e00156a4:	e28d0028 	add	r0, sp, #40	; 0x28
e00156a8:	e58d9004 	str	r9, [sp, #4]
e00156ac:	e3c8800f 	bic	r8, r8, #15
e00156b0:	e58d2000 	str	r2, [sp]
e00156b4:	e893000c 	ldm	r3, {r2, r3}
e00156b8:	ebfff5d9 	bl	e0012e24 <lookupSlotForCNodeOp>
e00156bc:	e59d5028 	ldr	r5, [sp, #40]	; 0x28
e00156c0:	e3550000 	cmp	r5, #0
e00156c4:	1afffed1 	bne	e0015210 <decodeARMMMUInvocation+0x41c>
e00156c8:	e59da02c 	ldr	sl, [sp, #44]	; 0x2c
e00156cc:	e59a1000 	ldr	r1, [sl]
e00156d0:	e201300e 	and	r3, r1, #14
e00156d4:	e353000e 	cmp	r3, #14
e00156d8:	1201900f 	andne	r9, r1, #15
e00156dc:	06ef9071 	uxtbeq	r9, r1
e00156e0:	e3590000 	cmp	r9, #0
e00156e4:	1affffd5 	bne	e0015640 <decodeARMMMUInvocation+0x84c>
e00156e8:	e59d3008 	ldr	r3, [sp, #8]
e00156ec:	e5932000 	ldr	r2, [r3]
e00156f0:	e5923050 	ldr	r3, [r2, #80]	; 0x50
e00156f4:	e1a00002 	mov	r0, r2
e00156f8:	e3c3300f 	bic	r3, r3, #15
e00156fc:	e3833002 	orr	r3, r3, #2
e0015700:	e5823050 	str	r3, [r2, #80]	; 0x50
e0015704:	ebfff682 	bl	e0013114 <setThreadState.part.166>
e0015708:	e5963004 	ldr	r3, [r6, #4]
e001570c:	e3a0c040 	mov	ip, #64	; 0x40
e0015710:	e2880a01 	add	r0, r8, #4096	; 0x1000
e0015714:	e203201f 	and	r2, r3, #31
e0015718:	e203303f 	and	r3, r3, #63	; 0x3f
e001571c:	e2422004 	sub	r2, r2, #4
e0015720:	e1a01009 	mov	r1, r9
e0015724:	e183321c 	orr	r3, r3, ip, lsl r2
e0015728:	e1a02008 	mov	r2, r8
e001572c:	e5863004 	str	r3, [r6, #4]
e0015730:	e4821004 	str	r1, [r2], #4
e0015734:	e1500002 	cmp	r0, r2
e0015738:	1afffffc 	bne	e0015730 <decodeARMMMUInvocation+0x93c>
e001573c:	e28d1038 	add	r1, sp, #56	; 0x38
e0015740:	e3880005 	orr	r0, r8, #5
e0015744:	e1a0300a 	mov	r3, sl
e0015748:	e58d0038 	str	r0, [sp, #56]	; 0x38
e001574c:	e1a02006 	mov	r2, r6
e0015750:	e1a00504 	lsl	r0, r4, #10
e0015754:	e58d003c 	str	r0, [sp, #60]	; 0x3c
e0015758:	e8910003 	ldm	r1, {r0, r1}
e001575c:	ebfff6e9 	bl	e0013308 <cteInsert>
e0015760:	e7878104 	str	r8, [r7, r4, lsl #2]
e0015764:	eafffea9 	b	e0015210 <decodeARMMMUInvocation+0x41c>
e0015768:	e3093020 	movw	r3, #36896	; 0x9020
e001576c:	e34e3002 	movt	r3, #57346	; 0xe002
e0015770:	e3a01002 	mov	r1, #2
e0015774:	e3a02000 	mov	r2, #0
e0015778:	e5831018 	str	r1, [r3, #24]
e001577c:	e3a05003 	mov	r5, #3
e0015780:	e5832004 	str	r2, [r3, #4]
e0015784:	eafffea1 	b	e0015210 <decodeARMMMUInvocation+0x41c>
e0015788:	e3540002 	cmp	r4, #2
e001578c:	03a00601 	moveq	r0, #1048576	; 0x100000
e0015790:	0a000005 	beq	e00157ac <decodeARMMMUInvocation+0x9b8>
e0015794:	e3540003 	cmp	r4, #3
e0015798:	03a00401 	moveq	r0, #16777216	; 0x1000000
e001579c:	0a000002 	beq	e00157ac <decodeARMMMUInvocation+0x9b8>
e00157a0:	e3540001 	cmp	r4, #1
e00157a4:	03a00801 	moveq	r0, #65536	; 0x10000
e00157a8:	13a00a01 	movne	r0, #4096	; 0x1000
e00157ac:	e2421001 	sub	r1, r2, #1
e00157b0:	e0811000 	add	r1, r1, r0
e00157b4:	e3710212 	cmn	r1, #536870913	; 0x20000001
e00157b8:	8affff13 	bhi	e001540c <decodeARMMMUInvocation+0x618>
e00157bc:	e1cd21f4 	strd	r2, [sp, #20]
e00157c0:	e1a01006 	mov	r1, r6
e00157c4:	e59c300c 	ldr	r3, [ip, #12]
e00157c8:	e28d0038 	add	r0, sp, #56	; 0x38
e00157cc:	e58d301c 	str	r3, [sp, #28]
e00157d0:	e59c3010 	ldr	r3, [ip, #16]
e00157d4:	e58d3010 	str	r3, [sp, #16]
e00157d8:	ebffed46 	bl	e0010cf8 <findPDForASID>
e00157dc:	e59d5038 	ldr	r5, [sp, #56]	; 0x38
e00157e0:	e1cd21d4 	ldrd	r2, [sp, #20]
e00157e4:	e3550000 	cmp	r5, #0
e00157e8:	1a00009b 	bne	e0015a5c <decodeARMMMUInvocation+0xc68>
e00157ec:	e3cbbdff 	bic	fp, fp, #16320	; 0x3fc0
e00157f0:	e59d103c 	ldr	r1, [sp, #60]	; 0x3c
e00157f4:	e3cbb03f 	bic	fp, fp, #63	; 0x3f
e00157f8:	e15b0001 	cmp	fp, r1
e00157fc:	1a0000a3 	bne	e0015a90 <decodeARMMMUInvocation+0xc9c>
e0015800:	e59d101c 	ldr	r1, [sp, #28]
e0015804:	e1a00003 	mov	r0, r3
e0015808:	e58d2014 	str	r2, [sp, #20]
e001580c:	ebffed29 	bl	e0010cb8 <maskVMRights>
e0015810:	e3540002 	cmp	r4, #2
e0015814:	e59d2014 	ldr	r2, [sp, #20]
e0015818:	0a00014f 	beq	e0015d5c <decodeARMMMUInvocation+0xf68>
e001581c:	e3540003 	cmp	r4, #3
e0015820:	03e034ff 	mvneq	r3, #-16777216	; 0xff000000
e0015824:	0a000003 	beq	e0015838 <decodeARMMMUInvocation+0xa44>
e0015828:	e3540001 	cmp	r4, #1
e001582c:	e3001fff 	movw	r1, #4095	; 0xfff
e0015830:	e30f3fff 	movw	r3, #65535	; 0xffff
e0015834:	11a03001 	movne	r3, r1
e0015838:	e1130002 	tst	r3, r2
e001583c:	1a00017a 	bne	e0015e2c <decodeARMMMUInvocation+0x1038>
e0015840:	e3590001 	cmp	r9, #1
e0015844:	0a000135 	beq	e0015d20 <decodeARMMMUInvocation+0xf2c>
e0015848:	e3590003 	cmp	r9, #3
e001584c:	1a000131 	bne	e0015d18 <decodeARMMMUInvocation+0xf24>
e0015850:	e3a03903 	mov	r3, #49152	; 0xc000
e0015854:	e34f3fff 	movt	r3, #65535	; 0xffff
e0015858:	e0033508 	and	r3, r3, r8, lsl #10
e001585c:	e2839203 	add	r9, r3, #805306368	; 0x30000000
e0015860:	e3a01000 	mov	r1, #0
e0015864:	e1a0c526 	lsr	ip, r6, #10
e0015868:	e1a03001 	mov	r3, r1
e001586c:	e3c8857f 	bic	r8, r8, #532676608	; 0x1fc00000
e0015870:	e3431ff0 	movt	r1, #16368	; 0x3ff0
e0015874:	e34c300c 	movt	r3, #49164	; 0xc00c
e0015878:	e0011a06 	and	r1, r1, r6, lsl #20
e001587c:	e0033007 	and	r3, r3, r7
e0015880:	e1888b0c 	orr	r8, r8, ip, lsl #22
e0015884:	e1833001 	orr	r3, r3, r1
e0015888:	e1833722 	orr	r3, r3, r2, lsr #14
e001588c:	e58dc018 	str	ip, [sp, #24]
e0015890:	e58d3014 	str	r3, [sp, #20]
e0015894:	e59d1010 	ldr	r1, [sp, #16]
e0015898:	e3540001 	cmp	r4, #1
e001589c:	e2013001 	and	r3, r1, #1
e00158a0:	e7e01151 	ubfx	r1, r1, #2, #1
e00158a4:	9a0000a5 	bls	e0015b40 <decodeARMMMUInvocation+0xd4c>
e00158a8:	e1a0ca22 	lsr	ip, r2, #20
e00158ac:	e3540003 	cmp	r4, #3
e00158b0:	e59d2010 	ldr	r2, [sp, #16]
e00158b4:	e79b610c 	ldr	r6, [fp, ip, lsl #2]
e00158b8:	e08b710c 	add	r7, fp, ip, lsl #2
e00158bc:	e58d1000 	str	r1, [sp]
e00158c0:	e7e020d2 	ubfx	r2, r2, #1, #1
e00158c4:	e58d0004 	str	r0, [sp, #4]
e00158c8:	e1a01009 	mov	r1, r9
e00158cc:	0a000101 	beq	e0015cd8 <decodeARMMMUInvocation+0xee4>
e00158d0:	e3a00002 	mov	r0, #2
e00158d4:	ebffecdc 	bl	e0010c4c <makeUserPDE.constprop.186>
e00158d8:	e2063003 	and	r3, r6, #3
e00158dc:	e3530000 	cmp	r3, #0
e00158e0:	e58d003c 	str	r0, [sp, #60]	; 0x3c
e00158e4:	1affff51 	bne	e0015630 <decodeARMMMUInvocation+0x83c>
e00158e8:	e3a02000 	mov	r2, #0
e00158ec:	e3a03001 	mov	r3, #1
e00158f0:	e58d7040 	str	r7, [sp, #64]	; 0x40
e00158f4:	e58d3044 	str	r3, [sp, #68]	; 0x44
e00158f8:	e28d3038 	add	r3, sp, #56	; 0x38
e00158fc:	e58d2038 	str	r2, [sp, #56]	; 0x38
e0015900:	e28dc028 	add	ip, sp, #40	; 0x28
e0015904:	e893000f 	ldm	r3, {r0, r1, r2, r3}
e0015908:	e88c000f 	stm	ip, {r0, r1, r2, r3}
e001590c:	e59d3008 	ldr	r3, [sp, #8]
e0015910:	e5932000 	ldr	r2, [r3]
e0015914:	e5923050 	ldr	r3, [r2, #80]	; 0x50
e0015918:	e1a00002 	mov	r0, r2
e001591c:	e3c3300f 	bic	r3, r3, #15
e0015920:	e3833002 	orr	r3, r3, #2
e0015924:	e5823050 	str	r3, [r2, #80]	; 0x50
e0015928:	ebfff5f9 	bl	e0013114 <setThreadState.part.166>
e001592c:	e59d3030 	ldr	r3, [sp, #48]	; 0x30
e0015930:	e59d2034 	ldr	r2, [sp, #52]	; 0x34
e0015934:	e59d1014 	ldr	r1, [sp, #20]
e0015938:	e5930000 	ldr	r0, [r3]
e001593c:	e3520000 	cmp	r2, #0
e0015940:	e58a8000 	str	r8, [sl]
e0015944:	1083e102 	addne	lr, r3, r2, lsl #2
e0015948:	e58a1004 	str	r1, [sl, #4]
e001594c:	e2000003 	and	r0, r0, #3
e0015950:	e59dc02c 	ldr	ip, [sp, #44]	; 0x2c
e0015954:	11a01003 	movne	r1, r3
e0015958:	0a000002 	beq	e0015968 <decodeARMMMUInvocation+0xb74>
e001595c:	e481c004 	str	ip, [r1], #4
e0015960:	e15e0001 	cmp	lr, r1
e0015964:	1afffffc 	bne	e001595c <decodeARMMMUInvocation+0xb68>
e0015968:	e0832102 	add	r2, r3, r2, lsl #2
e001596c:	e1a032a3 	lsr	r3, r3, #5
e0015970:	e2422001 	sub	r2, r2, #1
e0015974:	e1a022a2 	lsr	r2, r2, #5
e0015978:	e2822001 	add	r2, r2, #1
e001597c:	e1530002 	cmp	r3, r2
e0015980:	2a000006 	bcs	e00159a0 <decodeARMMMUInvocation+0xbac>
e0015984:	e1a03283 	lsl	r3, r3, #5
e0015988:	e1a02282 	lsl	r2, r2, #5
e001598c:	ee073f3b 	mcr	15, 0, r3, cr7, cr11, {1}
e0015990:	f57ff05f 	dmb	sy
e0015994:	e2833020 	add	r3, r3, #32
e0015998:	e1520003 	cmp	r2, r3
e001599c:	1afffffa 	bne	e001598c <decodeARMMMUInvocation+0xb98>
e00159a0:	e3500000 	cmp	r0, #0
e00159a4:	0afffe19 	beq	e0015210 <decodeARMMMUInvocation+0x41c>
e00159a8:	e59d1018 	ldr	r1, [sp, #24]
e00159ac:	e30932c8 	movw	r3, #37576	; 0x92c8
e00159b0:	e34e3002 	movt	r3, #57346	; 0xe002
e00159b4:	e59d200c 	ldr	r2, [sp, #12]
e00159b8:	e7933101 	ldr	r3, [r3, r1, lsl #2]
e00159bc:	e7e92052 	ubfx	r2, r2, #0, #10
e00159c0:	e7933102 	ldr	r3, [r3, r2, lsl #2]
e00159c4:	e2833a03 	add	r3, r3, #12288	; 0x3000
e00159c8:	e5933fc0 	ldr	r3, [r3, #4032]	; 0xfc0
e00159cc:	e3130502 	tst	r3, #8388608	; 0x800000
e00159d0:	0afffe0e 	beq	e0015210 <decodeARMMMUInvocation+0x41c>
e00159d4:	f57ff04f 	dsb	sy
e00159d8:	e1a03c23 	lsr	r3, r3, #24
e00159dc:	ee083f57 	mcr	15, 0, r3, cr8, cr7, {2}
e00159e0:	f57ff04f 	dsb	sy
e00159e4:	f57ff06f 	isb	sy
e00159e8:	eafffe08 	b	e0015210 <decodeARMMMUInvocation+0x41c>
e00159ec:	e3a03203 	mov	r3, #805306368	; 0x30000000
e00159f0:	eafffe51 	b	e001533c <decodeARMMMUInvocation+0x548>
e00159f4:	e3a03a0f 	mov	r3, #61440	; 0xf000
e00159f8:	e34f3fff 	movt	r3, #65535	; 0xffff
e00159fc:	e0033408 	and	r3, r3, r8, lsl #8
e0015a00:	e2833203 	add	r3, r3, #805306368	; 0x30000000
e0015a04:	eafffe4c 	b	e001533c <decodeARMMMUInvocation+0x548>
e0015a08:	e3092020 	movw	r2, #36896	; 0x9020
e0015a0c:	e3093014 	movw	r3, #36884	; 0x9014
e0015a10:	e34e2002 	movt	r2, #57346	; 0xe002
e0015a14:	e34e3002 	movt	r3, #57346	; 0xe002
e0015a18:	e3a01006 	mov	r1, #6
e0015a1c:	e3a05003 	mov	r5, #3
e0015a20:	e5824014 	str	r4, [r2, #20]
e0015a24:	e5821018 	str	r1, [r2, #24]
e0015a28:	e5834000 	str	r4, [r3]
e0015a2c:	e5834004 	str	r4, [r3, #4]
e0015a30:	eafffdf6 	b	e0015210 <decodeARMMMUInvocation+0x41c>
e0015a34:	e1a03728 	lsr	r3, r8, #14
e0015a38:	e2033b7f 	and	r3, r3, #130048	; 0x1fc00
e0015a3c:	e0931b27 	adds	r1, r3, r7, lsr #22
e0015a40:	0afffe94 	beq	e0015498 <decodeARMMMUInvocation+0x6a4>
e0015a44:	e3a03a0f 	mov	r3, #61440	; 0xf000
e0015a48:	e34f3fff 	movt	r3, #65535	; 0xffff
e0015a4c:	e1a02607 	lsl	r2, r7, #12
e0015a50:	e0033408 	and	r3, r3, r8, lsl #8
e0015a54:	e3a00000 	mov	r0, #0
e0015a58:	eafffe8d 	b	e0015494 <decodeARMMMUInvocation+0x6a0>
e0015a5c:	e3093020 	movw	r3, #36896	; 0x9020
e0015a60:	e34e3002 	movt	r3, #57346	; 0xe002
e0015a64:	e3a04000 	mov	r4, #0
e0015a68:	e3a05006 	mov	r5, #6
e0015a6c:	e1c341f4 	strd	r4, [r3, #20]
e0015a70:	e3a05003 	mov	r5, #3
e0015a74:	eafffde5 	b	e0015210 <decodeARMMMUInvocation+0x41c>
e0015a78:	e3093020 	movw	r3, #36896	; 0x9020
e0015a7c:	e34e3002 	movt	r3, #57346	; 0xe002
e0015a80:	e3a02009 	mov	r2, #9
e0015a84:	e3a05003 	mov	r5, #3
e0015a88:	e5832018 	str	r2, [r3, #24]
e0015a8c:	eafffddf 	b	e0015210 <decodeARMMMUInvocation+0x41c>
e0015a90:	e3093020 	movw	r3, #36896	; 0x9020
e0015a94:	e34e3002 	movt	r3, #57346	; 0xe002
e0015a98:	e3a01002 	mov	r1, #2
e0015a9c:	e3a02001 	mov	r2, #1
e0015aa0:	e5831018 	str	r1, [r3, #24]
e0015aa4:	e5832004 	str	r2, [r3, #4]
e0015aa8:	eafffff0 	b	e0015a70 <decodeARMMMUInvocation+0xc7c>
e0015aac:	e59d3008 	ldr	r3, [sp, #8]
e0015ab0:	e5932000 	ldr	r2, [r3]
e0015ab4:	e5923050 	ldr	r3, [r2, #80]	; 0x50
e0015ab8:	e1a00002 	mov	r0, r2
e0015abc:	e3c3300f 	bic	r3, r3, #15
e0015ac0:	e3833002 	orr	r3, r3, #2
e0015ac4:	e5823050 	str	r3, [r2, #80]	; 0x50
e0015ac8:	ebfff591 	bl	e0013114 <setThreadState.part.166>
e0015acc:	eafffdcf 	b	e0015210 <decodeARMMMUInvocation+0x41c>
e0015ad0:	e1a07f27 	lsr	r7, r7, #30
e0015ad4:	e3570002 	cmp	r7, #2
e0015ad8:	03a00601 	moveq	r0, #1048576	; 0x100000
e0015adc:	0a000005 	beq	e0015af8 <decodeARMMMUInvocation+0xd04>
e0015ae0:	e3570003 	cmp	r7, #3
e0015ae4:	03a00401 	moveq	r0, #16777216	; 0x1000000
e0015ae8:	0a000002 	beq	e0015af8 <decodeARMMMUInvocation+0xd04>
e0015aec:	e3570001 	cmp	r7, #1
e0015af0:	0a0000cb 	beq	e0015e24 <decodeARMMMUInvocation+0x1030>
e0015af4:	e3a00a01 	mov	r0, #4096	; 0x1000
e0015af8:	e3a02903 	mov	r2, #49152	; 0xc000
e0015afc:	e34f2fff 	movt	r2, #65535	; 0xffff
e0015b00:	e0028508 	and	r8, r2, r8, lsl #10
e0015b04:	eafffe97 	b	e0015568 <decodeARMMMUInvocation+0x774>
e0015b08:	e7e73654 	ubfx	r3, r4, #12, #8
e0015b0c:	e3c22fff 	bic	r2, r2, #1020	; 0x3fc
e0015b10:	e3c22003 	bic	r2, r2, #3
e0015b14:	e0822103 	add	r2, r2, r3, lsl #2
e0015b18:	e282320d 	add	r3, r2, #-805306368	; 0xd0000000
e0015b1c:	e5932000 	ldr	r2, [r3]
e0015b20:	e3120002 	tst	r2, #2
e0015b24:	0a00008f 	beq	e0015d68 <decodeARMMMUInvocation+0xf74>
e0015b28:	e3a03a0f 	mov	r3, #61440	; 0xf000
e0015b2c:	e34f3fff 	movt	r3, #65535	; 0xffff
e0015b30:	e0022003 	and	r2, r2, r3
e0015b34:	e3a01a01 	mov	r1, #4096	; 0x1000
e0015b38:	e3a0c00c 	mov	ip, #12
e0015b3c:	eafffd23 	b	e0014fd0 <decodeARMMMUInvocation+0x1dc>
e0015b40:	e58d2010 	str	r2, [sp, #16]
e0015b44:	ebffebbf 	bl	e0010a48 <APFromVMRights>
e0015b48:	e3540001 	cmp	r4, #1
e0015b4c:	e59d2010 	ldr	r2, [sp, #16]
e0015b50:	e1a04200 	lsl	r4, r0, #4
e0015b54:	e2044030 	and	r4, r4, #48	; 0x30
e0015b58:	0a00003b 	beq	e0015c4c <decodeARMMMUInvocation+0xe58>
e0015b5c:	e3530000 	cmp	r3, #0
e0015b60:	e28d0028 	add	r0, sp, #40	; 0x28
e0015b64:	13811d25 	orrne	r1, r1, #2368	; 0x940
e0015b68:	03811b03 	orreq	r1, r1, #3072	; 0xc00
e0015b6c:	13811006 	orrne	r1, r1, #6
e0015b70:	03811002 	orreq	r1, r1, #2
e0015b74:	e1811009 	orr	r1, r1, r9
e0015b78:	e1814004 	orr	r4, r1, r4
e0015b7c:	e1a0100b 	mov	r1, fp
e0015b80:	ebffed41 	bl	e001108c <lookupPTSlot>
e0015b84:	e59d7028 	ldr	r7, [sp, #40]	; 0x28
e0015b88:	e59d602c 	ldr	r6, [sp, #44]	; 0x2c
e0015b8c:	e3570000 	cmp	r7, #0
e0015b90:	1affffb1 	bne	e0015a5c <decodeARMMMUInvocation+0xc68>
e0015b94:	e5963000 	ldr	r3, [r6]
e0015b98:	e3130002 	tst	r3, #2
e0015b9c:	1a000001 	bne	e0015ba8 <decodeARMMMUInvocation+0xdb4>
e0015ba0:	e3130001 	tst	r3, #1
e0015ba4:	1a000041 	bne	e0015cb0 <decodeARMMMUInvocation+0xebc>
e0015ba8:	e3a09001 	mov	r9, #1
e0015bac:	e59d3008 	ldr	r3, [sp, #8]
e0015bb0:	e5932000 	ldr	r2, [r3]
e0015bb4:	e5923050 	ldr	r3, [r2, #80]	; 0x50
e0015bb8:	e1a00002 	mov	r0, r2
e0015bbc:	e3c3300f 	bic	r3, r3, #15
e0015bc0:	e3833002 	orr	r3, r3, #2
e0015bc4:	e5823050 	str	r3, [r2, #80]	; 0x50
e0015bc8:	ebfff551 	bl	e0013114 <setThreadState.part.166>
e0015bcc:	e5963000 	ldr	r3, [r6]
e0015bd0:	e59d2014 	ldr	r2, [sp, #20]
e0015bd4:	e3130002 	tst	r3, #2
e0015bd8:	e58a8000 	str	r8, [sl]
e0015bdc:	e58a2004 	str	r2, [sl, #4]
e0015be0:	13a01001 	movne	r1, #1
e0015be4:	1a000002 	bne	e0015bf4 <decodeARMMMUInvocation+0xe00>
e0015be8:	e3130001 	tst	r3, #1
e0015bec:	13a01000 	movne	r1, #0
e0015bf0:	03a01002 	moveq	r1, #2
e0015bf4:	e0869109 	add	r9, r6, r9, lsl #2
e0015bf8:	e1a03006 	mov	r3, r6
e0015bfc:	e4834004 	str	r4, [r3], #4
e0015c00:	e1530009 	cmp	r3, r9
e0015c04:	1afffffc 	bne	e0015bfc <decodeARMMMUInvocation+0xe08>
e0015c08:	e0862007 	add	r2, r6, r7
e0015c0c:	e1a032a6 	lsr	r3, r6, #5
e0015c10:	e2822003 	add	r2, r2, #3
e0015c14:	e1a022a2 	lsr	r2, r2, #5
e0015c18:	e2822001 	add	r2, r2, #1
e0015c1c:	e1530002 	cmp	r3, r2
e0015c20:	2a000006 	bcs	e0015c40 <decodeARMMMUInvocation+0xe4c>
e0015c24:	e1a03283 	lsl	r3, r3, #5
e0015c28:	e1a02282 	lsl	r2, r2, #5
e0015c2c:	ee073f3b 	mcr	15, 0, r3, cr7, cr11, {1}
e0015c30:	f57ff05f 	dmb	sy
e0015c34:	e2833020 	add	r3, r3, #32
e0015c38:	e1520003 	cmp	r2, r3
e0015c3c:	1afffffa 	bne	e0015c2c <decodeARMMMUInvocation+0xe38>
e0015c40:	e3510002 	cmp	r1, #2
e0015c44:	0afffd71 	beq	e0015210 <decodeARMMMUInvocation+0x41c>
e0015c48:	eaffff56 	b	e00159a8 <decodeARMMMUInvocation+0xbb4>
e0015c4c:	e3530000 	cmp	r3, #0
e0015c50:	e1a09829 	lsr	r9, r9, #16
e0015c54:	e1a03781 	lsl	r3, r1, #15
e0015c58:	e28d0028 	add	r0, sp, #40	; 0x28
e0015c5c:	13833b16 	orrne	r3, r3, #22528	; 0x5800
e0015c60:	03833b03 	orreq	r3, r3, #3072	; 0xc00
e0015c64:	13833005 	orrne	r3, r3, #5
e0015c68:	03833001 	orreq	r3, r3, #1
e0015c6c:	e1a09809 	lsl	r9, r9, #16
e0015c70:	e1a0100b 	mov	r1, fp
e0015c74:	e1839009 	orr	r9, r3, r9
e0015c78:	ebffed03 	bl	e001108c <lookupPTSlot>
e0015c7c:	e59d3028 	ldr	r3, [sp, #40]	; 0x28
e0015c80:	e1894004 	orr	r4, r9, r4
e0015c84:	e59d602c 	ldr	r6, [sp, #44]	; 0x2c
e0015c88:	e3530000 	cmp	r3, #0
e0015c8c:	1affff72 	bne	e0015a5c <decodeARMMMUInvocation+0xc68>
e0015c90:	e2463004 	sub	r3, r6, #4
e0015c94:	e286103c 	add	r1, r6, #60	; 0x3c
e0015c98:	ea000001 	b	e0015ca4 <decodeARMMMUInvocation+0xeb0>
e0015c9c:	e1510003 	cmp	r1, r3
e0015ca0:	0a000067 	beq	e0015e44 <decodeARMMMUInvocation+0x1050>
e0015ca4:	e5b32004 	ldr	r2, [r3, #4]!
e0015ca8:	e3120002 	tst	r2, #2
e0015cac:	0afffffa 	beq	e0015c9c <decodeARMMMUInvocation+0xea8>
e0015cb0:	e3093020 	movw	r3, #36896	; 0x9020
e0015cb4:	e34e3002 	movt	r3, #57346	; 0xe002
e0015cb8:	e3a02008 	mov	r2, #8
e0015cbc:	e5832018 	str	r2, [r3, #24]
e0015cc0:	eaffff6a 	b	e0015a70 <decodeARMMMUInvocation+0xc7c>
e0015cc4:	e3a02a0f 	mov	r2, #61440	; 0xf000
e0015cc8:	e34f2fff 	movt	r2, #65535	; 0xffff
e0015ccc:	e0028408 	and	r8, r2, r8, lsl #8
e0015cd0:	e3a00a01 	mov	r0, #4096	; 0x1000
e0015cd4:	eafffe23 	b	e0015568 <decodeARMMMUInvocation+0x774>
e0015cd8:	e1a00004 	mov	r0, r4
e0015cdc:	ebffebda 	bl	e0010c4c <makeUserPDE.constprop.186>
e0015ce0:	e287203c 	add	r2, r7, #60	; 0x3c
e0015ce4:	e1a03007 	mov	r3, r7
e0015ce8:	e58d003c 	str	r0, [sp, #60]	; 0x3c
e0015cec:	ea000002 	b	e0015cfc <decodeARMMMUInvocation+0xf08>
e0015cf0:	e1520003 	cmp	r2, r3
e0015cf4:	0a000023 	beq	e0015d88 <decodeARMMMUInvocation+0xf94>
e0015cf8:	e5b36004 	ldr	r6, [r3, #4]!
e0015cfc:	e2161003 	ands	r1, r6, #3
e0015d00:	0afffffa 	beq	e0015cf0 <decodeARMMMUInvocation+0xefc>
e0015d04:	e3510002 	cmp	r1, #2
e0015d08:	1afffe4c 	bne	e0015640 <decodeARMMMUInvocation+0x84c>
e0015d0c:	e3160701 	tst	r6, #262144	; 0x40000
e0015d10:	1afffff6 	bne	e0015cf0 <decodeARMMMUInvocation+0xefc>
e0015d14:	eafffe49 	b	e0015640 <decodeARMMMUInvocation+0x84c>
e0015d18:	e3a09203 	mov	r9, #805306368	; 0x30000000
e0015d1c:	eafffecf 	b	e0015860 <decodeARMMMUInvocation+0xa6c>
e0015d20:	e7f53057 	ubfx	r3, r7, #0, #22
e0015d24:	e1a0e526 	lsr	lr, r6, #10
e0015d28:	e1833b06 	orr	r3, r3, r6, lsl #22
e0015d2c:	e3a0ca0f 	mov	ip, #61440	; 0xf000
e0015d30:	e34fcfff 	movt	ip, #65535	; 0xffff
e0015d34:	e3c8147f 	bic	r1, r8, #2130706432	; 0x7f000000
e0015d38:	e1a03a23 	lsr	r3, r3, #20
e0015d3c:	e00cc408 	and	ip, ip, r8, lsl #8
e0015d40:	e58de018 	str	lr, [sp, #24]
e0015d44:	e28c9203 	add	r9, ip, #805306368	; 0x30000000
e0015d48:	e1a03a03 	lsl	r3, r3, #20
e0015d4c:	e1818c0e 	orr	r8, r1, lr, lsl #24
e0015d50:	e1833622 	orr	r3, r3, r2, lsr #12
e0015d54:	e58d3014 	str	r3, [sp, #20]
e0015d58:	eafffecd 	b	e0015894 <decodeARMMMUInvocation+0xaa0>
e0015d5c:	e30f3fff 	movw	r3, #65535	; 0xffff
e0015d60:	e340300f 	movt	r3, #15
e0015d64:	eafffeb3 	b	e0015838 <decodeARMMMUInvocation+0xa44>
e0015d68:	e3120001 	tst	r2, #1
e0015d6c:	0affff4e 	beq	e0015aac <decodeARMMMUInvocation+0xcb8>
e0015d70:	e3a03000 	mov	r3, #0
e0015d74:	e34f3fff 	movt	r3, #65535	; 0xffff
e0015d78:	e0022003 	and	r2, r2, r3
e0015d7c:	e3a01801 	mov	r1, #65536	; 0x10000
e0015d80:	e3a0c010 	mov	ip, #16
e0015d84:	eafffc91 	b	e0014fd0 <decodeARMMMUInvocation+0x1dc>
e0015d88:	e58d7040 	str	r7, [sp, #64]	; 0x40
e0015d8c:	e3a02000 	mov	r2, #0
e0015d90:	e3a03010 	mov	r3, #16
e0015d94:	eafffed6 	b	e00158f4 <decodeARMMMUInvocation+0xb00>
e0015d98:	e3093020 	movw	r3, #36896	; 0x9020
e0015d9c:	e34e3002 	movt	r3, #57346	; 0xe002
e0015da0:	e3a01006 	mov	r1, #6
e0015da4:	e3a02000 	mov	r2, #0
e0015da8:	e5831018 	str	r1, [r3, #24]
e0015dac:	e3a05003 	mov	r5, #3
e0015db0:	e5832014 	str	r2, [r3, #20]
e0015db4:	eafffd15 	b	e0015210 <decodeARMMMUInvocation+0x41c>
e0015db8:	e59d3008 	ldr	r3, [sp, #8]
e0015dbc:	e3e05000 	mvn	r5, #0
e0015dc0:	e1c45c15 	bic	r5, r4, r5, lsl ip
e0015dc4:	e0855002 	add	r5, r5, r2
e0015dc8:	e5931000 	ldr	r1, [r3]
e0015dcc:	e5913050 	ldr	r3, [r1, #80]	; 0x50
e0015dd0:	e1a00001 	mov	r0, r1
e0015dd4:	e3c3300f 	bic	r3, r3, #15
e0015dd8:	e3833002 	orr	r3, r3, #2
e0015ddc:	e5813050 	str	r3, [r1, #80]	; 0x50
e0015de0:	ebfff4cb 	bl	e0013114 <setThreadState.part.166>
e0015de4:	e58d5074 	str	r5, [sp, #116]	; 0x74
e0015de8:	e58d6070 	str	r6, [sp, #112]	; 0x70
e0015dec:	e1a03004 	mov	r3, r4
e0015df0:	e1a02007 	mov	r2, r7
e0015df4:	e1a01008 	mov	r1, r8
e0015df8:	e1a0000b 	mov	r0, fp
e0015dfc:	e28dd04c 	add	sp, sp, #76	; 0x4c
e0015e00:	e8bd4ff0 	pop	{r4, r5, r6, r7, r8, r9, sl, fp, lr}
e0015e04:	eafff275 	b	e00127e0 <performPDFlush>
e0015e08:	e3093020 	movw	r3, #36896	; 0x9020
e0015e0c:	e34e3002 	movt	r3, #57346	; 0xe002
e0015e10:	e3a02006 	mov	r2, #6
e0015e14:	e3a05003 	mov	r5, #3
e0015e18:	e5839014 	str	r9, [r3, #20]
e0015e1c:	e5832018 	str	r2, [r3, #24]
e0015e20:	eafffcfa 	b	e0015210 <decodeARMMMUInvocation+0x41c>
e0015e24:	e3a00801 	mov	r0, #65536	; 0x10000
e0015e28:	eaffff32 	b	e0015af8 <decodeARMMMUInvocation+0xd04>
e0015e2c:	e3093020 	movw	r3, #36896	; 0x9020
e0015e30:	e34e3002 	movt	r3, #57346	; 0xe002
e0015e34:	e3a02005 	mov	r2, #5
e0015e38:	e3a05003 	mov	r5, #3
e0015e3c:	e5832018 	str	r2, [r3, #24]
e0015e40:	eafffcf2 	b	e0015210 <decodeARMMMUInvocation+0x41c>
e0015e44:	e3a09010 	mov	r9, #16
e0015e48:	e3a0703c 	mov	r7, #60	; 0x3c
e0015e4c:	eaffff56 	b	e0015bac <decodeARMMMUInvocation+0xdb8>

e0015e50 <Arch_decodeInvocation>:
e0015e50:	e92d40f0 	push	{r4, r5, r6, r7, lr}
e0015e54:	e1a04000 	mov	r4, r0
e0015e58:	e59d602c 	ldr	r6, [sp, #44]	; 0x2c
e0015e5c:	e1a05001 	mov	r5, r1
e0015e60:	e1a07002 	mov	r7, r2
e0015e64:	e1a01005 	mov	r1, r5
e0015e68:	e1a02007 	mov	r2, r7
e0015e6c:	e1a00004 	mov	r0, r4
e0015e70:	e58d6028 	str	r6, [sp, #40]	; 0x28
e0015e74:	e8bd40f0 	pop	{r4, r5, r6, r7, lr}
e0015e78:	eafffbdd 	b	e0014df4 <decodeARMMMUInvocation>

e0015e7c <updateCapData>:
e0015e7c:	e24dd008 	sub	sp, sp, #8
e0015e80:	e1a0c003 	mov	ip, r3
e0015e84:	e92d4010 	push	{r4, lr}
e0015e88:	e203e00e 	and	lr, r3, #14
e0015e8c:	e35e000e 	cmp	lr, #14
e0015e90:	e58d300c 	str	r3, [sp, #12]
e0015e94:	1203300f 	andne	r3, r3, #15
e0015e98:	06ef307c 	uxtbeq	r3, ip
e0015e9c:	e3130001 	tst	r3, #1
e0015ea0:	e59de010 	ldr	lr, [sp, #16]
e0015ea4:	1a000005 	bne	e0015ec0 <updateCapData+0x44>
e0015ea8:	e3530006 	cmp	r3, #6
e0015eac:	0a000007 	beq	e0015ed0 <updateCapData+0x54>
e0015eb0:	e353000a 	cmp	r3, #10
e0015eb4:	0a000018 	beq	e0015f1c <updateCapData+0xa0>
e0015eb8:	e3530004 	cmp	r3, #4
e0015ebc:	0a00000a 	beq	e0015eec <updateCapData+0x70>
e0015ec0:	e8805000 	stm	r0, {ip, lr}
e0015ec4:	e8bd4010 	pop	{r4, lr}
e0015ec8:	e28dd008 	add	sp, sp, #8
e0015ecc:	e12fff1e 	bx	lr
e0015ed0:	e3510000 	cmp	r1, #0
e0015ed4:	1a00000a 	bne	e0015f04 <updateCapData+0x88>
e0015ed8:	e1b0322e 	lsrs	r3, lr, #4
e0015edc:	1a000008 	bne	e0015f04 <updateCapData+0x88>
e0015ee0:	e18ee202 	orr	lr, lr, r2, lsl #4
e0015ee4:	e8805000 	stm	r0, {ip, lr}
e0015ee8:	eafffff5 	b	e0015ec4 <updateCapData+0x48>
e0015eec:	e3510000 	cmp	r1, #0
e0015ef0:	1a000003 	bne	e0015f04 <updateCapData+0x88>
e0015ef4:	e1b0322c 	lsrs	r3, ip, #4
e0015ef8:	018c2202 	orreq	r2, ip, r2, lsl #4
e0015efc:	08804004 	stmeq	r0, {r2, lr}
e0015f00:	0affffef 	beq	e0015ec4 <updateCapData+0x48>
e0015f04:	e8bd4010 	pop	{r4, lr}
e0015f08:	e3a03000 	mov	r3, #0
e0015f0c:	e5803000 	str	r3, [r0]
e0015f10:	e5803004 	str	r3, [r0, #4]
e0015f14:	e28dd008 	add	sp, sp, #8
e0015f18:	e12fff1e 	bx	lr
e0015f1c:	e7e441d2 	ubfx	r4, r2, #3, #5
e0015f20:	e7e4195e 	ubfx	r1, lr, #18, #5
e0015f24:	e0811004 	add	r1, r1, r4
e0015f28:	e3510020 	cmp	r1, #32
e0015f2c:	8afffff4 	bhi	e0015f04 <updateCapData+0x88>
e0015f30:	e3e03000 	mvn	r3, #0
e0015f34:	e7f12452 	ubfx	r2, r2, #8, #18
e0015f38:	e1c22413 	bic	r2, r2, r3, lsl r4
e0015f3c:	e3a03000 	mov	r3, #0
e0015f40:	e34f307c 	movt	r3, #61564	; 0xf07c
e0015f44:	e580c000 	str	ip, [r0]
e0015f48:	e003300e 	and	r3, r3, lr
e0015f4c:	e1832002 	orr	r2, r3, r2
e0015f50:	e1822b84 	orr	r2, r2, r4, lsl #23
e0015f54:	e5802004 	str	r2, [r0, #4]
e0015f58:	eaffffd9 	b	e0015ec4 <updateCapData+0x48>

e0015f5c <maskCapRights>:
e0015f5c:	e92d4010 	push	{r4, lr}
e0015f60:	e24dd008 	sub	sp, sp, #8
e0015f64:	e1a04000 	mov	r4, r0
e0015f68:	e1a0c00d 	mov	ip, sp
e0015f6c:	e88c000c 	stm	ip, {r2, r3}
e0015f70:	e1a03002 	mov	r3, r2
e0015f74:	e202200e 	and	r2, r2, #14
e0015f78:	e352000e 	cmp	r2, #14
e0015f7c:	1203200f 	andne	r2, r3, #15
e0015f80:	06ef2073 	uxtbeq	r2, r3
e0015f84:	e3120001 	tst	r2, #1
e0015f88:	1a000042 	bne	e0016098 <maskCapRights+0x13c>
e0015f8c:	e59d0004 	ldr	r0, [sp, #4]
e0015f90:	e352003e 	cmp	r2, #62	; 0x3e
e0015f94:	979ff102 	ldrls	pc, [pc, r2, lsl #2]
e0015f98:	ea000071 	b	e0016164 <maskCapRights+0x208>
e0015f9c:	e00160d8 	.word	0xe00160d8
e0015fa0:	e0016164 	.word	0xe0016164
e0015fa4:	e00160d8 	.word	0xe00160d8
e0015fa8:	e0016164 	.word	0xe0016164
e0015fac:	e00160ec 	.word	0xe00160ec
e0015fb0:	e0016164 	.word	0xe0016164
e0015fb4:	e0016134 	.word	0xe0016134
e0015fb8:	e0016164 	.word	0xe0016164
e0015fbc:	e00160ac 	.word	0xe00160ac
e0015fc0:	e0016164 	.word	0xe0016164
e0015fc4:	e00160d8 	.word	0xe00160d8
e0015fc8:	e0016164 	.word	0xe0016164
e0015fcc:	e00160d8 	.word	0xe00160d8
e0015fd0:	e0016164 	.word	0xe0016164
e0015fd4:	e00160d8 	.word	0xe00160d8
e0015fd8:	e0016164 	.word	0xe0016164
e0015fdc:	e0016164 	.word	0xe0016164
e0015fe0:	e0016164 	.word	0xe0016164
e0015fe4:	e0016164 	.word	0xe0016164
e0015fe8:	e0016164 	.word	0xe0016164
e0015fec:	e0016164 	.word	0xe0016164
e0015ff0:	e0016164 	.word	0xe0016164
e0015ff4:	e0016164 	.word	0xe0016164
e0015ff8:	e0016164 	.word	0xe0016164
e0015ffc:	e0016164 	.word	0xe0016164
e0016000:	e0016164 	.word	0xe0016164
e0016004:	e0016164 	.word	0xe0016164
e0016008:	e0016164 	.word	0xe0016164
e001600c:	e0016164 	.word	0xe0016164
e0016010:	e0016164 	.word	0xe0016164
e0016014:	e00160d8 	.word	0xe00160d8
e0016018:	e0016164 	.word	0xe0016164
e001601c:	e0016164 	.word	0xe0016164
e0016020:	e0016164 	.word	0xe0016164
e0016024:	e0016164 	.word	0xe0016164
e0016028:	e0016164 	.word	0xe0016164
e001602c:	e0016164 	.word	0xe0016164
e0016030:	e0016164 	.word	0xe0016164
e0016034:	e0016164 	.word	0xe0016164
e0016038:	e0016164 	.word	0xe0016164
e001603c:	e0016164 	.word	0xe0016164
e0016040:	e0016164 	.word	0xe0016164
e0016044:	e0016164 	.word	0xe0016164
e0016048:	e0016164 	.word	0xe0016164
e001604c:	e0016164 	.word	0xe0016164
e0016050:	e0016164 	.word	0xe0016164
e0016054:	e00160d8 	.word	0xe00160d8
e0016058:	e0016164 	.word	0xe0016164
e001605c:	e0016164 	.word	0xe0016164
e0016060:	e0016164 	.word	0xe0016164
e0016064:	e0016164 	.word	0xe0016164
e0016068:	e0016164 	.word	0xe0016164
e001606c:	e0016164 	.word	0xe0016164
e0016070:	e0016164 	.word	0xe0016164
e0016074:	e0016164 	.word	0xe0016164
e0016078:	e0016164 	.word	0xe0016164
e001607c:	e0016164 	.word	0xe0016164
e0016080:	e0016164 	.word	0xe0016164
e0016084:	e0016164 	.word	0xe0016164
e0016088:	e0016164 	.word	0xe0016164
e001608c:	e0016164 	.word	0xe0016164
e0016090:	e0016164 	.word	0xe0016164
e0016094:	e00160d8 	.word	0xe00160d8
e0016098:	e89c000c 	ldm	ip, {r2, r3}
e001609c:	ebffee34 	bl	e0011974 <Arch_maskCapRights>
e00160a0:	e1a00004 	mov	r0, r4
e00160a4:	e28dd008 	add	sp, sp, #8
e00160a8:	e8bd8010 	pop	{r4, pc}
e00160ac:	e1a022a3 	lsr	r2, r3, #5
e00160b0:	e3c33020 	bic	r3, r3, #32
e00160b4:	e0021121 	and	r1, r2, r1, lsr #2
e00160b8:	e5840004 	str	r0, [r4, #4]
e00160bc:	e1a00004 	mov	r0, r4
e00160c0:	e1a01281 	lsl	r1, r1, #5
e00160c4:	e2011020 	and	r1, r1, #32
e00160c8:	e1813003 	orr	r3, r1, r3
e00160cc:	e5843000 	str	r3, [r4]
e00160d0:	e28dd008 	add	sp, sp, #8
e00160d4:	e8bd8010 	pop	{r4, pc}
e00160d8:	e5840004 	str	r0, [r4, #4]
e00160dc:	e1a00004 	mov	r0, r4
e00160e0:	e5843000 	str	r3, [r4]
e00160e4:	e28dd008 	add	sp, sp, #8
e00160e8:	e8bd8010 	pop	{r4, pc}
e00160ec:	e1e02f81 	mvn	r2, r1, lsl #31
e00160f0:	e3c0c002 	bic	ip, r0, #2
e00160f4:	e1e02fa2 	mvn	r2, r2, lsr #31
e00160f8:	e00cc002 	and	ip, ip, r2
e00160fc:	e0012000 	and	r2, r1, r0
e0016100:	e5843000 	str	r3, [r4]
e0016104:	e2023002 	and	r3, r2, #2
e0016108:	e0011000 	and	r1, r1, r0
e001610c:	e183300c 	orr	r3, r3, ip
e0016110:	e2022004 	and	r2, r2, #4
e0016114:	e3c3300c 	bic	r3, r3, #12
e0016118:	e2011008 	and	r1, r1, #8
e001611c:	e1833002 	orr	r3, r3, r2
e0016120:	e1a00004 	mov	r0, r4
e0016124:	e1831001 	orr	r1, r3, r1
e0016128:	e5841004 	str	r1, [r4, #4]
e001612c:	e28dd008 	add	sp, sp, #8
e0016130:	e8bd8010 	pop	{r4, pc}
e0016134:	e1e02f81 	mvn	r2, r1, lsl #31
e0016138:	e0011000 	and	r1, r1, r0
e001613c:	e3c00002 	bic	r0, r0, #2
e0016140:	e1e02fa2 	mvn	r2, r2, lsr #31
e0016144:	e2011002 	and	r1, r1, #2
e0016148:	e0022000 	and	r2, r2, r0
e001614c:	e1811002 	orr	r1, r1, r2
e0016150:	e1a00004 	mov	r0, r4
e0016154:	e5843000 	str	r3, [r4]
e0016158:	e5841004 	str	r1, [r4, #4]
e001615c:	e28dd008 	add	sp, sp, #8
e0016160:	e8bd8010 	pop	{r4, pc}
e0016164:	ebffea34 	bl	e0010a3c <halt>

e0016168 <createObject>:
e0016168:	e3510004 	cmp	r1, #4
e001616c:	e92d4030 	push	{r4, r5, lr}
e0016170:	e1a04000 	mov	r4, r0
e0016174:	e24dd00c 	sub	sp, sp, #12
e0016178:	8a000008 	bhi	e00161a0 <createObject+0x38>
e001617c:	e241c001 	sub	ip, r1, #1
e0016180:	e1a05003 	mov	r5, r3
e0016184:	e35c0003 	cmp	ip, #3
e0016188:	979ff10c 	ldrls	pc, [pc, ip, lsl #2]
e001618c:	ea000011 	b	e00161d8 <createObject+0x70>
e0016190:	e0016208 	.word	0xe0016208
e0016194:	e001624c 	.word	0xe001624c
e0016198:	e00161b8 	.word	0xe00161b8
e001619c:	e0016264 	.word	0xe0016264
e00161a0:	e59dc018 	ldr	ip, [sp, #24]
e00161a4:	e58dc000 	str	ip, [sp]
e00161a8:	ebffef40 	bl	e0011eb0 <Arch_createObject>
e00161ac:	e1a00004 	mov	r0, r4
e00161b0:	e28dd00c 	add	sp, sp, #12
e00161b4:	e8bd8030 	pop	{r4, r5, pc}
e00161b8:	e3c2e00f 	bic	lr, r2, #15
e00161bc:	e3a03003 	mov	r3, #3
e00161c0:	e38ee006 	orr	lr, lr, #6
e00161c4:	e5803004 	str	r3, [r0, #4]
e00161c8:	e580e000 	str	lr, [r0]
e00161cc:	e1a00004 	mov	r0, r4
e00161d0:	e28dd00c 	add	sp, sp, #12
e00161d4:	e8bd8030 	pop	{r4, r5, pc}
e00161d8:	e59d3018 	ldr	r3, [sp, #24]
e00161dc:	e3c2e00f 	bic	lr, r2, #15
e00161e0:	e205501f 	and	r5, r5, #31
e00161e4:	e38ee002 	orr	lr, lr, #2
e00161e8:	e2933000 	adds	r3, r3, #0
e00161ec:	e580e000 	str	lr, [r0]
e00161f0:	13a03001 	movne	r3, #1
e00161f4:	e1855283 	orr	r5, r5, r3, lsl #5
e00161f8:	e5805004 	str	r5, [r0, #4]
e00161fc:	e1a00004 	mov	r0, r4
e0016200:	e28dd00c 	add	sp, sp, #12
e0016204:	e8bd8030 	pop	{r4, r5, pc}
e0016208:	e3033000 	movw	r3, #12288	; 0x3000
e001620c:	e34e3003 	movt	r3, #57347	; 0xe003
e0016210:	e282ec01 	add	lr, r2, #256	; 0x100
e0016214:	e3a01e15 	mov	r1, #336	; 0x150
e0016218:	e5932000 	ldr	r2, [r3]
e001621c:	e3ce300f 	bic	r3, lr, #15
e0016220:	e58e1040 	str	r1, [lr, #64]	; 0x40
e0016224:	e383300c 	orr	r3, r3, #12
e0016228:	e3a01005 	mov	r1, #5
e001622c:	e5803000 	str	r3, [r0]
e0016230:	e58e2070 	str	r2, [lr, #112]	; 0x70
e0016234:	e3a02000 	mov	r2, #0
e0016238:	e58e107c 	str	r1, [lr, #124]	; 0x7c
e001623c:	e5802004 	str	r2, [r0, #4]
e0016240:	e1a00004 	mov	r0, r4
e0016244:	e28dd00c 	add	sp, sp, #12
e0016248:	e8bd8030 	pop	{r4, r5, pc}
e001624c:	e382e00f 	orr	lr, r2, #15
e0016250:	e3a03004 	mov	r3, #4
e0016254:	e8804008 	stm	r0, {r3, lr}
e0016258:	e1a00004 	mov	r0, r4
e001625c:	e28dd00c 	add	sp, sp, #12
e0016260:	e8bd8030 	pop	{r4, r5, pc}
e0016264:	e3c2e01f 	bic	lr, r2, #31
e0016268:	e1a05903 	lsl	r5, r3, #18
e001626c:	e38ee00a 	orr	lr, lr, #10
e0016270:	e205571f 	and	r5, r5, #8126464	; 0x7c0000
e0016274:	e580e000 	str	lr, [r0]
e0016278:	e5805004 	str	r5, [r0, #4]
e001627c:	e1a00004 	mov	r0, r4
e0016280:	e28dd00c 	add	sp, sp, #12
e0016284:	e8bd8030 	pop	{r4, r5, pc}

e0016288 <createNewObjects>:
e0016288:	e24dd008 	sub	sp, sp, #8
e001628c:	e92d4ff0 	push	{r4, r5, r6, r7, r8, r9, sl, fp, lr}
e0016290:	e24dd014 	sub	sp, sp, #20
e0016294:	e1a06001 	mov	r6, r1
e0016298:	e28d1034 	add	r1, sp, #52	; 0x34
e001629c:	e59d9040 	ldr	r9, [sp, #64]	; 0x40
e00162a0:	e1a0a000 	mov	sl, r0
e00162a4:	e981000c 	stmib	r1, {r2, r3}
e00162a8:	e59d1048 	ldr	r1, [sp, #72]	; 0x48
e00162ac:	ebfff7e9 	bl	e0014258 <getObjectSize>
e00162b0:	e3590000 	cmp	r9, #0
e00162b4:	0a000026 	beq	e0016354 <createNewObjects+0xcc>
e00162b8:	e59d303c 	ldr	r3, [sp, #60]	; 0x3c
e00162bc:	e3a08001 	mov	r8, #1
e00162c0:	e59d4038 	ldr	r4, [sp, #56]	; 0x38
e00162c4:	e1a08018 	lsl	r8, r8, r0
e00162c8:	e59d5044 	ldr	r5, [sp, #68]	; 0x44
e00162cc:	e3c6b007 	bic	fp, r6, #7
e00162d0:	e0844203 	add	r4, r4, r3, lsl #4
e00162d4:	e3a07000 	mov	r7, #0
e00162d8:	e59d304c 	ldr	r3, [sp, #76]	; 0x4c
e00162dc:	e1a02005 	mov	r2, r5
e00162e0:	e1a0100a 	mov	r1, sl
e00162e4:	e28d0008 	add	r0, sp, #8
e00162e8:	e2877001 	add	r7, r7, #1
e00162ec:	e0855008 	add	r5, r5, r8
e00162f0:	e58d3000 	str	r3, [sp]
e00162f4:	e59d3048 	ldr	r3, [sp, #72]	; 0x48
e00162f8:	ebffff9a 	bl	e0016168 <createObject>
e00162fc:	e596200c 	ldr	r2, [r6, #12]
e0016300:	e59d3008 	ldr	r3, [sp, #8]
e0016304:	e3c40007 	bic	r0, r4, #7
e0016308:	e3c22007 	bic	r2, r2, #7
e001630c:	e59dc00c 	ldr	ip, [sp, #12]
e0016310:	e3520000 	cmp	r2, #0
e0016314:	e584b008 	str	fp, [r4, #8]
e0016318:	e3821003 	orr	r1, r2, #3
e001631c:	e5843000 	str	r3, [r4]
e0016320:	e584100c 	str	r1, [r4, #12]
e0016324:	e2844010 	add	r4, r4, #16
e0016328:	e504c00c 	str	ip, [r4, #-12]
e001632c:	15921008 	ldrne	r1, [r2, #8]
e0016330:	12011007 	andne	r1, r1, #7
e0016334:	11811000 	orrne	r1, r1, r0
e0016338:	15821008 	strne	r1, [r2, #8]
e001633c:	e596300c 	ldr	r3, [r6, #12]
e0016340:	e1590007 	cmp	r9, r7
e0016344:	e2033007 	and	r3, r3, #7
e0016348:	e1833000 	orr	r3, r3, r0
e001634c:	e586300c 	str	r3, [r6, #12]
e0016350:	1affffe0 	bne	e00162d8 <createNewObjects+0x50>
e0016354:	e28dd014 	add	sp, sp, #20
e0016358:	e8bd4ff0 	pop	{r4, r5, r6, r7, r8, r9, sl, fp, lr}
e001635c:	e28dd008 	add	sp, sp, #8
e0016360:	e12fff1e 	bx	lr

e0016364 <tcbSchedEnqueue>:
e0016364:	e5903054 	ldr	r3, [r0, #84]	; 0x54
e0016368:	e3130001 	tst	r3, #1
e001636c:	112fff1e 	bxne	lr
e0016370:	eaffe918 	b	e00107d8 <tcbSchedEnqueue.part.164>

e0016374 <tcbSchedAppend>:
e0016374:	e5903054 	ldr	r3, [r0, #84]	; 0x54
e0016378:	e3130001 	tst	r3, #1
e001637c:	112fff1e 	bxne	lr
e0016380:	eaffe93a 	b	e0010870 <tcbSchedAppend.part.171>

e0016384 <tcbSchedDequeue>:
e0016384:	e5903054 	ldr	r3, [r0, #84]	; 0x54
e0016388:	e3130001 	tst	r3, #1
e001638c:	012fff1e 	bxeq	lr
e0016390:	e92d43f0 	push	{r4, r5, r6, r7, r8, r9, lr}
e0016394:	e30954cc 	movw	r5, #38092	; 0x94cc
e0016398:	e590e070 	ldr	lr, [r0, #112]	; 0x70
e001639c:	e34e5002 	movt	r5, #57346	; 0xe002
e00163a0:	e590c078 	ldr	ip, [r0, #120]	; 0x78
e00163a4:	e590108c 	ldr	r1, [r0, #140]	; 0x8c
e00163a8:	e08c640e 	add	r6, ip, lr, lsl #8
e00163ac:	e5902088 	ldr	r2, [r0, #136]	; 0x88
e00163b0:	e3510000 	cmp	r1, #0
e00163b4:	e0857186 	add	r7, r5, r6, lsl #3
e00163b8:	e5974004 	ldr	r4, [r7, #4]
e00163bc:	0a00000b 	beq	e00163f0 <tcbSchedDequeue+0x6c>
e00163c0:	e795c186 	ldr	ip, [r5, r6, lsl #3]
e00163c4:	e5812088 	str	r2, [r1, #136]	; 0x88
e00163c8:	e5902088 	ldr	r2, [r0, #136]	; 0x88
e00163cc:	e3520000 	cmp	r2, #0
e00163d0:	01a04001 	moveq	r4, r1
e00163d4:	0a000000 	beq	e00163dc <tcbSchedDequeue+0x58>
e00163d8:	e582108c 	str	r1, [r2, #140]	; 0x8c
e00163dc:	e785c186 	str	ip, [r5, r6, lsl #3]
e00163e0:	e3c33001 	bic	r3, r3, #1
e00163e4:	e5874004 	str	r4, [r7, #4]
e00163e8:	e5803054 	str	r3, [r0, #84]	; 0x54
e00163ec:	e8bd83f0 	pop	{r4, r5, r6, r7, r8, r9, pc}
e00163f0:	e3520000 	cmp	r2, #0
e00163f4:	1a00000e 	bne	e0016434 <tcbSchedDequeue+0xb0>
e00163f8:	e1a082ac 	lsr	r8, ip, #5
e00163fc:	e3031004 	movw	r1, #12292	; 0x3004
e0016400:	e2684007 	rsb	r4, r8, #7
e0016404:	e34e1003 	movt	r1, #57347	; 0xe003
e0016408:	e084418e 	add	r4, r4, lr, lsl #3
e001640c:	e20cc01f 	and	ip, ip, #31
e0016410:	e3a09001 	mov	r9, #1
e0016414:	e7912104 	ldr	r2, [r1, r4, lsl #2]
e0016418:	e1c2cc19 	bic	ip, r2, r9, lsl ip
e001641c:	e781c104 	str	ip, [r1, r4, lsl #2]
e0016420:	e35c0000 	cmp	ip, #0
e0016424:	0a000004 	beq	e001643c <tcbSchedDequeue+0xb8>
e0016428:	e3a0c000 	mov	ip, #0
e001642c:	e1a0400c 	mov	r4, ip
e0016430:	eaffffe9 	b	e00163dc <tcbSchedDequeue+0x58>
e0016434:	e1a0c002 	mov	ip, r2
e0016438:	eaffffe6 	b	e00163d8 <tcbSchedDequeue+0x54>
e001643c:	e3032208 	movw	r2, #12808	; 0x3208
e0016440:	e34e2003 	movt	r2, #57347	; 0xe003
e0016444:	e792110e 	ldr	r1, [r2, lr, lsl #2]
e0016448:	e1c18819 	bic	r8, r1, r9, lsl r8
e001644c:	e782810e 	str	r8, [r2, lr, lsl #2]
e0016450:	eafffff4 	b	e0016428 <tcbSchedDequeue+0xa4>

e0016454 <switchToThread>:
e0016454:	e92d4010 	push	{r4, lr}
e0016458:	e24dd008 	sub	sp, sp, #8
e001645c:	e1a04000 	mov	r4, r0
e0016460:	ebffeb8b 	bl	e0011294 <setVMRoot>
e0016464:	e28d3004 	add	r3, sp, #4
e0016468:	e1830f91 	strex	r0, r1, [r3]
e001646c:	e1a00004 	mov	r0, r4
e0016470:	ebffffc3 	bl	e0016384 <tcbSchedDequeue>
e0016474:	e303364c 	movw	r3, #13900	; 0x364c
e0016478:	e34e3003 	movt	r3, #57347	; 0xe003
e001647c:	e5834000 	str	r4, [r3]
e0016480:	e28dd008 	add	sp, sp, #8
e0016484:	e8bd8010 	pop	{r4, pc}

e0016488 <chooseThread>:
e0016488:	e3033000 	movw	r3, #12288	; 0x3000
e001648c:	e34e3003 	movt	r3, #57347	; 0xe003
e0016490:	e3032208 	movw	r2, #12808	; 0x3208
e0016494:	e34e2003 	movt	r2, #57347	; 0xe003
e0016498:	e5931000 	ldr	r1, [r3]
e001649c:	e92d4010 	push	{r4, lr}
e00164a0:	e24dd008 	sub	sp, sp, #8
e00164a4:	e7922101 	ldr	r2, [r2, r1, lsl #2]
e00164a8:	e3520000 	cmp	r2, #0
e00164ac:	0a000018 	beq	e0016514 <chooseThread+0x8c>
e00164b0:	e16f2f12 	clz	r2, r2
e00164b4:	e3033004 	movw	r3, #12292	; 0x3004
e00164b8:	e262201f 	rsb	r2, r2, #31
e00164bc:	e34e3003 	movt	r3, #57347	; 0xe003
e00164c0:	e262c007 	rsb	ip, r2, #7
e00164c4:	e30904cc 	movw	r0, #38092	; 0x94cc
e00164c8:	e08cc181 	add	ip, ip, r1, lsl #3
e00164cc:	e34e0002 	movt	r0, #57346	; 0xe002
e00164d0:	e793310c 	ldr	r3, [r3, ip, lsl #2]
e00164d4:	e16f3f13 	clz	r3, r3
e00164d8:	e263301f 	rsb	r3, r3, #31
e00164dc:	e1833282 	orr	r3, r3, r2, lsl #5
e00164e0:	e0833401 	add	r3, r3, r1, lsl #8
e00164e4:	e7904183 	ldr	r4, [r0, r3, lsl #3]
e00164e8:	e1a00004 	mov	r0, r4
e00164ec:	ebffeb68 	bl	e0011294 <setVMRoot>
e00164f0:	e28d3004 	add	r3, sp, #4
e00164f4:	e1830f91 	strex	r0, r1, [r3]
e00164f8:	e1a00004 	mov	r0, r4
e00164fc:	ebffffa0 	bl	e0016384 <tcbSchedDequeue>
e0016500:	e303364c 	movw	r3, #13900	; 0x364c
e0016504:	e34e3003 	movt	r3, #57347	; 0xe003
e0016508:	e5834000 	str	r4, [r3]
e001650c:	e28dd008 	add	sp, sp, #8
e0016510:	e8bd8010 	pop	{r4, pc}
e0016514:	e3094010 	movw	r4, #36880	; 0x9010
e0016518:	e34e4002 	movt	r4, #57346	; 0xe002
e001651c:	e5940000 	ldr	r0, [r4]
e0016520:	ebffeb5b 	bl	e0011294 <setVMRoot>
e0016524:	e5942000 	ldr	r2, [r4]
e0016528:	e303364c 	movw	r3, #13900	; 0x364c
e001652c:	e34e3003 	movt	r3, #57347	; 0xe003
e0016530:	e5832000 	str	r2, [r3]
e0016534:	e28dd008 	add	sp, sp, #8
e0016538:	e8bd8010 	pop	{r4, pc}

e001653c <scheduleChooseNewThread>:
e001653c:	e30134cc 	movw	r3, #5324	; 0x14cc
e0016540:	e34e3003 	movt	r3, #57347	; 0xe003
e0016544:	e5932000 	ldr	r2, [r3]
e0016548:	e3520000 	cmp	r2, #0
e001654c:	1a000014 	bne	e00165a4 <scheduleChooseNewThread+0x68>
e0016550:	e3031650 	movw	r1, #13904	; 0x3650
e0016554:	e34e1003 	movt	r1, #57347	; 0xe003
e0016558:	e5910000 	ldr	r0, [r1]
e001655c:	e2800001 	add	r0, r0, #1
e0016560:	e5810000 	str	r0, [r1]
e0016564:	e3500002 	cmp	r0, #2
e0016568:	85812000 	strhi	r2, [r1]
e001656c:	e3031204 	movw	r1, #12804	; 0x3204
e0016570:	e34e1003 	movt	r1, #57347	; 0xe003
e0016574:	930b23c8 	movwls	r2, #46024	; 0xb3c8
e0016578:	934e2001 	movtls	r2, #57345	; 0xe001
e001657c:	90820180 	addls	r0, r2, r0, lsl #3
e0016580:	83a0c00f 	movhi	ip, #15
e0016584:	95902070 	ldrls	r2, [r0, #112]	; 0x70
e0016588:	9590c074 	ldrls	ip, [r0, #116]	; 0x74
e001658c:	e3030000 	movw	r0, #12288	; 0x3000
e0016590:	e34e0003 	movt	r0, #57347	; 0xe003
e0016594:	e583c000 	str	ip, [r3]
e0016598:	e3a03000 	mov	r3, #0
e001659c:	e5802000 	str	r2, [r0]
e00165a0:	e5813000 	str	r3, [r1]
e00165a4:	eaffffb7 	b	e0016488 <chooseThread>

e00165a8 <schedule>:
e00165a8:	e92d40f0 	push	{r4, r5, r6, r7, lr}
e00165ac:	e309401c 	movw	r4, #36892	; 0x901c
e00165b0:	e34e4002 	movt	r4, #57346	; 0xe002
e00165b4:	e24dd00c 	sub	sp, sp, #12
e00165b8:	e5945000 	ldr	r5, [r4]
e00165bc:	e3550000 	cmp	r5, #0
e00165c0:	0a000034 	beq	e0016698 <schedule+0xf0>
e00165c4:	e303664c 	movw	r6, #13900	; 0x364c
e00165c8:	e34e6003 	movt	r6, #57347	; 0xe003
e00165cc:	e5960000 	ldr	r0, [r6]
e00165d0:	e5903050 	ldr	r3, [r0, #80]	; 0x50
e00165d4:	e203300f 	and	r3, r3, #15
e00165d8:	e2433001 	sub	r3, r3, #1
e00165dc:	e3530001 	cmp	r3, #1
e00165e0:	83a00000 	movhi	r0, #0
e00165e4:	9a00002f 	bls	e00166a8 <schedule+0x100>
e00165e8:	e3550001 	cmp	r5, #1
e00165ec:	0a00003a 	beq	e00166dc <schedule+0x134>
e00165f0:	e3093010 	movw	r3, #36880	; 0x9010
e00165f4:	e34e3002 	movt	r3, #57346	; 0xe002
e00165f8:	e5962000 	ldr	r2, [r6]
e00165fc:	e5933000 	ldr	r3, [r3]
e0016600:	e595c078 	ldr	ip, [r5, #120]	; 0x78
e0016604:	e1520003 	cmp	r2, r3
e0016608:	0a000002 	beq	e0016618 <schedule+0x70>
e001660c:	e5923078 	ldr	r3, [r2, #120]	; 0x78
e0016610:	e153000c 	cmp	r3, ip
e0016614:	9a000013 	bls	e0016668 <schedule+0xc0>
e0016618:	e3031000 	movw	r1, #12288	; 0x3000
e001661c:	e34e1003 	movt	r1, #57347	; 0xe003
e0016620:	e3033208 	movw	r3, #12808	; 0x3208
e0016624:	e34e3003 	movt	r3, #57347	; 0xe003
e0016628:	e5911000 	ldr	r1, [r1]
e001662c:	e7933101 	ldr	r3, [r3, r1, lsl #2]
e0016630:	e3530000 	cmp	r3, #0
e0016634:	0a00000b 	beq	e0016668 <schedule+0xc0>
e0016638:	e16f3f13 	clz	r3, r3
e001663c:	e303e004 	movw	lr, #12292	; 0x3004
e0016640:	e263301f 	rsb	r3, r3, #31
e0016644:	e34ee003 	movt	lr, #57347	; 0xe003
e0016648:	e2637007 	rsb	r7, r3, #7
e001664c:	e0871181 	add	r1, r7, r1, lsl #3
e0016650:	e79e1101 	ldr	r1, [lr, r1, lsl #2]
e0016654:	e16f1f11 	clz	r1, r1
e0016658:	e261101f 	rsb	r1, r1, #31
e001665c:	e1813283 	orr	r3, r1, r3, lsl #5
e0016660:	e153000c 	cmp	r3, ip
e0016664:	8a000017 	bhi	e00166c8 <schedule+0x120>
e0016668:	e3500000 	cmp	r0, #0
e001666c:	0a000002 	beq	e001667c <schedule+0xd4>
e0016670:	e5923078 	ldr	r3, [r2, #120]	; 0x78
e0016674:	e153000c 	cmp	r3, ip
e0016678:	0a00001c 	beq	e00166f0 <schedule+0x148>
e001667c:	e1a00005 	mov	r0, r5
e0016680:	ebffeb03 	bl	e0011294 <setVMRoot>
e0016684:	e28d3004 	add	r3, sp, #4
e0016688:	e1830f91 	strex	r0, r1, [r3]
e001668c:	e1a00005 	mov	r0, r5
e0016690:	ebffff3b 	bl	e0016384 <tcbSchedDequeue>
e0016694:	e5865000 	str	r5, [r6]
e0016698:	e3a03000 	mov	r3, #0
e001669c:	e5843000 	str	r3, [r4]
e00166a0:	e28dd00c 	add	sp, sp, #12
e00166a4:	e8bd80f0 	pop	{r4, r5, r6, r7, pc}
e00166a8:	e5903054 	ldr	r3, [r0, #84]	; 0x54
e00166ac:	e3130001 	tst	r3, #1
e00166b0:	13a00001 	movne	r0, #1
e00166b4:	1affffcb 	bne	e00165e8 <schedule+0x40>
e00166b8:	ebffe846 	bl	e00107d8 <tcbSchedEnqueue.part.164>
e00166bc:	e5945000 	ldr	r5, [r4]
e00166c0:	e3a00001 	mov	r0, #1
e00166c4:	eaffffc7 	b	e00165e8 <schedule+0x40>
e00166c8:	e5953054 	ldr	r3, [r5, #84]	; 0x54
e00166cc:	e3130001 	tst	r3, #1
e00166d0:	0a00000c 	beq	e0016708 <schedule+0x160>
e00166d4:	e3a03001 	mov	r3, #1
e00166d8:	e5843000 	str	r3, [r4]
e00166dc:	ebffff96 	bl	e001653c <scheduleChooseNewThread>
e00166e0:	e3a03000 	mov	r3, #0
e00166e4:	e5843000 	str	r3, [r4]
e00166e8:	e28dd00c 	add	sp, sp, #12
e00166ec:	e8bd80f0 	pop	{r4, r5, r6, r7, pc}
e00166f0:	e5953054 	ldr	r3, [r5, #84]	; 0x54
e00166f4:	e3130001 	tst	r3, #1
e00166f8:	1afffff5 	bne	e00166d4 <schedule+0x12c>
e00166fc:	e1a00005 	mov	r0, r5
e0016700:	ebffe85a 	bl	e0010870 <tcbSchedAppend.part.171>
e0016704:	eafffff2 	b	e00166d4 <schedule+0x12c>
e0016708:	e1a00005 	mov	r0, r5
e001670c:	ebffe831 	bl	e00107d8 <tcbSchedEnqueue.part.164>
e0016710:	eaffffef 	b	e00166d4 <schedule+0x12c>

e0016714 <setDomain>:
e0016714:	e92d4070 	push	{r4, r5, r6, lr}
e0016718:	e1a05001 	mov	r5, r1
e001671c:	e1a04000 	mov	r4, r0
e0016720:	ebffff17 	bl	e0016384 <tcbSchedDequeue>
e0016724:	e5903050 	ldr	r3, [r0, #80]	; 0x50
e0016728:	e5805070 	str	r5, [r0, #112]	; 0x70
e001672c:	e203300f 	and	r3, r3, #15
e0016730:	e2433001 	sub	r3, r3, #1
e0016734:	e3530001 	cmp	r3, #1
e0016738:	8a000002 	bhi	e0016748 <setDomain+0x34>
e001673c:	e5903054 	ldr	r3, [r0, #84]	; 0x54
e0016740:	e3130001 	tst	r3, #1
e0016744:	0a000006 	beq	e0016764 <setDomain+0x50>
e0016748:	e303364c 	movw	r3, #13900	; 0x364c
e001674c:	e34e3003 	movt	r3, #57347	; 0xe003
e0016750:	e5933000 	ldr	r3, [r3]
e0016754:	e1530004 	cmp	r3, r4
e0016758:	18bd8070 	popne	{r4, r5, r6, pc}
e001675c:	e8bd4070 	pop	{r4, r5, r6, lr}
e0016760:	eafff24c 	b	e0013098 <rescheduleRequired>
e0016764:	ebffe81b 	bl	e00107d8 <tcbSchedEnqueue.part.164>
e0016768:	eafffff6 	b	e0016748 <setDomain+0x34>

e001676c <setPriority>:
e001676c:	e92d4070 	push	{r4, r5, r6, lr}
e0016770:	e1a05001 	mov	r5, r1
e0016774:	ebffff02 	bl	e0016384 <tcbSchedDequeue>
e0016778:	e5903050 	ldr	r3, [r0, #80]	; 0x50
e001677c:	e5805078 	str	r5, [r0, #120]	; 0x78
e0016780:	e203300f 	and	r3, r3, #15
e0016784:	e2433001 	sub	r3, r3, #1
e0016788:	e3530001 	cmp	r3, #1
e001678c:	88bd8070 	pophi	{r4, r5, r6, pc}
e0016790:	e303364c 	movw	r3, #13900	; 0x364c
e0016794:	e34e3003 	movt	r3, #57347	; 0xe003
e0016798:	e5933000 	ldr	r3, [r3]
e001679c:	e1500003 	cmp	r0, r3
e00167a0:	0a000001 	beq	e00167ac <setPriority+0x40>
e00167a4:	e8bd4070 	pop	{r4, r5, r6, lr}
e00167a8:	eafff28f 	b	e00131ec <possibleSwitchTo>
e00167ac:	e8bd4070 	pop	{r4, r5, r6, lr}
e00167b0:	eafff238 	b	e0013098 <rescheduleRequired>

e00167b4 <suspend>:
e00167b4:	e92d4010 	push	{r4, lr}
e00167b8:	e1a04000 	mov	r4, r0
e00167bc:	eb00031d 	bl	e0017438 <cancelIPC>
e00167c0:	e5943050 	ldr	r3, [r4, #80]	; 0x50
e00167c4:	e203200f 	and	r2, r3, #15
e00167c8:	e3c3300f 	bic	r3, r3, #15
e00167cc:	e3520001 	cmp	r2, #1
e00167d0:	e5843050 	str	r3, [r4, #80]	; 0x50
e00167d4:	0594203c 	ldreq	r2, [r4, #60]	; 0x3c
e00167d8:	05842044 	streq	r2, [r4, #68]	; 0x44
e00167dc:	e303264c 	movw	r2, #13900	; 0x364c
e00167e0:	e34e2003 	movt	r2, #57347	; 0xe003
e00167e4:	e5923000 	ldr	r3, [r2]
e00167e8:	e1540003 	cmp	r4, r3
e00167ec:	0a000002 	beq	e00167fc <suspend+0x48>
e00167f0:	e1a00004 	mov	r0, r4
e00167f4:	e8bd4010 	pop	{r4, lr}
e00167f8:	eafffee1 	b	e0016384 <tcbSchedDequeue>
e00167fc:	e1a00004 	mov	r0, r4
e0016800:	ebfff243 	bl	e0013114 <setThreadState.part.166>
e0016804:	e1a00004 	mov	r0, r4
e0016808:	e8bd4010 	pop	{r4, lr}
e001680c:	eafffedc 	b	e0016384 <tcbSchedDequeue>

e0016810 <finaliseCap>:
e0016810:	e92d4070 	push	{r4, r5, r6, lr}
e0016814:	e24dd008 	sub	sp, sp, #8
e0016818:	e1a05001 	mov	r5, r1
e001681c:	e1a04000 	mov	r4, r0
e0016820:	e1a0c00d 	mov	ip, sp
e0016824:	e88c0006 	stm	ip, {r1, r2}
e0016828:	e201200e 	and	r2, r1, #14
e001682c:	e352000e 	cmp	r2, #14
e0016830:	1201200f 	andne	r2, r1, #15
e0016834:	06ef2071 	uxtbeq	r2, r1
e0016838:	e2121001 	ands	r1, r2, #1
e001683c:	1a000043 	bne	e0016950 <finaliseCap+0x140>
e0016840:	e3520006 	cmp	r2, #6
e0016844:	e59d6004 	ldr	r6, [sp, #4]
e0016848:	0a000045 	beq	e0016964 <finaliseCap+0x154>
e001684c:	8a00000f 	bhi	e0016890 <finaliseCap+0x80>
e0016850:	e3520000 	cmp	r2, #0
e0016854:	0a000005 	beq	e0016870 <finaliseCap+0x60>
e0016858:	e3520004 	cmp	r2, #4
e001685c:	1a00000f 	bne	e00168a0 <finaliseCap+0x90>
e0016860:	e3530000 	cmp	r3, #0
e0016864:	0a000001 	beq	e0016870 <finaliseCap+0x60>
e0016868:	e3c6000f 	bic	r0, r6, #15
e001686c:	ebfff434 	bl	e0013944 <cancelAllIPC>
e0016870:	e3a03000 	mov	r3, #0
e0016874:	e5843000 	str	r3, [r4]
e0016878:	e5843004 	str	r3, [r4, #4]
e001687c:	e5843008 	str	r3, [r4, #8]
e0016880:	e584300c 	str	r3, [r4, #12]
e0016884:	e1a00004 	mov	r0, r4
e0016888:	e28dd008 	add	sp, sp, #8
e001688c:	e8bd8070 	pop	{r4, r5, r6, pc}
e0016890:	e3520008 	cmp	r2, #8
e0016894:	0afffff5 	beq	e0016870 <finaliseCap+0x60>
e0016898:	e352003e 	cmp	r2, #62	; 0x3e
e001689c:	0afffff3 	beq	e0016870 <finaliseCap+0x60>
e00168a0:	e59d1018 	ldr	r1, [sp, #24]
e00168a4:	e3510000 	cmp	r1, #0
e00168a8:	1a00006d 	bne	e0016a64 <finaliseCap+0x254>
e00168ac:	e242200a 	sub	r2, r2, #10
e00168b0:	e3520024 	cmp	r2, #36	; 0x24
e00168b4:	979ff102 	ldrls	pc, [pc, r2, lsl #2]
e00168b8:	eaffffec 	b	e0016870 <finaliseCap+0x60>
e00168bc:	e0016a1c 	.word	0xe0016a1c
e00168c0:	e0016870 	.word	0xe0016870
e00168c4:	e00169cc 	.word	0xe00169cc
e00168c8:	e0016870 	.word	0xe0016870
e00168cc:	e0016870 	.word	0xe0016870
e00168d0:	e0016870 	.word	0xe0016870
e00168d4:	e0016870 	.word	0xe0016870
e00168d8:	e0016870 	.word	0xe0016870
e00168dc:	e0016870 	.word	0xe0016870
e00168e0:	e0016870 	.word	0xe0016870
e00168e4:	e0016870 	.word	0xe0016870
e00168e8:	e0016870 	.word	0xe0016870
e00168ec:	e0016870 	.word	0xe0016870
e00168f0:	e0016870 	.word	0xe0016870
e00168f4:	e0016870 	.word	0xe0016870
e00168f8:	e0016870 	.word	0xe0016870
e00168fc:	e0016870 	.word	0xe0016870
e0016900:	e0016870 	.word	0xe0016870
e0016904:	e0016870 	.word	0xe0016870
e0016908:	e0016870 	.word	0xe0016870
e001690c:	e00169a4 	.word	0xe00169a4
e0016910:	e0016870 	.word	0xe0016870
e0016914:	e0016870 	.word	0xe0016870
e0016918:	e0016870 	.word	0xe0016870
e001691c:	e0016870 	.word	0xe0016870
e0016920:	e0016870 	.word	0xe0016870
e0016924:	e0016870 	.word	0xe0016870
e0016928:	e0016870 	.word	0xe0016870
e001692c:	e0016870 	.word	0xe0016870
e0016930:	e0016870 	.word	0xe0016870
e0016934:	e0016870 	.word	0xe0016870
e0016938:	e0016870 	.word	0xe0016870
e001693c:	e0016870 	.word	0xe0016870
e0016940:	e0016870 	.word	0xe0016870
e0016944:	e0016870 	.word	0xe0016870
e0016948:	e0016870 	.word	0xe0016870
e001694c:	e001698c 	.word	0xe001698c
e0016950:	e89c0006 	ldm	ip, {r1, r2}
e0016954:	ebffee5e 	bl	e00122d4 <Arch_finaliseCap>
e0016958:	e1a00004 	mov	r0, r4
e001695c:	e28dd008 	add	sp, sp, #8
e0016960:	e8bd8070 	pop	{r4, r5, r6, pc}
e0016964:	e3530000 	cmp	r3, #0
e0016968:	0affffc0 	beq	e0016870 <finaliseCap+0x60>
e001696c:	e3c5000f 	bic	r0, r5, #15
e0016970:	e590300c 	ldr	r3, [r0, #12]
e0016974:	e3d3200f 	bics	r2, r3, #15
e0016978:	1203300f 	andne	r3, r3, #15
e001697c:	1580300c 	strne	r3, [r0, #12]
e0016980:	1582105c 	strne	r1, [r2, #92]	; 0x5c
e0016984:	ebfff5c9 	bl	e00140b0 <cancelAllSignals>
e0016988:	eaffffb8 	b	e0016870 <finaliseCap+0x60>
e001698c:	e3a03000 	mov	r3, #0
e0016990:	e5845000 	str	r5, [r4]
e0016994:	e5846004 	str	r6, [r4, #4]
e0016998:	e5843008 	str	r3, [r4, #8]
e001699c:	e584300c 	str	r3, [r4, #12]
e00169a0:	eaffffb7 	b	e0016884 <finaliseCap+0x74>
e00169a4:	e3530000 	cmp	r3, #0
e00169a8:	0affffb0 	beq	e0016870 <finaliseCap+0x60>
e00169ac:	e6ef0076 	uxtb	r0, r6
e00169b0:	eb0003ea 	bl	e0017960 <invokeIRQHandler_ClearIRQHandler>
e00169b4:	e3a03000 	mov	r3, #0
e00169b8:	e5845008 	str	r5, [r4, #8]
e00169bc:	e584600c 	str	r6, [r4, #12]
e00169c0:	e5843000 	str	r3, [r4]
e00169c4:	e5843004 	str	r3, [r4, #4]
e00169c8:	eaffffad 	b	e0016884 <finaliseCap+0x74>
e00169cc:	e3530000 	cmp	r3, #0
e00169d0:	0affffa6 	beq	e0016870 <finaliseCap+0x60>
e00169d4:	e3c5000f 	bic	r0, r5, #15
e00169d8:	e3c55f7f 	bic	r5, r5, #508	; 0x1fc
e00169dc:	e3c55003 	bic	r5, r5, #3
e00169e0:	e590305c 	ldr	r3, [r0, #92]	; 0x5c
e00169e4:	e2255005 	eor	r5, r5, #5
e00169e8:	e3530000 	cmp	r3, #0
e00169ec:	1593200c 	ldrne	r2, [r3, #12]
e00169f0:	13a01000 	movne	r1, #0
e00169f4:	1202200f 	andne	r2, r2, #15
e00169f8:	1583200c 	strne	r2, [r3, #12]
e00169fc:	1580105c 	strne	r1, [r0, #92]	; 0x5c
e0016a00:	ebffff6b 	bl	e00167b4 <suspend>
e0016a04:	e302302e 	movw	r3, #8238	; 0x202e
e0016a08:	e8840028 	stm	r4, {r3, r5}
e0016a0c:	e3a03000 	mov	r3, #0
e0016a10:	e5843008 	str	r3, [r4, #8]
e0016a14:	e584300c 	str	r3, [r4, #12]
e0016a18:	eaffff99 	b	e0016884 <finaliseCap+0x74>
e0016a1c:	e3530000 	cmp	r3, #0
e0016a20:	0affff92 	beq	e0016870 <finaliseCap+0x60>
e0016a24:	e7e46956 	ubfx	r6, r6, #18, #5
e0016a28:	e3c5501f 	bic	r5, r5, #31
e0016a2c:	e3a03001 	mov	r3, #1
e0016a30:	e3e01000 	mvn	r1, #0
e0016a34:	e0862003 	add	r2, r6, r3
e0016a38:	e0253613 	eor	r3, r5, r3, lsl r6
e0016a3c:	e1c33211 	bic	r3, r3, r1, lsl r2
e0016a40:	e1a06406 	lsl	r6, r6, #8
e0016a44:	e0255003 	eor	r5, r5, r3
e0016a48:	e386602e 	orr	r6, r6, #46	; 0x2e
e0016a4c:	e3a03000 	mov	r3, #0
e0016a50:	e5846000 	str	r6, [r4]
e0016a54:	e5845004 	str	r5, [r4, #4]
e0016a58:	e5843008 	str	r3, [r4, #8]
e0016a5c:	e584300c 	str	r3, [r4, #12]
e0016a60:	eaffff87 	b	e0016884 <finaliseCap+0x74>
e0016a64:	ebffe7f4 	bl	e0010a3c <halt>

e0016a68 <cteDelete>:
e0016a68:	e92d47f0 	push	{r4, r5, r6, r7, r8, r9, sl, lr}
e0016a6c:	e3035204 	movw	r5, #12804	; 0x3204
e0016a70:	e24dd028 	sub	sp, sp, #40	; 0x28
e0016a74:	e34e5003 	movt	r5, #57347	; 0xe003
e0016a78:	e1a04000 	mov	r4, r0
e0016a7c:	e1a07001 	mov	r7, r1
e0016a80:	e3a06000 	mov	r6, #0
e0016a84:	e5943000 	ldr	r3, [r4]
e0016a88:	e203200e 	and	r2, r3, #14
e0016a8c:	e352000e 	cmp	r2, #14
e0016a90:	1203300f 	andne	r3, r3, #15
e0016a94:	06ef3073 	uxtbeq	r3, r3
e0016a98:	e3530000 	cmp	r3, #0
e0016a9c:	0a000074 	beq	e0016c74 <cteDelete+0x20c>
e0016aa0:	e1a00004 	mov	r0, r4
e0016aa4:	ebfff8a6 	bl	e0014d44 <isFinalCapability>
e0016aa8:	e58d6000 	str	r6, [sp]
e0016aac:	e8940006 	ldm	r4, {r1, r2}
e0016ab0:	e1a03000 	mov	r3, r0
e0016ab4:	e28d0018 	add	r0, sp, #24
e0016ab8:	ebffff54 	bl	e0016810 <finaliseCap>
e0016abc:	e59d3018 	ldr	r3, [sp, #24]
e0016ac0:	e203c00e 	and	ip, r3, #14
e0016ac4:	e35c000e 	cmp	ip, #14
e0016ac8:	1203200f 	andne	r2, r3, #15
e0016acc:	06ef2073 	uxtbeq	r2, r3
e0016ad0:	e3520000 	cmp	r2, #0
e0016ad4:	1a00000a 	bne	e0016b04 <cteDelete+0x9c>
e0016ad8:	e59d3020 	ldr	r3, [sp, #32]
e0016adc:	e1a00004 	mov	r0, r4
e0016ae0:	e59d2024 	ldr	r2, [sp, #36]	; 0x24
e0016ae4:	e58d3010 	str	r3, [sp, #16]
e0016ae8:	e28d3010 	add	r3, sp, #16
e0016aec:	e58d2014 	str	r2, [sp, #20]
e0016af0:	e8930006 	ldm	r3, {r1, r2}
e0016af4:	ebffe78b 	bl	e0010928 <emptySlot>
e0016af8:	e3a00000 	mov	r0, #0
e0016afc:	e28dd028 	add	sp, sp, #40	; 0x28
e0016b00:	e8bd87f0 	pop	{r4, r5, r6, r7, r8, r9, sl, pc}
e0016b04:	e352002e 	cmp	r2, #46	; 0x2e
e0016b08:	1a000069 	bne	e0016cb4 <cteDelete+0x24c>
e0016b0c:	e1a02423 	lsr	r2, r3, #8
e0016b10:	e59de01c 	ldr	lr, [sp, #28]
e0016b14:	e202803f 	and	r8, r2, #63	; 0x3f
e0016b18:	e3580020 	cmp	r8, #32
e0016b1c:	1202101f 	andne	r1, r2, #31
e0016b20:	13e00000 	mvnne	r0, #0
e0016b24:	12811001 	addne	r1, r1, #1
e0016b28:	11a09000 	movne	r9, r0
e0016b2c:	03e0901f 	mvneq	r9, #31
e0016b30:	11a09119 	lslne	r9, r9, r1
e0016b34:	03a0101f 	moveq	r1, #31
e0016b38:	11e01110 	mvnne	r1, r0, lsl r1
e0016b3c:	e01e1001 	ands	r1, lr, r1
e0016b40:	0affffe4 	beq	e0016ad8 <cteDelete+0x70>
e0016b44:	e009900e 	and	r9, r9, lr
e0016b48:	e3510001 	cmp	r1, #1
e0016b4c:	01540009 	cmpeq	r4, r9
e0016b50:	0affffe0 	beq	e0016ad8 <cteDelete+0x70>
e0016b54:	e3570000 	cmp	r7, #0
e0016b58:	e8844008 	stm	r4, {r3, lr}
e0016b5c:	1a000014 	bne	e0016bb4 <cteDelete+0x14c>
e0016b60:	e35c000e 	cmp	ip, #14
e0016b64:	0a00003c 	beq	e0016c5c <cteDelete+0x1f4>
e0016b68:	e3580020 	cmp	r8, #32
e0016b6c:	1202201f 	andne	r2, r2, #31
e0016b70:	13e00000 	mvnne	r0, #0
e0016b74:	12822001 	addne	r2, r2, #1
e0016b78:	100e0210 	andne	r0, lr, r0, lsl r2
e0016b7c:	0a000043 	beq	e0016c90 <cteDelete+0x228>
e0016b80:	e1540000 	cmp	r4, r0
e0016b84:	0a000001 	beq	e0016b90 <cteDelete+0x128>
e0016b88:	e1a01004 	mov	r1, r4
e0016b8c:	ebfff2ef 	bl	e0013750 <capSwapForDelete.part.162>
e0016b90:	e5953000 	ldr	r3, [r5]
e0016b94:	e2833001 	add	r3, r3, #1
e0016b98:	e5853000 	str	r3, [r5]
e0016b9c:	e3530063 	cmp	r3, #99	; 0x63
e0016ba0:	9affffb7 	bls	e0016a84 <cteDelete+0x1c>
e0016ba4:	ebffe6ff 	bl	e00107a8 <preemptionPoint.part.161>
e0016ba8:	e3500000 	cmp	r0, #0
e0016bac:	0affffb3 	beq	e0016a80 <cteDelete+0x18>
e0016bb0:	eaffffd1 	b	e0016afc <cteDelete+0x94>
e0016bb4:	e3580020 	cmp	r8, #32
e0016bb8:	03ce901f 	biceq	r9, lr, #31
e0016bbc:	020ea01f 	andeq	sl, lr, #31
e0016bc0:	1a000034 	bne	e0016c98 <cteDelete+0x230>
e0016bc4:	e24a021f 	sub	r0, sl, #-268435455	; 0xf0000001
e0016bc8:	e3a01000 	mov	r1, #0
e0016bcc:	e0890200 	add	r0, r9, r0, lsl #4
e0016bd0:	ebffffa4 	bl	e0016a68 <cteDelete>
e0016bd4:	e3500000 	cmp	r0, #0
e0016bd8:	1affffc7 	bne	e0016afc <cteDelete+0x94>
e0016bdc:	e5943000 	ldr	r3, [r4]
e0016be0:	e203200e 	and	r2, r3, #14
e0016be4:	e352000e 	cmp	r2, #14
e0016be8:	1203200f 	andne	r2, r3, #15
e0016bec:	06ef2073 	uxtbeq	r2, r3
e0016bf0:	e3520000 	cmp	r2, #0
e0016bf4:	0affffe5 	beq	e0016b90 <cteDelete+0x128>
e0016bf8:	e352002e 	cmp	r2, #46	; 0x2e
e0016bfc:	1a00002c 	bne	e0016cb4 <cteDelete+0x24c>
e0016c00:	e1a03423 	lsr	r3, r3, #8
e0016c04:	e5941004 	ldr	r1, [r4, #4]
e0016c08:	e203003f 	and	r0, r3, #63	; 0x3f
e0016c0c:	e3500020 	cmp	r0, #32
e0016c10:	1203301f 	andne	r3, r3, #31
e0016c14:	13e02000 	mvnne	r2, #0
e0016c18:	12833001 	addne	r3, r3, #1
e0016c1c:	11a02312 	lslne	r2, r2, r3
e0016c20:	03e0201f 	mvneq	r2, #31
e0016c24:	e0022001 	and	r2, r2, r1
e0016c28:	03a03005 	moveq	r3, #5
e0016c2c:	e1590002 	cmp	r9, r2
e0016c30:	1affffd6 	bne	e0016b90 <cteDelete+0x128>
e0016c34:	e3e02000 	mvn	r2, #0
e0016c38:	e1e03312 	mvn	r3, r2, lsl r3
e0016c3c:	e0011003 	and	r1, r1, r3
e0016c40:	e151000a 	cmp	r1, sl
e0016c44:	01580000 	cmpeq	r8, r0
e0016c48:	008ae002 	addeq	lr, sl, r2
e0016c4c:	0003300e 	andeq	r3, r3, lr
e0016c50:	01839009 	orreq	r9, r3, r9
e0016c54:	05849004 	streq	r9, [r4, #4]
e0016c58:	eaffffcc 	b	e0016b90 <cteDelete+0x128>
e0016c5c:	e6ef3073 	uxtb	r3, r3
e0016c60:	e353002e 	cmp	r3, #46	; 0x2e
e0016c64:	1affffbf 	bne	e0016b68 <cteDelete+0x100>
e0016c68:	e1540009 	cmp	r4, r9
e0016c6c:	1affffbd 	bne	e0016b68 <cteDelete+0x100>
e0016c70:	eaffffa0 	b	e0016af8 <cteDelete+0x90>
e0016c74:	e58d3010 	str	r3, [sp, #16]
e0016c78:	e1a00004 	mov	r0, r4
e0016c7c:	e58d3014 	str	r3, [sp, #20]
e0016c80:	e28d3010 	add	r3, sp, #16
e0016c84:	e8930006 	ldm	r3, {r1, r2}
e0016c88:	ebffe726 	bl	e0010928 <emptySlot>
e0016c8c:	eaffff99 	b	e0016af8 <cteDelete+0x90>
e0016c90:	e3ce001f 	bic	r0, lr, #31
e0016c94:	eaffffb9 	b	e0016b80 <cteDelete+0x118>
e0016c98:	e3e09000 	mvn	r9, #0
e0016c9c:	e202301f 	and	r3, r2, #31
e0016ca0:	e2833001 	add	r3, r3, #1
e0016ca4:	e1a0a009 	mov	sl, r9
e0016ca8:	e1cea31a 	bic	sl, lr, sl, lsl r3
e0016cac:	e00e9319 	and	r9, lr, r9, lsl r3
e0016cb0:	eaffffc3 	b	e0016bc4 <cteDelete+0x15c>
e0016cb4:	ebffe760 	bl	e0010a3c <halt>

e0016cb8 <invokeCNodeDelete>:
e0016cb8:	e3a01001 	mov	r1, #1
e0016cbc:	eaffff69 	b	e0016a68 <cteDelete>

e0016cc0 <cteRevoke>:
e0016cc0:	e92d4070 	push	{r4, r5, r6, lr}
e0016cc4:	e590400c 	ldr	r4, [r0, #12]
e0016cc8:	e3d44007 	bics	r4, r4, #7
e0016ccc:	0a00001b 	beq	e0016d40 <cteRevoke+0x80>
e0016cd0:	e3036204 	movw	r6, #12804	; 0x3204
e0016cd4:	e1a05000 	mov	r5, r0
e0016cd8:	e34e6003 	movt	r6, #57347	; 0xe003
e0016cdc:	ea000002 	b	e0016cec <cteRevoke+0x2c>
e0016ce0:	e595400c 	ldr	r4, [r5, #12]
e0016ce4:	e3d44007 	bics	r4, r4, #7
e0016ce8:	0a000014 	beq	e0016d40 <cteRevoke+0x80>
e0016cec:	e1a01004 	mov	r1, r4
e0016cf0:	e1a00005 	mov	r0, r5
e0016cf4:	ebfff786 	bl	e0014b14 <isMDBParentOf>
e0016cf8:	e3a01001 	mov	r1, #1
e0016cfc:	e3500000 	cmp	r0, #0
e0016d00:	e1a00004 	mov	r0, r4
e0016d04:	0a00000d 	beq	e0016d40 <cteRevoke+0x80>
e0016d08:	ebffff56 	bl	e0016a68 <cteDelete>
e0016d0c:	e3500000 	cmp	r0, #0
e0016d10:	18bd8070 	popne	{r4, r5, r6, pc}
e0016d14:	e5963000 	ldr	r3, [r6]
e0016d18:	e2833001 	add	r3, r3, #1
e0016d1c:	e5863000 	str	r3, [r6]
e0016d20:	e3530063 	cmp	r3, #99	; 0x63
e0016d24:	9affffed 	bls	e0016ce0 <cteRevoke+0x20>
e0016d28:	ebffe69e 	bl	e00107a8 <preemptionPoint.part.161>
e0016d2c:	e3500000 	cmp	r0, #0
e0016d30:	18bd8070 	popne	{r4, r5, r6, pc}
e0016d34:	e595400c 	ldr	r4, [r5, #12]
e0016d38:	e3d44007 	bics	r4, r4, #7
e0016d3c:	1affffea 	bne	e0016cec <cteRevoke+0x2c>
e0016d40:	e3a00000 	mov	r0, #0
e0016d44:	e8bd8070 	pop	{r4, r5, r6, pc}

e0016d48 <invokeCNodeRevoke>:
e0016d48:	eaffffdc 	b	e0016cc0 <cteRevoke>

e0016d4c <decodeCNodeInvocation>:
e0016d4c:	e92d4ff0 	push	{r4, r5, r6, r7, r8, r9, sl, fp, lr}
e0016d50:	e240c010 	sub	ip, r0, #16
e0016d54:	e24dd084 	sub	sp, sp, #132	; 0x84
e0016d58:	e35c0008 	cmp	ip, #8
e0016d5c:	e28dc010 	add	ip, sp, #16
e0016d60:	e59d60b4 	ldr	r6, [sp, #180]	; 0xb4
e0016d64:	e88c000c 	stm	ip, {r2, r3}
e0016d68:	8a000080 	bhi	e0016f70 <decodeCNodeInvocation+0x224>
e0016d6c:	e3510001 	cmp	r1, #1
e0016d70:	9a000076 	bls	e0016f50 <decodeCNodeInvocation+0x204>
e0016d74:	e303564c 	movw	r5, #13900	; 0x364c
e0016d78:	e34e5003 	movt	r5, #57347	; 0xe003
e0016d7c:	e28dc034 	add	ip, sp, #52	; 0x34
e0016d80:	e1a0a001 	mov	sl, r1
e0016d84:	e595e000 	ldr	lr, [r5]
e0016d88:	e1a08000 	mov	r8, r0
e0016d8c:	e88c000c 	stm	ip, {r2, r3}
e0016d90:	e3a01000 	mov	r1, #0
e0016d94:	e89c000c 	ldm	ip, {r2, r3}
e0016d98:	e28d001c 	add	r0, sp, #28
e0016d9c:	e59e4008 	ldr	r4, [lr, #8]
e0016da0:	e59ec00c 	ldr	ip, [lr, #12]
e0016da4:	e59d90a8 	ldr	r9, [sp, #168]	; 0xa8
e0016da8:	e59db0ac 	ldr	fp, [sp, #172]	; 0xac
e0016dac:	e88d1010 	stm	sp, {r4, ip}
e0016db0:	ebfff01b 	bl	e0012e24 <lookupSlotForCNodeOp>
e0016db4:	e59d401c 	ldr	r4, [sp, #28]
e0016db8:	e3540000 	cmp	r4, #0
e0016dbc:	1a000068 	bne	e0016f64 <decodeCNodeInvocation+0x218>
e0016dc0:	e2483013 	sub	r3, r8, #19
e0016dc4:	e59d7020 	ldr	r7, [sp, #32]
e0016dc8:	e3530003 	cmp	r3, #3
e0016dcc:	9a00005c 	bls	e0016f44 <decodeCNodeInvocation+0x1f8>
e0016dd0:	e3580010 	cmp	r8, #16
e0016dd4:	0a0000a0 	beq	e001705c <decodeCNodeInvocation+0x310>
e0016dd8:	e3580011 	cmp	r8, #17
e0016ddc:	0a0000a9 	beq	e0017088 <decodeCNodeInvocation+0x33c>
e0016de0:	e3580018 	cmp	r8, #24
e0016de4:	0a00008a 	beq	e0017014 <decodeCNodeInvocation+0x2c8>
e0016de8:	e3580012 	cmp	r8, #18
e0016dec:	0a000074 	beq	e0016fc4 <decodeCNodeInvocation+0x278>
e0016df0:	e3580017 	cmp	r8, #23
e0016df4:	1a00005a 	bne	e0016f64 <decodeCNodeInvocation+0x218>
e0016df8:	e16f3f19 	clz	r3, r9
e0016dfc:	e35b0000 	cmp	fp, #0
e0016e00:	e1a032a3 	lsr	r3, r3, #5
e0016e04:	03a03001 	moveq	r3, #1
e0016e08:	e35a0007 	cmp	sl, #7
e0016e0c:	81a0a003 	movhi	sl, r3
e0016e10:	9383a001 	orrls	sl, r3, #1
e0016e14:	e35a0000 	cmp	sl, #0
e0016e18:	1a00004c 	bne	e0016f50 <decodeCNodeInvocation+0x204>
e0016e1c:	e5952000 	ldr	r2, [r5]
e0016e20:	e28d305c 	add	r3, sp, #92	; 0x5c
e0016e24:	e59be004 	ldr	lr, [fp, #4]
e0016e28:	e3a01001 	mov	r1, #1
e0016e2c:	e59b4000 	ldr	r4, [fp]
e0016e30:	e28d0064 	add	r0, sp, #100	; 0x64
e0016e34:	e596c01c 	ldr	ip, [r6, #28]
e0016e38:	e5968020 	ldr	r8, [r6, #32]
e0016e3c:	e592a010 	ldr	sl, [r2, #16]
e0016e40:	e5922014 	ldr	r2, [r2, #20]
e0016e44:	e58de060 	str	lr, [sp, #96]	; 0x60
e0016e48:	e599e004 	ldr	lr, [r9, #4]
e0016e4c:	e599b000 	ldr	fp, [r9]
e0016e50:	e58d405c 	str	r4, [sp, #92]	; 0x5c
e0016e54:	e58d2008 	str	r2, [sp, #8]
e0016e58:	e893000c 	ldm	r3, {r2, r3}
e0016e5c:	e58dc000 	str	ip, [sp]
e0016e60:	e58d8004 	str	r8, [sp, #4]
e0016e64:	e58de00c 	str	lr, [sp, #12]
e0016e68:	e5969014 	ldr	r9, [r6, #20]
e0016e6c:	e5966018 	ldr	r6, [r6, #24]
e0016e70:	ebffefeb 	bl	e0012e24 <lookupSlotForCNodeOp>
e0016e74:	e59d4064 	ldr	r4, [sp, #100]	; 0x64
e0016e78:	e3540000 	cmp	r4, #0
e0016e7c:	1a000038 	bne	e0016f64 <decodeCNodeInvocation+0x218>
e0016e80:	e59d200c 	ldr	r2, [sp, #12]
e0016e84:	e28d306c 	add	r3, sp, #108	; 0x6c
e0016e88:	e58db06c 	str	fp, [sp, #108]	; 0x6c
e0016e8c:	e3a01001 	mov	r1, #1
e0016e90:	e58d9004 	str	r9, [sp, #4]
e0016e94:	e28d0074 	add	r0, sp, #116	; 0x74
e0016e98:	e58d2070 	str	r2, [sp, #112]	; 0x70
e0016e9c:	e59d2008 	ldr	r2, [sp, #8]
e0016ea0:	e59db068 	ldr	fp, [sp, #104]	; 0x68
e0016ea4:	e58d2000 	str	r2, [sp]
e0016ea8:	e893000c 	ldm	r3, {r2, r3}
e0016eac:	ebffefdc 	bl	e0012e24 <lookupSlotForCNodeOp>
e0016eb0:	e59d4074 	ldr	r4, [sp, #116]	; 0x74
e0016eb4:	e3540000 	cmp	r4, #0
e0016eb8:	1a000029 	bne	e0016f64 <decodeCNodeInvocation+0x218>
e0016ebc:	e59d4078 	ldr	r4, [sp, #120]	; 0x78
e0016ec0:	e1540007 	cmp	r4, r7
e0016ec4:	115b0004 	cmpne	fp, r4
e0016ec8:	0a000028 	beq	e0016f70 <decodeCNodeInvocation+0x224>
e0016ecc:	e15b0007 	cmp	fp, r7
e0016ed0:	0a000006 	beq	e0016ef0 <decodeCNodeInvocation+0x1a4>
e0016ed4:	e5973000 	ldr	r3, [r7]
e0016ed8:	e203200e 	and	r2, r3, #14
e0016edc:	e352000e 	cmp	r2, #14
e0016ee0:	1203300f 	andne	r3, r3, #15
e0016ee4:	06ef3073 	uxtbeq	r3, r3
e0016ee8:	e3530000 	cmp	r3, #0
e0016eec:	1a00002e 	bne	e0016fac <decodeCNodeInvocation+0x260>
e0016ef0:	e59b2000 	ldr	r2, [fp]
e0016ef4:	e202300e 	and	r3, r2, #14
e0016ef8:	e353000e 	cmp	r3, #14
e0016efc:	1202200f 	andne	r2, r2, #15
e0016f00:	06ef2072 	uxtbeq	r2, r2
e0016f04:	e3520000 	cmp	r2, #0
e0016f08:	1a0000ee 	bne	e00172c8 <decodeCNodeInvocation+0x57c>
e0016f0c:	e1a03108 	lsl	r3, r8, #2
e0016f10:	e3090014 	movw	r0, #36884	; 0x9014
e0016f14:	e3091020 	movw	r1, #36896	; 0x9020
e0016f18:	e34e0002 	movt	r0, #57346	; 0xe002
e0016f1c:	e34e1002 	movt	r1, #57346	; 0xe002
e0016f20:	e6ef3073 	uxtb	r3, r3
e0016f24:	e3833001 	orr	r3, r3, #1
e0016f28:	e5802004 	str	r2, [r0, #4]
e0016f2c:	e5803000 	str	r3, [r0]
e0016f30:	e3a02001 	mov	r2, #1
e0016f34:	e3a03006 	mov	r3, #6
e0016f38:	e3a04003 	mov	r4, #3
e0016f3c:	e1c121f4 	strd	r2, [r1, #20]
e0016f40:	ea000007 	b	e0016f64 <decodeCNodeInvocation+0x218>
e0016f44:	e3590000 	cmp	r9, #0
e0016f48:	135a0003 	cmpne	sl, #3
e0016f4c:	8a00000f 	bhi	e0016f90 <decodeCNodeInvocation+0x244>
e0016f50:	e3093020 	movw	r3, #36896	; 0x9020
e0016f54:	e34e3002 	movt	r3, #57346	; 0xe002
e0016f58:	e3a04003 	mov	r4, #3
e0016f5c:	e3a02007 	mov	r2, #7
e0016f60:	e5832018 	str	r2, [r3, #24]
e0016f64:	e1a00004 	mov	r0, r4
e0016f68:	e28dd084 	add	sp, sp, #132	; 0x84
e0016f6c:	e8bd8ff0 	pop	{r4, r5, r6, r7, r8, r9, sl, fp, pc}
e0016f70:	e3a02003 	mov	r2, #3
e0016f74:	e3093020 	movw	r3, #36896	; 0x9020
e0016f78:	e34e3002 	movt	r3, #57346	; 0xe002
e0016f7c:	e1a04002 	mov	r4, r2
e0016f80:	e1a00004 	mov	r0, r4
e0016f84:	e5832018 	str	r2, [r3, #24]
e0016f88:	e28dd084 	add	sp, sp, #132	; 0x84
e0016f8c:	e8bd8ff0 	pop	{r4, r5, r6, r7, r8, r9, sl, fp, pc}
e0016f90:	e5973000 	ldr	r3, [r7]
e0016f94:	e203200e 	and	r2, r3, #14
e0016f98:	e352000e 	cmp	r2, #14
e0016f9c:	1203300f 	andne	r3, r3, #15
e0016fa0:	06ef3073 	uxtbeq	r3, r3
e0016fa4:	e3530000 	cmp	r3, #0
e0016fa8:	0a000042 	beq	e00170b8 <decodeCNodeInvocation+0x36c>
e0016fac:	e3093020 	movw	r3, #36896	; 0x9020
e0016fb0:	e34e3002 	movt	r3, #57346	; 0xe002
e0016fb4:	e3a02008 	mov	r2, #8
e0016fb8:	e3a04003 	mov	r4, #3
e0016fbc:	e5832018 	str	r2, [r3, #24]
e0016fc0:	eaffffe7 	b	e0016f64 <decodeCNodeInvocation+0x218>
e0016fc4:	e5976000 	ldr	r6, [r7]
e0016fc8:	e28d3024 	add	r3, sp, #36	; 0x24
e0016fcc:	e5977004 	ldr	r7, [r7, #4]
e0016fd0:	e1cd62f4 	strd	r6, [sp, #36]	; 0x24
e0016fd4:	e8930003 	ldm	r3, {r0, r1}
e0016fd8:	ebfff4b1 	bl	e00142a4 <hasCancelSendRights>
e0016fdc:	e3500000 	cmp	r0, #0
e0016fe0:	0affffe2 	beq	e0016f70 <decodeCNodeInvocation+0x224>
e0016fe4:	e5952000 	ldr	r2, [r5]
e0016fe8:	e5923050 	ldr	r3, [r2, #80]	; 0x50
e0016fec:	e1a00002 	mov	r0, r2
e0016ff0:	e3c3300f 	bic	r3, r3, #15
e0016ff4:	e3833002 	orr	r3, r3, #2
e0016ff8:	e5823050 	str	r3, [r2, #80]	; 0x50
e0016ffc:	ebfff044 	bl	e0013114 <setThreadState.part.166>
e0017000:	e1b01226 	lsrs	r1, r6, #4
e0017004:	0affffd6 	beq	e0016f64 <decodeCNodeInvocation+0x218>
e0017008:	e3c7000f 	bic	r0, r7, #15
e001700c:	ebfff271 	bl	e00139d8 <cancelBadgedSends>
e0017010:	eaffffd3 	b	e0016f64 <decodeCNodeInvocation+0x218>
e0017014:	e5973000 	ldr	r3, [r7]
e0017018:	e203200e 	and	r2, r3, #14
e001701c:	e352000e 	cmp	r2, #14
e0017020:	1203300f 	andne	r3, r3, #15
e0017024:	06ef3073 	uxtbeq	r3, r3
e0017028:	e3530000 	cmp	r3, #0
e001702c:	1affffde 	bne	e0016fac <decodeCNodeInvocation+0x260>
e0017030:	e5952000 	ldr	r2, [r5]
e0017034:	e5923050 	ldr	r3, [r2, #80]	; 0x50
e0017038:	e1a00002 	mov	r0, r2
e001703c:	e3c3300f 	bic	r3, r3, #15
e0017040:	e3833002 	orr	r3, r3, #2
e0017044:	e5823050 	str	r3, [r2, #80]	; 0x50
e0017048:	ebfff031 	bl	e0013114 <setThreadState.part.166>
e001704c:	e1a00007 	mov	r0, r7
e0017050:	e28dd084 	add	sp, sp, #132	; 0x84
e0017054:	e8bd4ff0 	pop	{r4, r5, r6, r7, r8, r9, sl, fp, lr}
e0017058:	eafff14c 	b	e0013590 <invokeCNodeSaveCaller>
e001705c:	e5952000 	ldr	r2, [r5]
e0017060:	e5923050 	ldr	r3, [r2, #80]	; 0x50
e0017064:	e1a00002 	mov	r0, r2
e0017068:	e3c3300f 	bic	r3, r3, #15
e001706c:	e3833002 	orr	r3, r3, #2
e0017070:	e5823050 	str	r3, [r2, #80]	; 0x50
e0017074:	ebfff026 	bl	e0013114 <setThreadState.part.166>
e0017078:	e1a00007 	mov	r0, r7
e001707c:	e28dd084 	add	sp, sp, #132	; 0x84
e0017080:	e8bd4ff0 	pop	{r4, r5, r6, r7, r8, r9, sl, fp, lr}
e0017084:	eaffff0d 	b	e0016cc0 <cteRevoke>
e0017088:	e5952000 	ldr	r2, [r5]
e001708c:	e5923050 	ldr	r3, [r2, #80]	; 0x50
e0017090:	e1a00002 	mov	r0, r2
e0017094:	e3c3300f 	bic	r3, r3, #15
e0017098:	e3833002 	orr	r3, r3, #2
e001709c:	e5823050 	str	r3, [r2, #80]	; 0x50
e00170a0:	ebfff01b 	bl	e0013114 <setThreadState.part.166>
e00170a4:	e1a00007 	mov	r0, r7
e00170a8:	e3a01001 	mov	r1, #1
e00170ac:	e28dd084 	add	sp, sp, #132	; 0x84
e00170b0:	e8bd4ff0 	pop	{r4, r5, r6, r7, r8, r9, sl, fp, lr}
e00170b4:	eafffe6b 	b	e0016a68 <cteDelete>
e00170b8:	e5952000 	ldr	r2, [r5]
e00170bc:	e28d303c 	add	r3, sp, #60	; 0x3c
e00170c0:	e5990000 	ldr	r0, [r9]
e00170c4:	e3a01001 	mov	r1, #1
e00170c8:	e599c004 	ldr	ip, [r9, #4]
e00170cc:	e592e010 	ldr	lr, [r2, #16]
e00170d0:	e5929014 	ldr	r9, [r2, #20]
e00170d4:	e58d003c 	str	r0, [sp, #60]	; 0x3c
e00170d8:	e28d0044 	add	r0, sp, #68	; 0x44
e00170dc:	e58de000 	str	lr, [sp]
e00170e0:	e58d9004 	str	r9, [sp, #4]
e00170e4:	e58dc040 	str	ip, [sp, #64]	; 0x40
e00170e8:	e893000c 	ldm	r3, {r2, r3}
e00170ec:	ebffef4c 	bl	e0012e24 <lookupSlotForCNodeOp>
e00170f0:	e59d4044 	ldr	r4, [sp, #68]	; 0x44
e00170f4:	e3540000 	cmp	r4, #0
e00170f8:	1affff99 	bne	e0016f64 <decodeCNodeInvocation+0x218>
e00170fc:	e59db048 	ldr	fp, [sp, #72]	; 0x48
e0017100:	e59b3000 	ldr	r3, [fp]
e0017104:	e203200e 	and	r2, r3, #14
e0017108:	e352000e 	cmp	r2, #14
e001710c:	1203100f 	andne	r1, r3, #15
e0017110:	06ef1073 	uxtbeq	r1, r3
e0017114:	e3510000 	cmp	r1, #0
e0017118:	1a00000d 	bne	e0017154 <decodeCNodeInvocation+0x408>
e001711c:	e1a03109 	lsl	r3, r9, #2
e0017120:	e3090014 	movw	r0, #36884	; 0x9014
e0017124:	e3092020 	movw	r2, #36896	; 0x9020
e0017128:	e34e0002 	movt	r0, #57346	; 0xe002
e001712c:	e34e2002 	movt	r2, #57346	; 0xe002
e0017130:	e6ef3073 	uxtb	r3, r3
e0017134:	e3a04001 	mov	r4, #1
e0017138:	e3833001 	orr	r3, r3, #1
e001713c:	e3a05006 	mov	r5, #6
e0017140:	e5801004 	str	r1, [r0, #4]
e0017144:	e1c241f4 	strd	r4, [r2, #20]
e0017148:	e3a04003 	mov	r4, #3
e001714c:	e5803000 	str	r3, [r0]
e0017150:	eaffff83 	b	e0016f64 <decodeCNodeInvocation+0x218>
e0017154:	e3580015 	cmp	r8, #21
e0017158:	0a000030 	beq	e0017220 <decodeCNodeInvocation+0x4d4>
e001715c:	e3580016 	cmp	r8, #22
e0017160:	0a000043 	beq	e0017274 <decodeCNodeInvocation+0x528>
e0017164:	e3580014 	cmp	r8, #20
e0017168:	0a000031 	beq	e0017234 <decodeCNodeInvocation+0x4e8>
e001716c:	e35a0004 	cmp	sl, #4
e0017170:	0affff76 	beq	e0016f50 <decodeCNodeInvocation+0x204>
e0017174:	e28d806c 	add	r8, sp, #108	; 0x6c
e0017178:	e5961014 	ldr	r1, [r6, #20]
e001717c:	e89b000c 	ldm	fp, {r2, r3}
e0017180:	e1a00008 	mov	r0, r8
e0017184:	ebfffb74 	bl	e0015f5c <maskCapRights>
e0017188:	e898000c 	ldm	r8, {r2, r3}
e001718c:	e1a0100b 	mov	r1, fp
e0017190:	e28d0074 	add	r0, sp, #116	; 0x74
e0017194:	ebfff696 	bl	e0014bf4 <deriveCap>
e0017198:	e59d6074 	ldr	r6, [sp, #116]	; 0x74
e001719c:	e3560000 	cmp	r6, #0
e00171a0:	11a04006 	movne	r4, r6
e00171a4:	1affff6e 	bne	e0016f64 <decodeCNodeInvocation+0x218>
e00171a8:	e28d3080 	add	r3, sp, #128	; 0x80
e00171ac:	e28d8064 	add	r8, sp, #100	; 0x64
e00171b0:	e9130003 	ldmdb	r3, {r0, r1}
e00171b4:	e59d3078 	ldr	r3, [sp, #120]	; 0x78
e00171b8:	e203200e 	and	r2, r3, #14
e00171bc:	e8880003 	stm	r8, {r0, r1}
e00171c0:	e352000e 	cmp	r2, #14
e00171c4:	1203200f 	andne	r2, r3, #15
e00171c8:	06ef2073 	uxtbeq	r2, r3
e00171cc:	e3520000 	cmp	r2, #0
e00171d0:	0affff66 	beq	e0016f70 <decodeCNodeInvocation+0x224>
e00171d4:	e5951000 	ldr	r1, [r5]
e00171d8:	e58d3008 	str	r3, [sp, #8]
e00171dc:	e5912050 	ldr	r2, [r1, #80]	; 0x50
e00171e0:	e1a00001 	mov	r0, r1
e00171e4:	e3c2200f 	bic	r2, r2, #15
e00171e8:	e3822002 	orr	r2, r2, #2
e00171ec:	e5812050 	str	r2, [r1, #80]	; 0x50
e00171f0:	ebffefc7 	bl	e0013114 <setThreadState.part.166>
e00171f4:	e59d3008 	ldr	r3, [sp, #8]
e00171f8:	e3560000 	cmp	r6, #0
e00171fc:	e58d3064 	str	r3, [sp, #100]	; 0x64
e0017200:	0a000029 	beq	e00172ac <decodeCNodeInvocation+0x560>
e0017204:	e8980003 	ldm	r8, {r0, r1}
e0017208:	e28dc04c 	add	ip, sp, #76	; 0x4c
e001720c:	e1a03007 	mov	r3, r7
e0017210:	e1a0200b 	mov	r2, fp
e0017214:	e88c0003 	stm	ip, {r0, r1}
e0017218:	ebfff0b6 	bl	e00134f8 <cteMove>
e001721c:	eaffff50 	b	e0016f64 <decodeCNodeInvocation+0x218>
e0017220:	e89b0003 	ldm	fp, {r0, r1}
e0017224:	e28d8064 	add	r8, sp, #100	; 0x64
e0017228:	e3a06001 	mov	r6, #1
e001722c:	e8880003 	stm	r8, {r0, r1}
e0017230:	eaffffe2 	b	e00171c0 <decodeCNodeInvocation+0x474>
e0017234:	e35a0005 	cmp	sl, #5
e0017238:	9affff44 	bls	e0016f50 <decodeCNodeInvocation+0x204>
e001723c:	e89b000c 	ldm	fp, {r2, r3}
e0017240:	e28d006c 	add	r0, sp, #108	; 0x6c
e0017244:	e5961014 	ldr	r1, [r6, #20]
e0017248:	e28d802c 	add	r8, sp, #44	; 0x2c
e001724c:	e5966018 	ldr	r6, [r6, #24]
e0017250:	ebfffb41 	bl	e0015f5c <maskCapRights>
e0017254:	e59dc070 	ldr	ip, [sp, #112]	; 0x70
e0017258:	e1a00008 	mov	r0, r8
e001725c:	e59d306c 	ldr	r3, [sp, #108]	; 0x6c
e0017260:	e3a01000 	mov	r1, #0
e0017264:	e1a02006 	mov	r2, r6
e0017268:	e58dc000 	str	ip, [sp]
e001726c:	ebfffb02 	bl	e0015e7c <updateCapData>
e0017270:	eaffffc4 	b	e0017188 <decodeCNodeInvocation+0x43c>
e0017274:	e35a0004 	cmp	sl, #4
e0017278:	0affff34 	beq	e0016f50 <decodeCNodeInvocation+0x204>
e001727c:	e59b3004 	ldr	r3, [fp, #4]
e0017280:	e28d8064 	add	r8, sp, #100	; 0x64
e0017284:	e5962014 	ldr	r2, [r6, #20]
e0017288:	e3a01001 	mov	r1, #1
e001728c:	e1a00008 	mov	r0, r8
e0017290:	e1a06001 	mov	r6, r1
e0017294:	e58d3000 	str	r3, [sp]
e0017298:	e59b3000 	ldr	r3, [fp]
e001729c:	ebfffaf6 	bl	e0015e7c <updateCapData>
e00172a0:	e59d3064 	ldr	r3, [sp, #100]	; 0x64
e00172a4:	e203200e 	and	r2, r3, #14
e00172a8:	eaffffc4 	b	e00171c0 <decodeCNodeInvocation+0x474>
e00172ac:	e8980003 	ldm	r8, {r0, r1}
e00172b0:	e28dc054 	add	ip, sp, #84	; 0x54
e00172b4:	e1a03007 	mov	r3, r7
e00172b8:	e1a0200b 	mov	r2, fp
e00172bc:	e88c0003 	stm	ip, {r0, r1}
e00172c0:	ebfff010 	bl	e0013308 <cteInsert>
e00172c4:	eaffff26 	b	e0016f64 <decodeCNodeInvocation+0x218>
e00172c8:	e5942000 	ldr	r2, [r4]
e00172cc:	e202300e 	and	r3, r2, #14
e00172d0:	e353000e 	cmp	r3, #14
e00172d4:	1202200f 	andne	r2, r2, #15
e00172d8:	06ef2072 	uxtbeq	r2, r2
e00172dc:	e3520000 	cmp	r2, #0
e00172e0:	1a00000d 	bne	e001731c <decodeCNodeInvocation+0x5d0>
e00172e4:	e1a03109 	lsl	r3, r9, #2
e00172e8:	e3090014 	movw	r0, #36884	; 0x9014
e00172ec:	e3091020 	movw	r1, #36896	; 0x9020
e00172f0:	e34e0002 	movt	r0, #57346	; 0xe002
e00172f4:	e34e1002 	movt	r1, #57346	; 0xe002
e00172f8:	e6ef3073 	uxtb	r3, r3
e00172fc:	e3833001 	orr	r3, r3, #1
e0017300:	e5802004 	str	r2, [r0, #4]
e0017304:	e5803000 	str	r3, [r0]
e0017308:	e3a04003 	mov	r4, #3
e001730c:	e3a03006 	mov	r3, #6
e0017310:	e5812014 	str	r2, [r1, #20]
e0017314:	e5813018 	str	r3, [r1, #24]
e0017318:	eaffff11 	b	e0016f64 <decodeCNodeInvocation+0x218>
e001731c:	e59b3004 	ldr	r3, [fp, #4]
e0017320:	e28d804c 	add	r8, sp, #76	; 0x4c
e0017324:	e1a02006 	mov	r2, r6
e0017328:	e3a01001 	mov	r1, #1
e001732c:	e1a00008 	mov	r0, r8
e0017330:	e28d6054 	add	r6, sp, #84	; 0x54
e0017334:	e58d3000 	str	r3, [sp]
e0017338:	e59b3000 	ldr	r3, [fp]
e001733c:	ebffface 	bl	e0015e7c <updateCapData>
e0017340:	e5943004 	ldr	r3, [r4, #4]
e0017344:	e1a0200a 	mov	r2, sl
e0017348:	e1a00006 	mov	r0, r6
e001734c:	e3a01001 	mov	r1, #1
e0017350:	e58d3000 	str	r3, [sp]
e0017354:	e5943000 	ldr	r3, [r4]
e0017358:	ebfffac7 	bl	e0015e7c <updateCapData>
e001735c:	e59d304c 	ldr	r3, [sp, #76]	; 0x4c
e0017360:	e203200e 	and	r2, r3, #14
e0017364:	e352000e 	cmp	r2, #14
e0017368:	1203300f 	andne	r3, r3, #15
e001736c:	06ef3073 	uxtbeq	r3, r3
e0017370:	e3530000 	cmp	r3, #0
e0017374:	0afffefd 	beq	e0016f70 <decodeCNodeInvocation+0x224>
e0017378:	e59d3054 	ldr	r3, [sp, #84]	; 0x54
e001737c:	e203200e 	and	r2, r3, #14
e0017380:	e352000e 	cmp	r2, #14
e0017384:	1203300f 	andne	r3, r3, #15
e0017388:	06ef3073 	uxtbeq	r3, r3
e001738c:	e3530000 	cmp	r3, #0
e0017390:	0afffef6 	beq	e0016f70 <decodeCNodeInvocation+0x224>
e0017394:	e5952000 	ldr	r2, [r5]
e0017398:	e5923050 	ldr	r3, [r2, #80]	; 0x50
e001739c:	e1a00002 	mov	r0, r2
e00173a0:	e3c3300f 	bic	r3, r3, #15
e00173a4:	e3833002 	orr	r3, r3, #2
e00173a8:	e5823050 	str	r3, [r2, #80]	; 0x50
e00173ac:	ebffef58 	bl	e0013114 <setThreadState.part.166>
e00173b0:	e58d70b0 	str	r7, [sp, #176]	; 0xb0
e00173b4:	e58d40ac 	str	r4, [sp, #172]	; 0xac
e00173b8:	e58db0a8 	str	fp, [sp, #168]	; 0xa8
e00173bc:	e896000c 	ldm	r6, {r2, r3}
e00173c0:	e8980003 	ldm	r8, {r0, r1}
e00173c4:	e28dd084 	add	sp, sp, #132	; 0x84
e00173c8:	e8bd4ff0 	pop	{r4, r5, r6, r7, r8, r9, sl, fp, lr}
e00173cc:	eafff0bf 	b	e00136d0 <invokeCNodeRotate>

e00173d0 <cteDeleteOne>:
e00173d0:	e5903000 	ldr	r3, [r0]
e00173d4:	e203200e 	and	r2, r3, #14
e00173d8:	e352000e 	cmp	r2, #14
e00173dc:	1203300f 	andne	r3, r3, #15
e00173e0:	06ef3073 	uxtbeq	r3, r3
e00173e4:	e3530000 	cmp	r3, #0
e00173e8:	012fff1e 	bxeq	lr
e00173ec:	e92d4010 	push	{r4, lr}
e00173f0:	e24dd020 	sub	sp, sp, #32
e00173f4:	e1a04000 	mov	r4, r0
e00173f8:	ebfff651 	bl	e0014d44 <isFinalCapability>
e00173fc:	e8940006 	ldm	r4, {r1, r2}
e0017400:	e3a03001 	mov	r3, #1
e0017404:	e58d3000 	str	r3, [sp]
e0017408:	e1a03000 	mov	r3, r0
e001740c:	e28d0010 	add	r0, sp, #16
e0017410:	ebfffcfe 	bl	e0016810 <finaliseCap>
e0017414:	e28d3008 	add	r3, sp, #8
e0017418:	e3a02000 	mov	r2, #0
e001741c:	e1a00004 	mov	r0, r4
e0017420:	e58d2008 	str	r2, [sp, #8]
e0017424:	e58d200c 	str	r2, [sp, #12]
e0017428:	e8930006 	ldm	r3, {r1, r2}
e001742c:	e28dd020 	add	sp, sp, #32
e0017430:	e8bd4010 	pop	{r4, lr}
e0017434:	eaffe53b 	b	e0010928 <emptySlot>

e0017438 <cancelIPC>:
e0017438:	e5901050 	ldr	r1, [r0, #80]	; 0x50
e001743c:	e201300f 	and	r3, r1, #15
e0017440:	e2433003 	sub	r3, r3, #3
e0017444:	e3530003 	cmp	r3, #3
e0017448:	979ff103 	ldrls	pc, [pc, r3, lsl #2]
e001744c:	ea00002f 	b	e0017510 <cancelIPC+0xd8>
e0017450:	e001748c 	.word	0xe001748c
e0017454:	e001748c 	.word	0xe001748c
e0017458:	e0017468 	.word	0xe0017468
e001745c:	e0017460 	.word	0xe0017460
e0017460:	e3c1100f 	bic	r1, r1, #15
e0017464:	eafff337 	b	e0014148 <cancelSignal>
e0017468:	e3c03f7f 	bic	r3, r0, #508	; 0x1fc
e001746c:	e3a02000 	mov	r2, #0
e0017470:	e3c33003 	bic	r3, r3, #3
e0017474:	e5802060 	str	r2, [r0, #96]	; 0x60
e0017478:	e5802064 	str	r2, [r0, #100]	; 0x64
e001747c:	e593002c 	ldr	r0, [r3, #44]	; 0x2c
e0017480:	e3d00007 	bics	r0, r0, #7
e0017484:	012fff1e 	bxeq	lr
e0017488:	eaffffd0 	b	e00173d0 <cteDeleteOne>
e001748c:	e5903094 	ldr	r3, [r0, #148]	; 0x94
e0017490:	e3c1100f 	bic	r1, r1, #15
e0017494:	e92d4010 	push	{r4, lr}
e0017498:	e3530000 	cmp	r3, #0
e001749c:	e5904090 	ldr	r4, [r0, #144]	; 0x90
e00174a0:	e8911004 	ldm	r1, {r2, ip}
e00174a4:	15834090 	strne	r4, [r3, #144]	; 0x90
e00174a8:	13cce00f 	bicne	lr, ip, #15
e00174ac:	15904090 	ldrne	r4, [r0, #144]	; 0x90
e00174b0:	01a0e004 	moveq	lr, r4
e00174b4:	e20cc00f 	and	ip, ip, #15
e00174b8:	e3540000 	cmp	r4, #0
e00174bc:	15843094 	strne	r3, [r4, #148]	; 0x94
e00174c0:	13c2300f 	bicne	r3, r2, #15
e00174c4:	e3c3300f 	bic	r3, r3, #15
e00174c8:	e202200f 	and	r2, r2, #15
e00174cc:	e1823003 	orr	r3, r2, r3
e00174d0:	e303264c 	movw	r2, #13900	; 0x364c
e00174d4:	e34e2003 	movt	r2, #57347	; 0xe003
e00174d8:	e35e0000 	cmp	lr, #0
e00174dc:	e3cee00f 	bic	lr, lr, #15
e00174e0:	03c33003 	biceq	r3, r3, #3
e00174e4:	e5922000 	ldr	r2, [r2]
e00174e8:	e18cc00e 	orr	ip, ip, lr
e00174ec:	e5813000 	str	r3, [r1]
e00174f0:	e581c004 	str	ip, [r1, #4]
e00174f4:	e1500002 	cmp	r0, r2
e00174f8:	e5903050 	ldr	r3, [r0, #80]	; 0x50
e00174fc:	e3c3300f 	bic	r3, r3, #15
e0017500:	e5803050 	str	r3, [r0, #80]	; 0x50
e0017504:	18bd8010 	popne	{r4, pc}
e0017508:	e8bd4010 	pop	{r4, lr}
e001750c:	eaffef00 	b	e0013114 <setThreadState.part.166>
e0017510:	e12fff1e 	bx	lr

e0017514 <restart>:
e0017514:	e5903050 	ldr	r3, [r0, #80]	; 0x50
e0017518:	e203300f 	and	r3, r3, #15
e001751c:	e3530006 	cmp	r3, #6
e0017520:	812fff1e 	bxhi	lr
e0017524:	e3a01001 	mov	r1, #1
e0017528:	e1a03311 	lsl	r3, r1, r3
e001752c:	e3130079 	tst	r3, #121	; 0x79
e0017530:	012fff1e 	bxeq	lr
e0017534:	e92d4010 	push	{r4, lr}
e0017538:	e1a04000 	mov	r4, r0
e001753c:	ebffffbd 	bl	e0017438 <cancelIPC>
e0017540:	e3c42f7f 	bic	r2, r4, #508	; 0x1fc
e0017544:	e3c22003 	bic	r2, r2, #3
e0017548:	e2820020 	add	r0, r2, #32
e001754c:	e5923020 	ldr	r3, [r2, #32]
e0017550:	e203100e 	and	r1, r3, #14
e0017554:	e351000e 	cmp	r1, #14
e0017558:	1203300f 	andne	r3, r3, #15
e001755c:	06ef3073 	uxtbeq	r3, r3
e0017560:	e3530000 	cmp	r3, #0
e0017564:	1a000006 	bne	e0017584 <restart+0x70>
e0017568:	e3c4103f 	bic	r1, r4, #63	; 0x3f
e001756c:	e3a0c003 	mov	ip, #3
e0017570:	e3811038 	orr	r1, r1, #56	; 0x38
e0017574:	e5821020 	str	r1, [r2, #32]
e0017578:	e5803004 	str	r3, [r0, #4]
e001757c:	e5803008 	str	r3, [r0, #8]
e0017580:	e580c00c 	str	ip, [r0, #12]
e0017584:	e303264c 	movw	r2, #13900	; 0x364c
e0017588:	e34e2003 	movt	r2, #57347	; 0xe003
e001758c:	e5943050 	ldr	r3, [r4, #80]	; 0x50
e0017590:	e5922000 	ldr	r2, [r2]
e0017594:	e3c3300f 	bic	r3, r3, #15
e0017598:	e1540002 	cmp	r4, r2
e001759c:	e3833002 	orr	r3, r3, #2
e00175a0:	e5843050 	str	r3, [r4, #80]	; 0x50
e00175a4:	0a000008 	beq	e00175cc <restart+0xb8>
e00175a8:	e5943054 	ldr	r3, [r4, #84]	; 0x54
e00175ac:	e3130001 	tst	r3, #1
e00175b0:	0a000002 	beq	e00175c0 <restart+0xac>
e00175b4:	e1a00004 	mov	r0, r4
e00175b8:	e8bd4010 	pop	{r4, lr}
e00175bc:	eaffef0a 	b	e00131ec <possibleSwitchTo>
e00175c0:	e1a00004 	mov	r0, r4
e00175c4:	ebffe483 	bl	e00107d8 <tcbSchedEnqueue.part.164>
e00175c8:	eafffff9 	b	e00175b4 <restart+0xa0>
e00175cc:	e1a00004 	mov	r0, r4
e00175d0:	ebffeecf 	bl	e0013114 <setThreadState.part.166>
e00175d4:	eafffff3 	b	e00175a8 <restart+0x94>

e00175d8 <sendSignal>:
e00175d8:	e5903000 	ldr	r3, [r0]
e00175dc:	e92d4030 	push	{r4, r5, lr}
e00175e0:	e2032003 	and	r2, r3, #3
e00175e4:	e3520001 	cmp	r2, #1
e00175e8:	e24dd00c 	sub	sp, sp, #12
e00175ec:	0a000013 	beq	e0017640 <sendSignal+0x68>
e00175f0:	3a000005 	bcc	e001760c <sendSignal+0x34>
e00175f4:	e3520002 	cmp	r2, #2
e00175f8:	05903008 	ldreq	r3, [r0, #8]
e00175fc:	01831001 	orreq	r1, r3, r1
e0017600:	05801008 	streq	r1, [r0, #8]
e0017604:	e28dd00c 	add	sp, sp, #12
e0017608:	e8bd8030 	pop	{r4, r5, pc}
e001760c:	e590200c 	ldr	r2, [r0, #12]
e0017610:	e3d2400f 	bics	r4, r2, #15
e0017614:	0a000003 	beq	e0017628 <sendSignal+0x50>
e0017618:	e5942050 	ldr	r2, [r4, #80]	; 0x50
e001761c:	e202200f 	and	r2, r2, #15
e0017620:	e3520003 	cmp	r2, #3
e0017624:	0a000029 	beq	e00176d0 <sendSignal+0xf8>
e0017628:	e3c33003 	bic	r3, r3, #3
e001762c:	e5801008 	str	r1, [r0, #8]
e0017630:	e3833002 	orr	r3, r3, #2
e0017634:	e5803000 	str	r3, [r0]
e0017638:	e28dd00c 	add	sp, sp, #12
e001763c:	e8bd8030 	pop	{r4, r5, pc}
e0017640:	e590c004 	ldr	ip, [r0, #4]
e0017644:	e3cc400f 	bic	r4, ip, #15
e0017648:	e20cc00f 	and	ip, ip, #15
e001764c:	e5942094 	ldr	r2, [r4, #148]	; 0x94
e0017650:	e594e090 	ldr	lr, [r4, #144]	; 0x90
e0017654:	e3520000 	cmp	r2, #0
e0017658:	1582e090 	strne	lr, [r2, #144]	; 0x90
e001765c:	01a0500e 	moveq	r5, lr
e0017660:	15945090 	ldrne	r5, [r4, #144]	; 0x90
e0017664:	11a0e004 	movne	lr, r4
e0017668:	e3550000 	cmp	r5, #0
e001766c:	15852094 	strne	r2, [r5, #148]	; 0x94
e0017670:	13c3200f 	bicne	r2, r3, #15
e0017674:	e3c2200f 	bic	r2, r2, #15
e0017678:	e203300f 	and	r3, r3, #15
e001767c:	e1833002 	orr	r3, r3, r2
e0017680:	e303264c 	movw	r2, #13900	; 0x364c
e0017684:	e34e2003 	movt	r2, #57347	; 0xe003
e0017688:	e35e0000 	cmp	lr, #0
e001768c:	e3cee00f 	bic	lr, lr, #15
e0017690:	03c33003 	biceq	r3, r3, #3
e0017694:	e5922000 	ldr	r2, [r2]
e0017698:	e18cc00e 	orr	ip, ip, lr
e001769c:	e5803000 	str	r3, [r0]
e00176a0:	e580c004 	str	ip, [r0, #4]
e00176a4:	e1540002 	cmp	r4, r2
e00176a8:	e5943050 	ldr	r3, [r4, #80]	; 0x50
e00176ac:	e3c3300f 	bic	r3, r3, #15
e00176b0:	e3833001 	orr	r3, r3, #1
e00176b4:	e5843050 	str	r3, [r4, #80]	; 0x50
e00176b8:	0a000015 	beq	e0017714 <sendSignal+0x13c>
e00176bc:	e5841000 	str	r1, [r4]
e00176c0:	e1a00004 	mov	r0, r4
e00176c4:	e28dd00c 	add	sp, sp, #12
e00176c8:	e8bd4030 	pop	{r4, r5, lr}
e00176cc:	eaffeec6 	b	e00131ec <possibleSwitchTo>
e00176d0:	e1a00004 	mov	r0, r4
e00176d4:	e58d1004 	str	r1, [sp, #4]
e00176d8:	ebffff56 	bl	e0017438 <cancelIPC>
e00176dc:	e303264c 	movw	r2, #13900	; 0x364c
e00176e0:	e34e2003 	movt	r2, #57347	; 0xe003
e00176e4:	e5943050 	ldr	r3, [r4, #80]	; 0x50
e00176e8:	e59d1004 	ldr	r1, [sp, #4]
e00176ec:	e5922000 	ldr	r2, [r2]
e00176f0:	e3c3300f 	bic	r3, r3, #15
e00176f4:	e3833001 	orr	r3, r3, #1
e00176f8:	e5843050 	str	r3, [r4, #80]	; 0x50
e00176fc:	e1540002 	cmp	r4, r2
e0017700:	1affffed 	bne	e00176bc <sendSignal+0xe4>
e0017704:	e1a00004 	mov	r0, r4
e0017708:	ebffee81 	bl	e0013114 <setThreadState.part.166>
e001770c:	e59d1004 	ldr	r1, [sp, #4]
e0017710:	eaffffe9 	b	e00176bc <sendSignal+0xe4>
e0017714:	e58d1004 	str	r1, [sp, #4]
e0017718:	eafffff9 	b	e0017704 <sendSignal+0x12c>

e001771c <handleInterrupt>:
e001771c:	e350009f 	cmp	r0, #159	; 0x9f
e0017720:	8a000046 	bhi	e0017840 <handleInterrupt+0x124>
e0017724:	e3093048 	movw	r3, #36936	; 0x9048
e0017728:	e34e3002 	movt	r3, #57346	; 0xe002
e001772c:	e92d4010 	push	{r4, lr}
e0017730:	e1a04000 	mov	r4, r0
e0017734:	e7933100 	ldr	r3, [r3, r0, lsl #2]
e0017738:	e3530003 	cmp	r3, #3
e001773c:	979ff103 	ldrls	pc, [pc, r3, lsl #2]
e0017740:	ea00005a 	b	e00178b0 <handleInterrupt+0x194>
e0017744:	e0017818 	.word	0xe0017818
e0017748:	e00177d8 	.word	0xe00177d8
e001774c:	e0017754 	.word	0xe0017754
e0017750:	e0017768 	.word	0xe0017768
e0017754:	ebffeec2 	bl	e0013264 <timerTick>
e0017758:	e30236ff 	movw	r3, #9983	; 0x26ff
e001775c:	e34f3ff0 	movt	r3, #65520	; 0xfff0
e0017760:	e3a02001 	mov	r2, #1
e0017764:	e50320f3 	str	r2, [r3, #-243]	; 0xffffff0d
e0017768:	e1a02224 	lsr	r2, r4, #4
e001776c:	e30110ff 	movw	r1, #4351	; 0x10ff
e0017770:	e2822c03 	add	r2, r2, #768	; 0x300
e0017774:	e34f1ff0 	movt	r1, #65520	; 0xfff0
e0017778:	e204300f 	and	r3, r4, #15
e001777c:	e0812102 	add	r2, r1, r2, lsl #2
e0017780:	e1a03083 	lsl	r3, r3, #1
e0017784:	e51220ff 	ldr	r2, [r2, #-255]	; 0xffffff01
e0017788:	e2833001 	add	r3, r3, #1
e001778c:	e1a03332 	lsr	r3, r2, r3
e0017790:	e3130001 	tst	r3, #1
e0017794:	0a000006 	beq	e00177b4 <handleInterrupt+0x98>
e0017798:	e1a032a4 	lsr	r3, r4, #5
e001779c:	e3a00001 	mov	r0, #1
e00177a0:	e28330a0 	add	r3, r3, #160	; 0xa0
e00177a4:	e204401f 	and	r4, r4, #31
e00177a8:	e1a04410 	lsl	r4, r0, r4
e00177ac:	e0811103 	add	r1, r1, r3, lsl #2
e00177b0:	e50140ff 	str	r4, [r1, #-255]	; 0xffffff01
e00177b4:	e30b34b8 	movw	r3, #46264	; 0xb4b8
e00177b8:	e34e3001 	movt	r3, #57345	; 0xe001
e00177bc:	e30221ff 	movw	r2, #8703	; 0x21ff
e00177c0:	e34f2ff0 	movt	r2, #65520	; 0xfff0
e00177c4:	e5930000 	ldr	r0, [r3]
e00177c8:	e30013ff 	movw	r1, #1023	; 0x3ff
e00177cc:	e50200ef 	str	r0, [r2, #-239]	; 0xffffff11
e00177d0:	e5831000 	str	r1, [r3]
e00177d4:	e8bd8010 	pop	{r4, pc}
e00177d8:	e3023000 	movw	r3, #8192	; 0x2000
e00177dc:	e34e3003 	movt	r3, #57347	; 0xe003
e00177e0:	e0832200 	add	r2, r3, r0, lsl #4
e00177e4:	e7930200 	ldr	r0, [r3, r0, lsl #4]
e00177e8:	e200300e 	and	r3, r0, #14
e00177ec:	e353000e 	cmp	r3, #14
e00177f0:	1200300f 	andne	r3, r0, #15
e00177f4:	06ef3070 	uxtbeq	r3, r0
e00177f8:	e3530006 	cmp	r3, #6
e00177fc:	1a000005 	bne	e0017818 <handleInterrupt+0xfc>
e0017800:	e5921004 	ldr	r1, [r2, #4]
e0017804:	e3110001 	tst	r1, #1
e0017808:	0a000002 	beq	e0017818 <handleInterrupt+0xfc>
e001780c:	e1a01221 	lsr	r1, r1, #4
e0017810:	e3c0000f 	bic	r0, r0, #15
e0017814:	ebffff6f 	bl	e00175d8 <sendSignal>
e0017818:	e1a032a4 	lsr	r3, r4, #5
e001781c:	e301227f 	movw	r2, #4735	; 0x127f
e0017820:	e34f2ff0 	movt	r2, #65520	; 0xfff0
e0017824:	e204001f 	and	r0, r4, #31
e0017828:	e1a03103 	lsl	r3, r3, #2
e001782c:	e3a01001 	mov	r1, #1
e0017830:	e0832002 	add	r2, r3, r2
e0017834:	e1a03011 	lsl	r3, r1, r0
e0017838:	e50230ff 	str	r3, [r2, #-255]	; 0xffffff01
e001783c:	eaffffc9 	b	e0017768 <handleInterrupt+0x4c>
e0017840:	e1a032a0 	lsr	r3, r0, #5
e0017844:	e1a01220 	lsr	r1, r0, #4
e0017848:	e3012cff 	movw	r2, #7423	; 0x1cff
e001784c:	e34f2ff0 	movt	r2, #65520	; 0xfff0
e0017850:	e1a01101 	lsl	r1, r1, #2
e0017854:	e1a03103 	lsl	r3, r3, #2
e0017858:	e2433aff 	sub	r3, r3, #1044480	; 0xff000
e001785c:	e0812002 	add	r2, r1, r2
e0017860:	e200c01f 	and	ip, r0, #31
e0017864:	e3a01001 	mov	r1, #1
e0017868:	e200000f 	and	r0, r0, #15
e001786c:	e1a01c11 	lsl	r1, r1, ip
e0017870:	e5831180 	str	r1, [r3, #384]	; 0x180
e0017874:	e51220ff 	ldr	r2, [r2, #-255]	; 0xffffff01
e0017878:	e1a00080 	lsl	r0, r0, #1
e001787c:	e2800001 	add	r0, r0, #1
e0017880:	e1a00032 	lsr	r0, r2, r0
e0017884:	e30221ff 	movw	r2, #8703	; 0x21ff
e0017888:	e3100001 	tst	r0, #1
e001788c:	15831280 	strne	r1, [r3, #640]	; 0x280
e0017890:	e30b34b8 	movw	r3, #46264	; 0xb4b8
e0017894:	e34e3001 	movt	r3, #57345	; 0xe001
e0017898:	e34f2ff0 	movt	r2, #65520	; 0xfff0
e001789c:	e30013ff 	movw	r1, #1023	; 0x3ff
e00178a0:	e5930000 	ldr	r0, [r3]
e00178a4:	e50200ef 	str	r0, [r2, #-239]	; 0xffffff11
e00178a8:	e5831000 	str	r1, [r3]
e00178ac:	e12fff1e 	bx	lr
e00178b0:	ebffe461 	bl	e0010a3c <halt>

e00178b4 <handleInterruptEntry>:
e00178b4:	e30b34b8 	movw	r3, #46264	; 0xb4b8
e00178b8:	e34e3001 	movt	r3, #57345	; 0xe001
e00178bc:	e92d4010 	push	{r4, lr}
e00178c0:	e5930000 	ldr	r0, [r3]
e00178c4:	e7e90050 	ubfx	r0, r0, #0, #10
e00178c8:	e3500fff 	cmp	r0, #1020	; 0x3fc
e00178cc:	3a00000a 	bcc	e00178fc <handleInterruptEntry+0x48>
e00178d0:	e30221ff 	movw	r2, #8703	; 0x21ff
e00178d4:	e34f2ff0 	movt	r2, #65520	; 0xfff0
e00178d8:	e51220f3 	ldr	r2, [r2, #-243]	; 0xffffff0d
e00178dc:	e7e90052 	ubfx	r0, r2, #0, #10
e00178e0:	e3500fff 	cmp	r0, #1020	; 0x3fc
e00178e4:	e5832000 	str	r2, [r3]
e00178e8:	3a000003 	bcc	e00178fc <handleInterruptEntry+0x48>
e00178ec:	ebfffb2d 	bl	e00165a8 <schedule>
e00178f0:	ebffee29 	bl	e001319c <activateThread>
e00178f4:	e3a00000 	mov	r0, #0
e00178f8:	e8bd8010 	pop	{r4, pc}
e00178fc:	e5933004 	ldr	r3, [r3, #4]
e0017900:	e1530000 	cmp	r3, r0
e0017904:	0afffff8 	beq	e00178ec <handleInterruptEntry+0x38>
e0017908:	ebffff83 	bl	e001771c <handleInterrupt>
e001790c:	eafffff6 	b	e00178ec <handleInterruptEntry+0x38>

e0017910 <performInvocation_Notification>:
e0017910:	e92d4010 	push	{r4, lr}
e0017914:	ebffff2f 	bl	e00175d8 <sendSignal>
e0017918:	e3a00000 	mov	r0, #0
e001791c:	e8bd8010 	pop	{r4, pc}

e0017920 <invokeIRQHandler_SetIRQHandler>:
e0017920:	e302c000 	movw	ip, #8192	; 0x2000
e0017924:	e34ec003 	movt	ip, #57347	; 0xe003
e0017928:	e92d4070 	push	{r4, r5, r6, lr}
e001792c:	e08c4200 	add	r4, ip, r0, lsl #4
e0017930:	e24dd008 	sub	sp, sp, #8
e0017934:	e1a06003 	mov	r6, r3
e0017938:	e1a00004 	mov	r0, r4
e001793c:	e1a0500d 	mov	r5, sp
e0017940:	e8850006 	stm	r5, {r1, r2}
e0017944:	ebfffea1 	bl	e00173d0 <cteDeleteOne>
e0017948:	e1a03004 	mov	r3, r4
e001794c:	e1a02006 	mov	r2, r6
e0017950:	e8950003 	ldm	r5, {r0, r1}
e0017954:	e28dd008 	add	sp, sp, #8
e0017958:	e8bd4070 	pop	{r4, r5, r6, lr}
e001795c:	eaffee69 	b	e0013308 <cteInsert>

e0017960 <invokeIRQHandler_ClearIRQHandler>:
e0017960:	e3023000 	movw	r3, #8192	; 0x2000
e0017964:	e34e3003 	movt	r3, #57347	; 0xe003
e0017968:	e0830200 	add	r0, r3, r0, lsl #4
e001796c:	eafffe97 	b	e00173d0 <cteDeleteOne>

e0017970 <deletingIRQHandler>:
e0017970:	eafffffa 	b	e0017960 <invokeIRQHandler_ClearIRQHandler>

e0017974 <decodeIRQHandlerInvocation>:
e0017974:	e24dd008 	sub	sp, sp, #8
e0017978:	e350001b 	cmp	r0, #27
e001797c:	e92d40f0 	push	{r4, r5, r6, r7, lr}
e0017980:	e24dd00c 	sub	sp, sp, #12
e0017984:	e1a04001 	mov	r4, r1
e0017988:	e28d101c 	add	r1, sp, #28
e001798c:	e981000c 	stmib	r1, {r2, r3}
e0017990:	0a000035 	beq	e0017a6c <decodeIRQHandlerInvocation+0xf8>
e0017994:	e350001c 	cmp	r0, #28
e0017998:	0a000021 	beq	e0017a24 <decodeIRQHandlerInvocation+0xb0>
e001799c:	e350001a 	cmp	r0, #26
e00179a0:	0a000008 	beq	e00179c8 <decodeIRQHandlerInvocation+0x54>
e00179a4:	e3a02003 	mov	r2, #3
e00179a8:	e3093020 	movw	r3, #36896	; 0x9020
e00179ac:	e34e3002 	movt	r3, #57346	; 0xe002
e00179b0:	e1a00002 	mov	r0, r2
e00179b4:	e5832018 	str	r2, [r3, #24]
e00179b8:	e28dd00c 	add	sp, sp, #12
e00179bc:	e8bd40f0 	pop	{r4, r5, r6, r7, lr}
e00179c0:	e28dd008 	add	sp, sp, #8
e00179c4:	e12fff1e 	bx	lr
e00179c8:	e303364c 	movw	r3, #13900	; 0x364c
e00179cc:	e34e3003 	movt	r3, #57347	; 0xe003
e00179d0:	e5932000 	ldr	r2, [r3]
e00179d4:	e5923050 	ldr	r3, [r2, #80]	; 0x50
e00179d8:	e1a00002 	mov	r0, r2
e00179dc:	e3c3300f 	bic	r3, r3, #15
e00179e0:	e3833002 	orr	r3, r3, #2
e00179e4:	e5823050 	str	r3, [r2, #80]	; 0x50
e00179e8:	ebffedc9 	bl	e0013114 <setThreadState.part.166>
e00179ec:	e1a002a4 	lsr	r0, r4, #5
e00179f0:	e30121ff 	movw	r2, #4607	; 0x11ff
e00179f4:	e34f2ff0 	movt	r2, #65520	; 0xfff0
e00179f8:	e1a00100 	lsl	r0, r0, #2
e00179fc:	e3a01001 	mov	r1, #1
e0017a00:	e0802002 	add	r2, r0, r2
e0017a04:	e204401f 	and	r4, r4, #31
e0017a08:	e1a04411 	lsl	r4, r1, r4
e0017a0c:	e3a00000 	mov	r0, #0
e0017a10:	e50240ff 	str	r4, [r2, #-255]	; 0xffffff01
e0017a14:	e28dd00c 	add	sp, sp, #12
e0017a18:	e8bd40f0 	pop	{r4, r5, r6, r7, lr}
e0017a1c:	e28dd008 	add	sp, sp, #8
e0017a20:	e12fff1e 	bx	lr
e0017a24:	e303364c 	movw	r3, #13900	; 0x364c
e0017a28:	e34e3003 	movt	r3, #57347	; 0xe003
e0017a2c:	e5932000 	ldr	r2, [r3]
e0017a30:	e5923050 	ldr	r3, [r2, #80]	; 0x50
e0017a34:	e1a00002 	mov	r0, r2
e0017a38:	e3c3300f 	bic	r3, r3, #15
e0017a3c:	e3833002 	orr	r3, r3, #2
e0017a40:	e5823050 	str	r3, [r2, #80]	; 0x50
e0017a44:	ebffedb2 	bl	e0013114 <setThreadState.part.166>
e0017a48:	e3020000 	movw	r0, #8192	; 0x2000
e0017a4c:	e34e0003 	movt	r0, #57347	; 0xe003
e0017a50:	e0800204 	add	r0, r0, r4, lsl #4
e0017a54:	ebfffe5d 	bl	e00173d0 <cteDeleteOne>
e0017a58:	e3a00000 	mov	r0, #0
e0017a5c:	e28dd00c 	add	sp, sp, #12
e0017a60:	e8bd40f0 	pop	{r4, r5, r6, r7, lr}
e0017a64:	e28dd008 	add	sp, sp, #8
e0017a68:	e12fff1e 	bx	lr
e0017a6c:	e59d5020 	ldr	r5, [sp, #32]
e0017a70:	e3550000 	cmp	r5, #0
e0017a74:	0a00002b 	beq	e0017b28 <decodeIRQHandlerInvocation+0x1b4>
e0017a78:	e5956000 	ldr	r6, [r5]
e0017a7c:	e206300e 	and	r3, r6, #14
e0017a80:	e353000e 	cmp	r3, #14
e0017a84:	1206300f 	andne	r3, r6, #15
e0017a88:	06ef3076 	uxtbeq	r3, r6
e0017a8c:	e3530006 	cmp	r3, #6
e0017a90:	1a000019 	bne	e0017afc <decodeIRQHandlerInvocation+0x188>
e0017a94:	e5957004 	ldr	r7, [r5, #4]
e0017a98:	e3170001 	tst	r7, #1
e0017a9c:	0a000016 	beq	e0017afc <decodeIRQHandlerInvocation+0x188>
e0017aa0:	e303364c 	movw	r3, #13900	; 0x364c
e0017aa4:	e34e3003 	movt	r3, #57347	; 0xe003
e0017aa8:	e5932000 	ldr	r2, [r3]
e0017aac:	e5923050 	ldr	r3, [r2, #80]	; 0x50
e0017ab0:	e1a00002 	mov	r0, r2
e0017ab4:	e3c3300f 	bic	r3, r3, #15
e0017ab8:	e3833002 	orr	r3, r3, #2
e0017abc:	e5823050 	str	r3, [r2, #80]	; 0x50
e0017ac0:	ebffed93 	bl	e0013114 <setThreadState.part.166>
e0017ac4:	e3023000 	movw	r3, #8192	; 0x2000
e0017ac8:	e34e3003 	movt	r3, #57347	; 0xe003
e0017acc:	e58d6000 	str	r6, [sp]
e0017ad0:	e0834204 	add	r4, r3, r4, lsl #4
e0017ad4:	e58d7004 	str	r7, [sp, #4]
e0017ad8:	e1a00004 	mov	r0, r4
e0017adc:	ebfffe3b 	bl	e00173d0 <cteDeleteOne>
e0017ae0:	e28d1008 	add	r1, sp, #8
e0017ae4:	e1a03004 	mov	r3, r4
e0017ae8:	e1a02005 	mov	r2, r5
e0017aec:	e9110003 	ldmdb	r1, {r0, r1}
e0017af0:	ebffee04 	bl	e0013308 <cteInsert>
e0017af4:	e3a00000 	mov	r0, #0
e0017af8:	eaffffae 	b	e00179b8 <decodeIRQHandlerInvocation+0x44>
e0017afc:	e3093020 	movw	r3, #36896	; 0x9020
e0017b00:	e34e3002 	movt	r3, #57346	; 0xe002
e0017b04:	e3a01002 	mov	r1, #2
e0017b08:	e3a02000 	mov	r2, #0
e0017b0c:	e3a00003 	mov	r0, #3
e0017b10:	e5831018 	str	r1, [r3, #24]
e0017b14:	e5832004 	str	r2, [r3, #4]
e0017b18:	e28dd00c 	add	sp, sp, #12
e0017b1c:	e8bd40f0 	pop	{r4, r5, r6, r7, lr}
e0017b20:	e28dd008 	add	sp, sp, #8
e0017b24:	e12fff1e 	bx	lr
e0017b28:	e3093020 	movw	r3, #36896	; 0x9020
e0017b2c:	e34e3002 	movt	r3, #57346	; 0xe002
e0017b30:	e3a02007 	mov	r2, #7
e0017b34:	e3a00003 	mov	r0, #3
e0017b38:	e5832018 	str	r2, [r3, #24]
e0017b3c:	eaffff9d 	b	e00179b8 <decodeIRQHandlerInvocation+0x44>

e0017b40 <tcbEPAppend>:
e0017b40:	e24dd008 	sub	sp, sp, #8
e0017b44:	e28dc008 	add	ip, sp, #8
e0017b48:	e90c000c 	stmdb	ip, {r2, r3}
e0017b4c:	e1a03000 	mov	r3, r0
e0017b50:	e59d2000 	ldr	r2, [sp]
e0017b54:	e59d0004 	ldr	r0, [sp, #4]
e0017b58:	e3520000 	cmp	r2, #0
e0017b5c:	e5831004 	str	r1, [r3, #4]
e0017b60:	15801090 	strne	r1, [r0, #144]	; 0x90
e0017b64:	01a02001 	moveq	r2, r1
e0017b68:	e5810094 	str	r0, [r1, #148]	; 0x94
e0017b6c:	e1a00003 	mov	r0, r3
e0017b70:	e5832000 	str	r2, [r3]
e0017b74:	e3a02000 	mov	r2, #0
e0017b78:	e5812090 	str	r2, [r1, #144]	; 0x90
e0017b7c:	e28dd008 	add	sp, sp, #8
e0017b80:	e12fff1e 	bx	lr

e0017b84 <tcbEPDequeue>:
e0017b84:	e52de004 	push	{lr}		; (str lr, [sp, #-4]!)
e0017b88:	e24dd00c 	sub	sp, sp, #12
e0017b8c:	e28dc008 	add	ip, sp, #8
e0017b90:	e90c000c 	stmdb	ip, {r2, r3}
e0017b94:	e1a02000 	mov	r2, r0
e0017b98:	e591c094 	ldr	ip, [r1, #148]	; 0x94
e0017b9c:	e5913090 	ldr	r3, [r1, #144]	; 0x90
e0017ba0:	e35c0000 	cmp	ip, #0
e0017ba4:	e59de004 	ldr	lr, [sp, #4]
e0017ba8:	158c3090 	strne	r3, [ip, #144]	; 0x90
e0017bac:	01a00003 	moveq	r0, r3
e0017bb0:	15913090 	ldrne	r3, [r1, #144]	; 0x90
e0017bb4:	159d0000 	ldrne	r0, [sp]
e0017bb8:	e3530000 	cmp	r3, #0
e0017bbc:	1583c094 	strne	ip, [r3, #148]	; 0x94
e0017bc0:	01a0e00c 	moveq	lr, ip
e0017bc4:	e5820000 	str	r0, [r2]
e0017bc8:	e582e004 	str	lr, [r2, #4]
e0017bcc:	e1a00002 	mov	r0, r2
e0017bd0:	e28dd00c 	add	sp, sp, #12
e0017bd4:	e49df004 	pop	{pc}		; (ldr pc, [sp], #4)

e0017bd8 <getExtraCPtr>:
e0017bd8:	e281107a 	add	r1, r1, #122	; 0x7a
e0017bdc:	e7900101 	ldr	r0, [r0, r1, lsl #2]
e0017be0:	e12fff1e 	bx	lr

e0017be4 <setExtraBadge>:
e0017be4:	e282207a 	add	r2, r2, #122	; 0x7a
e0017be8:	e7801102 	str	r1, [r0, r2, lsl #2]
e0017bec:	e12fff1e 	bx	lr

e0017bf0 <setupCallerCap>:
e0017bf0:	e303364c 	movw	r3, #13900	; 0x364c
e0017bf4:	e34e3003 	movt	r3, #57347	; 0xe003
e0017bf8:	e590c050 	ldr	ip, [r0, #80]	; 0x50
e0017bfc:	e5933000 	ldr	r3, [r3]
e0017c00:	e3ccc00f 	bic	ip, ip, #15
e0017c04:	e1500003 	cmp	r0, r3
e0017c08:	e38cc005 	orr	ip, ip, #5
e0017c0c:	e92d4010 	push	{r4, lr}
e0017c10:	e1a04000 	mov	r4, r0
e0017c14:	e24dd010 	sub	sp, sp, #16
e0017c18:	e580c050 	str	ip, [r0, #80]	; 0x50
e0017c1c:	0a000012 	beq	e0017c6c <setupCallerCap+0x7c>
e0017c20:	e1a0c282 	lsl	ip, r2, #5
e0017c24:	e3a02cfe 	mov	r2, #65024	; 0xfe00
e0017c28:	e34f2fff 	movt	r2, #65535	; 0xffff
e0017c2c:	e20cc020 	and	ip, ip, #32
e0017c30:	e0013002 	and	r3, r1, r2
e0017c34:	e3a01000 	mov	r1, #0
e0017c38:	e58d100c 	str	r1, [sp, #12]
e0017c3c:	e28d1010 	add	r1, sp, #16
e0017c40:	e3c4003f 	bic	r0, r4, #63	; 0x3f
e0017c44:	e0022004 	and	r2, r2, r4
e0017c48:	e38cc008 	orr	ip, ip, #8
e0017c4c:	e2833030 	add	r3, r3, #48	; 0x30
e0017c50:	e18cc000 	orr	ip, ip, r0
e0017c54:	e2822020 	add	r2, r2, #32
e0017c58:	e58dc008 	str	ip, [sp, #8]
e0017c5c:	e9110003 	ldmdb	r1, {r0, r1}
e0017c60:	e28dd010 	add	sp, sp, #16
e0017c64:	e8bd4010 	pop	{r4, lr}
e0017c68:	eaffeda6 	b	e0013308 <cteInsert>
e0017c6c:	e88d0006 	stm	sp, {r1, r2}
e0017c70:	ebffed27 	bl	e0013114 <setThreadState.part.166>
e0017c74:	e89d0006 	ldm	sp, {r1, r2}
e0017c78:	eaffffe8 	b	e0017c20 <setupCallerCap+0x30>

e0017c7c <deleteCallerCap>:
e0017c7c:	e3c00f7f 	bic	r0, r0, #508	; 0x1fc
e0017c80:	e3c00003 	bic	r0, r0, #3
e0017c84:	e2800030 	add	r0, r0, #48	; 0x30
e0017c88:	eafffdd0 	b	e00173d0 <cteDeleteOne>

e0017c8c <lookupExtraCaps>:
e0017c8c:	e92d43f0 	push	{r4, r5, r6, r7, r8, r9, lr}
e0017c90:	e2515000 	subs	r5, r1, #0
e0017c94:	e24dd00c 	sub	sp, sp, #12
e0017c98:	0a000022 	beq	e0017d28 <lookupExtraCaps+0x9c>
e0017c9c:	e7e173d2 	ubfx	r7, r2, #7, #2
e0017ca0:	e3570000 	cmp	r7, #0
e0017ca4:	0a000025 	beq	e0017d40 <lookupExtraCaps+0xb4>
e0017ca8:	e309603c 	movw	r6, #36924	; 0x903c
e0017cac:	e1a08000 	mov	r8, r0
e0017cb0:	e2855f79 	add	r5, r5, #484	; 0x1e4
e0017cb4:	e34e6002 	movt	r6, #57346	; 0xe002
e0017cb8:	e3a04000 	mov	r4, #0
e0017cbc:	ea000004 	b	e0017cd4 <lookupExtraCaps+0x48>
e0017cc0:	e59d3004 	ldr	r3, [sp, #4]
e0017cc4:	e7863104 	str	r3, [r6, r4, lsl #2]
e0017cc8:	e2844001 	add	r4, r4, #1
e0017ccc:	e1540007 	cmp	r4, r7
e0017cd0:	0a00000e 	beq	e0017d10 <lookupExtraCaps+0x84>
e0017cd4:	e5b59004 	ldr	r9, [r5, #4]!
e0017cd8:	e1a0000d 	mov	r0, sp
e0017cdc:	e1a01008 	mov	r1, r8
e0017ce0:	e1a02009 	mov	r2, r9
e0017ce4:	ebffec13 	bl	e0012d38 <lookupSlot>
e0017ce8:	e59d0000 	ldr	r0, [sp]
e0017cec:	e1a02006 	mov	r2, r6
e0017cf0:	e3500000 	cmp	r0, #0
e0017cf4:	0afffff1 	beq	e0017cc0 <lookupExtraCaps+0x34>
e0017cf8:	e3083000 	movw	r3, #32768	; 0x8000
e0017cfc:	e34e3002 	movt	r3, #57346	; 0xe002
e0017d00:	e3a02001 	mov	r2, #1
e0017d04:	e8830204 	stm	r3, {r2, r9}
e0017d08:	e28dd00c 	add	sp, sp, #12
e0017d0c:	e8bd83f0 	pop	{r4, r5, r6, r7, r8, r9, pc}
e0017d10:	e3540003 	cmp	r4, #3
e0017d14:	0afffffb 	beq	e0017d08 <lookupExtraCaps+0x7c>
e0017d18:	e3a00000 	mov	r0, #0
e0017d1c:	e7820104 	str	r0, [r2, r4, lsl #2]
e0017d20:	e28dd00c 	add	sp, sp, #12
e0017d24:	e8bd83f0 	pop	{r4, r5, r6, r7, r8, r9, pc}
e0017d28:	e309303c 	movw	r3, #36924	; 0x903c
e0017d2c:	e34e3002 	movt	r3, #57346	; 0xe002
e0017d30:	e1a00005 	mov	r0, r5
e0017d34:	e5835000 	str	r5, [r3]
e0017d38:	e28dd00c 	add	sp, sp, #12
e0017d3c:	e8bd83f0 	pop	{r4, r5, r6, r7, r8, r9, pc}
e0017d40:	e309203c 	movw	r2, #36924	; 0x903c
e0017d44:	e1a04007 	mov	r4, r7
e0017d48:	e34e2002 	movt	r2, #57346	; 0xe002
e0017d4c:	eafffff1 	b	e0017d18 <lookupExtraCaps+0x8c>

e0017d50 <doNormalTransfer>:
e0017d50:	e92d4ff0 	push	{r4, r5, r6, r7, r8, r9, sl, fp, lr}
e0017d54:	e24dd03c 	sub	sp, sp, #60	; 0x3c
e0017d58:	e5904004 	ldr	r4, [r0, #4]
e0017d5c:	e1a09000 	mov	r9, r0
e0017d60:	e59dc060 	ldr	ip, [sp, #96]	; 0x60
e0017d64:	e1a07001 	mov	r7, r1
e0017d68:	e204507f 	and	r5, r4, #127	; 0x7f
e0017d6c:	e1a0b002 	mov	fp, r2
e0017d70:	e3550078 	cmp	r5, #120	; 0x78
e0017d74:	e1a0a003 	mov	sl, r3
e0017d78:	83c4407f 	bichi	r4, r4, #127	; 0x7f
e0017d7c:	e59d6064 	ldr	r6, [sp, #100]	; 0x64
e0017d80:	83a05078 	movhi	r5, #120	; 0x78
e0017d84:	81844005 	orrhi	r4, r4, r5
e0017d88:	e35c0000 	cmp	ip, #0
e0017d8c:	e59d8068 	ldr	r8, [sp, #104]	; 0x68
e0017d90:	1a000070 	bne	e0017f58 <doNormalTransfer+0x208>
e0017d94:	e309203c 	movw	r2, #36924	; 0x903c
e0017d98:	e34e2002 	movt	r2, #57346	; 0xe002
e0017d9c:	e28d3014 	add	r3, sp, #20
e0017da0:	e3550000 	cmp	r5, #0
e0017da4:	e8920007 	ldm	r2, {r0, r1, r2}
e0017da8:	e8830007 	stm	r3, {r0, r1, r2}
e0017dac:	0a000075 	beq	e0017f88 <doNormalTransfer+0x238>
e0017db0:	e59fe22c 	ldr	lr, [pc, #556]	; e0017fe4 <doNormalTransfer+0x294>
e0017db4:	e3a01002 	mov	r1, #2
e0017db8:	e3a02000 	mov	r2, #0
e0017dbc:	e2822001 	add	r2, r2, #1
e0017dc0:	e7990101 	ldr	r0, [r9, r1, lsl #2]
e0017dc4:	e3520003 	cmp	r2, #3
e0017dc8:	91520005 	cmpls	r2, r5
e0017dcc:	e7860101 	str	r0, [r6, r1, lsl #2]
e0017dd0:	379e1102 	ldrcc	r1, [lr, r2, lsl #2]
e0017dd4:	3afffff8 	bcc	e0017dbc <doNormalTransfer+0x6c>
e0017dd8:	e16fef18 	clz	lr, r8
e0017ddc:	e3580000 	cmp	r8, #0
e0017de0:	13570000 	cmpne	r7, #0
e0017de4:	e3c44d3e 	bic	r4, r4, #3968	; 0xf80
e0017de8:	e1a0e2ae 	lsr	lr, lr, #5
e0017dec:	0a000017 	beq	e0017e50 <doNormalTransfer+0x100>
e0017df0:	e1520005 	cmp	r2, r5
e0017df4:	21a05002 	movcs	r5, r2
e0017df8:	2a000007 	bcs	e0017e1c <doNormalTransfer+0xcc>
e0017dfc:	e1a02102 	lsl	r2, r2, #2
e0017e00:	e0870105 	add	r0, r7, r5, lsl #2
e0017e04:	e0877002 	add	r7, r7, r2
e0017e08:	e0882002 	add	r2, r8, r2
e0017e0c:	e5b71004 	ldr	r1, [r7, #4]!
e0017e10:	e1500007 	cmp	r0, r7
e0017e14:	e5a21004 	str	r1, [r2, #4]!
e0017e18:	1afffffb 	bne	e0017e0c <doNormalTransfer+0xbc>
e0017e1c:	e58dc014 	str	ip, [sp, #20]
e0017e20:	e28d7020 	add	r7, sp, #32
e0017e24:	e8930007 	ldm	r3, {r0, r1, r2}
e0017e28:	e3500000 	cmp	r0, #0
e0017e2c:	e8870007 	stm	r7, {r0, r1, r2}
e0017e30:	e1a09000 	mov	r9, r0
e0017e34:	1a00000f 	bne	e0017e78 <doNormalTransfer+0x128>
e0017e38:	e3c4407f 	bic	r4, r4, #127	; 0x7f
e0017e3c:	e586a000 	str	sl, [r6]
e0017e40:	e1845005 	orr	r5, r4, r5
e0017e44:	e5865004 	str	r5, [r6, #4]
e0017e48:	e28dd03c 	add	sp, sp, #60	; 0x3c
e0017e4c:	e8bd8ff0 	pop	{r4, r5, r6, r7, r8, r9, sl, fp, pc}
e0017e50:	e1a05002 	mov	r5, r2
e0017e54:	e58dc014 	str	ip, [sp, #20]
e0017e58:	e28d7020 	add	r7, sp, #32
e0017e5c:	e8930007 	ldm	r3, {r0, r1, r2}
e0017e60:	e3500000 	cmp	r0, #0
e0017e64:	e8870007 	stm	r7, {r0, r1, r2}
e0017e68:	03a0e001 	moveq	lr, #1
e0017e6c:	e35e0000 	cmp	lr, #0
e0017e70:	e1a09000 	mov	r9, r0
e0017e74:	1affffef 	bne	e0017e38 <doNormalTransfer+0xe8>
e0017e78:	e1a00006 	mov	r0, r6
e0017e7c:	e1a01008 	mov	r1, r8
e0017e80:	ebffee7c 	bl	e0013878 <getReceiveSlots>
e0017e84:	e3a03000 	mov	r3, #0
e0017e88:	e58d5004 	str	r5, [sp, #4]
e0017e8c:	e1a05003 	mov	r5, r3
e0017e90:	e58d6064 	str	r6, [sp, #100]	; 0x64
e0017e94:	e1a06000 	mov	r6, r0
e0017e98:	e8990003 	ldm	r9, {r0, r1}
e0017e9c:	e200200e 	and	r2, r0, #14
e0017ea0:	e352000e 	cmp	r2, #14
e0017ea4:	e28d200c 	add	r2, sp, #12
e0017ea8:	e1a03000 	mov	r3, r0
e0017eac:	e8820003 	stm	r2, {r0, r1}
e0017eb0:	e1a02001 	mov	r2, r1
e0017eb4:	1200100f 	andne	r1, r0, #15
e0017eb8:	06ef1070 	uxtbeq	r1, r0
e0017ebc:	e3510004 	cmp	r1, #4
e0017ec0:	0a000037 	beq	e0017fa4 <doNormalTransfer+0x254>
e0017ec4:	e3560000 	cmp	r6, #0
e0017ec8:	0a00001c 	beq	e0017f40 <doNormalTransfer+0x1f0>
e0017ecc:	e58d300c 	str	r3, [sp, #12]
e0017ed0:	e28d300c 	add	r3, sp, #12
e0017ed4:	e58d2010 	str	r2, [sp, #16]
e0017ed8:	e1a01009 	mov	r1, r9
e0017edc:	e893000c 	ldm	r3, {r2, r3}
e0017ee0:	e28d002c 	add	r0, sp, #44	; 0x2c
e0017ee4:	ebfff342 	bl	e0014bf4 <deriveCap>
e0017ee8:	e59d302c 	ldr	r3, [sp, #44]	; 0x2c
e0017eec:	e3530000 	cmp	r3, #0
e0017ef0:	1a000012 	bne	e0017f40 <doNormalTransfer+0x1f0>
e0017ef4:	e59d3030 	ldr	r3, [sp, #48]	; 0x30
e0017ef8:	e203200e 	and	r2, r3, #14
e0017efc:	e352000e 	cmp	r2, #14
e0017f00:	1203300f 	andne	r3, r3, #15
e0017f04:	06ef3073 	uxtbeq	r3, r3
e0017f08:	e3530000 	cmp	r3, #0
e0017f0c:	0a00000b 	beq	e0017f40 <doNormalTransfer+0x1f0>
e0017f10:	e28d1030 	add	r1, sp, #48	; 0x30
e0017f14:	e1a03006 	mov	r3, r6
e0017f18:	e1a02009 	mov	r2, r9
e0017f1c:	e3a06000 	mov	r6, #0
e0017f20:	e8910003 	ldm	r1, {r0, r1}
e0017f24:	ebffecf7 	bl	e0013308 <cteInsert>
e0017f28:	e2855001 	add	r5, r5, #1
e0017f2c:	e3550003 	cmp	r5, #3
e0017f30:	0a000027 	beq	e0017fd4 <doNormalTransfer+0x284>
e0017f34:	e7979105 	ldr	r9, [r7, r5, lsl #2]
e0017f38:	e3590000 	cmp	r9, #0
e0017f3c:	1affffd5 	bne	e0017e98 <doNormalTransfer+0x148>
e0017f40:	e1a03005 	mov	r3, r5
e0017f44:	e59d6064 	ldr	r6, [sp, #100]	; 0x64
e0017f48:	e59d5004 	ldr	r5, [sp, #4]
e0017f4c:	e1a03383 	lsl	r3, r3, #7
e0017f50:	e1844003 	orr	r4, r4, r3
e0017f54:	eaffffb7 	b	e0017e38 <doNormalTransfer+0xe8>
e0017f58:	e1a02004 	mov	r2, r4
e0017f5c:	ebffff4a 	bl	e0017c8c <lookupExtraCaps>
e0017f60:	e309203c 	movw	r2, #36924	; 0x903c
e0017f64:	e34e2002 	movt	r2, #57346	; 0xe002
e0017f68:	e28d3014 	add	r3, sp, #20
e0017f6c:	e3500000 	cmp	r0, #0
e0017f70:	e8920007 	ldm	r2, {r0, r1, r2}
e0017f74:	13a0c000 	movne	ip, #0
e0017f78:	01a0c000 	moveq	ip, r0
e0017f7c:	e3550000 	cmp	r5, #0
e0017f80:	e8830007 	stm	r3, {r0, r1, r2}
e0017f84:	1affff89 	bne	e0017db0 <doNormalTransfer+0x60>
e0017f88:	e16fef18 	clz	lr, r8
e0017f8c:	e3580000 	cmp	r8, #0
e0017f90:	13570000 	cmpne	r7, #0
e0017f94:	e3c44d3e 	bic	r4, r4, #3968	; 0xf80
e0017f98:	e1a0e2ae 	lsr	lr, lr, #5
e0017f9c:	0affffac 	beq	e0017e54 <doNormalTransfer+0x104>
e0017fa0:	eaffff9d 	b	e0017e1c <doNormalTransfer+0xcc>
e0017fa4:	e3c2100f 	bic	r1, r2, #15
e0017fa8:	e15b0001 	cmp	fp, r1
e0017fac:	1affffc4 	bne	e0017ec4 <doNormalTransfer+0x174>
e0017fb0:	e7e224d4 	ubfx	r2, r4, #9, #3
e0017fb4:	e3a00001 	mov	r0, #1
e0017fb8:	e0881105 	add	r1, r8, r5, lsl #2
e0017fbc:	e1822510 	orr	r2, r2, r0, lsl r5
e0017fc0:	e3c44c0e 	bic	r4, r4, #3584	; 0xe00
e0017fc4:	e1a03223 	lsr	r3, r3, #4
e0017fc8:	e1844482 	orr	r4, r4, r2, lsl #9
e0017fcc:	e58131e8 	str	r3, [r1, #488]	; 0x1e8
e0017fd0:	eaffffd4 	b	e0017f28 <doNormalTransfer+0x1d8>
e0017fd4:	e59d5004 	ldr	r5, [sp, #4]
e0017fd8:	e3a03d06 	mov	r3, #384	; 0x180
e0017fdc:	e59d6064 	ldr	r6, [sp, #100]	; 0x64
e0017fe0:	eaffffda 	b	e0017f50 <doNormalTransfer+0x200>
e0017fe4:	e001b428 	.word	0xe001b428

e0017fe8 <doIPCTransfer>:
e0017fe8:	e92d43f0 	push	{r4, r5, r6, r7, r8, r9, lr}
e0017fec:	e24dd014 	sub	sp, sp, #20
e0017ff0:	e1a04000 	mov	r4, r0
e0017ff4:	e1a08001 	mov	r8, r1
e0017ff8:	e59d5030 	ldr	r5, [sp, #48]	; 0x30
e0017ffc:	e3a00001 	mov	r0, #1
e0018000:	e1a06002 	mov	r6, r2
e0018004:	e1a09003 	mov	r9, r3
e0018008:	e1a01005 	mov	r1, r5
e001800c:	ebffe34f 	bl	e0010d50 <lookupIPCBuffer>
e0018010:	e1a07000 	mov	r7, r0
e0018014:	e5940060 	ldr	r0, [r4, #96]	; 0x60
e0018018:	e210000f 	ands	r0, r0, #15
e001801c:	1a00000a 	bne	e001804c <doIPCTransfer+0x64>
e0018020:	e1a01004 	mov	r1, r4
e0018024:	ebffe349 	bl	e0010d50 <lookupIPCBuffer>
e0018028:	e98d00a0 	stmib	sp, {r5, r7}
e001802c:	e1a03006 	mov	r3, r6
e0018030:	e58d9000 	str	r9, [sp]
e0018034:	e1a02008 	mov	r2, r8
e0018038:	e1a01000 	mov	r1, r0
e001803c:	e1a00004 	mov	r0, r4
e0018040:	ebffff42 	bl	e0017d50 <doNormalTransfer>
e0018044:	e28dd014 	add	sp, sp, #20
e0018048:	e8bd83f0 	pop	{r4, r5, r6, r7, r8, r9, pc}
e001804c:	e1a02007 	mov	r2, r7
e0018050:	e1a01005 	mov	r1, r5
e0018054:	e1a00004 	mov	r0, r4
e0018058:	ebffe28b 	bl	e0010a8c <setMRs_fault>
e001805c:	e5943060 	ldr	r3, [r4, #96]	; 0x60
e0018060:	e5856000 	str	r6, [r5]
e0018064:	e1a03603 	lsl	r3, r3, #12
e0018068:	e6ff3073 	uxth	r3, r3
e001806c:	e200007f 	and	r0, r0, #127	; 0x7f
e0018070:	e1833000 	orr	r3, r3, r0
e0018074:	e5853004 	str	r3, [r5, #4]
e0018078:	e28dd014 	add	sp, sp, #20
e001807c:	e8bd83f0 	pop	{r4, r5, r6, r7, r8, r9, pc}

e0018080 <doReplyTransfer>:
e0018080:	e92d4070 	push	{r4, r5, r6, lr}
e0018084:	e1a05002 	mov	r5, r2
e0018088:	e5912060 	ldr	r2, [r1, #96]	; 0x60
e001808c:	e24dd008 	sub	sp, sp, #8
e0018090:	e1a04001 	mov	r4, r1
e0018094:	e212200f 	ands	r2, r2, #15
e0018098:	1a000011 	bne	e00180e4 <doReplyTransfer+0x64>
e001809c:	e58d1000 	str	r1, [sp]
e00180a0:	e1a01002 	mov	r1, r2
e00180a4:	ebffffcf 	bl	e0017fe8 <doIPCTransfer>
e00180a8:	e1a00005 	mov	r0, r5
e00180ac:	ebfffcc7 	bl	e00173d0 <cteDeleteOne>
e00180b0:	e303264c 	movw	r2, #13900	; 0x364c
e00180b4:	e34e2003 	movt	r2, #57347	; 0xe003
e00180b8:	e5943050 	ldr	r3, [r4, #80]	; 0x50
e00180bc:	e5922000 	ldr	r2, [r2]
e00180c0:	e3c3300f 	bic	r3, r3, #15
e00180c4:	e3833001 	orr	r3, r3, #1
e00180c8:	e5843050 	str	r3, [r4, #80]	; 0x50
e00180cc:	e1540002 	cmp	r4, r2
e00180d0:	0a000017 	beq	e0018134 <doReplyTransfer+0xb4>
e00180d4:	e1a00004 	mov	r0, r4
e00180d8:	e28dd008 	add	sp, sp, #8
e00180dc:	e8bd4070 	pop	{r4, r5, r6, lr}
e00180e0:	eaffec41 	b	e00131ec <possibleSwitchTo>
e00180e4:	e1a06000 	mov	r6, r0
e00180e8:	e1a00005 	mov	r0, r5
e00180ec:	ebfffcb7 	bl	e00173d0 <cteDeleteOne>
e00180f0:	e1a01006 	mov	r1, r6
e00180f4:	e1a00004 	mov	r0, r4
e00180f8:	ebffe356 	bl	e0010e58 <handleFaultReply>
e00180fc:	e3a03000 	mov	r3, #0
e0018100:	e303264c 	movw	r2, #13900	; 0x364c
e0018104:	e5843060 	str	r3, [r4, #96]	; 0x60
e0018108:	e5843064 	str	r3, [r4, #100]	; 0x64
e001810c:	e34e2003 	movt	r2, #57347	; 0xe003
e0018110:	e5922000 	ldr	r2, [r2]
e0018114:	e1500003 	cmp	r0, r3
e0018118:	e5943050 	ldr	r3, [r4, #80]	; 0x50
e001811c:	e3c3300f 	bic	r3, r3, #15
e0018120:	0a000009 	beq	e001814c <doReplyTransfer+0xcc>
e0018124:	e1540002 	cmp	r4, r2
e0018128:	e3833002 	orr	r3, r3, #2
e001812c:	e5843050 	str	r3, [r4, #80]	; 0x50
e0018130:	1affffe7 	bne	e00180d4 <doReplyTransfer+0x54>
e0018134:	e1a00004 	mov	r0, r4
e0018138:	ebffebf5 	bl	e0013114 <setThreadState.part.166>
e001813c:	e1a00004 	mov	r0, r4
e0018140:	e28dd008 	add	sp, sp, #8
e0018144:	e8bd4070 	pop	{r4, r5, r6, lr}
e0018148:	eaffec27 	b	e00131ec <possibleSwitchTo>
e001814c:	e1540002 	cmp	r4, r2
e0018150:	e5843050 	str	r3, [r4, #80]	; 0x50
e0018154:	0a000001 	beq	e0018160 <doReplyTransfer+0xe0>
e0018158:	e28dd008 	add	sp, sp, #8
e001815c:	e8bd8070 	pop	{r4, r5, r6, pc}
e0018160:	e1a00004 	mov	r0, r4
e0018164:	e28dd008 	add	sp, sp, #8
e0018168:	e8bd4070 	pop	{r4, r5, r6, lr}
e001816c:	eaffebe8 	b	e0013114 <setThreadState.part.166>

e0018170 <handleReply>:
e0018170:	e303364c 	movw	r3, #13900	; 0x364c
e0018174:	e34e3003 	movt	r3, #57347	; 0xe003
e0018178:	e5930000 	ldr	r0, [r3]
e001817c:	e3c03f7f 	bic	r3, r0, #508	; 0x1fc
e0018180:	e3c33003 	bic	r3, r3, #3
e0018184:	e2832030 	add	r2, r3, #48	; 0x30
e0018188:	e5931030 	ldr	r1, [r3, #48]	; 0x30
e001818c:	e201300e 	and	r3, r1, #14
e0018190:	e353000e 	cmp	r3, #14
e0018194:	1201300f 	andne	r3, r1, #15
e0018198:	06ef3071 	uxtbeq	r3, r1
e001819c:	e3530000 	cmp	r3, #0
e00181a0:	012fff1e 	bxeq	lr
e00181a4:	e3530008 	cmp	r3, #8
e00181a8:	1a000004 	bne	e00181c0 <handleReply+0x50>
e00181ac:	e3110010 	tst	r1, #16
e00181b0:	1a000002 	bne	e00181c0 <handleReply+0x50>
e00181b4:	e7e032d1 	ubfx	r3, r1, #5, #1
e00181b8:	e3c1103f 	bic	r1, r1, #63	; 0x3f
e00181bc:	eaffffaf 	b	e0018080 <doReplyTransfer>
e00181c0:	e92d4010 	push	{r4, lr}
e00181c4:	ebffe21c 	bl	e0010a3c <halt>

e00181c8 <performInvocation_Reply>:
e00181c8:	e303c64c 	movw	ip, #13900	; 0x364c
e00181cc:	e34ec003 	movt	ip, #57347	; 0xe003
e00181d0:	e1a03002 	mov	r3, r2
e00181d4:	e1a02001 	mov	r2, r1
e00181d8:	e92d4010 	push	{r4, lr}
e00181dc:	e1a01000 	mov	r1, r0
e00181e0:	e59c0000 	ldr	r0, [ip]
e00181e4:	ebffffa5 	bl	e0018080 <doReplyTransfer>
e00181e8:	e3a00000 	mov	r0, #0
e00181ec:	e8bd8010 	pop	{r4, pc}

e00181f0 <sendIPC>:
e00181f0:	e92d47f0 	push	{r4, r5, r6, r7, r8, r9, sl, lr}
e00181f4:	e24dd008 	sub	sp, sp, #8
e00181f8:	e1a07003 	mov	r7, r3
e00181fc:	e1a08001 	mov	r8, r1
e0018200:	e59d4030 	ldr	r4, [sp, #48]	; 0x30
e0018204:	e59d9028 	ldr	r9, [sp, #40]	; 0x28
e0018208:	e59d602c 	ldr	r6, [sp, #44]	; 0x2c
e001820c:	e5943000 	ldr	r3, [r4]
e0018210:	e2031003 	and	r1, r3, #3
e0018214:	e3510001 	cmp	r1, #1
e0018218:	9a000034 	bls	e00182f0 <sendIPC+0x100>
e001821c:	e3510002 	cmp	r1, #2
e0018220:	1a000030 	bne	e00182e8 <sendIPC+0xf8>
e0018224:	e5940004 	ldr	r0, [r4, #4]
e0018228:	e303a64c 	movw	sl, #13900	; 0x364c
e001822c:	e34ea003 	movt	sl, #57347	; 0xe003
e0018230:	e3c0500f 	bic	r5, r0, #15
e0018234:	e200000f 	and	r0, r0, #15
e0018238:	e5951094 	ldr	r1, [r5, #148]	; 0x94
e001823c:	e595c090 	ldr	ip, [r5, #144]	; 0x90
e0018240:	e3510000 	cmp	r1, #0
e0018244:	1581c090 	strne	ip, [r1, #144]	; 0x90
e0018248:	01a0e00c 	moveq	lr, ip
e001824c:	1595e090 	ldrne	lr, [r5, #144]	; 0x90
e0018250:	11a0c005 	movne	ip, r5
e0018254:	e35e0000 	cmp	lr, #0
e0018258:	158e1094 	strne	r1, [lr, #148]	; 0x94
e001825c:	13c3100f 	bicne	r1, r3, #15
e0018260:	e3c1100f 	bic	r1, r1, #15
e0018264:	e203300f 	and	r3, r3, #15
e0018268:	e35c0000 	cmp	ip, #0
e001826c:	e1833001 	orr	r3, r3, r1
e0018270:	e3ccc00f 	bic	ip, ip, #15
e0018274:	03c33003 	biceq	r3, r3, #3
e0018278:	e180c00c 	orr	ip, r0, ip
e001827c:	e5843000 	str	r3, [r4]
e0018280:	e584c004 	str	ip, [r4, #4]
e0018284:	e1a01004 	mov	r1, r4
e0018288:	e1a03007 	mov	r3, r7
e001828c:	e58d5000 	str	r5, [sp]
e0018290:	e1a00006 	mov	r0, r6
e0018294:	ebffff53 	bl	e0017fe8 <doIPCTransfer>
e0018298:	e59a2000 	ldr	r2, [sl]
e001829c:	e5953050 	ldr	r3, [r5, #80]	; 0x50
e00182a0:	e1550002 	cmp	r5, r2
e00182a4:	e5954058 	ldr	r4, [r5, #88]	; 0x58
e00182a8:	e3c3300f 	bic	r3, r3, #15
e00182ac:	e3833001 	orr	r3, r3, #1
e00182b0:	e5853050 	str	r3, [r5, #80]	; 0x50
e00182b4:	0a000038 	beq	e001839c <sendIPC+0x1ac>
e00182b8:	e1a00005 	mov	r0, r5
e00182bc:	ebffebca 	bl	e00131ec <possibleSwitchTo>
e00182c0:	e3580000 	cmp	r8, #0
e00182c4:	0a000007 	beq	e00182e8 <sendIPC+0xf8>
e00182c8:	e1973009 	orrs	r3, r7, r9
e00182cc:	1a00003d 	bne	e00183c8 <sendIPC+0x1d8>
e00182d0:	e59a2000 	ldr	r2, [sl]
e00182d4:	e5963050 	ldr	r3, [r6, #80]	; 0x50
e00182d8:	e1560002 	cmp	r6, r2
e00182dc:	e3c3300f 	bic	r3, r3, #15
e00182e0:	e5863050 	str	r3, [r6, #80]	; 0x50
e00182e4:	0a00003d 	beq	e00183e0 <sendIPC+0x1f0>
e00182e8:	e28dd008 	add	sp, sp, #8
e00182ec:	e8bd87f0 	pop	{r4, r5, r6, r7, r8, r9, sl, pc}
e00182f0:	e3500000 	cmp	r0, #0
e00182f4:	0afffffb 	beq	e00182e8 <sendIPC+0xf8>
e00182f8:	e5963058 	ldr	r3, [r6, #88]	; 0x58
e00182fc:	e1a01187 	lsl	r1, r7, #3
e0018300:	e303064c 	movw	r0, #13900	; 0x364c
e0018304:	e34e0003 	movt	r0, #57347	; 0xe003
e0018308:	e203700f 	and	r7, r3, #15
e001830c:	e1a09109 	lsl	r9, r9, #2
e0018310:	e1877202 	orr	r7, r7, r2, lsl #4
e0018314:	e2013008 	and	r3, r1, #8
e0018318:	e3c7700c 	bic	r7, r7, #12
e001831c:	e5901000 	ldr	r1, [r0]
e0018320:	e1877003 	orr	r7, r7, r3
e0018324:	e2099004 	and	r9, r9, #4
e0018328:	e1a02088 	lsl	r2, r8, #1
e001832c:	e1560001 	cmp	r6, r1
e0018330:	e1878009 	orr	r8, r7, r9
e0018334:	e2022002 	and	r2, r2, #2
e0018338:	e3c88002 	bic	r8, r8, #2
e001833c:	e3c4300f 	bic	r3, r4, #15
e0018340:	e1888002 	orr	r8, r8, r2
e0018344:	e3833004 	orr	r3, r3, #4
e0018348:	e5868058 	str	r8, [r6, #88]	; 0x58
e001834c:	e5863050 	str	r3, [r6, #80]	; 0x50
e0018350:	0a000014 	beq	e00183a8 <sendIPC+0x1b8>
e0018354:	e8940009 	ldm	r4, {r0, r3}
e0018358:	e3c6200f 	bic	r2, r6, #15
e001835c:	e3822001 	orr	r2, r2, #1
e0018360:	e3d3100f 	bics	r1, r3, #15
e0018364:	e3c0c00f 	bic	ip, r0, #15
e0018368:	e203300f 	and	r3, r3, #15
e001836c:	e200000c 	and	r0, r0, #12
e0018370:	01a01006 	moveq	r1, r6
e0018374:	e3c1100f 	bic	r1, r1, #15
e0018378:	158c6090 	strne	r6, [ip, #144]	; 0x90
e001837c:	e1833001 	orr	r3, r3, r1
e0018380:	e586c094 	str	ip, [r6, #148]	; 0x94
e0018384:	e3a01000 	mov	r1, #0
e0018388:	e1822000 	orr	r2, r2, r0
e001838c:	e5861090 	str	r1, [r6, #144]	; 0x90
e0018390:	e1c420f0 	strd	r2, [r4]
e0018394:	e28dd008 	add	sp, sp, #8
e0018398:	e8bd87f0 	pop	{r4, r5, r6, r7, r8, r9, sl, pc}
e001839c:	e1a00005 	mov	r0, r5
e00183a0:	ebffeb5b 	bl	e0013114 <setThreadState.part.166>
e00183a4:	eaffffc3 	b	e00182b8 <sendIPC+0xc8>
e00183a8:	e309301c 	movw	r3, #36892	; 0x901c
e00183ac:	e34e3002 	movt	r3, #57346	; 0xe002
e00183b0:	e5933000 	ldr	r3, [r3]
e00183b4:	e3530000 	cmp	r3, #0
e00183b8:	1affffe5 	bne	e0018354 <sendIPC+0x164>
e00183bc:	e1a00006 	mov	r0, r6
e00183c0:	ebffeb42 	bl	e00130d0 <scheduleTCB.part.165>
e00183c4:	eaffffe2 	b	e0018354 <sendIPC+0x164>
e00183c8:	e7e021d4 	ubfx	r2, r4, #3, #1
e00183cc:	e1a01005 	mov	r1, r5
e00183d0:	e1a00006 	mov	r0, r6
e00183d4:	e28dd008 	add	sp, sp, #8
e00183d8:	e8bd47f0 	pop	{r4, r5, r6, r7, r8, r9, sl, lr}
e00183dc:	eafffe03 	b	e0017bf0 <setupCallerCap>
e00183e0:	e1a00006 	mov	r0, r6
e00183e4:	e28dd008 	add	sp, sp, #8
e00183e8:	e8bd47f0 	pop	{r4, r5, r6, r7, r8, r9, sl, lr}
e00183ec:	eaffeb48 	b	e0013114 <setThreadState.part.166>

e00183f0 <sendFaultIPC>:
e00183f0:	e92d43f0 	push	{r4, r5, r6, r7, r8, r9, lr}
e00183f4:	e3094014 	movw	r4, #36884	; 0x9014
e00183f8:	e5907080 	ldr	r7, [r0, #128]	; 0x80
e00183fc:	e24dd01c 	sub	sp, sp, #28
e0018400:	e34e4002 	movt	r4, #57346	; 0xe002
e0018404:	e1a01000 	mov	r1, r0
e0018408:	e1a06000 	mov	r6, r0
e001840c:	e28d0010 	add	r0, sp, #16
e0018410:	e1a02007 	mov	r2, r7
e0018414:	e5949000 	ldr	r9, [r4]
e0018418:	e5948004 	ldr	r8, [r4, #4]
e001841c:	ebffea45 	bl	e0012d38 <lookupSlot>
e0018420:	e59d5010 	ldr	r5, [sp, #16]
e0018424:	e3550000 	cmp	r5, #0
e0018428:	1a000012 	bne	e0018478 <sendFaultIPC+0x88>
e001842c:	e59d3014 	ldr	r3, [sp, #20]
e0018430:	e8931004 	ldm	r3, {r2, ip}
e0018434:	e202300e 	and	r3, r2, #14
e0018438:	e353000e 	cmp	r3, #14
e001843c:	1202300f 	andne	r3, r2, #15
e0018440:	0a00002e 	beq	e0018500 <sendFaultIPC+0x110>
e0018444:	e3530004 	cmp	r3, #4
e0018448:	0a000013 	beq	e001849c <sendFaultIPC+0xac>
e001844c:	e3a02001 	mov	r2, #1
e0018450:	e3083000 	movw	r3, #32768	; 0x8000
e0018454:	e34e3002 	movt	r3, #57346	; 0xe002
e0018458:	e1a05002 	mov	r5, r2
e001845c:	e3a01000 	mov	r1, #0
e0018460:	e5842000 	str	r2, [r4]
e0018464:	e8830084 	stm	r3, {r2, r7}
e0018468:	e5841004 	str	r1, [r4, #4]
e001846c:	e1a00005 	mov	r0, r5
e0018470:	e28dd01c 	add	sp, sp, #28
e0018474:	e8bd83f0 	pop	{r4, r5, r6, r7, r8, r9, pc}
e0018478:	e3a02001 	mov	r2, #1
e001847c:	e3083000 	movw	r3, #32768	; 0x8000
e0018480:	e34e3002 	movt	r3, #57346	; 0xe002
e0018484:	e1a05002 	mov	r5, r2
e0018488:	e1a00005 	mov	r0, r5
e001848c:	e5837004 	str	r7, [r3, #4]
e0018490:	e5832000 	str	r2, [r3]
e0018494:	e28dd01c 	add	sp, sp, #28
e0018498:	e8bd83f0 	pop	{r4, r5, r6, r7, r8, r9, pc}
e001849c:	e31c0001 	tst	ip, #1
e00184a0:	0affffe9 	beq	e001844c <sendFaultIPC+0x5c>
e00184a4:	e1a0312c 	lsr	r3, ip, #2
e00184a8:	e18311ac 	orr	r1, r3, ip, lsr #3
e00184ac:	e3110001 	tst	r1, #1
e00184b0:	0affffe5 	beq	e001844c <sendFaultIPC+0x5c>
e00184b4:	e3081000 	movw	r1, #32768	; 0x8000
e00184b8:	e34e1002 	movt	r1, #57346	; 0xe002
e00184bc:	e286e060 	add	lr, r6, #96	; 0x60
e00184c0:	e3ccc00f 	bic	ip, ip, #15
e00184c4:	e8910003 	ldm	r1, {r0, r1}
e00184c8:	e1a02222 	lsr	r2, r2, #4
e00184cc:	e200400f 	and	r4, r0, #15
e00184d0:	e88e0003 	stm	lr, {r0, r1}
e00184d4:	e3a01001 	mov	r1, #1
e00184d8:	e3540001 	cmp	r4, #1
e00184dc:	e0033001 	and	r3, r3, r1
e00184e0:	05869068 	streq	r9, [r6, #104]	; 0x68
e00184e4:	e1a00001 	mov	r0, r1
e00184e8:	0586806c 	streq	r8, [r6, #108]	; 0x6c
e00184ec:	e58d6004 	str	r6, [sp, #4]
e00184f0:	e58dc008 	str	ip, [sp, #8]
e00184f4:	e58d1000 	str	r1, [sp]
e00184f8:	ebffff3c 	bl	e00181f0 <sendIPC>
e00184fc:	eaffffda 	b	e001846c <sendFaultIPC+0x7c>
e0018500:	e6ef3072 	uxtb	r3, r2
e0018504:	eaffffce 	b	e0018444 <sendFaultIPC+0x54>

e0018508 <handleFault>:
e0018508:	e92d4010 	push	{r4, lr}
e001850c:	e1a04000 	mov	r4, r0
e0018510:	ebffffb6 	bl	e00183f0 <sendFaultIPC>
e0018514:	e3500000 	cmp	r0, #0
e0018518:	08bd8010 	popeq	{r4, pc}
e001851c:	e303264c 	movw	r2, #13900	; 0x364c
e0018520:	e34e2003 	movt	r2, #57347	; 0xe003
e0018524:	e5943050 	ldr	r3, [r4, #80]	; 0x50
e0018528:	e5922000 	ldr	r2, [r2]
e001852c:	e3c3300f 	bic	r3, r3, #15
e0018530:	e5843050 	str	r3, [r4, #80]	; 0x50
e0018534:	e1540002 	cmp	r4, r2
e0018538:	18bd8010 	popne	{r4, pc}
e001853c:	e1a00004 	mov	r0, r4
e0018540:	e8bd4010 	pop	{r4, lr}
e0018544:	eaffeaf2 	b	e0013114 <setThreadState.part.166>

e0018548 <handleUnknownSyscall>:
e0018548:	e3083000 	movw	r3, #32768	; 0x8000
e001854c:	e303264c 	movw	r2, #13900	; 0x364c
e0018550:	e34e3002 	movt	r3, #57346	; 0xe002
e0018554:	e34e2003 	movt	r2, #57347	; 0xe003
e0018558:	e92d4010 	push	{r4, lr}
e001855c:	e3a01002 	mov	r1, #2
e0018560:	e5830004 	str	r0, [r3, #4]
e0018564:	e5831000 	str	r1, [r3]
e0018568:	e5920000 	ldr	r0, [r2]
e001856c:	ebffffe5 	bl	e0018508 <handleFault>
e0018570:	ebfff80c 	bl	e00165a8 <schedule>
e0018574:	ebffeb08 	bl	e001319c <activateThread>
e0018578:	e3a00000 	mov	r0, #0
e001857c:	e8bd8010 	pop	{r4, pc}

e0018580 <handleUserLevelFault>:
e0018580:	e3083000 	movw	r3, #32768	; 0x8000
e0018584:	e303264c 	movw	r2, #13900	; 0x364c
e0018588:	e34e3002 	movt	r3, #57346	; 0xe002
e001858c:	e34e2003 	movt	r2, #57347	; 0xe003
e0018590:	e1a01201 	lsl	r1, r1, #4
e0018594:	e92d4010 	push	{r4, lr}
e0018598:	e3811003 	orr	r1, r1, #3
e001859c:	e5830004 	str	r0, [r3, #4]
e00185a0:	e5831000 	str	r1, [r3]
e00185a4:	e5920000 	ldr	r0, [r2]
e00185a8:	ebffffd6 	bl	e0018508 <handleFault>
e00185ac:	ebfff7fd 	bl	e00165a8 <schedule>
e00185b0:	ebffeaf9 	bl	e001319c <activateThread>
e00185b4:	e3a00000 	mov	r0, #0
e00185b8:	e8bd8010 	pop	{r4, pc}

e00185bc <handleVMFaultEvent>:
e00185bc:	e92d4010 	push	{r4, lr}
e00185c0:	e303464c 	movw	r4, #13900	; 0x364c
e00185c4:	e34e4003 	movt	r4, #57347	; 0xe003
e00185c8:	e1a01000 	mov	r1, r0
e00185cc:	e5940000 	ldr	r0, [r4]
e00185d0:	ebffe39d 	bl	e001144c <handleVMFault>
e00185d4:	e3500000 	cmp	r0, #0
e00185d8:	0a000001 	beq	e00185e4 <handleVMFaultEvent+0x28>
e00185dc:	e5940000 	ldr	r0, [r4]
e00185e0:	ebffffc8 	bl	e0018508 <handleFault>
e00185e4:	ebfff7ef 	bl	e00165a8 <schedule>
e00185e8:	ebffeaeb 	bl	e001319c <activateThread>
e00185ec:	e3a00000 	mov	r0, #0
e00185f0:	e8bd8010 	pop	{r4, pc}

e00185f4 <c_handle_vm_fault>:
e00185f4:	e303364c 	movw	r3, #13900	; 0x364c
e00185f8:	e34e3003 	movt	r3, #57347	; 0xe003
e00185fc:	e92d4010 	push	{r4, lr}
e0018600:	e5933000 	ldr	r3, [r3]
e0018604:	ee1d2f50 	mrc	15, 0, r2, cr13, cr0, {2}
e0018608:	e5832048 	str	r2, [r3, #72]	; 0x48
e001860c:	ee1d2f70 	mrc	15, 0, r2, cr13, cr0, {3}
e0018610:	e583204c 	str	r2, [r3, #76]	; 0x4c
e0018614:	ebffffe8 	bl	e00185bc <handleVMFaultEvent>
e0018618:	ebffe0fc 	bl	e0010a10 <restore_user_context>

e001861c <performInvocation_Endpoint>:
e001861c:	e52de004 	push	{lr}		; (str lr, [sp, #-4]!)
e0018620:	e303c64c 	movw	ip, #13900	; 0x364c
e0018624:	e24dd014 	sub	sp, sp, #20
e0018628:	e34ec003 	movt	ip, #57347	; 0xe003
e001862c:	e58d3000 	str	r3, [sp]
e0018630:	e1a03002 	mov	r3, r2
e0018634:	e59cc000 	ldr	ip, [ip]
e0018638:	e1a02001 	mov	r2, r1
e001863c:	e58d0008 	str	r0, [sp, #8]
e0018640:	e59d101c 	ldr	r1, [sp, #28]
e0018644:	e59d0018 	ldr	r0, [sp, #24]
e0018648:	e58dc004 	str	ip, [sp, #4]
e001864c:	ebfffee7 	bl	e00181f0 <sendIPC>
e0018650:	e3a00000 	mov	r0, #0
e0018654:	e28dd014 	add	sp, sp, #20
e0018658:	e49df004 	pop	{pc}		; (ldr pc, [sp], #4)

e001865c <receiveIPC>:
e001865c:	e92d41f0 	push	{r4, r5, r6, r7, r8, lr}
e0018660:	e24dd018 	sub	sp, sp, #24
e0018664:	e28dc018 	add	ip, sp, #24
e0018668:	e90c0006 	stmdb	ip, {r1, r2}
e001866c:	e590205c 	ldr	r2, [r0, #92]	; 0x5c
e0018670:	e59d5014 	ldr	r5, [sp, #20]
e0018674:	e3520000 	cmp	r2, #0
e0018678:	e3c5100f 	bic	r1, r5, #15
e001867c:	0a000003 	beq	e0018690 <receiveIPC+0x34>
e0018680:	e592c000 	ldr	ip, [r2]
e0018684:	e20ce003 	and	lr, ip, #3
e0018688:	e35e0002 	cmp	lr, #2
e001868c:	0a000009 	beq	e00186b8 <receiveIPC+0x5c>
e0018690:	e5912000 	ldr	r2, [r1]
e0018694:	e1a04000 	mov	r4, r0
e0018698:	e2020003 	and	r0, r2, #3
e001869c:	e3500001 	cmp	r0, #1
e00186a0:	0a00002e 	beq	e0018760 <receiveIPC+0x104>
e00186a4:	3a000009 	bcc	e00186d0 <receiveIPC+0x74>
e00186a8:	e3500002 	cmp	r0, #2
e00186ac:	0a000007 	beq	e00186d0 <receiveIPC+0x74>
e00186b0:	e28dd018 	add	sp, sp, #24
e00186b4:	e8bd81f0 	pop	{r4, r5, r6, r7, r8, pc}
e00186b8:	e5923008 	ldr	r3, [r2, #8]
e00186bc:	e3ccc003 	bic	ip, ip, #3
e00186c0:	e5803000 	str	r3, [r0]
e00186c4:	e582c000 	str	ip, [r2]
e00186c8:	e28dd018 	add	sp, sp, #24
e00186cc:	e8bd81f0 	pop	{r4, r5, r6, r7, r8, pc}
e00186d0:	e3530000 	cmp	r3, #0
e00186d4:	05843000 	streq	r3, [r4]
e00186d8:	0afffff4 	beq	e00186b0 <receiveIPC+0x54>
e00186dc:	e303264c 	movw	r2, #13900	; 0x364c
e00186e0:	e34e2003 	movt	r2, #57347	; 0xe003
e00186e4:	e5943058 	ldr	r3, [r4, #88]	; 0x58
e00186e8:	e1a05085 	lsl	r5, r5, #1
e00186ec:	e5920000 	ldr	r0, [r2]
e00186f0:	e2055008 	and	r5, r5, #8
e00186f4:	e3c33008 	bic	r3, r3, #8
e00186f8:	e3812003 	orr	r2, r1, #3
e00186fc:	e1540000 	cmp	r4, r0
e0018700:	e1855003 	orr	r5, r5, r3
e0018704:	e5842050 	str	r2, [r4, #80]	; 0x50
e0018708:	e5845058 	str	r5, [r4, #88]	; 0x58
e001870c:	0a00004f 	beq	e0018850 <receiveIPC+0x1f4>
e0018710:	e5912004 	ldr	r2, [r1, #4]
e0018714:	e3c4e00f 	bic	lr, r4, #15
e0018718:	e5913000 	ldr	r3, [r1]
e001871c:	e3d2000f 	bics	r0, r2, #15
e0018720:	e202200f 	and	r2, r2, #15
e0018724:	e3c3c00f 	bic	ip, r3, #15
e0018728:	e203300c 	and	r3, r3, #12
e001872c:	01a00004 	moveq	r0, r4
e0018730:	e3833002 	orr	r3, r3, #2
e0018734:	e3c0000f 	bic	r0, r0, #15
e0018738:	158c4090 	strne	r4, [ip, #144]	; 0x90
e001873c:	e1822000 	orr	r2, r2, r0
e0018740:	e584c094 	str	ip, [r4, #148]	; 0x94
e0018744:	e183300e 	orr	r3, r3, lr
e0018748:	e3a00000 	mov	r0, #0
e001874c:	e5840090 	str	r0, [r4, #144]	; 0x90
e0018750:	e5813000 	str	r3, [r1]
e0018754:	e5812004 	str	r2, [r1, #4]
e0018758:	e28dd018 	add	sp, sp, #24
e001875c:	e8bd81f0 	pop	{r4, r5, r6, r7, r8, pc}
e0018760:	e5910004 	ldr	r0, [r1, #4]
e0018764:	e3c0600f 	bic	r6, r0, #15
e0018768:	e200000f 	and	r0, r0, #15
e001876c:	e5963094 	ldr	r3, [r6, #148]	; 0x94
e0018770:	e596c090 	ldr	ip, [r6, #144]	; 0x90
e0018774:	e3530000 	cmp	r3, #0
e0018778:	1583c090 	strne	ip, [r3, #144]	; 0x90
e001877c:	01a0e00c 	moveq	lr, ip
e0018780:	1596e090 	ldrne	lr, [r6, #144]	; 0x90
e0018784:	11a0c006 	movne	ip, r6
e0018788:	e35e0000 	cmp	lr, #0
e001878c:	158e3094 	strne	r3, [lr, #148]	; 0x94
e0018790:	13c2300f 	bicne	r3, r2, #15
e0018794:	e3c3300f 	bic	r3, r3, #15
e0018798:	e202200f 	and	r2, r2, #15
e001879c:	e35c0000 	cmp	ip, #0
e00187a0:	e1822003 	orr	r2, r2, r3
e00187a4:	e3ccc00f 	bic	ip, ip, #15
e00187a8:	03c22003 	biceq	r2, r2, #3
e00187ac:	e180000c 	orr	r0, r0, ip
e00187b0:	e5812000 	str	r2, [r1]
e00187b4:	e5810004 	str	r0, [r1, #4]
e00187b8:	e1a00006 	mov	r0, r6
e00187bc:	e5968058 	ldr	r8, [r6, #88]	; 0x58
e00187c0:	e58d4000 	str	r4, [sp]
e00187c4:	e1a071a8 	lsr	r7, r8, #3
e00187c8:	e1a02228 	lsr	r2, r8, #4
e00187cc:	e2073001 	and	r3, r7, #1
e00187d0:	ebfffe04 	bl	e0017fe8 <doIPCTransfer>
e00187d4:	e5963058 	ldr	r3, [r6, #88]	; 0x58
e00187d8:	e3130002 	tst	r3, #2
e00187dc:	0a00000e 	beq	e001881c <receiveIPC+0x1c0>
e00187e0:	e1877128 	orr	r7, r7, r8, lsr #2
e00187e4:	e3170001 	tst	r7, #1
e00187e8:	1a000022 	bne	e0018878 <receiveIPC+0x21c>
e00187ec:	e303264c 	movw	r2, #13900	; 0x364c
e00187f0:	e34e2003 	movt	r2, #57347	; 0xe003
e00187f4:	e5963050 	ldr	r3, [r6, #80]	; 0x50
e00187f8:	e5922000 	ldr	r2, [r2]
e00187fc:	e3c3300f 	bic	r3, r3, #15
e0018800:	e5863050 	str	r3, [r6, #80]	; 0x50
e0018804:	e1560002 	cmp	r6, r2
e0018808:	1affffa8 	bne	e00186b0 <receiveIPC+0x54>
e001880c:	e1a00006 	mov	r0, r6
e0018810:	e28dd018 	add	sp, sp, #24
e0018814:	e8bd41f0 	pop	{r4, r5, r6, r7, r8, lr}
e0018818:	eaffea3d 	b	e0013114 <setThreadState.part.166>
e001881c:	e303264c 	movw	r2, #13900	; 0x364c
e0018820:	e34e2003 	movt	r2, #57347	; 0xe003
e0018824:	e5963050 	ldr	r3, [r6, #80]	; 0x50
e0018828:	e5922000 	ldr	r2, [r2]
e001882c:	e3c3300f 	bic	r3, r3, #15
e0018830:	e1560002 	cmp	r6, r2
e0018834:	e3833001 	orr	r3, r3, #1
e0018838:	e5863050 	str	r3, [r6, #80]	; 0x50
e001883c:	0a000013 	beq	e0018890 <receiveIPC+0x234>
e0018840:	e1a00006 	mov	r0, r6
e0018844:	e28dd018 	add	sp, sp, #24
e0018848:	e8bd41f0 	pop	{r4, r5, r6, r7, r8, lr}
e001884c:	eaffea66 	b	e00131ec <possibleSwitchTo>
e0018850:	e309301c 	movw	r3, #36892	; 0x901c
e0018854:	e34e3002 	movt	r3, #57346	; 0xe002
e0018858:	e5933000 	ldr	r3, [r3]
e001885c:	e3530000 	cmp	r3, #0
e0018860:	1affffaa 	bne	e0018710 <receiveIPC+0xb4>
e0018864:	e1a00004 	mov	r0, r4
e0018868:	e58d100c 	str	r1, [sp, #12]
e001886c:	ebffea17 	bl	e00130d0 <scheduleTCB.part.165>
e0018870:	e59d100c 	ldr	r1, [sp, #12]
e0018874:	eaffffa5 	b	e0018710 <receiveIPC+0xb4>
e0018878:	e7e02155 	ubfx	r2, r5, #2, #1
e001887c:	e1a01004 	mov	r1, r4
e0018880:	e1a00006 	mov	r0, r6
e0018884:	e28dd018 	add	sp, sp, #24
e0018888:	e8bd41f0 	pop	{r4, r5, r6, r7, r8, lr}
e001888c:	eafffcd7 	b	e0017bf0 <setupCallerCap>
e0018890:	e1a00006 	mov	r0, r6
e0018894:	ebffea1e 	bl	e0013114 <setThreadState.part.166>
e0018898:	eaffffe8 	b	e0018840 <receiveIPC+0x1e4>

e001889c <handleRecv>:
e001889c:	e92d41f0 	push	{r4, r5, r6, r7, r8, lr}
e00188a0:	e303464c 	movw	r4, #13900	; 0x364c
e00188a4:	e34e4003 	movt	r4, #57347	; 0xe003
e00188a8:	e24dd010 	sub	sp, sp, #16
e00188ac:	e1a07000 	mov	r7, r0
e00188b0:	e28d0004 	add	r0, sp, #4
e00188b4:	e5941000 	ldr	r1, [r4]
e00188b8:	e5916000 	ldr	r6, [r1]
e00188bc:	e1a02006 	mov	r2, r6
e00188c0:	ebffe91c 	bl	e0012d38 <lookupSlot>
e00188c4:	e59d3004 	ldr	r3, [sp, #4]
e00188c8:	e3530000 	cmp	r3, #0
e00188cc:	1a000038 	bne	e00189b4 <handleRecv+0x118>
e00188d0:	e59d3008 	ldr	r3, [sp, #8]
e00188d4:	e8930120 	ldm	r3, {r5, r8}
e00188d8:	e205300e 	and	r3, r5, #14
e00188dc:	e353000e 	cmp	r3, #14
e00188e0:	1205300f 	andne	r3, r5, #15
e00188e4:	06ef3075 	uxtbeq	r3, r5
e00188e8:	e3530004 	cmp	r3, #4
e00188ec:	e5940000 	ldr	r0, [r4]
e00188f0:	0a00001f 	beq	e0018974 <handleRecv+0xd8>
e00188f4:	e3530006 	cmp	r3, #6
e00188f8:	1a000010 	bne	e0018940 <handleRecv+0xa4>
e00188fc:	e3c5300f 	bic	r3, r5, #15
e0018900:	e3180002 	tst	r8, #2
e0018904:	e593300c 	ldr	r3, [r3, #12]
e0018908:	e3c3300f 	bic	r3, r3, #15
e001890c:	0a00000b 	beq	e0018940 <handleRecv+0xa4>
e0018910:	e3530000 	cmp	r3, #0
e0018914:	1a000007 	bne	e0018938 <handleRecv+0x9c>
e0018918:	e28d2010 	add	r2, sp, #16
e001891c:	e58d5008 	str	r5, [sp, #8]
e0018920:	e58d800c 	str	r8, [sp, #12]
e0018924:	e1a03007 	mov	r3, r7
e0018928:	e9120006 	ldmdb	r2, {r1, r2}
e001892c:	e28dd010 	add	sp, sp, #16
e0018930:	e8bd41f0 	pop	{r4, r5, r6, r7, r8, lr}
e0018934:	eaffeda4 	b	e0013fcc <receiveSignal>
e0018938:	e1500003 	cmp	r0, r3
e001893c:	0afffff5 	beq	e0018918 <handleRecv+0x7c>
e0018940:	e3092014 	movw	r2, #36884	; 0x9014
e0018944:	e3083000 	movw	r3, #32768	; 0x8000
e0018948:	e34e2002 	movt	r2, #57346	; 0xe002
e001894c:	e34e3002 	movt	r3, #57346	; 0xe002
e0018950:	e3a01001 	mov	r1, #1
e0018954:	e3a0c000 	mov	ip, #0
e0018958:	e5821000 	str	r1, [r2]
e001895c:	e3a01106 	mov	r1, #-2147483647	; 0x80000001
e0018960:	e582c004 	str	ip, [r2, #4]
e0018964:	e8830042 	stm	r3, {r1, r6}
e0018968:	e28dd010 	add	sp, sp, #16
e001896c:	e8bd41f0 	pop	{r4, r5, r6, r7, r8, lr}
e0018970:	eafffee4 	b	e0018508 <handleFault>
e0018974:	e7e030d8 	ubfx	r3, r8, #1, #1
e0018978:	e3530000 	cmp	r3, #0
e001897c:	0a000014 	beq	e00189d4 <handleRecv+0x138>
e0018980:	e3c00f7f 	bic	r0, r0, #508	; 0x1fc
e0018984:	e3c00003 	bic	r0, r0, #3
e0018988:	e2800030 	add	r0, r0, #48	; 0x30
e001898c:	ebfffa8f 	bl	e00173d0 <cteDeleteOne>
e0018990:	e28d2010 	add	r2, sp, #16
e0018994:	e58d5008 	str	r5, [sp, #8]
e0018998:	e1a03007 	mov	r3, r7
e001899c:	e58d800c 	str	r8, [sp, #12]
e00189a0:	e5940000 	ldr	r0, [r4]
e00189a4:	e9120006 	ldmdb	r2, {r1, r2}
e00189a8:	e28dd010 	add	sp, sp, #16
e00189ac:	e8bd41f0 	pop	{r4, r5, r6, r7, r8, lr}
e00189b0:	eaffff29 	b	e001865c <receiveIPC>
e00189b4:	e3083000 	movw	r3, #32768	; 0x8000
e00189b8:	e34e3002 	movt	r3, #57346	; 0xe002
e00189bc:	e3a02106 	mov	r2, #-2147483647	; 0x80000001
e00189c0:	e5940000 	ldr	r0, [r4]
e00189c4:	e8830044 	stm	r3, {r2, r6}
e00189c8:	e28dd010 	add	sp, sp, #16
e00189cc:	e8bd41f0 	pop	{r4, r5, r6, r7, r8, lr}
e00189d0:	eafffecc 	b	e0018508 <handleFault>
e00189d4:	e3091014 	movw	r1, #36884	; 0x9014
e00189d8:	e3082000 	movw	r2, #32768	; 0x8000
e00189dc:	e34e1002 	movt	r1, #57346	; 0xe002
e00189e0:	e34e2002 	movt	r2, #57346	; 0xe002
e00189e4:	e3a0c001 	mov	ip, #1
e00189e8:	e5813004 	str	r3, [r1, #4]
e00189ec:	e3a03106 	mov	r3, #-2147483647	; 0x80000001
e00189f0:	e581c000 	str	ip, [r1]
e00189f4:	e8820048 	stm	r2, {r3, r6}
e00189f8:	eaffffda 	b	e0018968 <handleRecv+0xcc>

e00189fc <copyMRs>:
e00189fc:	e92d40f0 	push	{r4, r5, r6, r7, lr}
e0018a00:	e59d4014 	ldr	r4, [sp, #20]
e0018a04:	e3540000 	cmp	r4, #0
e0018a08:	0a000011 	beq	e0018a54 <copyMRs+0x58>
e0018a0c:	e59f7078 	ldr	r7, [pc, #120]	; e0018a8c <copyMRs+0x90>
e0018a10:	e3a0e002 	mov	lr, #2
e0018a14:	e3a0c000 	mov	ip, #0
e0018a18:	e28cc001 	add	ip, ip, #1
e0018a1c:	e790510e 	ldr	r5, [r0, lr, lsl #2]
e0018a20:	e154000c 	cmp	r4, ip
e0018a24:	83a06001 	movhi	r6, #1
e0018a28:	93a06000 	movls	r6, #0
e0018a2c:	e35c0003 	cmp	ip, #3
e0018a30:	e782510e 	str	r5, [r2, lr, lsl #2]
e0018a34:	83a06000 	movhi	r6, #0
e0018a38:	e3560000 	cmp	r6, #0
e0018a3c:	1797e10c 	ldrne	lr, [r7, ip, lsl #2]
e0018a40:	1afffff4 	bne	e0018a18 <copyMRs+0x1c>
e0018a44:	e3510000 	cmp	r1, #0
e0018a48:	13530000 	cmpne	r3, #0
e0018a4c:	1a000002 	bne	e0018a5c <copyMRs+0x60>
e0018a50:	e1a0400c 	mov	r4, ip
e0018a54:	e1a00004 	mov	r0, r4
e0018a58:	e8bd80f0 	pop	{r4, r5, r6, r7, pc}
e0018a5c:	e154000c 	cmp	r4, ip
e0018a60:	9afffffa 	bls	e0018a50 <copyMRs+0x54>
e0018a64:	e1a0c10c 	lsl	ip, ip, #2
e0018a68:	e0810104 	add	r0, r1, r4, lsl #2
e0018a6c:	e083300c 	add	r3, r3, ip
e0018a70:	e081c00c 	add	ip, r1, ip
e0018a74:	e5bc2004 	ldr	r2, [ip, #4]!
e0018a78:	e15c0000 	cmp	ip, r0
e0018a7c:	e5a32004 	str	r2, [r3, #4]!
e0018a80:	1afffffb 	bne	e0018a74 <copyMRs+0x78>
e0018a84:	e1a00004 	mov	r0, r4
e0018a88:	e8bd80f0 	pop	{r4, r5, r6, r7, pc}
e0018a8c:	e001b428 	.word	0xe001b428

e0018a90 <decodeDomainInvocation>:
e0018a90:	e24dd008 	sub	sp, sp, #8
e0018a94:	e350001d 	cmp	r0, #29
e0018a98:	e92d4070 	push	{r4, r5, r6, lr}
e0018a9c:	e28d000c 	add	r0, sp, #12
e0018aa0:	e980000c 	stmib	r0, {r2, r3}
e0018aa4:	1a000037 	bne	e0018b88 <decodeDomainInvocation+0xf8>
e0018aa8:	e3510000 	cmp	r1, #0
e0018aac:	0a00002d 	beq	e0018b68 <decodeDomainInvocation+0xd8>
e0018ab0:	e303364c 	movw	r3, #13900	; 0x364c
e0018ab4:	e34e3003 	movt	r3, #57347	; 0xe003
e0018ab8:	e5933000 	ldr	r3, [r3]
e0018abc:	e5934008 	ldr	r4, [r3, #8]
e0018ac0:	e354000f 	cmp	r4, #15
e0018ac4:	8a000016 	bhi	e0018b24 <decodeDomainInvocation+0x94>
e0018ac8:	e59d2010 	ldr	r2, [sp, #16]
e0018acc:	e3520000 	cmp	r2, #0
e0018ad0:	0a000024 	beq	e0018b68 <decodeDomainInvocation+0xd8>
e0018ad4:	e5925000 	ldr	r5, [r2]
e0018ad8:	e205200e 	and	r2, r5, #14
e0018adc:	e352000e 	cmp	r2, #14
e0018ae0:	1205200f 	andne	r2, r5, #15
e0018ae4:	06ef2075 	uxtbeq	r2, r5
e0018ae8:	e352000c 	cmp	r2, #12
e0018aec:	1a000016 	bne	e0018b4c <decodeDomainInvocation+0xbc>
e0018af0:	e5932050 	ldr	r2, [r3, #80]	; 0x50
e0018af4:	e1a00003 	mov	r0, r3
e0018af8:	e3c2200f 	bic	r2, r2, #15
e0018afc:	e3822002 	orr	r2, r2, #2
e0018b00:	e5832050 	str	r2, [r3, #80]	; 0x50
e0018b04:	ebffe982 	bl	e0013114 <setThreadState.part.166>
e0018b08:	e3c5000f 	bic	r0, r5, #15
e0018b0c:	e1a01004 	mov	r1, r4
e0018b10:	ebfff6ff 	bl	e0016714 <setDomain>
e0018b14:	e3a00000 	mov	r0, #0
e0018b18:	e8bd4070 	pop	{r4, r5, r6, lr}
e0018b1c:	e28dd008 	add	sp, sp, #8
e0018b20:	e12fff1e 	bx	lr
e0018b24:	e8bd4070 	pop	{r4, r5, r6, lr}
e0018b28:	e3093020 	movw	r3, #36896	; 0x9020
e0018b2c:	e34e3002 	movt	r3, #57346	; 0xe002
e0018b30:	e3a01001 	mov	r1, #1
e0018b34:	e3a02000 	mov	r2, #0
e0018b38:	e3a00003 	mov	r0, #3
e0018b3c:	e5831018 	str	r1, [r3, #24]
e0018b40:	e28dd008 	add	sp, sp, #8
e0018b44:	e5832000 	str	r2, [r3]
e0018b48:	e12fff1e 	bx	lr
e0018b4c:	e3093020 	movw	r3, #36896	; 0x9020
e0018b50:	e34e3002 	movt	r3, #57346	; 0xe002
e0018b54:	e3a02001 	mov	r2, #1
e0018b58:	e3a00003 	mov	r0, #3
e0018b5c:	e5832018 	str	r2, [r3, #24]
e0018b60:	e5832000 	str	r2, [r3]
e0018b64:	eaffffeb 	b	e0018b18 <decodeDomainInvocation+0x88>
e0018b68:	e8bd4070 	pop	{r4, r5, r6, lr}
e0018b6c:	e3093020 	movw	r3, #36896	; 0x9020
e0018b70:	e34e3002 	movt	r3, #57346	; 0xe002
e0018b74:	e3a02007 	mov	r2, #7
e0018b78:	e3a00003 	mov	r0, #3
e0018b7c:	e5832018 	str	r2, [r3, #24]
e0018b80:	e28dd008 	add	sp, sp, #8
e0018b84:	e12fff1e 	bx	lr
e0018b88:	e8bd4070 	pop	{r4, r5, r6, lr}
e0018b8c:	e3093020 	movw	r3, #36896	; 0x9020
e0018b90:	e34e3002 	movt	r3, #57346	; 0xe002
e0018b94:	e3a02003 	mov	r2, #3
e0018b98:	e1a00002 	mov	r0, r2
e0018b9c:	e5832018 	str	r2, [r3, #24]
e0018ba0:	e28dd008 	add	sp, sp, #8
e0018ba4:	e12fff1e 	bx	lr

e0018ba8 <decodeBindNotification>:
e0018ba8:	e24dd008 	sub	sp, sp, #8
e0018bac:	e92d4070 	push	{r4, r5, r6, lr}
e0018bb0:	e24dd008 	sub	sp, sp, #8
e0018bb4:	e28dc014 	add	ip, sp, #20
e0018bb8:	e98c000c 	stmib	ip, {r2, r3}
e0018bbc:	e28d2008 	add	r2, sp, #8
e0018bc0:	e59d3018 	ldr	r3, [sp, #24]
e0018bc4:	e9020003 	stmdb	r2, {r0, r1}
e0018bc8:	e3530000 	cmp	r3, #0
e0018bcc:	0a000030 	beq	e0018c94 <decodeBindNotification+0xec>
e0018bd0:	e59d4000 	ldr	r4, [sp]
e0018bd4:	e3c4400f 	bic	r4, r4, #15
e0018bd8:	e594205c 	ldr	r2, [r4, #92]	; 0x5c
e0018bdc:	e3520000 	cmp	r2, #0
e0018be0:	0a000008 	beq	e0018c08 <decodeBindNotification+0x60>
e0018be4:	e3a02003 	mov	r2, #3
e0018be8:	e3093020 	movw	r3, #36896	; 0x9020
e0018bec:	e34e3002 	movt	r3, #57346	; 0xe002
e0018bf0:	e1a00002 	mov	r0, r2
e0018bf4:	e5832018 	str	r2, [r3, #24]
e0018bf8:	e28dd008 	add	sp, sp, #8
e0018bfc:	e8bd4070 	pop	{r4, r5, r6, lr}
e0018c00:	e28dd008 	add	sp, sp, #8
e0018c04:	e12fff1e 	bx	lr
e0018c08:	e5932000 	ldr	r2, [r3]
e0018c0c:	e202100e 	and	r1, r2, #14
e0018c10:	e351000e 	cmp	r1, #14
e0018c14:	1202100f 	andne	r1, r2, #15
e0018c18:	06ef1072 	uxtbeq	r1, r2
e0018c1c:	e3510006 	cmp	r1, #6
e0018c20:	1affffef 	bne	e0018be4 <decodeBindNotification+0x3c>
e0018c24:	e5933004 	ldr	r3, [r3, #4]
e0018c28:	e3130002 	tst	r3, #2
e0018c2c:	0affffec 	beq	e0018be4 <decodeBindNotification+0x3c>
e0018c30:	e3c2600f 	bic	r6, r2, #15
e0018c34:	e5963004 	ldr	r3, [r6, #4]
e0018c38:	e3d3300f 	bics	r3, r3, #15
e0018c3c:	1affffe8 	bne	e0018be4 <decodeBindNotification+0x3c>
e0018c40:	e596000c 	ldr	r0, [r6, #12]
e0018c44:	e3d0500f 	bics	r5, r0, #15
e0018c48:	1affffe5 	bne	e0018be4 <decodeBindNotification+0x3c>
e0018c4c:	e303364c 	movw	r3, #13900	; 0x364c
e0018c50:	e34e3003 	movt	r3, #57347	; 0xe003
e0018c54:	e5932000 	ldr	r2, [r3]
e0018c58:	e5923050 	ldr	r3, [r2, #80]	; 0x50
e0018c5c:	e1a00002 	mov	r0, r2
e0018c60:	e3c3300f 	bic	r3, r3, #15
e0018c64:	e3833002 	orr	r3, r3, #2
e0018c68:	e5823050 	str	r3, [r2, #80]	; 0x50
e0018c6c:	ebffe928 	bl	e0013114 <setThreadState.part.166>
e0018c70:	e3560000 	cmp	r6, #0
e0018c74:	0a00000f 	beq	e0018cb8 <decodeBindNotification+0x110>
e0018c78:	e596300c 	ldr	r3, [r6, #12]
e0018c7c:	e1a00005 	mov	r0, r5
e0018c80:	e203300f 	and	r3, r3, #15
e0018c84:	e1833004 	orr	r3, r3, r4
e0018c88:	e586300c 	str	r3, [r6, #12]
e0018c8c:	e584605c 	str	r6, [r4, #92]	; 0x5c
e0018c90:	eaffffd8 	b	e0018bf8 <decodeBindNotification+0x50>
e0018c94:	e3093020 	movw	r3, #36896	; 0x9020
e0018c98:	e34e3002 	movt	r3, #57346	; 0xe002
e0018c9c:	e3a02007 	mov	r2, #7
e0018ca0:	e3a00003 	mov	r0, #3
e0018ca4:	e5832018 	str	r2, [r3, #24]
e0018ca8:	e28dd008 	add	sp, sp, #8
e0018cac:	e8bd4070 	pop	{r4, r5, r6, lr}
e0018cb0:	e28dd008 	add	sp, sp, #8
e0018cb4:	e12fff1e 	bx	lr
e0018cb8:	e1a00004 	mov	r0, r4
e0018cbc:	ebffdf11 	bl	e0010908 <invokeTCB_NotificationControl.part.179>
e0018cc0:	e1a00006 	mov	r0, r6
e0018cc4:	eaffffcb 	b	e0018bf8 <decodeBindNotification+0x50>

e0018cc8 <decodeUnbindNotification>:
e0018cc8:	e92d4010 	push	{r4, lr}
e0018ccc:	e24dd008 	sub	sp, sp, #8
e0018cd0:	e28d3008 	add	r3, sp, #8
e0018cd4:	e9030003 	stmdb	r3, {r0, r1}
e0018cd8:	e59d4000 	ldr	r4, [sp]
e0018cdc:	e3c4400f 	bic	r4, r4, #15
e0018ce0:	e594305c 	ldr	r3, [r4, #92]	; 0x5c
e0018ce4:	e3530000 	cmp	r3, #0
e0018ce8:	0a00000d 	beq	e0018d24 <decodeUnbindNotification+0x5c>
e0018cec:	e303364c 	movw	r3, #13900	; 0x364c
e0018cf0:	e34e3003 	movt	r3, #57347	; 0xe003
e0018cf4:	e5932000 	ldr	r2, [r3]
e0018cf8:	e5923050 	ldr	r3, [r2, #80]	; 0x50
e0018cfc:	e1a00002 	mov	r0, r2
e0018d00:	e3c3300f 	bic	r3, r3, #15
e0018d04:	e3833002 	orr	r3, r3, #2
e0018d08:	e5823050 	str	r3, [r2, #80]	; 0x50
e0018d0c:	ebffe900 	bl	e0013114 <setThreadState.part.166>
e0018d10:	e1a00004 	mov	r0, r4
e0018d14:	ebffdefb 	bl	e0010908 <invokeTCB_NotificationControl.part.179>
e0018d18:	e3a00000 	mov	r0, #0
e0018d1c:	e28dd008 	add	sp, sp, #8
e0018d20:	e8bd8010 	pop	{r4, pc}
e0018d24:	e3093020 	movw	r3, #36896	; 0x9020
e0018d28:	e34e3002 	movt	r3, #57346	; 0xe002
e0018d2c:	e3a02003 	mov	r2, #3
e0018d30:	e1a00002 	mov	r0, r2
e0018d34:	e5832018 	str	r2, [r3, #24]
e0018d38:	e28dd008 	add	sp, sp, #8
e0018d3c:	e8bd8010 	pop	{r4, pc}

e0018d40 <invokeTCB_Suspend>:
e0018d40:	e92d4010 	push	{r4, lr}
e0018d44:	ebfff69a 	bl	e00167b4 <suspend>
e0018d48:	e3a00000 	mov	r0, #0
e0018d4c:	e8bd8010 	pop	{r4, pc}

e0018d50 <invokeTCB_Resume>:
e0018d50:	e92d4010 	push	{r4, lr}
e0018d54:	ebfff9ee 	bl	e0017514 <restart>
e0018d58:	e3a00000 	mov	r0, #0
e0018d5c:	e8bd8010 	pop	{r4, pc}

e0018d60 <invokeTCB_ThreadControl>:
e0018d60:	e92d41f0 	push	{r4, r5, r6, r7, r8, lr}
e0018d64:	e24dd008 	sub	sp, sp, #8
e0018d68:	e1a05000 	mov	r5, r0
e0018d6c:	e3c0000f 	bic	r0, r0, #15
e0018d70:	e59d404c 	ldr	r4, [sp, #76]	; 0x4c
e0018d74:	e1a07001 	mov	r7, r1
e0018d78:	e380000c 	orr	r0, r0, #12
e0018d7c:	e3a0c000 	mov	ip, #0
e0018d80:	e3140004 	tst	r4, #4
e0018d84:	e2041008 	and	r1, r4, #8
e0018d88:	e88d1001 	stm	sp, {r0, ip}
e0018d8c:	0a00002e 	beq	e0018e4c <invokeTCB_ThreadControl+0xec>
e0018d90:	e3c56f7f 	bic	r6, r5, #508	; 0x1fc
e0018d94:	e151000c 	cmp	r1, ip
e0018d98:	e3c66003 	bic	r6, r6, #3
e0018d9c:	15853074 	strne	r3, [r5, #116]	; 0x74
e0018da0:	e5852080 	str	r2, [r5, #128]	; 0x80
e0018da4:	e3a01001 	mov	r1, #1
e0018da8:	e1a00006 	mov	r0, r6
e0018dac:	ebfff72d 	bl	e0016a68 <cteDelete>
e0018db0:	e3500000 	cmp	r0, #0
e0018db4:	1a000052 	bne	e0018f04 <invokeTCB_ThreadControl+0x1a4>
e0018db8:	e59d302c 	ldr	r3, [sp, #44]	; 0x2c
e0018dbc:	e28d8024 	add	r8, sp, #36	; 0x24
e0018dc0:	e8980003 	ldm	r8, {r0, r1}
e0018dc4:	e893000c 	ldm	r3, {r2, r3}
e0018dc8:	ebffefb3 	bl	e0014c9c <sameObjectAs>
e0018dcc:	e3500000 	cmp	r0, #0
e0018dd0:	0a000005 	beq	e0018dec <invokeTCB_ThreadControl+0x8c>
e0018dd4:	e28d1008 	add	r1, sp, #8
e0018dd8:	e897000c 	ldm	r7, {r2, r3}
e0018ddc:	e9110003 	ldmdb	r1, {r0, r1}
e0018de0:	ebffefad 	bl	e0014c9c <sameObjectAs>
e0018de4:	e3500000 	cmp	r0, #0
e0018de8:	1a000047 	bne	e0018f0c <invokeTCB_ThreadControl+0x1ac>
e0018dec:	e2866010 	add	r6, r6, #16
e0018df0:	e3a01001 	mov	r1, #1
e0018df4:	e1a00006 	mov	r0, r6
e0018df8:	ebfff71a 	bl	e0016a68 <cteDelete>
e0018dfc:	e3500000 	cmp	r0, #0
e0018e00:	1a00003f 	bne	e0018f04 <invokeTCB_ThreadControl+0x1a4>
e0018e04:	e59d3038 	ldr	r3, [sp, #56]	; 0x38
e0018e08:	e28d8030 	add	r8, sp, #48	; 0x30
e0018e0c:	e8980003 	ldm	r8, {r0, r1}
e0018e10:	e893000c 	ldm	r3, {r2, r3}
e0018e14:	ebffefa0 	bl	e0014c9c <sameObjectAs>
e0018e18:	e3500000 	cmp	r0, #0
e0018e1c:	0a00000c 	beq	e0018e54 <invokeTCB_ThreadControl+0xf4>
e0018e20:	e28d1008 	add	r1, sp, #8
e0018e24:	e897000c 	ldm	r7, {r2, r3}
e0018e28:	e9110003 	ldmdb	r1, {r0, r1}
e0018e2c:	ebffef9a 	bl	e0014c9c <sameObjectAs>
e0018e30:	e3500000 	cmp	r0, #0
e0018e34:	0a000006 	beq	e0018e54 <invokeTCB_ThreadControl+0xf4>
e0018e38:	e1a03006 	mov	r3, r6
e0018e3c:	e59d2038 	ldr	r2, [sp, #56]	; 0x38
e0018e40:	e8980003 	ldm	r8, {r0, r1}
e0018e44:	ebffe92f 	bl	e0013308 <cteInsert>
e0018e48:	ea000001 	b	e0018e54 <invokeTCB_ThreadControl+0xf4>
e0018e4c:	e3510000 	cmp	r1, #0
e0018e50:	15853074 	strne	r3, [r5, #116]	; 0x74
e0018e54:	e3140002 	tst	r4, #2
e0018e58:	0a000023 	beq	e0018eec <invokeTCB_ThreadControl+0x18c>
e0018e5c:	e3c50f7f 	bic	r0, r5, #508	; 0x1fc
e0018e60:	e3a01001 	mov	r1, #1
e0018e64:	e3c00003 	bic	r0, r0, #3
e0018e68:	e2806040 	add	r6, r0, #64	; 0x40
e0018e6c:	e1a00006 	mov	r0, r6
e0018e70:	ebfff6fc 	bl	e0016a68 <cteDelete>
e0018e74:	e3500000 	cmp	r0, #0
e0018e78:	1a000021 	bne	e0018f04 <invokeTCB_ThreadControl+0x1a4>
e0018e7c:	e59d3048 	ldr	r3, [sp, #72]	; 0x48
e0018e80:	e3530000 	cmp	r3, #0
e0018e84:	e59d303c 	ldr	r3, [sp, #60]	; 0x3c
e0018e88:	e5853084 	str	r3, [r5, #132]	; 0x84
e0018e8c:	0a000010 	beq	e0018ed4 <invokeTCB_ThreadControl+0x174>
e0018e90:	e59d3048 	ldr	r3, [sp, #72]	; 0x48
e0018e94:	e28d8040 	add	r8, sp, #64	; 0x40
e0018e98:	e8980003 	ldm	r8, {r0, r1}
e0018e9c:	e893000c 	ldm	r3, {r2, r3}
e0018ea0:	ebffef7d 	bl	e0014c9c <sameObjectAs>
e0018ea4:	e3500000 	cmp	r0, #0
e0018ea8:	0a000009 	beq	e0018ed4 <invokeTCB_ThreadControl+0x174>
e0018eac:	e28d1008 	add	r1, sp, #8
e0018eb0:	e897000c 	ldm	r7, {r2, r3}
e0018eb4:	e9110003 	ldmdb	r1, {r0, r1}
e0018eb8:	ebffef77 	bl	e0014c9c <sameObjectAs>
e0018ebc:	e3500000 	cmp	r0, #0
e0018ec0:	0a000003 	beq	e0018ed4 <invokeTCB_ThreadControl+0x174>
e0018ec4:	e1a03006 	mov	r3, r6
e0018ec8:	e59d2048 	ldr	r2, [sp, #72]	; 0x48
e0018ecc:	e8980003 	ldm	r8, {r0, r1}
e0018ed0:	ebffe90c 	bl	e0013308 <cteInsert>
e0018ed4:	e303364c 	movw	r3, #13900	; 0x364c
e0018ed8:	e34e3003 	movt	r3, #57347	; 0xe003
e0018edc:	e5933000 	ldr	r3, [r3]
e0018ee0:	e1530005 	cmp	r3, r5
e0018ee4:	1a000000 	bne	e0018eec <invokeTCB_ThreadControl+0x18c>
e0018ee8:	ebffe86a 	bl	e0013098 <rescheduleRequired>
e0018eec:	e2140001 	ands	r0, r4, #1
e0018ef0:	0a000003 	beq	e0018f04 <invokeTCB_ThreadControl+0x1a4>
e0018ef4:	e1a00005 	mov	r0, r5
e0018ef8:	e59d1020 	ldr	r1, [sp, #32]
e0018efc:	ebfff61a 	bl	e001676c <setPriority>
e0018f00:	e3a00000 	mov	r0, #0
e0018f04:	e28dd008 	add	sp, sp, #8
e0018f08:	e8bd81f0 	pop	{r4, r5, r6, r7, r8, pc}
e0018f0c:	e1a03006 	mov	r3, r6
e0018f10:	e59d202c 	ldr	r2, [sp, #44]	; 0x2c
e0018f14:	e8980003 	ldm	r8, {r0, r1}
e0018f18:	ebffe8fa 	bl	e0013308 <cteInsert>
e0018f1c:	eaffffb2 	b	e0018dec <invokeTCB_ThreadControl+0x8c>

e0018f20 <decodeTCBConfigure>:
e0018f20:	e92d4ff0 	push	{r4, r5, r6, r7, r8, r9, sl, fp, lr}
e0018f24:	e24dd084 	sub	sp, sp, #132	; 0x84
e0018f28:	e28de050 	add	lr, sp, #80	; 0x50
e0018f2c:	e59d60ac 	ldr	r6, [sp, #172]	; 0xac
e0018f30:	e59d50a8 	ldr	r5, [sp, #168]	; 0xa8
e0018f34:	e16fcf16 	clz	ip, r6
e0018f38:	e59d40b0 	ldr	r4, [sp, #176]	; 0xb0
e0018f3c:	e3550000 	cmp	r5, #0
e0018f40:	e88e0003 	stm	lr, {r0, r1}
e0018f44:	e1a0c2ac 	lsr	ip, ip, #5
e0018f48:	03a0c001 	moveq	ip, #1
e0018f4c:	e3540000 	cmp	r4, #0
e0018f50:	03a0c001 	moveq	ip, #1
e0018f54:	e3520003 	cmp	r2, #3
e0018f58:	938cc001 	orrls	ip, ip, #1
e0018f5c:	e35c0000 	cmp	ip, #0
e0018f60:	0a000006 	beq	e0018f80 <decodeTCBConfigure+0x60>
e0018f64:	e3093020 	movw	r3, #36896	; 0x9020
e0018f68:	e34e3002 	movt	r3, #57346	; 0xe002
e0018f6c:	e3a00003 	mov	r0, #3
e0018f70:	e3a02007 	mov	r2, #7
e0018f74:	e5832018 	str	r2, [r3, #24]
e0018f78:	e28dd084 	add	sp, sp, #132	; 0x84
e0018f7c:	e8bd8ff0 	pop	{r4, r5, r6, r7, r8, r9, sl, fp, pc}
e0018f80:	e303864c 	movw	r8, #13900	; 0x364c
e0018f84:	e34e8003 	movt	r8, #57347	; 0xe003
e0018f88:	e58d304c 	str	r3, [sp, #76]	; 0x4c
e0018f8c:	e28d7064 	add	r7, sp, #100	; 0x64
e0018f90:	e5983000 	ldr	r3, [r8]
e0018f94:	e28db05c 	add	fp, sp, #92	; 0x5c
e0018f98:	e8950003 	ldm	r5, {r0, r1}
e0018f9c:	e5932008 	ldr	r2, [r3, #8]
e0018fa0:	e1a0a000 	mov	sl, r0
e0018fa4:	e8870003 	stm	r7, {r0, r1}
e0018fa8:	e8960003 	ldm	r6, {r0, r1}
e0018fac:	e58d2048 	str	r2, [sp, #72]	; 0x48
e0018fb0:	e28d206c 	add	r2, sp, #108	; 0x6c
e0018fb4:	e5939014 	ldr	r9, [r3, #20]
e0018fb8:	e8820003 	stm	r2, {r0, r1}
e0018fbc:	e593200c 	ldr	r2, [r3, #12]
e0018fc0:	e3590000 	cmp	r9, #0
e0018fc4:	e5933010 	ldr	r3, [r3, #16]
e0018fc8:	e58d0040 	str	r0, [sp, #64]	; 0x40
e0018fcc:	e8940003 	ldm	r4, {r0, r1}
e0018fd0:	01a04009 	moveq	r4, r9
e0018fd4:	e58d3044 	str	r3, [sp, #68]	; 0x44
e0018fd8:	e59d3050 	ldr	r3, [sp, #80]	; 0x50
e0018fdc:	e58d2038 	str	r2, [sp, #56]	; 0x38
e0018fe0:	e88b0003 	stm	fp, {r0, r1}
e0018fe4:	e58d3034 	str	r3, [sp, #52]	; 0x34
e0018fe8:	1a000077 	bne	e00191cc <decodeTCBConfigure+0x2ac>
e0018fec:	e59d3034 	ldr	r3, [sp, #52]	; 0x34
e0018ff0:	e3c33f7f 	bic	r3, r3, #508	; 0x1fc
e0018ff4:	e3c33003 	bic	r3, r3, #3
e0018ff8:	e58d303c 	str	r3, [sp, #60]	; 0x3c
e0018ffc:	e1a00003 	mov	r0, r3
e0019000:	ebffef66 	bl	e0014da0 <slotCapLongRunningDelete>
e0019004:	e3500000 	cmp	r0, #0
e0019008:	1a000068 	bne	e00191b0 <decodeTCBConfigure+0x290>
e001900c:	e59d303c 	ldr	r3, [sp, #60]	; 0x3c
e0019010:	e2830010 	add	r0, r3, #16
e0019014:	ebffef61 	bl	e0014da0 <slotCapLongRunningDelete>
e0019018:	e2501000 	subs	r1, r0, #0
e001901c:	1a000063 	bne	e00191b0 <decodeTCBConfigure+0x290>
e0019020:	e59d2038 	ldr	r2, [sp, #56]	; 0x38
e0019024:	e3520000 	cmp	r2, #0
e0019028:	0a000006 	beq	e0019048 <decodeTCBConfigure+0x128>
e001902c:	e59dc068 	ldr	ip, [sp, #104]	; 0x68
e0019030:	e1a0300a 	mov	r3, sl
e0019034:	e1a00007 	mov	r0, r7
e0019038:	e58da064 	str	sl, [sp, #100]	; 0x64
e001903c:	e58dc000 	str	ip, [sp]
e0019040:	ebfff38d 	bl	e0015e7c <updateCapData>
e0019044:	e59da064 	ldr	sl, [sp, #100]	; 0x64
e0019048:	e58da064 	str	sl, [sp, #100]	; 0x64
e001904c:	e28d0074 	add	r0, sp, #116	; 0x74
e0019050:	e1a01005 	mov	r1, r5
e0019054:	e897000c 	ldm	r7, {r2, r3}
e0019058:	ebffeee5 	bl	e0014bf4 <deriveCap>
e001905c:	e59d0074 	ldr	r0, [sp, #116]	; 0x74
e0019060:	e3500000 	cmp	r0, #0
e0019064:	1affffc3 	bne	e0018f78 <decodeTCBConfigure+0x58>
e0019068:	e28da080 	add	sl, sp, #128	; 0x80
e001906c:	e53a2008 	ldr	r2, [sl, #-8]!
e0019070:	e202300e 	and	r3, r2, #14
e0019074:	e353000e 	cmp	r3, #14
e0019078:	e58d2038 	str	r2, [sp, #56]	; 0x38
e001907c:	e89a0003 	ldm	sl, {r0, r1}
e0019080:	1202300f 	andne	r3, r2, #15
e0019084:	05dd3038 	ldrbeq	r3, [sp, #56]	; 0x38
e0019088:	e353000a 	cmp	r3, #10
e001908c:	e8870003 	stm	r7, {r0, r1}
e0019090:	1a000046 	bne	e00191b0 <decodeTCBConfigure+0x290>
e0019094:	e59d2044 	ldr	r2, [sp, #68]	; 0x44
e0019098:	e3520000 	cmp	r2, #0
e001909c:	0a000009 	beq	e00190c8 <decodeTCBConfigure+0x1a8>
e00190a0:	e59d0040 	ldr	r0, [sp, #64]	; 0x40
e00190a4:	e3a01000 	mov	r1, #0
e00190a8:	e59dc070 	ldr	ip, [sp, #112]	; 0x70
e00190ac:	e1a03000 	mov	r3, r0
e00190b0:	e58d006c 	str	r0, [sp, #108]	; 0x6c
e00190b4:	e58dc000 	str	ip, [sp]
e00190b8:	e28d006c 	add	r0, sp, #108	; 0x6c
e00190bc:	ebfff36e 	bl	e0015e7c <updateCapData>
e00190c0:	e59d306c 	ldr	r3, [sp, #108]	; 0x6c
e00190c4:	e58d3040 	str	r3, [sp, #64]	; 0x40
e00190c8:	e59d3040 	ldr	r3, [sp, #64]	; 0x40
e00190cc:	e28d0074 	add	r0, sp, #116	; 0x74
e00190d0:	e1a01006 	mov	r1, r6
e00190d4:	e58d306c 	str	r3, [sp, #108]	; 0x6c
e00190d8:	e28d306c 	add	r3, sp, #108	; 0x6c
e00190dc:	e893000c 	ldm	r3, {r2, r3}
e00190e0:	ebffeec3 	bl	e0014bf4 <deriveCap>
e00190e4:	e59d0074 	ldr	r0, [sp, #116]	; 0x74
e00190e8:	e3500000 	cmp	r0, #0
e00190ec:	1affffa1 	bne	e0018f78 <decodeTCBConfigure+0x58>
e00190f0:	e59d3078 	ldr	r3, [sp, #120]	; 0x78
e00190f4:	e89a0003 	ldm	sl, {r0, r1}
e00190f8:	e203200e 	and	r2, r3, #14
e00190fc:	e352000e 	cmp	r2, #14
e0019100:	e28d206c 	add	r2, sp, #108	; 0x6c
e0019104:	e8820003 	stm	r2, {r0, r1}
e0019108:	1203200f 	andne	r2, r3, #15
e001910c:	06ef2073 	uxtbeq	r2, r3
e0019110:	e3520009 	cmp	r2, #9
e0019114:	1a000025 	bne	e00191b0 <decodeTCBConfigure+0x290>
e0019118:	e3130010 	tst	r3, #16
e001911c:	e58d303c 	str	r3, [sp, #60]	; 0x3c
e0019120:	0a000022 	beq	e00191b0 <decodeTCBConfigure+0x290>
e0019124:	e5981000 	ldr	r1, [r8]
e0019128:	e5912050 	ldr	r2, [r1, #80]	; 0x50
e001912c:	e1a00001 	mov	r0, r1
e0019130:	e3c2200f 	bic	r2, r2, #15
e0019134:	e3822002 	orr	r2, r2, #2
e0019138:	e5812050 	str	r2, [r1, #80]	; 0x50
e001913c:	ebffe7f4 	bl	e0013114 <setThreadState.part.166>
e0019140:	e59d303c 	ldr	r3, [sp, #60]	; 0x3c
e0019144:	e89b0003 	ldm	fp, {r0, r1}
e0019148:	e28d2020 	add	r2, sp, #32
e001914c:	e58d4028 	str	r4, [sp, #40]	; 0x28
e0019150:	e28de010 	add	lr, sp, #16
e0019154:	e58d306c 	str	r3, [sp, #108]	; 0x6c
e0019158:	e3a03006 	mov	r3, #6
e001915c:	e58d302c 	str	r3, [sp, #44]	; 0x2c
e0019160:	e28d306c 	add	r3, sp, #108	; 0x6c
e0019164:	e8820003 	stm	r2, {r0, r1}
e0019168:	e3a0c000 	mov	ip, #0
e001916c:	e8930003 	ldm	r3, {r0, r1}
e0019170:	e59d3038 	ldr	r3, [sp, #56]	; 0x38
e0019174:	e58d901c 	str	r9, [sp, #28]
e0019178:	e58d6018 	str	r6, [sp, #24]
e001917c:	e58d3064 	str	r3, [sp, #100]	; 0x64
e0019180:	e1a0300c 	mov	r3, ip
e0019184:	e59d2048 	ldr	r2, [sp, #72]	; 0x48
e0019188:	e88e0003 	stm	lr, {r0, r1}
e001918c:	e8970003 	ldm	r7, {r0, r1}
e0019190:	e58d500c 	str	r5, [sp, #12]
e0019194:	e58dc000 	str	ip, [sp]
e0019198:	e98d0003 	stmib	sp, {r0, r1}
e001919c:	e59d0034 	ldr	r0, [sp, #52]	; 0x34
e00191a0:	e59d104c 	ldr	r1, [sp, #76]	; 0x4c
e00191a4:	e3c0000f 	bic	r0, r0, #15
e00191a8:	ebfffeec 	bl	e0018d60 <invokeTCB_ThreadControl>
e00191ac:	eaffff71 	b	e0018f78 <decodeTCBConfigure+0x58>
e00191b0:	e3093020 	movw	r3, #36896	; 0x9020
e00191b4:	e34e3002 	movt	r3, #57346	; 0xe002
e00191b8:	e3a02003 	mov	r2, #3
e00191bc:	e1a00002 	mov	r0, r2
e00191c0:	e5832018 	str	r2, [r3, #24]
e00191c4:	e28dd084 	add	sp, sp, #132	; 0x84
e00191c8:	e8bd8ff0 	pop	{r4, r5, r6, r7, r8, r9, sl, fp, pc}
e00191cc:	e28d0074 	add	r0, sp, #116	; 0x74
e00191d0:	e89b000c 	ldm	fp, {r2, r3}
e00191d4:	e1a01004 	mov	r1, r4
e00191d8:	ebffee85 	bl	e0014bf4 <deriveCap>
e00191dc:	e59d0074 	ldr	r0, [sp, #116]	; 0x74
e00191e0:	e3500000 	cmp	r0, #0
e00191e4:	1affff63 	bne	e0018f78 <decodeTCBConfigure+0x58>
e00191e8:	e28d3080 	add	r3, sp, #128	; 0x80
e00191ec:	e9130003 	ldmdb	r3, {r0, r1}
e00191f0:	e88b0003 	stm	fp, {r0, r1}
e00191f4:	e1a00009 	mov	r0, r9
e00191f8:	e89b0006 	ldm	fp, {r1, r2}
e00191fc:	ebffdf7e 	bl	e0010ffc <checkValidIPCBuffer>
e0019200:	e3500000 	cmp	r0, #0
e0019204:	0affff78 	beq	e0018fec <decodeTCBConfigure+0xcc>
e0019208:	eaffff5a 	b	e0018f78 <decodeTCBConfigure+0x58>

e001920c <decodeSetPriority>:
e001920c:	e24dd008 	sub	sp, sp, #8
e0019210:	e3520000 	cmp	r2, #0
e0019214:	13530000 	cmpne	r3, #0
e0019218:	e92d4010 	push	{r4, lr}
e001921c:	e24dd040 	sub	sp, sp, #64	; 0x40
e0019220:	e28d2030 	add	r2, sp, #48	; 0x30
e0019224:	e58d304c 	str	r3, [sp, #76]	; 0x4c
e0019228:	e8820003 	stm	r2, {r0, r1}
e001922c:	0a00003b 	beq	e0019320 <decodeSetPriority+0x114>
e0019230:	e5933000 	ldr	r3, [r3]
e0019234:	e203200e 	and	r2, r3, #14
e0019238:	e352000e 	cmp	r2, #14
e001923c:	1203200f 	andne	r2, r3, #15
e0019240:	06ef2073 	uxtbeq	r2, r3
e0019244:	e352000c 	cmp	r2, #12
e0019248:	1a000029 	bne	e00192f4 <decodeSetPriority+0xe8>
e001924c:	e303264c 	movw	r2, #13900	; 0x364c
e0019250:	e34e2003 	movt	r2, #57347	; 0xe003
e0019254:	e3c3300f 	bic	r3, r3, #15
e0019258:	e5922000 	ldr	r2, [r2]
e001925c:	e5931074 	ldr	r1, [r3, #116]	; 0x74
e0019260:	e5924008 	ldr	r4, [r2, #8]
e0019264:	e1510004 	cmp	r1, r4
e0019268:	3a000035 	bcc	e0019344 <decodeSetPriority+0x138>
e001926c:	e5923050 	ldr	r3, [r2, #80]	; 0x50
e0019270:	e1a00002 	mov	r0, r2
e0019274:	e3c3300f 	bic	r3, r3, #15
e0019278:	e3833002 	orr	r3, r3, #2
e001927c:	e5823050 	str	r3, [r2, #80]	; 0x50
e0019280:	ebffe7a3 	bl	e0013114 <setThreadState.part.166>
e0019284:	e28dc038 	add	ip, sp, #56	; 0x38
e0019288:	e3a03000 	mov	r3, #0
e001928c:	e58d3038 	str	r3, [sp, #56]	; 0x38
e0019290:	e58d303c 	str	r3, [sp, #60]	; 0x3c
e0019294:	e28de020 	add	lr, sp, #32
e0019298:	e89c0003 	ldm	ip, {r0, r1}
e001929c:	e3a02001 	mov	r2, #1
e00192a0:	e58d3028 	str	r3, [sp, #40]	; 0x28
e00192a4:	e58d202c 	str	r2, [sp, #44]	; 0x2c
e00192a8:	e28d2010 	add	r2, sp, #16
e00192ac:	e88e0003 	stm	lr, {r0, r1}
e00192b0:	e89c0003 	ldm	ip, {r0, r1}
e00192b4:	e58d301c 	str	r3, [sp, #28]
e00192b8:	e58d3018 	str	r3, [sp, #24]
e00192bc:	e8820003 	stm	r2, {r0, r1}
e00192c0:	e1a02003 	mov	r2, r3
e00192c4:	e89c0003 	ldm	ip, {r0, r1}
e00192c8:	e59dc030 	ldr	ip, [sp, #48]	; 0x30
e00192cc:	e58d300c 	str	r3, [sp, #12]
e00192d0:	e98d0003 	stmib	sp, {r0, r1}
e00192d4:	e1a01003 	mov	r1, r3
e00192d8:	e58d4000 	str	r4, [sp]
e00192dc:	e3cc000f 	bic	r0, ip, #15
e00192e0:	ebfffe9e 	bl	e0018d60 <invokeTCB_ThreadControl>
e00192e4:	e28dd040 	add	sp, sp, #64	; 0x40
e00192e8:	e8bd4010 	pop	{r4, lr}
e00192ec:	e28dd008 	add	sp, sp, #8
e00192f0:	e12fff1e 	bx	lr
e00192f4:	e3093020 	movw	r3, #36896	; 0x9020
e00192f8:	e34e3002 	movt	r3, #57346	; 0xe002
e00192fc:	e3a01002 	mov	r1, #2
e0019300:	e3a02001 	mov	r2, #1
e0019304:	e3a00003 	mov	r0, #3
e0019308:	e5831018 	str	r1, [r3, #24]
e001930c:	e5832004 	str	r2, [r3, #4]
e0019310:	e28dd040 	add	sp, sp, #64	; 0x40
e0019314:	e8bd4010 	pop	{r4, lr}
e0019318:	e28dd008 	add	sp, sp, #8
e001931c:	e12fff1e 	bx	lr
e0019320:	e3093020 	movw	r3, #36896	; 0x9020
e0019324:	e34e3002 	movt	r3, #57346	; 0xe002
e0019328:	e3a02007 	mov	r2, #7
e001932c:	e3a00003 	mov	r0, #3
e0019330:	e5832018 	str	r2, [r3, #24]
e0019334:	e28dd040 	add	sp, sp, #64	; 0x40
e0019338:	e8bd4010 	pop	{r4, lr}
e001933c:	e28dd008 	add	sp, sp, #8
e0019340:	e12fff1e 	bx	lr
e0019344:	e3093020 	movw	r3, #36896	; 0x9020
e0019348:	e34e3002 	movt	r3, #57346	; 0xe002
e001934c:	e3a00003 	mov	r0, #3
e0019350:	e3a0c004 	mov	ip, #4
e0019354:	e3a02000 	mov	r2, #0
e0019358:	e583100c 	str	r1, [r3, #12]
e001935c:	e583c018 	str	ip, [r3, #24]
e0019360:	e5832008 	str	r2, [r3, #8]
e0019364:	e28dd040 	add	sp, sp, #64	; 0x40
e0019368:	e8bd4010 	pop	{r4, lr}
e001936c:	e28dd008 	add	sp, sp, #8
e0019370:	e12fff1e 	bx	lr

e0019374 <decodeSetMCPriority>:
e0019374:	e24dd008 	sub	sp, sp, #8
e0019378:	e3520000 	cmp	r2, #0
e001937c:	13530000 	cmpne	r3, #0
e0019380:	e92d4030 	push	{r4, r5, lr}
e0019384:	e24dd044 	sub	sp, sp, #68	; 0x44
e0019388:	e28d2030 	add	r2, sp, #48	; 0x30
e001938c:	e58d3054 	str	r3, [sp, #84]	; 0x54
e0019390:	e8820003 	stm	r2, {r0, r1}
e0019394:	0a00003b 	beq	e0019488 <decodeSetMCPriority+0x114>
e0019398:	e5933000 	ldr	r3, [r3]
e001939c:	e203200e 	and	r2, r3, #14
e00193a0:	e352000e 	cmp	r2, #14
e00193a4:	1203200f 	andne	r2, r3, #15
e00193a8:	06ef2073 	uxtbeq	r2, r3
e00193ac:	e352000c 	cmp	r2, #12
e00193b0:	1a000029 	bne	e001945c <decodeSetMCPriority+0xe8>
e00193b4:	e303264c 	movw	r2, #13900	; 0x364c
e00193b8:	e34e2003 	movt	r2, #57347	; 0xe003
e00193bc:	e3c3300f 	bic	r3, r3, #15
e00193c0:	e5922000 	ldr	r2, [r2]
e00193c4:	e5931074 	ldr	r1, [r3, #116]	; 0x74
e00193c8:	e5924008 	ldr	r4, [r2, #8]
e00193cc:	e1510004 	cmp	r1, r4
e00193d0:	3a000035 	bcc	e00194ac <decodeSetMCPriority+0x138>
e00193d4:	e5921050 	ldr	r1, [r2, #80]	; 0x50
e00193d8:	e1a00002 	mov	r0, r2
e00193dc:	e28d5020 	add	r5, sp, #32
e00193e0:	e3c1100f 	bic	r1, r1, #15
e00193e4:	e3811002 	orr	r1, r1, #2
e00193e8:	e5821050 	str	r1, [r2, #80]	; 0x50
e00193ec:	ebffe748 	bl	e0013114 <setThreadState.part.166>
e00193f0:	e28dc038 	add	ip, sp, #56	; 0x38
e00193f4:	e3a02000 	mov	r2, #0
e00193f8:	e58d2038 	str	r2, [sp, #56]	; 0x38
e00193fc:	e58d203c 	str	r2, [sp, #60]	; 0x3c
e0019400:	e3a0e008 	mov	lr, #8
e0019404:	e89c0003 	ldm	ip, {r0, r1}
e0019408:	e1a03004 	mov	r3, r4
e001940c:	e58de02c 	str	lr, [sp, #44]	; 0x2c
e0019410:	e28de010 	add	lr, sp, #16
e0019414:	e58d2028 	str	r2, [sp, #40]	; 0x28
e0019418:	e8850003 	stm	r5, {r0, r1}
e001941c:	e89c0003 	ldm	ip, {r0, r1}
e0019420:	e58d201c 	str	r2, [sp, #28]
e0019424:	e58d2018 	str	r2, [sp, #24]
e0019428:	e88e0003 	stm	lr, {r0, r1}
e001942c:	e89c0003 	ldm	ip, {r0, r1}
e0019430:	e59dc030 	ldr	ip, [sp, #48]	; 0x30
e0019434:	e58d200c 	str	r2, [sp, #12]
e0019438:	e98d0003 	stmib	sp, {r0, r1}
e001943c:	e1a01002 	mov	r1, r2
e0019440:	e58d2000 	str	r2, [sp]
e0019444:	e3cc000f 	bic	r0, ip, #15
e0019448:	ebfffe44 	bl	e0018d60 <invokeTCB_ThreadControl>
e001944c:	e28dd044 	add	sp, sp, #68	; 0x44
e0019450:	e8bd4030 	pop	{r4, r5, lr}
e0019454:	e28dd008 	add	sp, sp, #8
e0019458:	e12fff1e 	bx	lr
e001945c:	e3093020 	movw	r3, #36896	; 0x9020
e0019460:	e34e3002 	movt	r3, #57346	; 0xe002
e0019464:	e3a01002 	mov	r1, #2
e0019468:	e3a02001 	mov	r2, #1
e001946c:	e3a00003 	mov	r0, #3
e0019470:	e5831018 	str	r1, [r3, #24]
e0019474:	e5832004 	str	r2, [r3, #4]
e0019478:	e28dd044 	add	sp, sp, #68	; 0x44
e001947c:	e8bd4030 	pop	{r4, r5, lr}
e0019480:	e28dd008 	add	sp, sp, #8
e0019484:	e12fff1e 	bx	lr
e0019488:	e3093020 	movw	r3, #36896	; 0x9020
e001948c:	e34e3002 	movt	r3, #57346	; 0xe002
e0019490:	e3a02007 	mov	r2, #7
e0019494:	e3a00003 	mov	r0, #3
e0019498:	e5832018 	str	r2, [r3, #24]
e001949c:	e28dd044 	add	sp, sp, #68	; 0x44
e00194a0:	e8bd4030 	pop	{r4, r5, lr}
e00194a4:	e28dd008 	add	sp, sp, #8
e00194a8:	e12fff1e 	bx	lr
e00194ac:	e3093020 	movw	r3, #36896	; 0x9020
e00194b0:	e34e3002 	movt	r3, #57346	; 0xe002
e00194b4:	e3a00003 	mov	r0, #3
e00194b8:	e3a0c004 	mov	ip, #4
e00194bc:	e3a02000 	mov	r2, #0
e00194c0:	e583100c 	str	r1, [r3, #12]
e00194c4:	e583c018 	str	ip, [r3, #24]
e00194c8:	e5832008 	str	r2, [r3, #8]
e00194cc:	e28dd044 	add	sp, sp, #68	; 0x44
e00194d0:	e8bd4030 	pop	{r4, r5, lr}
e00194d4:	e28dd008 	add	sp, sp, #8
e00194d8:	e12fff1e 	bx	lr

e00194dc <decodeSetSchedParams>:
e00194dc:	e24dd008 	sub	sp, sp, #8
e00194e0:	e3530000 	cmp	r3, #0
e00194e4:	13520001 	cmpne	r2, #1
e00194e8:	e92d4070 	push	{r4, r5, r6, lr}
e00194ec:	e24dd040 	sub	sp, sp, #64	; 0x40
e00194f0:	e28d2030 	add	r2, sp, #48	; 0x30
e00194f4:	e58d3054 	str	r3, [sp, #84]	; 0x54
e00194f8:	e8820003 	stm	r2, {r0, r1}
e00194fc:	9a00004a 	bls	e001962c <decodeSetSchedParams+0x150>
e0019500:	e5933000 	ldr	r3, [r3]
e0019504:	e203200e 	and	r2, r3, #14
e0019508:	e352000e 	cmp	r2, #14
e001950c:	1203200f 	andne	r2, r3, #15
e0019510:	06ef2073 	uxtbeq	r2, r3
e0019514:	e352000c 	cmp	r2, #12
e0019518:	1a00002c 	bne	e00195d0 <decodeSetSchedParams+0xf4>
e001951c:	e303264c 	movw	r2, #13900	; 0x364c
e0019520:	e34e2003 	movt	r2, #57347	; 0xe003
e0019524:	e3c3300f 	bic	r3, r3, #15
e0019528:	e5922000 	ldr	r2, [r2]
e001952c:	e5931074 	ldr	r1, [r3, #116]	; 0x74
e0019530:	e5924008 	ldr	r4, [r2, #8]
e0019534:	e1510004 	cmp	r1, r4
e0019538:	3a00002f 	bcc	e00195fc <decodeSetSchedParams+0x120>
e001953c:	e592500c 	ldr	r5, [r2, #12]
e0019540:	e1510005 	cmp	r1, r5
e0019544:	3a00002c 	bcc	e00195fc <decodeSetSchedParams+0x120>
e0019548:	e5923050 	ldr	r3, [r2, #80]	; 0x50
e001954c:	e1a00002 	mov	r0, r2
e0019550:	e28d6020 	add	r6, sp, #32
e0019554:	e3c3300f 	bic	r3, r3, #15
e0019558:	e3833002 	orr	r3, r3, #2
e001955c:	e5823050 	str	r3, [r2, #80]	; 0x50
e0019560:	ebffe6eb 	bl	e0013114 <setThreadState.part.166>
e0019564:	e28dc038 	add	ip, sp, #56	; 0x38
e0019568:	e3a02000 	mov	r2, #0
e001956c:	e58d2038 	str	r2, [sp, #56]	; 0x38
e0019570:	e58d203c 	str	r2, [sp, #60]	; 0x3c
e0019574:	e3a0e009 	mov	lr, #9
e0019578:	e89c0003 	ldm	ip, {r0, r1}
e001957c:	e1a03004 	mov	r3, r4
e0019580:	e58de02c 	str	lr, [sp, #44]	; 0x2c
e0019584:	e28de010 	add	lr, sp, #16
e0019588:	e58d2028 	str	r2, [sp, #40]	; 0x28
e001958c:	e8860003 	stm	r6, {r0, r1}
e0019590:	e89c0003 	ldm	ip, {r0, r1}
e0019594:	e58d201c 	str	r2, [sp, #28]
e0019598:	e58d2018 	str	r2, [sp, #24]
e001959c:	e88e0003 	stm	lr, {r0, r1}
e00195a0:	e89c0003 	ldm	ip, {r0, r1}
e00195a4:	e59dc030 	ldr	ip, [sp, #48]	; 0x30
e00195a8:	e58d200c 	str	r2, [sp, #12]
e00195ac:	e98d0003 	stmib	sp, {r0, r1}
e00195b0:	e1a01002 	mov	r1, r2
e00195b4:	e58d5000 	str	r5, [sp]
e00195b8:	e3cc000f 	bic	r0, ip, #15
e00195bc:	ebfffde7 	bl	e0018d60 <invokeTCB_ThreadControl>
e00195c0:	e28dd040 	add	sp, sp, #64	; 0x40
e00195c4:	e8bd4070 	pop	{r4, r5, r6, lr}
e00195c8:	e28dd008 	add	sp, sp, #8
e00195cc:	e12fff1e 	bx	lr
e00195d0:	e3093020 	movw	r3, #36896	; 0x9020
e00195d4:	e34e3002 	movt	r3, #57346	; 0xe002
e00195d8:	e3a01002 	mov	r1, #2
e00195dc:	e3a02001 	mov	r2, #1
e00195e0:	e3a00003 	mov	r0, #3
e00195e4:	e5831018 	str	r1, [r3, #24]
e00195e8:	e5832004 	str	r2, [r3, #4]
e00195ec:	e28dd040 	add	sp, sp, #64	; 0x40
e00195f0:	e8bd4070 	pop	{r4, r5, r6, lr}
e00195f4:	e28dd008 	add	sp, sp, #8
e00195f8:	e12fff1e 	bx	lr
e00195fc:	e3093020 	movw	r3, #36896	; 0x9020
e0019600:	e34e3002 	movt	r3, #57346	; 0xe002
e0019604:	e3a0c004 	mov	ip, #4
e0019608:	e3a02000 	mov	r2, #0
e001960c:	e3a00003 	mov	r0, #3
e0019610:	e583100c 	str	r1, [r3, #12]
e0019614:	e583c018 	str	ip, [r3, #24]
e0019618:	e5832008 	str	r2, [r3, #8]
e001961c:	e28dd040 	add	sp, sp, #64	; 0x40
e0019620:	e8bd4070 	pop	{r4, r5, r6, lr}
e0019624:	e28dd008 	add	sp, sp, #8
e0019628:	e12fff1e 	bx	lr
e001962c:	e3093020 	movw	r3, #36896	; 0x9020
e0019630:	e34e3002 	movt	r3, #57346	; 0xe002
e0019634:	e3a02007 	mov	r2, #7
e0019638:	e3a00003 	mov	r0, #3
e001963c:	e5832018 	str	r2, [r3, #24]
e0019640:	e28dd040 	add	sp, sp, #64	; 0x40
e0019644:	e8bd4070 	pop	{r4, r5, r6, lr}
e0019648:	e28dd008 	add	sp, sp, #8
e001964c:	e12fff1e 	bx	lr

e0019650 <decodeSetIPCBuffer>:
e0019650:	e92d43f0 	push	{r4, r5, r6, r7, r8, r9, lr}
e0019654:	e24dd054 	sub	sp, sp, #84	; 0x54
e0019658:	e28dc030 	add	ip, sp, #48	; 0x30
e001965c:	e59d4070 	ldr	r4, [sp, #112]	; 0x70
e0019660:	e88c0003 	stm	ip, {r0, r1}
e0019664:	e3520000 	cmp	r2, #0
e0019668:	13540000 	cmpne	r4, #0
e001966c:	0a00003c 	beq	e0019764 <decodeSetIPCBuffer+0x114>
e0019670:	e303764c 	movw	r7, #13900	; 0x364c
e0019674:	e34e7003 	movt	r7, #57347	; 0xe003
e0019678:	e1a06003 	mov	r6, r3
e001967c:	e8940003 	ldm	r4, {r0, r1}
e0019680:	e5973000 	ldr	r3, [r7]
e0019684:	e28d503c 	add	r5, sp, #60	; 0x3c
e0019688:	e28d8044 	add	r8, sp, #68	; 0x44
e001968c:	e8850003 	stm	r5, {r0, r1}
e0019690:	e5939008 	ldr	r9, [r3, #8]
e0019694:	e3590000 	cmp	r9, #0
e0019698:	1a000020 	bne	e0019720 <decodeSetIPCBuffer+0xd0>
e001969c:	e1a04009 	mov	r4, r9
e00196a0:	e5932050 	ldr	r2, [r3, #80]	; 0x50
e00196a4:	e1a00003 	mov	r0, r3
e00196a8:	e3c2200f 	bic	r2, r2, #15
e00196ac:	e3822002 	orr	r2, r2, #2
e00196b0:	e5832050 	str	r2, [r3, #80]	; 0x50
e00196b4:	ebffe696 	bl	e0013114 <setThreadState.part.166>
e00196b8:	e8950003 	ldm	r5, {r0, r1}
e00196bc:	e28d3020 	add	r3, sp, #32
e00196c0:	e3a0c000 	mov	ip, #0
e00196c4:	e58d4028 	str	r4, [sp, #40]	; 0x28
e00196c8:	e3a02002 	mov	r2, #2
e00196cc:	e58d202c 	str	r2, [sp, #44]	; 0x2c
e00196d0:	e28de010 	add	lr, sp, #16
e00196d4:	e8830003 	stm	r3, {r0, r1}
e00196d8:	e1a0200c 	mov	r2, ip
e00196dc:	e58dc044 	str	ip, [sp, #68]	; 0x44
e00196e0:	e1a0300c 	mov	r3, ip
e00196e4:	e58dc048 	str	ip, [sp, #72]	; 0x48
e00196e8:	e8980003 	ldm	r8, {r0, r1}
e00196ec:	e58d901c 	str	r9, [sp, #28]
e00196f0:	e58dc018 	str	ip, [sp, #24]
e00196f4:	e88e0003 	stm	lr, {r0, r1}
e00196f8:	e8980003 	ldm	r8, {r0, r1}
e00196fc:	e59de030 	ldr	lr, [sp, #48]	; 0x30
e0019700:	e58dc00c 	str	ip, [sp, #12]
e0019704:	e98d0003 	stmib	sp, {r0, r1}
e0019708:	e1a01006 	mov	r1, r6
e001970c:	e58dc000 	str	ip, [sp]
e0019710:	e3ce000f 	bic	r0, lr, #15
e0019714:	ebfffd91 	bl	e0018d60 <invokeTCB_ThreadControl>
e0019718:	e28dd054 	add	sp, sp, #84	; 0x54
e001971c:	e8bd83f0 	pop	{r4, r5, r6, r7, r8, r9, pc}
e0019720:	e1a00008 	mov	r0, r8
e0019724:	e895000c 	ldm	r5, {r2, r3}
e0019728:	e1a01004 	mov	r1, r4
e001972c:	ebffed30 	bl	e0014bf4 <deriveCap>
e0019730:	e59d0044 	ldr	r0, [sp, #68]	; 0x44
e0019734:	e3500000 	cmp	r0, #0
e0019738:	1afffff6 	bne	e0019718 <decodeSetIPCBuffer+0xc8>
e001973c:	e28d3050 	add	r3, sp, #80	; 0x50
e0019740:	e9130003 	ldmdb	r3, {r0, r1}
e0019744:	e8850003 	stm	r5, {r0, r1}
e0019748:	e1a00009 	mov	r0, r9
e001974c:	e8950006 	ldm	r5, {r1, r2}
e0019750:	ebffde29 	bl	e0010ffc <checkValidIPCBuffer>
e0019754:	e3500000 	cmp	r0, #0
e0019758:	05973000 	ldreq	r3, [r7]
e001975c:	0affffcf 	beq	e00196a0 <decodeSetIPCBuffer+0x50>
e0019760:	eaffffec 	b	e0019718 <decodeSetIPCBuffer+0xc8>
e0019764:	e3093020 	movw	r3, #36896	; 0x9020
e0019768:	e34e3002 	movt	r3, #57346	; 0xe002
e001976c:	e3a02007 	mov	r2, #7
e0019770:	e3a00003 	mov	r0, #3
e0019774:	e5832018 	str	r2, [r3, #24]
e0019778:	e28dd054 	add	sp, sp, #84	; 0x54
e001977c:	e8bd83f0 	pop	{r4, r5, r6, r7, r8, r9, pc}

e0019780 <decodeSetSpace>:
e0019780:	e92d4ff0 	push	{r4, r5, r6, r7, r8, r9, sl, fp, lr}
e0019784:	e24dd074 	sub	sp, sp, #116	; 0x74
e0019788:	e28de040 	add	lr, sp, #64	; 0x40
e001978c:	e1cd49d8 	ldrd	r4, [sp, #152]	; 0x98
e0019790:	e88e0003 	stm	lr, {r0, r1}
e0019794:	e16fcf15 	clz	ip, r5
e0019798:	e3540000 	cmp	r4, #0
e001979c:	e1a0c2ac 	lsr	ip, ip, #5
e00197a0:	03a0c001 	moveq	ip, #1
e00197a4:	e3520002 	cmp	r2, #2
e00197a8:	938cc001 	orrls	ip, ip, #1
e00197ac:	e35c0000 	cmp	ip, #0
e00197b0:	0a000006 	beq	e00197d0 <decodeSetSpace+0x50>
e00197b4:	e3093020 	movw	r3, #36896	; 0x9020
e00197b8:	e34e3002 	movt	r3, #57346	; 0xe002
e00197bc:	e3a00003 	mov	r0, #3
e00197c0:	e3a02007 	mov	r2, #7
e00197c4:	e5832018 	str	r2, [r3, #24]
e00197c8:	e28dd074 	add	sp, sp, #116	; 0x74
e00197cc:	e8bd8ff0 	pop	{r4, r5, r6, r7, r8, r9, sl, fp, pc}
e00197d0:	e303864c 	movw	r8, #13900	; 0x364c
e00197d4:	e34e8003 	movt	r8, #57347	; 0xe003
e00197d8:	e58d303c 	str	r3, [sp, #60]	; 0x3c
e00197dc:	e28d604c 	add	r6, sp, #76	; 0x4c
e00197e0:	e5982000 	ldr	r2, [r8]
e00197e4:	e28d7054 	add	r7, sp, #84	; 0x54
e00197e8:	e8940003 	ldm	r4, {r0, r1}
e00197ec:	e59da040 	ldr	sl, [sp, #64]	; 0x40
e00197f0:	e5923008 	ldr	r3, [r2, #8]
e00197f4:	e8860003 	stm	r6, {r0, r1}
e00197f8:	e1a09000 	mov	r9, r0
e00197fc:	e3cabf7f 	bic	fp, sl, #508	; 0x1fc
e0019800:	e8950003 	ldm	r5, {r0, r1}
e0019804:	e58d3038 	str	r3, [sp, #56]	; 0x38
e0019808:	e3cbb003 	bic	fp, fp, #3
e001980c:	e592300c 	ldr	r3, [r2, #12]
e0019810:	e8870003 	stm	r7, {r0, r1}
e0019814:	e1a0000b 	mov	r0, fp
e0019818:	e58d3030 	str	r3, [sp, #48]	; 0x30
e001981c:	e5923010 	ldr	r3, [r2, #16]
e0019820:	e58d3034 	str	r3, [sp, #52]	; 0x34
e0019824:	ebffed5d 	bl	e0014da0 <slotCapLongRunningDelete>
e0019828:	e3500000 	cmp	r0, #0
e001982c:	1a000066 	bne	e00199cc <decodeSetSpace+0x24c>
e0019830:	e28b0010 	add	r0, fp, #16
e0019834:	ebffed59 	bl	e0014da0 <slotCapLongRunningDelete>
e0019838:	e2501000 	subs	r1, r0, #0
e001983c:	1a000062 	bne	e00199cc <decodeSetSpace+0x24c>
e0019840:	e59d2030 	ldr	r2, [sp, #48]	; 0x30
e0019844:	e5973000 	ldr	r3, [r7]
e0019848:	e3520000 	cmp	r2, #0
e001984c:	e58d3030 	str	r3, [sp, #48]	; 0x30
e0019850:	0a000006 	beq	e0019870 <decodeSetSpace+0xf0>
e0019854:	e59dc050 	ldr	ip, [sp, #80]	; 0x50
e0019858:	e1a03009 	mov	r3, r9
e001985c:	e1a00006 	mov	r0, r6
e0019860:	e58d904c 	str	r9, [sp, #76]	; 0x4c
e0019864:	e58dc000 	str	ip, [sp]
e0019868:	ebfff183 	bl	e0015e7c <updateCapData>
e001986c:	e59d904c 	ldr	r9, [sp, #76]	; 0x4c
e0019870:	e58d904c 	str	r9, [sp, #76]	; 0x4c
e0019874:	e28d0064 	add	r0, sp, #100	; 0x64
e0019878:	e1a01004 	mov	r1, r4
e001987c:	e896000c 	ldm	r6, {r2, r3}
e0019880:	ebffecdb 	bl	e0014bf4 <deriveCap>
e0019884:	e59d0064 	ldr	r0, [sp, #100]	; 0x64
e0019888:	e3500000 	cmp	r0, #0
e001988c:	1affffcd 	bne	e00197c8 <decodeSetSpace+0x48>
e0019890:	e28d9070 	add	r9, sp, #112	; 0x70
e0019894:	e539b008 	ldr	fp, [r9, #-8]!
e0019898:	e20b300e 	and	r3, fp, #14
e001989c:	e353000e 	cmp	r3, #14
e00198a0:	e8990003 	ldm	r9, {r0, r1}
e00198a4:	120b300f 	andne	r3, fp, #15
e00198a8:	06ef307b 	uxtbeq	r3, fp
e00198ac:	e353000a 	cmp	r3, #10
e00198b0:	e8860003 	stm	r6, {r0, r1}
e00198b4:	1a000044 	bne	e00199cc <decodeSetSpace+0x24c>
e00198b8:	e59d2034 	ldr	r2, [sp, #52]	; 0x34
e00198bc:	e3520000 	cmp	r2, #0
e00198c0:	0a000009 	beq	e00198ec <decodeSetSpace+0x16c>
e00198c4:	e59d0030 	ldr	r0, [sp, #48]	; 0x30
e00198c8:	e3a01000 	mov	r1, #0
e00198cc:	e59dc058 	ldr	ip, [sp, #88]	; 0x58
e00198d0:	e1a03000 	mov	r3, r0
e00198d4:	e58d0054 	str	r0, [sp, #84]	; 0x54
e00198d8:	e58dc000 	str	ip, [sp]
e00198dc:	e1a00007 	mov	r0, r7
e00198e0:	ebfff165 	bl	e0015e7c <updateCapData>
e00198e4:	e59d3054 	ldr	r3, [sp, #84]	; 0x54
e00198e8:	e58d3030 	str	r3, [sp, #48]	; 0x30
e00198ec:	e59d3030 	ldr	r3, [sp, #48]	; 0x30
e00198f0:	e28d0064 	add	r0, sp, #100	; 0x64
e00198f4:	e1a01005 	mov	r1, r5
e00198f8:	e58d3054 	str	r3, [sp, #84]	; 0x54
e00198fc:	e897000c 	ldm	r7, {r2, r3}
e0019900:	ebffecbb 	bl	e0014bf4 <deriveCap>
e0019904:	e59d0064 	ldr	r0, [sp, #100]	; 0x64
e0019908:	e3500000 	cmp	r0, #0
e001990c:	1affffad 	bne	e00197c8 <decodeSetSpace+0x48>
e0019910:	e59d3068 	ldr	r3, [sp, #104]	; 0x68
e0019914:	e8990003 	ldm	r9, {r0, r1}
e0019918:	e203200e 	and	r2, r3, #14
e001991c:	e352000e 	cmp	r2, #14
e0019920:	1203200f 	andne	r2, r3, #15
e0019924:	06ef2073 	uxtbeq	r2, r3
e0019928:	e3520009 	cmp	r2, #9
e001992c:	e8870003 	stm	r7, {r0, r1}
e0019930:	1a000025 	bne	e00199cc <decodeSetSpace+0x24c>
e0019934:	e3130010 	tst	r3, #16
e0019938:	e58d3030 	str	r3, [sp, #48]	; 0x30
e001993c:	0a000022 	beq	e00199cc <decodeSetSpace+0x24c>
e0019940:	e5981000 	ldr	r1, [r8]
e0019944:	e5912050 	ldr	r2, [r1, #80]	; 0x50
e0019948:	e1a00001 	mov	r0, r1
e001994c:	e3c2200f 	bic	r2, r2, #15
e0019950:	e3822002 	orr	r2, r2, #2
e0019954:	e5812050 	str	r2, [r1, #80]	; 0x50
e0019958:	ebffe5ed 	bl	e0013114 <setThreadState.part.166>
e001995c:	e28d205c 	add	r2, sp, #92	; 0x5c
e0019960:	e3a0c000 	mov	ip, #0
e0019964:	e59d3030 	ldr	r3, [sp, #48]	; 0x30
e0019968:	e58dc05c 	str	ip, [sp, #92]	; 0x5c
e001996c:	e28de020 	add	lr, sp, #32
e0019970:	e58dc060 	str	ip, [sp, #96]	; 0x60
e0019974:	e8920003 	ldm	r2, {r0, r1}
e0019978:	e58d3054 	str	r3, [sp, #84]	; 0x54
e001997c:	e3a03004 	mov	r3, #4
e0019980:	e58dc028 	str	ip, [sp, #40]	; 0x28
e0019984:	e58d302c 	str	r3, [sp, #44]	; 0x2c
e0019988:	e1a0300c 	mov	r3, ip
e001998c:	e59d2038 	ldr	r2, [sp, #56]	; 0x38
e0019990:	e88e0003 	stm	lr, {r0, r1}
e0019994:	e28de010 	add	lr, sp, #16
e0019998:	e8970003 	ldm	r7, {r0, r1}
e001999c:	e58db04c 	str	fp, [sp, #76]	; 0x4c
e00199a0:	e58dc01c 	str	ip, [sp, #28]
e00199a4:	e58d5018 	str	r5, [sp, #24]
e00199a8:	e88e0003 	stm	lr, {r0, r1}
e00199ac:	e8960003 	ldm	r6, {r0, r1}
e00199b0:	e58dc000 	str	ip, [sp]
e00199b4:	e58d400c 	str	r4, [sp, #12]
e00199b8:	e98d0003 	stmib	sp, {r0, r1}
e00199bc:	e3ca000f 	bic	r0, sl, #15
e00199c0:	e59d103c 	ldr	r1, [sp, #60]	; 0x3c
e00199c4:	ebfffce5 	bl	e0018d60 <invokeTCB_ThreadControl>
e00199c8:	eaffff7e 	b	e00197c8 <decodeSetSpace+0x48>
e00199cc:	e3093020 	movw	r3, #36896	; 0x9020
e00199d0:	e34e3002 	movt	r3, #57346	; 0xe002
e00199d4:	e3a02003 	mov	r2, #3
e00199d8:	e1a00002 	mov	r0, r2
e00199dc:	e5832018 	str	r2, [r3, #24]
e00199e0:	e28dd074 	add	sp, sp, #116	; 0x74
e00199e4:	e8bd8ff0 	pop	{r4, r5, r6, r7, r8, r9, sl, fp, pc}

e00199e8 <invokeTCB_CopyRegisters>:
e00199e8:	e3520000 	cmp	r2, #0
e00199ec:	e92d41f0 	push	{r4, r5, r6, r7, r8, lr}
e00199f0:	e1a04000 	mov	r4, r0
e00199f4:	e1a05001 	mov	r5, r1
e00199f8:	e1a08003 	mov	r8, r3
e00199fc:	e59d7018 	ldr	r7, [sp, #24]
e0019a00:	e59d601c 	ldr	r6, [sp, #28]
e0019a04:	1a000020 	bne	e0019a8c <invokeTCB_CopyRegisters+0xa4>
e0019a08:	e3580000 	cmp	r8, #0
e0019a0c:	1a000022 	bne	e0019a9c <invokeTCB_CopyRegisters+0xb4>
e0019a10:	e3570000 	cmp	r7, #0
e0019a14:	0a00000a 	beq	e0019a44 <invokeTCB_CopyRegisters+0x5c>
e0019a18:	e59f2094 	ldr	r2, [pc, #148]	; e0019ab4 <invokeTCB_CopyRegisters+0xcc>
e0019a1c:	e3a03011 	mov	r3, #17
e0019a20:	e2820024 	add	r0, r2, #36	; 0x24
e0019a24:	ea000000 	b	e0019a2c <invokeTCB_CopyRegisters+0x44>
e0019a28:	e5b23004 	ldr	r3, [r2, #4]!
e0019a2c:	e7951103 	ldr	r1, [r5, r3, lsl #2]
e0019a30:	e1520000 	cmp	r2, r0
e0019a34:	e7841103 	str	r1, [r4, r3, lsl #2]
e0019a38:	1afffffa 	bne	e0019a28 <invokeTCB_CopyRegisters+0x40>
e0019a3c:	e5943044 	ldr	r3, [r4, #68]	; 0x44
e0019a40:	e584303c 	str	r3, [r4, #60]	; 0x3c
e0019a44:	e3560000 	cmp	r6, #0
e0019a48:	0a000008 	beq	e0019a70 <invokeTCB_CopyRegisters+0x88>
e0019a4c:	e59f2064 	ldr	r2, [pc, #100]	; e0019ab8 <invokeTCB_CopyRegisters+0xd0>
e0019a50:	e3a03002 	mov	r3, #2
e0019a54:	e2820020 	add	r0, r2, #32
e0019a58:	ea000000 	b	e0019a60 <invokeTCB_CopyRegisters+0x78>
e0019a5c:	e5b23004 	ldr	r3, [r2, #4]!
e0019a60:	e7951103 	ldr	r1, [r5, r3, lsl #2]
e0019a64:	e1520000 	cmp	r2, r0
e0019a68:	e7841103 	str	r1, [r4, r3, lsl #2]
e0019a6c:	1afffffa 	bne	e0019a5c <invokeTCB_CopyRegisters+0x74>
e0019a70:	e303364c 	movw	r3, #13900	; 0x364c
e0019a74:	e34e3003 	movt	r3, #57347	; 0xe003
e0019a78:	e5933000 	ldr	r3, [r3]
e0019a7c:	e1530004 	cmp	r3, r4
e0019a80:	0a000008 	beq	e0019aa8 <invokeTCB_CopyRegisters+0xc0>
e0019a84:	e3a00000 	mov	r0, #0
e0019a88:	e8bd81f0 	pop	{r4, r5, r6, r7, r8, pc}
e0019a8c:	e1a00001 	mov	r0, r1
e0019a90:	ebfff347 	bl	e00167b4 <suspend>
e0019a94:	e3580000 	cmp	r8, #0
e0019a98:	0affffdc 	beq	e0019a10 <invokeTCB_CopyRegisters+0x28>
e0019a9c:	e1a00004 	mov	r0, r4
e0019aa0:	ebfff69b 	bl	e0017514 <restart>
e0019aa4:	eaffffd9 	b	e0019a10 <invokeTCB_CopyRegisters+0x28>
e0019aa8:	ebffe57a 	bl	e0013098 <rescheduleRequired>
e0019aac:	e3a00000 	mov	r0, #0
e0019ab0:	e8bd81f0 	pop	{r4, r5, r6, r7, r8, pc}
e0019ab4:	e001b458 	.word	0xe001b458
e0019ab8:	e001b480 	.word	0xe001b480

e0019abc <decodeCopyRegisters>:
e0019abc:	e24dd008 	sub	sp, sp, #8
e0019ac0:	e3530000 	cmp	r3, #0
e0019ac4:	13520000 	cmpne	r2, #0
e0019ac8:	e92d4030 	push	{r4, r5, lr}
e0019acc:	e24dd00c 	sub	sp, sp, #12
e0019ad0:	e28d2008 	add	r2, sp, #8
e0019ad4:	e58d301c 	str	r3, [sp, #28]
e0019ad8:	e9020003 	stmdb	r2, {r0, r1}
e0019adc:	0a00002a 	beq	e0019b8c <decodeCopyRegisters+0xd0>
e0019ae0:	e5934000 	ldr	r4, [r3]
e0019ae4:	e204300e 	and	r3, r4, #14
e0019ae8:	e353000e 	cmp	r3, #14
e0019aec:	1204300f 	andne	r3, r4, #15
e0019af0:	06ef3074 	uxtbeq	r3, r4
e0019af4:	e353000c 	cmp	r3, #12
e0019af8:	0a00000a 	beq	e0019b28 <decodeCopyRegisters+0x6c>
e0019afc:	e3093020 	movw	r3, #36896	; 0x9020
e0019b00:	e34e3002 	movt	r3, #57346	; 0xe002
e0019b04:	e3a01002 	mov	r1, #2
e0019b08:	e3a02001 	mov	r2, #1
e0019b0c:	e5831018 	str	r1, [r3, #24]
e0019b10:	e5832004 	str	r2, [r3, #4]
e0019b14:	e3a00003 	mov	r0, #3
e0019b18:	e28dd00c 	add	sp, sp, #12
e0019b1c:	e8bd4030 	pop	{r4, r5, lr}
e0019b20:	e28dd008 	add	sp, sp, #8
e0019b24:	e12fff1e 	bx	lr
e0019b28:	e303364c 	movw	r3, #13900	; 0x364c
e0019b2c:	e34e3003 	movt	r3, #57347	; 0xe003
e0019b30:	e5932000 	ldr	r2, [r3]
e0019b34:	e5923050 	ldr	r3, [r2, #80]	; 0x50
e0019b38:	e1a00002 	mov	r0, r2
e0019b3c:	e5925008 	ldr	r5, [r2, #8]
e0019b40:	e3c3300f 	bic	r3, r3, #15
e0019b44:	e3833002 	orr	r3, r3, #2
e0019b48:	e5823050 	str	r3, [r2, #80]	; 0x50
e0019b4c:	ebffe570 	bl	e0013114 <setThreadState.part.166>
e0019b50:	e59d0000 	ldr	r0, [sp]
e0019b54:	e2052008 	and	r2, r5, #8
e0019b58:	e2053004 	and	r3, r5, #4
e0019b5c:	e58d2024 	str	r2, [sp, #36]	; 0x24
e0019b60:	e3a0c000 	mov	ip, #0
e0019b64:	e58d3020 	str	r3, [sp, #32]
e0019b68:	e3c4100f 	bic	r1, r4, #15
e0019b6c:	e2053002 	and	r3, r5, #2
e0019b70:	e2052001 	and	r2, r5, #1
e0019b74:	e3c0000f 	bic	r0, r0, #15
e0019b78:	e58dc028 	str	ip, [sp, #40]	; 0x28
e0019b7c:	e28dd00c 	add	sp, sp, #12
e0019b80:	e8bd4030 	pop	{r4, r5, lr}
e0019b84:	e28dd008 	add	sp, sp, #8
e0019b88:	eaffff96 	b	e00199e8 <invokeTCB_CopyRegisters>
e0019b8c:	e3093020 	movw	r3, #36896	; 0x9020
e0019b90:	e34e3002 	movt	r3, #57346	; 0xe002
e0019b94:	e3a02007 	mov	r2, #7
e0019b98:	e5832018 	str	r2, [r3, #24]
e0019b9c:	eaffffdc 	b	e0019b14 <decodeCopyRegisters+0x58>

e0019ba0 <invokeTCB_ReadRegisters>:
e0019ba0:	e92d47f0 	push	{r4, r5, r6, r7, r8, r9, sl, lr}
e0019ba4:	e3510000 	cmp	r1, #0
e0019ba8:	e303764c 	movw	r7, #13900	; 0x364c
e0019bac:	e34e7003 	movt	r7, #57347	; 0xe003
e0019bb0:	e1a05002 	mov	r5, r2
e0019bb4:	e1a06000 	mov	r6, r0
e0019bb8:	e5974000 	ldr	r4, [r7]
e0019bbc:	1a000048 	bne	e0019ce4 <invokeTCB_ReadRegisters+0x144>
e0019bc0:	e59d3020 	ldr	r3, [sp, #32]
e0019bc4:	e5948050 	ldr	r8, [r4, #80]	; 0x50
e0019bc8:	e3530000 	cmp	r3, #0
e0019bcc:	e3c8800f 	bic	r8, r8, #15
e0019bd0:	e3887001 	orr	r7, r8, #1
e0019bd4:	11a09004 	movne	r9, r4
e0019bd8:	0a00004a 	beq	e0019d08 <invokeTCB_ReadRegisters+0x168>
e0019bdc:	e1a01004 	mov	r1, r4
e0019be0:	e3a00001 	mov	r0, #1
e0019be4:	ebffdc59 	bl	e0010d50 <lookupIPCBuffer>
e0019be8:	e3550000 	cmp	r5, #0
e0019bec:	e3a03000 	mov	r3, #0
e0019bf0:	e5843000 	str	r3, [r4]
e0019bf4:	0a000030 	beq	e0019cbc <invokeTCB_ReadRegisters+0x11c>
e0019bf8:	e5963044 	ldr	r3, [r6, #68]	; 0x44
e0019bfc:	e3550001 	cmp	r5, #1
e0019c00:	e5843008 	str	r3, [r4, #8]
e0019c04:	9a000044 	bls	e0019d1c <invokeTCB_ReadRegisters+0x17c>
e0019c08:	e5963034 	ldr	r3, [r6, #52]	; 0x34
e0019c0c:	e3550002 	cmp	r5, #2
e0019c10:	e584300c 	str	r3, [r4, #12]
e0019c14:	0a000028 	beq	e0019cbc <invokeTCB_ReadRegisters+0x11c>
e0019c18:	e5963040 	ldr	r3, [r6, #64]	; 0x40
e0019c1c:	e3550003 	cmp	r5, #3
e0019c20:	e5843010 	str	r3, [r4, #16]
e0019c24:	0a000024 	beq	e0019cbc <invokeTCB_ReadRegisters+0x11c>
e0019c28:	e5963000 	ldr	r3, [r6]
e0019c2c:	e3550004 	cmp	r5, #4
e0019c30:	e5843014 	str	r3, [r4, #20]
e0019c34:	0a000020 	beq	e0019cbc <invokeTCB_ReadRegisters+0x11c>
e0019c38:	e3500000 	cmp	r0, #0
e0019c3c:	e3887001 	orr	r7, r8, #1
e0019c40:	03a03004 	moveq	r3, #4
e0019c44:	0a00001f 	beq	e0019cc8 <invokeTCB_ReadRegisters+0x128>
e0019c48:	e59fc0e4 	ldr	ip, [pc, #228]	; e0019d34 <invokeTCB_ReadRegisters+0x194>
e0019c4c:	e2802010 	add	r2, r0, #16
e0019c50:	e3a01001 	mov	r1, #1
e0019c54:	e3a03004 	mov	r3, #4
e0019c58:	ea000000 	b	e0019c60 <invokeTCB_ReadRegisters+0xc0>
e0019c5c:	e79c1103 	ldr	r1, [ip, r3, lsl #2]
e0019c60:	e2833001 	add	r3, r3, #1
e0019c64:	e7961101 	ldr	r1, [r6, r1, lsl #2]
e0019c68:	e3530009 	cmp	r3, #9
e0019c6c:	91530005 	cmpls	r3, r5
e0019c70:	e5a21004 	str	r1, [r2, #4]!
e0019c74:	3afffff8 	bcc	e0019c5c <invokeTCB_ReadRegisters+0xbc>
e0019c78:	e355000a 	cmp	r5, #10
e0019c7c:	93a00000 	movls	r0, #0
e0019c80:	9a000010 	bls	e0019cc8 <invokeTCB_ReadRegisters+0x128>
e0019c84:	e59fe0ac 	ldr	lr, [pc, #172]	; e0019d38 <invokeTCB_ReadRegisters+0x198>
e0019c88:	e245500a 	sub	r5, r5, #10
e0019c8c:	e2801028 	add	r1, r0, #40	; 0x28
e0019c90:	e3a0c002 	mov	ip, #2
e0019c94:	e3a00000 	mov	r0, #0
e0019c98:	e796c10c 	ldr	ip, [r6, ip, lsl #2]
e0019c9c:	e2800001 	add	r0, r0, #1
e0019ca0:	e3500009 	cmp	r0, #9
e0019ca4:	e5a1c004 	str	ip, [r1, #4]!
e0019ca8:	0a000006 	beq	e0019cc8 <invokeTCB_ReadRegisters+0x128>
e0019cac:	e1500005 	cmp	r0, r5
e0019cb0:	0a000004 	beq	e0019cc8 <invokeTCB_ReadRegisters+0x128>
e0019cb4:	e5bec004 	ldr	ip, [lr, #4]!
e0019cb8:	eafffff6 	b	e0019c98 <invokeTCB_ReadRegisters+0xf8>
e0019cbc:	e1a03005 	mov	r3, r5
e0019cc0:	e3500000 	cmp	r0, #0
e0019cc4:	1affffeb 	bne	e0019c78 <invokeTCB_ReadRegisters+0xd8>
e0019cc8:	e0800003 	add	r0, r0, r3
e0019ccc:	e5840004 	str	r0, [r4, #4]
e0019cd0:	e1540009 	cmp	r4, r9
e0019cd4:	e5847050 	str	r7, [r4, #80]	; 0x50
e0019cd8:	0a00000b 	beq	e0019d0c <invokeTCB_ReadRegisters+0x16c>
e0019cdc:	e3a00000 	mov	r0, #0
e0019ce0:	e8bd87f0 	pop	{r4, r5, r6, r7, r8, r9, sl, pc}
e0019ce4:	ebfff2b2 	bl	e00167b4 <suspend>
e0019ce8:	e59d3020 	ldr	r3, [sp, #32]
e0019cec:	e5979000 	ldr	r9, [r7]
e0019cf0:	e3530000 	cmp	r3, #0
e0019cf4:	1a00000a 	bne	e0019d24 <invokeTCB_ReadRegisters+0x184>
e0019cf8:	e5947050 	ldr	r7, [r4, #80]	; 0x50
e0019cfc:	e3c7700f 	bic	r7, r7, #15
e0019d00:	e3877001 	orr	r7, r7, #1
e0019d04:	eafffff1 	b	e0019cd0 <invokeTCB_ReadRegisters+0x130>
e0019d08:	e5847050 	str	r7, [r4, #80]	; 0x50
e0019d0c:	e1a00004 	mov	r0, r4
e0019d10:	ebffe4ff 	bl	e0013114 <setThreadState.part.166>
e0019d14:	e3a00000 	mov	r0, #0
e0019d18:	e8bd87f0 	pop	{r4, r5, r6, r7, r8, r9, sl, pc}
e0019d1c:	e3a03001 	mov	r3, #1
e0019d20:	eaffffe6 	b	e0019cc0 <invokeTCB_ReadRegisters+0x120>
e0019d24:	e5948050 	ldr	r8, [r4, #80]	; 0x50
e0019d28:	e3c8800f 	bic	r8, r8, #15
e0019d2c:	e3887001 	orr	r7, r8, #1
e0019d30:	eaffffa9 	b	e0019bdc <invokeTCB_ReadRegisters+0x3c>
e0019d34:	e001b458 	.word	0xe001b458
e0019d38:	e001b480 	.word	0xe001b480

e0019d3c <decodeReadRegisters>:
e0019d3c:	e92d40f0 	push	{r4, r5, r6, r7, lr}
e0019d40:	e24dd00c 	sub	sp, sp, #12
e0019d44:	e3520001 	cmp	r2, #1
e0019d48:	e28d2008 	add	r2, sp, #8
e0019d4c:	e9020003 	stmdb	r2, {r0, r1}
e0019d50:	9a000025 	bls	e0019dec <decodeReadRegisters+0xb0>
e0019d54:	e303264c 	movw	r2, #13900	; 0x364c
e0019d58:	e34e2003 	movt	r2, #57347	; 0xe003
e0019d5c:	e592c000 	ldr	ip, [r2]
e0019d60:	e59c600c 	ldr	r6, [ip, #12]
e0019d64:	e2462001 	sub	r2, r6, #1
e0019d68:	e3520012 	cmp	r2, #18
e0019d6c:	8a000013 	bhi	e0019dc0 <decodeReadRegisters+0x84>
e0019d70:	e59d4000 	ldr	r4, [sp]
e0019d74:	e3c4400f 	bic	r4, r4, #15
e0019d78:	e154000c 	cmp	r4, ip
e0019d7c:	0a000021 	beq	e0019e08 <decodeReadRegisters+0xcc>
e0019d80:	e59ce050 	ldr	lr, [ip, #80]	; 0x50
e0019d84:	e1a0000c 	mov	r0, ip
e0019d88:	e1a05003 	mov	r5, r3
e0019d8c:	e59c7008 	ldr	r7, [ip, #8]
e0019d90:	e3cee00f 	bic	lr, lr, #15
e0019d94:	e38ee002 	orr	lr, lr, #2
e0019d98:	e58ce050 	str	lr, [ip, #80]	; 0x50
e0019d9c:	ebffe4dc 	bl	e0013114 <setThreadState.part.166>
e0019da0:	e2071001 	and	r1, r7, #1
e0019da4:	e58d5020 	str	r5, [sp, #32]
e0019da8:	e1a02006 	mov	r2, r6
e0019dac:	e1a00004 	mov	r0, r4
e0019db0:	e3a03000 	mov	r3, #0
e0019db4:	e28dd00c 	add	sp, sp, #12
e0019db8:	e8bd40f0 	pop	{r4, r5, r6, r7, lr}
e0019dbc:	eaffff77 	b	e0019ba0 <invokeTCB_ReadRegisters>
e0019dc0:	e3093020 	movw	r3, #36896	; 0x9020
e0019dc4:	e34e3002 	movt	r3, #57346	; 0xe002
e0019dc8:	e3a02004 	mov	r2, #4
e0019dcc:	e3a01001 	mov	r1, #1
e0019dd0:	e5832018 	str	r2, [r3, #24]
e0019dd4:	e3a00003 	mov	r0, #3
e0019dd8:	e3a02013 	mov	r2, #19
e0019ddc:	e5831008 	str	r1, [r3, #8]
e0019de0:	e583200c 	str	r2, [r3, #12]
e0019de4:	e28dd00c 	add	sp, sp, #12
e0019de8:	e8bd80f0 	pop	{r4, r5, r6, r7, pc}
e0019dec:	e3093020 	movw	r3, #36896	; 0x9020
e0019df0:	e34e3002 	movt	r3, #57346	; 0xe002
e0019df4:	e3a02007 	mov	r2, #7
e0019df8:	e3a00003 	mov	r0, #3
e0019dfc:	e5832018 	str	r2, [r3, #24]
e0019e00:	e28dd00c 	add	sp, sp, #12
e0019e04:	e8bd80f0 	pop	{r4, r5, r6, r7, pc}
e0019e08:	e3093020 	movw	r3, #36896	; 0x9020
e0019e0c:	e34e3002 	movt	r3, #57346	; 0xe002
e0019e10:	e3a02003 	mov	r2, #3
e0019e14:	e3a00003 	mov	r0, #3
e0019e18:	e5832018 	str	r2, [r3, #24]
e0019e1c:	e28dd00c 	add	sp, sp, #12
e0019e20:	e8bd80f0 	pop	{r4, r5, r6, r7, pc}

e0019e24 <invokeTCB_WriteRegisters>:
e0019e24:	e3520013 	cmp	r2, #19
e0019e28:	e92d47f0 	push	{r4, r5, r6, r7, r8, r9, sl, lr}
e0019e2c:	31a06002 	movcc	r6, r2
e0019e30:	23a06013 	movcs	r6, #19
e0019e34:	e303564c 	movw	r5, #13900	; 0x364c
e0019e38:	e3520000 	cmp	r2, #0
e0019e3c:	e34e5003 	movt	r5, #57347	; 0xe003
e0019e40:	e1a04000 	mov	r4, r0
e0019e44:	e59d0020 	ldr	r0, [sp, #32]
e0019e48:	e5957000 	ldr	r7, [r5]
e0019e4c:	0a000013 	beq	e0019ea0 <invokeTCB_WriteRegisters+0x7c>
e0019e50:	e59f80c0 	ldr	r8, [pc, #192]	; e0019f18 <invokeTCB_WriteRegisters+0xf4>
e0019e54:	e3a02002 	mov	r2, #2
e0019e58:	e3a0e011 	mov	lr, #17
e0019e5c:	e3a03000 	mov	r3, #0
e0019e60:	e2889030 	add	r9, r8, #48	; 0x30
e0019e64:	e3520003 	cmp	r2, #3
e0019e68:	e080c103 	add	ip, r0, r3, lsl #2
e0019e6c:	e2833001 	add	r3, r3, #1
e0019e70:	9798c102 	ldrls	ip, [r8, r2, lsl #2]
e0019e74:	e2822001 	add	r2, r2, #1
e0019e78:	859cc00c 	ldrhi	ip, [ip, #12]
e0019e7c:	9797c10c 	ldrls	ip, [r7, ip, lsl #2]
e0019e80:	e35e0010 	cmp	lr, #16
e0019e84:	020cc33e 	andeq	ip, ip, #-134217728	; 0xf8000000
e0019e88:	038cce15 	orreq	ip, ip, #336	; 0x150
e0019e8c:	e3530009 	cmp	r3, #9
e0019e90:	91530006 	cmpls	r3, r6
e0019e94:	e784c10e 	str	ip, [r4, lr, lsl #2]
e0019e98:	3799e103 	ldrcc	lr, [r9, r3, lsl #2]
e0019e9c:	3afffff0 	bcc	e0019e64 <invokeTCB_WriteRegisters+0x40>
e0019ea0:	e59fe074 	ldr	lr, [pc, #116]	; e0019f1c <invokeTCB_WriteRegisters+0xf8>
e0019ea4:	e2800030 	add	r0, r0, #48	; 0x30
e0019ea8:	e3a0300a 	mov	r3, #10
e0019eac:	e1560003 	cmp	r6, r3
e0019eb0:	e2833001 	add	r3, r3, #1
e0019eb4:	9a000007 	bls	e0019ed8 <invokeTCB_WriteRegisters+0xb4>
e0019eb8:	e5bec004 	ldr	ip, [lr, #4]!
e0019ebc:	e5b02004 	ldr	r2, [r0, #4]!
e0019ec0:	e35c0010 	cmp	ip, #16
e0019ec4:	0202233e 	andeq	r2, r2, #-134217728	; 0xf8000000
e0019ec8:	03822e15 	orreq	r2, r2, #336	; 0x150
e0019ecc:	e3530013 	cmp	r3, #19
e0019ed0:	e784210c 	str	r2, [r4, ip, lsl #2]
e0019ed4:	1afffff4 	bne	e0019eac <invokeTCB_WriteRegisters+0x88>
e0019ed8:	e5943044 	ldr	r3, [r4, #68]	; 0x44
e0019edc:	e3510000 	cmp	r1, #0
e0019ee0:	e584303c 	str	r3, [r4, #60]	; 0x3c
e0019ee4:	1a000003 	bne	e0019ef8 <invokeTCB_WriteRegisters+0xd4>
e0019ee8:	e1540007 	cmp	r4, r7
e0019eec:	0a000006 	beq	e0019f0c <invokeTCB_WriteRegisters+0xe8>
e0019ef0:	e3a00000 	mov	r0, #0
e0019ef4:	e8bd87f0 	pop	{r4, r5, r6, r7, r8, r9, sl, pc}
e0019ef8:	e1a00004 	mov	r0, r4
e0019efc:	ebfff584 	bl	e0017514 <restart>
e0019f00:	e5957000 	ldr	r7, [r5]
e0019f04:	e1540007 	cmp	r4, r7
e0019f08:	1afffff8 	bne	e0019ef0 <invokeTCB_WriteRegisters+0xcc>
e0019f0c:	ebffe461 	bl	e0013098 <rescheduleRequired>
e0019f10:	e3a00000 	mov	r0, #0
e0019f14:	e8bd87f0 	pop	{r4, r5, r6, r7, r8, r9, sl, pc}
e0019f18:	e001b428 	.word	0xe001b428
e0019f1c:	e001b47c 	.word	0xe001b47c

e0019f20 <decodeWriteRegisters>:
e0019f20:	e92d40f0 	push	{r4, r5, r6, r7, lr}
e0019f24:	e24dd014 	sub	sp, sp, #20
e0019f28:	e28dc010 	add	ip, sp, #16
e0019f2c:	e3520001 	cmp	r2, #1
e0019f30:	e90c0003 	stmdb	ip, {r0, r1}
e0019f34:	9a00001a 	bls	e0019fa4 <decodeWriteRegisters+0x84>
e0019f38:	e303064c 	movw	r0, #13900	; 0x364c
e0019f3c:	e34e0003 	movt	r0, #57347	; 0xe003
e0019f40:	e2421002 	sub	r1, r2, #2
e0019f44:	e590c000 	ldr	ip, [r0]
e0019f48:	e59c600c 	ldr	r6, [ip, #12]
e0019f4c:	e1510006 	cmp	r1, r6
e0019f50:	3a000013 	bcc	e0019fa4 <decodeWriteRegisters+0x84>
e0019f54:	e59d4008 	ldr	r4, [sp, #8]
e0019f58:	e3c4400f 	bic	r4, r4, #15
e0019f5c:	e154000c 	cmp	r4, ip
e0019f60:	0a000016 	beq	e0019fc0 <decodeWriteRegisters+0xa0>
e0019f64:	e59ce050 	ldr	lr, [ip, #80]	; 0x50
e0019f68:	e1a0000c 	mov	r0, ip
e0019f6c:	e59c7008 	ldr	r7, [ip, #8]
e0019f70:	e1a05003 	mov	r5, r3
e0019f74:	e3cee00f 	bic	lr, lr, #15
e0019f78:	e38ee002 	orr	lr, lr, #2
e0019f7c:	e58ce050 	str	lr, [ip, #80]	; 0x50
e0019f80:	ebffe463 	bl	e0013114 <setThreadState.part.166>
e0019f84:	e2071001 	and	r1, r7, #1
e0019f88:	e58d5000 	str	r5, [sp]
e0019f8c:	e1a02006 	mov	r2, r6
e0019f90:	e1a00004 	mov	r0, r4
e0019f94:	e3a03000 	mov	r3, #0
e0019f98:	ebffffa1 	bl	e0019e24 <invokeTCB_WriteRegisters>
e0019f9c:	e28dd014 	add	sp, sp, #20
e0019fa0:	e8bd80f0 	pop	{r4, r5, r6, r7, pc}
e0019fa4:	e3093020 	movw	r3, #36896	; 0x9020
e0019fa8:	e34e3002 	movt	r3, #57346	; 0xe002
e0019fac:	e3a02007 	mov	r2, #7
e0019fb0:	e3a00003 	mov	r0, #3
e0019fb4:	e5832018 	str	r2, [r3, #24]
e0019fb8:	e28dd014 	add	sp, sp, #20
e0019fbc:	e8bd80f0 	pop	{r4, r5, r6, r7, pc}
e0019fc0:	e3093020 	movw	r3, #36896	; 0x9020
e0019fc4:	e34e3002 	movt	r3, #57346	; 0xe002
e0019fc8:	e3a02003 	mov	r2, #3
e0019fcc:	e1a00002 	mov	r0, r2
e0019fd0:	e5832018 	str	r2, [r3, #24]
e0019fd4:	e28dd014 	add	sp, sp, #20
e0019fd8:	e8bd80f0 	pop	{r4, r5, r6, r7, pc}

e0019fdc <decodeTCBInvocation>:
e0019fdc:	e92d4070 	push	{r4, r5, r6, lr}
e0019fe0:	e24dd018 	sub	sp, sp, #24
e0019fe4:	e28dc010 	add	ip, sp, #16
e0019fe8:	e2400002 	sub	r0, r0, #2
e0019fec:	e1a0e001 	mov	lr, r1
e0019ff0:	e59d1028 	ldr	r1, [sp, #40]	; 0x28
e0019ff4:	e88c000c 	stm	ip, {r2, r3}
e0019ff8:	e59d2038 	ldr	r2, [sp, #56]	; 0x38
e0019ffc:	e59d4010 	ldr	r4, [sp, #16]
e001a000:	e59d303c 	ldr	r3, [sp, #60]	; 0x3c
e001a004:	e350000d 	cmp	r0, #13
e001a008:	979ff100 	ldrls	pc, [pc, r0, lsl #2]
e001a00c:	ea000094 	b	e001a264 <decodeTCBInvocation+0x288>
e001a010:	e001a09c 	.word	0xe001a09c
e001a014:	e001a0b8 	.word	0xe001a0b8
e001a018:	e001a0cc 	.word	0xe001a0cc
e001a01c:	e001a0f4 	.word	0xe001a0f4
e001a020:	e001a118 	.word	0xe001a118
e001a024:	e001a13c 	.word	0xe001a13c
e001a028:	e001a160 	.word	0xe001a160
e001a02c:	e001a184 	.word	0xe001a184
e001a030:	e001a1a8 	.word	0xe001a1a8
e001a034:	e001a1cc 	.word	0xe001a1cc
e001a038:	e001a200 	.word	0xe001a200
e001a03c:	e001a234 	.word	0xe001a234
e001a040:	e001a254 	.word	0xe001a254
e001a044:	e001a048 	.word	0xe001a048
e001a048:	e35e0000 	cmp	lr, #0
e001a04c:	0a00008a 	beq	e001a27c <decodeTCBInvocation+0x2a0>
e001a050:	e303564c 	movw	r5, #13900	; 0x364c
e001a054:	e34e5003 	movt	r5, #57347	; 0xe003
e001a058:	e3c4400f 	bic	r4, r4, #15
e001a05c:	e5952000 	ldr	r2, [r5]
e001a060:	e5923050 	ldr	r3, [r2, #80]	; 0x50
e001a064:	e1a00002 	mov	r0, r2
e001a068:	e5926008 	ldr	r6, [r2, #8]
e001a06c:	e3c3300f 	bic	r3, r3, #15
e001a070:	e3833002 	orr	r3, r3, #2
e001a074:	e5823050 	str	r3, [r2, #80]	; 0x50
e001a078:	ebffe425 	bl	e0013114 <setThreadState.part.166>
e001a07c:	e5953000 	ldr	r3, [r5]
e001a080:	e5846048 	str	r6, [r4, #72]	; 0x48
e001a084:	e1540003 	cmp	r4, r3
e001a088:	13a00000 	movne	r0, #0
e001a08c:	1a000016 	bne	e001a0ec <decodeTCBInvocation+0x110>
e001a090:	ebffe400 	bl	e0013098 <rescheduleRequired>
e001a094:	e3a00000 	mov	r0, #0
e001a098:	ea000013 	b	e001a0ec <decodeTCBInvocation+0x110>
e001a09c:	e58d3028 	str	r3, [sp, #40]	; 0x28
e001a0a0:	e1a03002 	mov	r3, r2
e001a0a4:	e89c0003 	ldm	ip, {r0, r1}
e001a0a8:	e1a0200e 	mov	r2, lr
e001a0ac:	e28dd018 	add	sp, sp, #24
e001a0b0:	e8bd4070 	pop	{r4, r5, r6, lr}
e001a0b4:	eaffff20 	b	e0019d3c <decodeReadRegisters>
e001a0b8:	e1a0200e 	mov	r2, lr
e001a0bc:	e89c0003 	ldm	ip, {r0, r1}
e001a0c0:	e28dd018 	add	sp, sp, #24
e001a0c4:	e8bd4070 	pop	{r4, r5, r6, lr}
e001a0c8:	eaffff94 	b	e0019f20 <decodeWriteRegisters>
e001a0cc:	e28d1030 	add	r1, sp, #48	; 0x30
e001a0d0:	e58d3008 	str	r3, [sp, #8]
e001a0d4:	e1a0200e 	mov	r2, lr
e001a0d8:	e59d302c 	ldr	r3, [sp, #44]	; 0x2c
e001a0dc:	e8910003 	ldm	r1, {r0, r1}
e001a0e0:	e88d0003 	stm	sp, {r0, r1}
e001a0e4:	e89c0003 	ldm	ip, {r0, r1}
e001a0e8:	ebfffe73 	bl	e0019abc <decodeCopyRegisters>
e001a0ec:	e28dd018 	add	sp, sp, #24
e001a0f0:	e8bd8070 	pop	{r4, r5, r6, pc}
e001a0f4:	e28d202c 	add	r2, sp, #44	; 0x2c
e001a0f8:	e58d300c 	str	r3, [sp, #12]
e001a0fc:	e1a03001 	mov	r3, r1
e001a100:	e8920007 	ldm	r2, {r0, r1, r2}
e001a104:	e88d0007 	stm	sp, {r0, r1, r2}
e001a108:	e1a0200e 	mov	r2, lr
e001a10c:	e89c0003 	ldm	ip, {r0, r1}
e001a110:	ebfffb82 	bl	e0018f20 <decodeTCBConfigure>
e001a114:	eafffff4 	b	e001a0ec <decodeTCBInvocation+0x110>
e001a118:	e28d1030 	add	r1, sp, #48	; 0x30
e001a11c:	e58d3008 	str	r3, [sp, #8]
e001a120:	e1a0200e 	mov	r2, lr
e001a124:	e59d302c 	ldr	r3, [sp, #44]	; 0x2c
e001a128:	e8910003 	ldm	r1, {r0, r1}
e001a12c:	e88d0003 	stm	sp, {r0, r1}
e001a130:	e89c0003 	ldm	ip, {r0, r1}
e001a134:	ebfffc34 	bl	e001920c <decodeSetPriority>
e001a138:	eaffffeb 	b	e001a0ec <decodeTCBInvocation+0x110>
e001a13c:	e28d1030 	add	r1, sp, #48	; 0x30
e001a140:	e58d3008 	str	r3, [sp, #8]
e001a144:	e1a0200e 	mov	r2, lr
e001a148:	e59d302c 	ldr	r3, [sp, #44]	; 0x2c
e001a14c:	e8910003 	ldm	r1, {r0, r1}
e001a150:	e88d0003 	stm	sp, {r0, r1}
e001a154:	e89c0003 	ldm	ip, {r0, r1}
e001a158:	ebfffc85 	bl	e0019374 <decodeSetMCPriority>
e001a15c:	eaffffe2 	b	e001a0ec <decodeTCBInvocation+0x110>
e001a160:	e28d1030 	add	r1, sp, #48	; 0x30
e001a164:	e58d3008 	str	r3, [sp, #8]
e001a168:	e1a0200e 	mov	r2, lr
e001a16c:	e59d302c 	ldr	r3, [sp, #44]	; 0x2c
e001a170:	e8910003 	ldm	r1, {r0, r1}
e001a174:	e88d0003 	stm	sp, {r0, r1}
e001a178:	e89c0003 	ldm	ip, {r0, r1}
e001a17c:	ebfffcd6 	bl	e00194dc <decodeSetSchedParams>
e001a180:	eaffffd9 	b	e001a0ec <decodeTCBInvocation+0x110>
e001a184:	e28d202c 	add	r2, sp, #44	; 0x2c
e001a188:	e58d300c 	str	r3, [sp, #12]
e001a18c:	e1a03001 	mov	r3, r1
e001a190:	e8920007 	ldm	r2, {r0, r1, r2}
e001a194:	e88d0007 	stm	sp, {r0, r1, r2}
e001a198:	e1a0200e 	mov	r2, lr
e001a19c:	e89c0003 	ldm	ip, {r0, r1}
e001a1a0:	ebfffd2a 	bl	e0019650 <decodeSetIPCBuffer>
e001a1a4:	eaffffd0 	b	e001a0ec <decodeTCBInvocation+0x110>
e001a1a8:	e28d202c 	add	r2, sp, #44	; 0x2c
e001a1ac:	e58d300c 	str	r3, [sp, #12]
e001a1b0:	e1a03001 	mov	r3, r1
e001a1b4:	e8920007 	ldm	r2, {r0, r1, r2}
e001a1b8:	e88d0007 	stm	sp, {r0, r1, r2}
e001a1bc:	e1a0200e 	mov	r2, lr
e001a1c0:	e89c0003 	ldm	ip, {r0, r1}
e001a1c4:	ebfffd6d 	bl	e0019780 <decodeSetSpace>
e001a1c8:	eaffffc7 	b	e001a0ec <decodeTCBInvocation+0x110>
e001a1cc:	e303364c 	movw	r3, #13900	; 0x364c
e001a1d0:	e34e3003 	movt	r3, #57347	; 0xe003
e001a1d4:	e5932000 	ldr	r2, [r3]
e001a1d8:	e5923050 	ldr	r3, [r2, #80]	; 0x50
e001a1dc:	e1a00002 	mov	r0, r2
e001a1e0:	e3c3300f 	bic	r3, r3, #15
e001a1e4:	e3833002 	orr	r3, r3, #2
e001a1e8:	e5823050 	str	r3, [r2, #80]	; 0x50
e001a1ec:	ebffe3c8 	bl	e0013114 <setThreadState.part.166>
e001a1f0:	e3c4000f 	bic	r0, r4, #15
e001a1f4:	ebfff16e 	bl	e00167b4 <suspend>
e001a1f8:	e3a00000 	mov	r0, #0
e001a1fc:	eaffffba 	b	e001a0ec <decodeTCBInvocation+0x110>
e001a200:	e303364c 	movw	r3, #13900	; 0x364c
e001a204:	e34e3003 	movt	r3, #57347	; 0xe003
e001a208:	e5932000 	ldr	r2, [r3]
e001a20c:	e5923050 	ldr	r3, [r2, #80]	; 0x50
e001a210:	e1a00002 	mov	r0, r2
e001a214:	e3c3300f 	bic	r3, r3, #15
e001a218:	e3833002 	orr	r3, r3, #2
e001a21c:	e5823050 	str	r3, [r2, #80]	; 0x50
e001a220:	ebffe3bb 	bl	e0013114 <setThreadState.part.166>
e001a224:	e3c4000f 	bic	r0, r4, #15
e001a228:	ebfff4b9 	bl	e0017514 <restart>
e001a22c:	e3a00000 	mov	r0, #0
e001a230:	eaffffad 	b	e001a0ec <decodeTCBInvocation+0x110>
e001a234:	e59de034 	ldr	lr, [sp, #52]	; 0x34
e001a238:	e28d302c 	add	r3, sp, #44	; 0x2c
e001a23c:	e89c0003 	ldm	ip, {r0, r1}
e001a240:	e893000c 	ldm	r3, {r2, r3}
e001a244:	e58de028 	str	lr, [sp, #40]	; 0x28
e001a248:	e28dd018 	add	sp, sp, #24
e001a24c:	e8bd4070 	pop	{r4, r5, r6, lr}
e001a250:	eafffa54 	b	e0018ba8 <decodeBindNotification>
e001a254:	e89c0003 	ldm	ip, {r0, r1}
e001a258:	e28dd018 	add	sp, sp, #24
e001a25c:	e8bd4070 	pop	{r4, r5, r6, lr}
e001a260:	eafffa98 	b	e0018cc8 <decodeUnbindNotification>
e001a264:	e3093020 	movw	r3, #36896	; 0x9020
e001a268:	e34e3002 	movt	r3, #57346	; 0xe002
e001a26c:	e3a02003 	mov	r2, #3
e001a270:	e1a00002 	mov	r0, r2
e001a274:	e5832018 	str	r2, [r3, #24]
e001a278:	eaffff9b 	b	e001a0ec <decodeTCBInvocation+0x110>
e001a27c:	e3093020 	movw	r3, #36896	; 0x9020
e001a280:	e34e3002 	movt	r3, #57346	; 0xe002
e001a284:	e3a02007 	mov	r2, #7
e001a288:	e3a00003 	mov	r0, #3
e001a28c:	e5832018 	str	r2, [r3, #24]
e001a290:	eaffff95 	b	e001a0ec <decodeTCBInvocation+0x110>

e001a294 <invokeTCB_NotificationControl>:
e001a294:	e3510000 	cmp	r1, #0
e001a298:	0a000008 	beq	e001a2c0 <invokeTCB_NotificationControl+0x2c>
e001a29c:	e591300c 	ldr	r3, [r1, #12]
e001a2a0:	e1a02000 	mov	r2, r0
e001a2a4:	e3c0000f 	bic	r0, r0, #15
e001a2a8:	e203300f 	and	r3, r3, #15
e001a2ac:	e1833000 	orr	r3, r3, r0
e001a2b0:	e3a00000 	mov	r0, #0
e001a2b4:	e581300c 	str	r3, [r1, #12]
e001a2b8:	e582105c 	str	r1, [r2, #92]	; 0x5c
e001a2bc:	e12fff1e 	bx	lr
e001a2c0:	e92d4010 	push	{r4, lr}
e001a2c4:	ebffd98f 	bl	e0010908 <invokeTCB_NotificationControl.part.179>
e001a2c8:	e3a00000 	mov	r0, #0
e001a2cc:	e8bd8010 	pop	{r4, pc}

e001a2d0 <setMRs_syscall_error>:
e001a2d0:	e3092020 	movw	r2, #36896	; 0x9020
e001a2d4:	e34e2002 	movt	r2, #57346	; 0xe002
e001a2d8:	e92d4010 	push	{r4, lr}
e001a2dc:	e1a0c000 	mov	ip, r0
e001a2e0:	e5923018 	ldr	r3, [r2, #24]
e001a2e4:	e2433001 	sub	r3, r3, #1
e001a2e8:	e3530009 	cmp	r3, #9
e001a2ec:	979ff103 	ldrls	pc, [pc, r3, lsl #2]
e001a2f0:	ea000045 	b	e001a40c <setMRs_syscall_error+0x13c>
e001a2f4:	e001a368 	.word	0xe001a368
e001a2f8:	e001a378 	.word	0xe001a378
e001a2fc:	e001a388 	.word	0xe001a388
e001a300:	e001a390 	.word	0xe001a390
e001a304:	e001a388 	.word	0xe001a388
e001a308:	e001a31c 	.word	0xe001a31c
e001a30c:	e001a388 	.word	0xe001a388
e001a310:	e001a388 	.word	0xe001a388
e001a314:	e001a388 	.word	0xe001a388
e001a318:	e001a3a8 	.word	0xe001a3a8
e001a31c:	e3093014 	movw	r3, #36884	; 0x9014
e001a320:	e34e3002 	movt	r3, #57346	; 0xe002
e001a324:	e5920014 	ldr	r0, [r2, #20]
e001a328:	e5932000 	ldr	r2, [r3]
e001a32c:	e2900000 	adds	r0, r0, #0
e001a330:	e593e004 	ldr	lr, [r3, #4]
e001a334:	e2023003 	and	r3, r2, #3
e001a338:	13a00001 	movne	r0, #1
e001a33c:	e3530002 	cmp	r3, #2
e001a340:	e58c0008 	str	r0, [ip, #8]
e001a344:	e2830001 	add	r0, r3, #1
e001a348:	e58c000c 	str	r0, [ip, #12]
e001a34c:	0a000019 	beq	e001a3b8 <setMRs_syscall_error+0xe8>
e001a350:	e3530003 	cmp	r3, #3
e001a354:	0a000021 	beq	e001a3e0 <setMRs_syscall_error+0x110>
e001a358:	e3530001 	cmp	r3, #1
e001a35c:	0a00001b 	beq	e001a3d0 <setMRs_syscall_error+0x100>
e001a360:	e3a00002 	mov	r0, #2
e001a364:	e8bd8010 	pop	{r4, pc}
e001a368:	e5923000 	ldr	r3, [r2]
e001a36c:	e3a00001 	mov	r0, #1
e001a370:	e58c3008 	str	r3, [ip, #8]
e001a374:	e8bd8010 	pop	{r4, pc}
e001a378:	e5923004 	ldr	r3, [r2, #4]
e001a37c:	e3a00001 	mov	r0, #1
e001a380:	e58c3008 	str	r3, [ip, #8]
e001a384:	e8bd8010 	pop	{r4, pc}
e001a388:	e3a00000 	mov	r0, #0
e001a38c:	e8bd8010 	pop	{r4, pc}
e001a390:	e592300c 	ldr	r3, [r2, #12]
e001a394:	e3a00002 	mov	r0, #2
e001a398:	e5921008 	ldr	r1, [r2, #8]
e001a39c:	e58c300c 	str	r3, [ip, #12]
e001a3a0:	e58c1008 	str	r1, [ip, #8]
e001a3a4:	e8bd8010 	pop	{r4, pc}
e001a3a8:	e5923010 	ldr	r3, [r2, #16]
e001a3ac:	e3a00001 	mov	r0, #1
e001a3b0:	e58c3008 	str	r3, [ip, #8]
e001a3b4:	e8bd8010 	pop	{r4, pc}
e001a3b8:	e7e53152 	ubfx	r3, r2, #2, #6
e001a3bc:	e3a00004 	mov	r0, #4
e001a3c0:	e7e52452 	ubfx	r2, r2, #8, #6
e001a3c4:	e58c3010 	str	r3, [ip, #16]
e001a3c8:	e58c2014 	str	r2, [ip, #20]
e001a3cc:	e8bd8010 	pop	{r4, pc}
e001a3d0:	e7e52152 	ubfx	r2, r2, #2, #6
e001a3d4:	e3a00003 	mov	r0, #3
e001a3d8:	e58c2010 	str	r2, [ip, #16]
e001a3dc:	e8bd8010 	pop	{r4, pc}
e001a3e0:	e3510000 	cmp	r1, #0
e001a3e4:	e7e53452 	ubfx	r3, r2, #8, #6
e001a3e8:	e58ce014 	str	lr, [ip, #20]
e001a3ec:	e58c3010 	str	r3, [ip, #16]
e001a3f0:	0a000003 	beq	e001a404 <setMRs_syscall_error+0x134>
e001a3f4:	e7e52152 	ubfx	r2, r2, #2, #6
e001a3f8:	e3a00005 	mov	r0, #5
e001a3fc:	e5812014 	str	r2, [r1, #20]
e001a400:	e8bd8010 	pop	{r4, pc}
e001a404:	e3a00004 	mov	r0, #4
e001a408:	e8bd8010 	pop	{r4, pc}
e001a40c:	ebffd98a 	bl	e0010a3c <halt>

e001a410 <replyFromKernel_error>:
e001a410:	e92d4010 	push	{r4, lr}
e001a414:	e1a04000 	mov	r4, r0
e001a418:	e1a01004 	mov	r1, r4
e001a41c:	e3a00001 	mov	r0, #1
e001a420:	ebffda4a 	bl	e0010d50 <lookupIPCBuffer>
e001a424:	e3a03000 	mov	r3, #0
e001a428:	e5843000 	str	r3, [r4]
e001a42c:	e1a01000 	mov	r1, r0
e001a430:	e1a00004 	mov	r0, r4
e001a434:	ebffffa5 	bl	e001a2d0 <setMRs_syscall_error>
e001a438:	e3093020 	movw	r3, #36896	; 0x9020
e001a43c:	e34e3002 	movt	r3, #57346	; 0xe002
e001a440:	e5933018 	ldr	r3, [r3, #24]
e001a444:	e200007f 	and	r0, r0, #127	; 0x7f
e001a448:	e1800603 	orr	r0, r0, r3, lsl #12
e001a44c:	e5840004 	str	r0, [r4, #4]
e001a450:	e8bd8010 	pop	{r4, pc}

e001a454 <invokeUntyped_Retype>:
e001a454:	e92d4ff0 	push	{r4, r5, r6, r7, r8, r9, sl, fp, lr}
e001a458:	e3510000 	cmp	r1, #0
e001a45c:	e5909000 	ldr	r9, [r0]
e001a460:	e1a0b002 	mov	fp, r2
e001a464:	e5902004 	ldr	r2, [r0, #4]
e001a468:	e24dd01c 	sub	sp, sp, #28
e001a46c:	e1a06000 	mov	r6, r0
e001a470:	e1a0a003 	mov	sl, r3
e001a474:	e3c9700f 	bic	r7, r9, #15
e001a478:	e202803f 	and	r8, r2, #63	; 0x3f
e001a47c:	0a000022 	beq	e001a50c <invokeUntyped_Retype+0xb8>
e001a480:	e1a03322 	lsr	r3, r2, #6
e001a484:	e1b03203 	lsls	r3, r3, #4
e001a488:	0a00001f 	beq	e001a50c <invokeUntyped_Retype+0xb8>
e001a48c:	e202101f 	and	r1, r2, #31
e001a490:	e7e022d2 	ubfx	r2, r2, #5, #1
e001a494:	e3510007 	cmp	r1, #7
e001a498:	81a04002 	movhi	r4, r2
e001a49c:	93824001 	orrls	r4, r2, #1
e001a4a0:	e3540000 	cmp	r4, #0
e001a4a4:	0a00002f 	beq	e001a568 <invokeUntyped_Retype+0x114>
e001a4a8:	e3520000 	cmp	r2, #0
e001a4ac:	1a000014 	bne	e001a504 <invokeUntyped_Retype+0xb0>
e001a4b0:	e3a00001 	mov	r0, #1
e001a4b4:	e1a00110 	lsl	r0, r0, r1
e001a4b8:	e1a01007 	mov	r1, r7
e001a4bc:	e1a03000 	mov	r3, r0
e001a4c0:	e2533004 	subs	r3, r3, #4
e001a4c4:	e4812004 	str	r2, [r1], #4
e001a4c8:	1afffffc 	bne	e001a4c0 <invokeUntyped_Retype+0x6c>
e001a4cc:	e2472001 	sub	r2, r7, #1
e001a4d0:	e1a032a7 	lsr	r3, r7, #5
e001a4d4:	e0822000 	add	r2, r2, r0
e001a4d8:	e1a022a2 	lsr	r2, r2, #5
e001a4dc:	e2822001 	add	r2, r2, #1
e001a4e0:	e1530002 	cmp	r3, r2
e001a4e4:	2a000006 	bcs	e001a504 <invokeUntyped_Retype+0xb0>
e001a4e8:	e1a03283 	lsl	r3, r3, #5
e001a4ec:	e1a02282 	lsl	r2, r2, #5
e001a4f0:	ee073f3b 	mcr	15, 0, r3, cr7, cr11, {1}
e001a4f4:	f57ff05f 	dmb	sy
e001a4f8:	e2833020 	add	r3, r3, #32
e001a4fc:	e1520003 	cmp	r2, r3
e001a500:	1afffffa 	bne	e001a4f0 <invokeUntyped_Retype+0x9c>
e001a504:	e5869000 	str	r9, [r6]
e001a508:	e5868004 	str	r8, [r6, #4]
e001a50c:	e59d1040 	ldr	r1, [sp, #64]	; 0x40
e001a510:	e1a0000a 	mov	r0, sl
e001a514:	ebffe74f 	bl	e0014258 <getObjectSize>
e001a518:	e59de04c 	ldr	lr, [sp, #76]	; 0x4c
e001a51c:	e59d2050 	ldr	r2, [sp, #80]	; 0x50
e001a520:	e04bc007 	sub	ip, fp, r7
e001a524:	e28d3044 	add	r3, sp, #68	; 0x44
e001a528:	e58db004 	str	fp, [sp, #4]
e001a52c:	e58de000 	str	lr, [sp]
e001a530:	e1a01006 	mov	r1, r6
e001a534:	e58d200c 	str	r2, [sp, #12]
e001a538:	e59d2040 	ldr	r2, [sp, #64]	; 0x40
e001a53c:	e58d2008 	str	r2, [sp, #8]
e001a540:	e893000c 	ldm	r3, {r2, r3}
e001a544:	e08cc01e 	add	ip, ip, lr, lsl r0
e001a548:	e1a0000a 	mov	r0, sl
e001a54c:	e1a0c22c 	lsr	ip, ip, #4
e001a550:	e188c30c 	orr	ip, r8, ip, lsl #6
e001a554:	e586c004 	str	ip, [r6, #4]
e001a558:	ebffef4a 	bl	e0016288 <createNewObjects>
e001a55c:	e3a00000 	mov	r0, #0
e001a560:	e28dd01c 	add	sp, sp, #28
e001a564:	e8bd8ff0 	pop	{r4, r5, r6, r7, r8, r9, sl, fp, pc}
e001a568:	e2433001 	sub	r3, r3, #1
e001a56c:	e3031204 	movw	r1, #12804	; 0x3204
e001a570:	e3c320ff 	bic	r2, r3, #255	; 0xff
e001a574:	e34e1003 	movt	r1, #57347	; 0xe003
e001a578:	e0875002 	add	r5, r7, r2
e001a57c:	e2850c01 	add	r0, r5, #256	; 0x100
e001a580:	e1a03005 	mov	r3, r5
e001a584:	e4834004 	str	r4, [r3], #4
e001a588:	e1500003 	cmp	r0, r3
e001a58c:	1afffffc 	bne	e001a584 <invokeUntyped_Retype+0x130>
e001a590:	e28500ff 	add	r0, r5, #255	; 0xff
e001a594:	e1a032a5 	lsr	r3, r5, #5
e001a598:	e1a002a0 	lsr	r0, r0, #5
e001a59c:	e2800001 	add	r0, r0, #1
e001a5a0:	e1500003 	cmp	r0, r3
e001a5a4:	9a000006 	bls	e001a5c4 <invokeUntyped_Retype+0x170>
e001a5a8:	e1a03283 	lsl	r3, r3, #5
e001a5ac:	e1a00280 	lsl	r0, r0, #5
e001a5b0:	ee073f3b 	mcr	15, 0, r3, cr7, cr11, {1}
e001a5b4:	f57ff05f 	dmb	sy
e001a5b8:	e2833020 	add	r3, r3, #32
e001a5bc:	e1500003 	cmp	r0, r3
e001a5c0:	1afffffa 	bne	e001a5b0 <invokeUntyped_Retype+0x15c>
e001a5c4:	e5910000 	ldr	r0, [r1]
e001a5c8:	e1a03222 	lsr	r3, r2, #4
e001a5cc:	e5869000 	str	r9, [r6]
e001a5d0:	e2800001 	add	r0, r0, #1
e001a5d4:	e1883303 	orr	r3, r8, r3, lsl #6
e001a5d8:	e3500063 	cmp	r0, #99	; 0x63
e001a5dc:	e5810000 	str	r0, [r1]
e001a5e0:	e5863004 	str	r3, [r6, #4]
e001a5e4:	8a000006 	bhi	e001a604 <invokeUntyped_Retype+0x1b0>
e001a5e8:	e2422c01 	sub	r2, r2, #256	; 0x100
e001a5ec:	e2455c01 	sub	r5, r5, #256	; 0x100
e001a5f0:	e3720c01 	cmn	r2, #256	; 0x100
e001a5f4:	1affffe0 	bne	e001a57c <invokeUntyped_Retype+0x128>
e001a5f8:	e5968004 	ldr	r8, [r6, #4]
e001a5fc:	e208803f 	and	r8, r8, #63	; 0x3f
e001a600:	eaffffc1 	b	e001a50c <invokeUntyped_Retype+0xb8>
e001a604:	e58d1014 	str	r1, [sp, #20]
e001a608:	e58d2010 	str	r2, [sp, #16]
e001a60c:	ebffd865 	bl	e00107a8 <preemptionPoint.part.161>
e001a610:	e59d2010 	ldr	r2, [sp, #16]
e001a614:	e59d1014 	ldr	r1, [sp, #20]
e001a618:	e3500000 	cmp	r0, #0
e001a61c:	0afffff1 	beq	e001a5e8 <invokeUntyped_Retype+0x194>
e001a620:	eaffffce 	b	e001a560 <invokeUntyped_Retype+0x10c>

e001a624 <decodeUntypedInvocation>:
e001a624:	e24dd008 	sub	sp, sp, #8
e001a628:	e3500001 	cmp	r0, #1
e001a62c:	e92d4ff0 	push	{r4, r5, r6, r7, r8, r9, sl, fp, lr}
e001a630:	e24dd034 	sub	sp, sp, #52	; 0x34
e001a634:	e58d305c 	str	r3, [sp, #92]	; 0x5c
e001a638:	e59db074 	ldr	fp, [sp, #116]	; 0x74
e001a63c:	1a000063 	bne	e001a7d0 <decodeUntypedInvocation+0x1ac>
e001a640:	e3510005 	cmp	r1, #5
e001a644:	e59da064 	ldr	sl, [sp, #100]	; 0x64
e001a648:	83a01000 	movhi	r1, #0
e001a64c:	93a01001 	movls	r1, #1
e001a650:	e35a0000 	cmp	sl, #0
e001a654:	11a09001 	movne	r9, r1
e001a658:	03a09001 	moveq	r9, #1
e001a65c:	e3590000 	cmp	r9, #0
e001a660:	1a000050 	bne	e001a7a8 <decodeUntypedInvocation+0x184>
e001a664:	e303564c 	movw	r5, #13900	; 0x364c
e001a668:	e34e5003 	movt	r5, #57347	; 0xe003
e001a66c:	e1a04002 	mov	r4, r2
e001a670:	e5952000 	ldr	r2, [r5]
e001a674:	e5926008 	ldr	r6, [r2, #8]
e001a678:	e356000a 	cmp	r6, #10
e001a67c:	8a000059 	bhi	e001a7e8 <decodeUntypedInvocation+0x1c4>
e001a680:	e592700c 	ldr	r7, [r2, #12]
e001a684:	e1a00006 	mov	r0, r6
e001a688:	e1a01007 	mov	r1, r7
e001a68c:	ebffe6f1 	bl	e0014258 <getObjectSize>
e001a690:	e350001d 	cmp	r0, #29
e001a694:	9357001f 	cmpls	r7, #31
e001a698:	e1a08000 	mov	r8, r0
e001a69c:	8a00005e 	bhi	e001a81c <decodeUntypedInvocation+0x1f8>
e001a6a0:	e3560004 	cmp	r6, #4
e001a6a4:	03570000 	cmpeq	r7, #0
e001a6a8:	0a000054 	beq	e001a800 <decodeUntypedInvocation+0x1dc>
e001a6ac:	e3570003 	cmp	r7, #3
e001a6b0:	83a01000 	movhi	r1, #0
e001a6b4:	93a01001 	movls	r1, #1
e001a6b8:	e3560000 	cmp	r6, #0
e001a6bc:	13a01000 	movne	r1, #0
e001a6c0:	e3510000 	cmp	r1, #0
e001a6c4:	1a00004d 	bne	e001a800 <decodeUntypedInvocation+0x1dc>
e001a6c8:	e59d3060 	ldr	r3, [sp, #96]	; 0x60
e001a6cc:	e5929014 	ldr	r9, [r2, #20]
e001a6d0:	e59a0004 	ldr	r0, [sl, #4]
e001a6d4:	e58d300c 	str	r3, [sp, #12]
e001a6d8:	e3590000 	cmp	r9, #0
e001a6dc:	e59b3014 	ldr	r3, [fp, #20]
e001a6e0:	e59ac000 	ldr	ip, [sl]
e001a6e4:	e59bb018 	ldr	fp, [fp, #24]
e001a6e8:	e58d3008 	str	r3, [sp, #8]
e001a6ec:	1a000053 	bne	e001a840 <decodeUntypedInvocation+0x21c>
e001a6f0:	e20c300e 	and	r3, ip, #14
e001a6f4:	e353000e 	cmp	r3, #14
e001a6f8:	120c300f 	andne	r3, ip, #15
e001a6fc:	06ef307c 	uxtbeq	r3, ip
e001a700:	e353000a 	cmp	r3, #10
e001a704:	1a00005c 	bne	e001a87c <decodeUntypedInvocation+0x258>
e001a708:	e7e40950 	ubfx	r0, r0, #18, #5
e001a70c:	e3a02001 	mov	r2, #1
e001a710:	e1a00012 	lsl	r0, r2, r0
e001a714:	e59d1008 	ldr	r1, [sp, #8]
e001a718:	e2403001 	sub	r3, r0, #1
e001a71c:	e1530001 	cmp	r3, r1
e001a720:	3a000064 	bcc	e001a8b8 <decodeUntypedInvocation+0x294>
e001a724:	e24b3001 	sub	r3, fp, #1
e001a728:	e35300ff 	cmp	r3, #255	; 0xff
e001a72c:	8a00006a 	bhi	e001a8dc <decodeUntypedInvocation+0x2b8>
e001a730:	e59d3008 	ldr	r3, [sp, #8]
e001a734:	e0400003 	sub	r0, r0, r3
e001a738:	e150000b 	cmp	r0, fp
e001a73c:	3a0000a6 	bcc	e001a9dc <decodeUntypedInvocation+0x3b8>
e001a740:	e59d1008 	ldr	r1, [sp, #8]
e001a744:	e3cc901f 	bic	r9, ip, #31
e001a748:	e58db02c 	str	fp, [sp, #44]	; 0x2c
e001a74c:	e08be001 	add	lr, fp, r1
e001a750:	e151000e 	cmp	r1, lr
e001a754:	e58d1028 	str	r1, [sp, #40]	; 0x28
e001a758:	2a000068 	bcs	e001a900 <decodeUntypedInvocation+0x2dc>
e001a75c:	e0892201 	add	r2, r9, r1, lsl #4
e001a760:	ea000001 	b	e001a76c <decodeUntypedInvocation+0x148>
e001a764:	e151000e 	cmp	r1, lr
e001a768:	2a000064 	bcs	e001a900 <decodeUntypedInvocation+0x2dc>
e001a76c:	e5923000 	ldr	r3, [r2]
e001a770:	e2811001 	add	r1, r1, #1
e001a774:	e2822010 	add	r2, r2, #16
e001a778:	e203c00e 	and	ip, r3, #14
e001a77c:	e203000f 	and	r0, r3, #15
e001a780:	e35c000e 	cmp	ip, #14
e001a784:	06ef0073 	uxtbeq	r0, r3
e001a788:	e3500000 	cmp	r0, #0
e001a78c:	0afffff4 	beq	e001a764 <decodeUntypedInvocation+0x140>
e001a790:	e3092020 	movw	r2, #36896	; 0x9020
e001a794:	e34e2002 	movt	r2, #57346	; 0xe002
e001a798:	e3a01008 	mov	r1, #8
e001a79c:	e3a03003 	mov	r3, #3
e001a7a0:	e5821018 	str	r1, [r2, #24]
e001a7a4:	ea000004 	b	e001a7bc <decodeUntypedInvocation+0x198>
e001a7a8:	e3092020 	movw	r2, #36896	; 0x9020
e001a7ac:	e34e2002 	movt	r2, #57346	; 0xe002
e001a7b0:	e3a03003 	mov	r3, #3
e001a7b4:	e3a01007 	mov	r1, #7
e001a7b8:	e5821018 	str	r1, [r2, #24]
e001a7bc:	e1a00003 	mov	r0, r3
e001a7c0:	e28dd034 	add	sp, sp, #52	; 0x34
e001a7c4:	e8bd4ff0 	pop	{r4, r5, r6, r7, r8, r9, sl, fp, lr}
e001a7c8:	e28dd008 	add	sp, sp, #8
e001a7cc:	e12fff1e 	bx	lr
e001a7d0:	e3092020 	movw	r2, #36896	; 0x9020
e001a7d4:	e34e2002 	movt	r2, #57346	; 0xe002
e001a7d8:	e3a01003 	mov	r1, #3
e001a7dc:	e1a03001 	mov	r3, r1
e001a7e0:	e5821018 	str	r1, [r2, #24]
e001a7e4:	eafffff4 	b	e001a7bc <decodeUntypedInvocation+0x198>
e001a7e8:	e3092020 	movw	r2, #36896	; 0x9020
e001a7ec:	e34e2002 	movt	r2, #57346	; 0xe002
e001a7f0:	e3a03003 	mov	r3, #3
e001a7f4:	e5820018 	str	r0, [r2, #24]
e001a7f8:	e5829000 	str	r9, [r2]
e001a7fc:	eaffffee 	b	e001a7bc <decodeUntypedInvocation+0x198>
e001a800:	e3092020 	movw	r2, #36896	; 0x9020
e001a804:	e34e2002 	movt	r2, #57346	; 0xe002
e001a808:	e3a01001 	mov	r1, #1
e001a80c:	e3a03003 	mov	r3, #3
e001a810:	e5821018 	str	r1, [r2, #24]
e001a814:	e5821000 	str	r1, [r2]
e001a818:	eaffffe7 	b	e001a7bc <decodeUntypedInvocation+0x198>
e001a81c:	e3092020 	movw	r2, #36896	; 0x9020
e001a820:	e34e2002 	movt	r2, #57346	; 0xe002
e001a824:	e3a00004 	mov	r0, #4
e001a828:	e3a0101d 	mov	r1, #29
e001a82c:	e5829008 	str	r9, [r2, #8]
e001a830:	e3a03003 	mov	r3, #3
e001a834:	e5820018 	str	r0, [r2, #24]
e001a838:	e582100c 	str	r1, [r2, #12]
e001a83c:	eaffffde 	b	e001a7bc <decodeUntypedInvocation+0x198>
e001a840:	e5922010 	ldr	r2, [r2, #16]
e001a844:	e28d301c 	add	r3, sp, #28
e001a848:	e58d0020 	str	r0, [sp, #32]
e001a84c:	e28d0014 	add	r0, sp, #20
e001a850:	e58dc01c 	str	ip, [sp, #28]
e001a854:	e88d0204 	stm	sp, {r2, r9}
e001a858:	e893000c 	ldm	r3, {r2, r3}
e001a85c:	ebffe170 	bl	e0012e24 <lookupSlotForCNodeOp>
e001a860:	e59d3014 	ldr	r3, [sp, #20]
e001a864:	e3530000 	cmp	r3, #0
e001a868:	1affffd3 	bne	e001a7bc <decodeUntypedInvocation+0x198>
e001a86c:	e59d3018 	ldr	r3, [sp, #24]
e001a870:	e593c000 	ldr	ip, [r3]
e001a874:	e5930004 	ldr	r0, [r3, #4]
e001a878:	eaffff9c 	b	e001a6f0 <decodeUntypedInvocation+0xcc>
e001a87c:	e1a03109 	lsl	r3, r9, #2
e001a880:	e3091014 	movw	r1, #36884	; 0x9014
e001a884:	e3092020 	movw	r2, #36896	; 0x9020
e001a888:	e34e1002 	movt	r1, #57346	; 0xe002
e001a88c:	e34e2002 	movt	r2, #57346	; 0xe002
e001a890:	e6ef3073 	uxtb	r3, r3
e001a894:	e3833001 	orr	r3, r3, #1
e001a898:	e3a00000 	mov	r0, #0
e001a89c:	e5813000 	str	r3, [r1]
e001a8a0:	e3a0c006 	mov	ip, #6
e001a8a4:	e5810004 	str	r0, [r1, #4]
e001a8a8:	e3a03003 	mov	r3, #3
e001a8ac:	e5820014 	str	r0, [r2, #20]
e001a8b0:	e582c018 	str	ip, [r2, #24]
e001a8b4:	eaffffc0 	b	e001a7bc <decodeUntypedInvocation+0x198>
e001a8b8:	e3092020 	movw	r2, #36896	; 0x9020
e001a8bc:	e34e2002 	movt	r2, #57346	; 0xe002
e001a8c0:	e3a00004 	mov	r0, #4
e001a8c4:	e3a01000 	mov	r1, #0
e001a8c8:	e582300c 	str	r3, [r2, #12]
e001a8cc:	e3a03003 	mov	r3, #3
e001a8d0:	e5820018 	str	r0, [r2, #24]
e001a8d4:	e5821008 	str	r1, [r2, #8]
e001a8d8:	eaffffb7 	b	e001a7bc <decodeUntypedInvocation+0x198>
e001a8dc:	e3091020 	movw	r1, #36896	; 0x9020
e001a8e0:	e34e1002 	movt	r1, #57346	; 0xe002
e001a8e4:	e3a0c004 	mov	ip, #4
e001a8e8:	e3a00c01 	mov	r0, #256	; 0x100
e001a8ec:	e5812008 	str	r2, [r1, #8]
e001a8f0:	e3a03003 	mov	r3, #3
e001a8f4:	e581c018 	str	ip, [r1, #24]
e001a8f8:	e581000c 	str	r0, [r1, #12]
e001a8fc:	eaffffae 	b	e001a7bc <decodeUntypedInvocation+0x198>
e001a900:	e1a00004 	mov	r0, r4
e001a904:	ebffe8ac 	bl	e0014bbc <ensureNoChildren>
e001a908:	e2503000 	subs	r3, r0, #0
e001a90c:	159d300c 	ldrne	r3, [sp, #12]
e001a910:	13a02000 	movne	r2, #0
e001a914:	03a02001 	moveq	r2, #1
e001a918:	158d2008 	strne	r2, [sp, #8]
e001a91c:	058d2008 	streq	r2, [sp, #8]
e001a920:	11a03323 	lsrne	r3, r3, #6
e001a924:	e59d200c 	ldr	r2, [sp, #12]
e001a928:	11a03203 	lslne	r3, r3, #4
e001a92c:	e202001f 	and	r0, r2, #31
e001a930:	e3a02001 	mov	r2, #1
e001a934:	e0632012 	rsb	r2, r3, r2, lsl r0
e001a938:	e15b0832 	cmp	fp, r2, lsr r8
e001a93c:	8a00002e 	bhi	e001a9fc <decodeUntypedInvocation+0x3d8>
e001a940:	e59d200c 	ldr	r2, [sp, #12]
e001a944:	e7e0a2d2 	ubfx	sl, r2, #5, #1
e001a948:	e35a0000 	cmp	sl, #0
e001a94c:	0a000004 	beq	e001a964 <decodeUntypedInvocation+0x340>
e001a950:	e2462005 	sub	r2, r6, #5
e001a954:	e3520003 	cmp	r2, #3
e001a958:	9a000001 	bls	e001a964 <decodeUntypedInvocation+0x340>
e001a95c:	e3560000 	cmp	r6, #0
e001a960:	1affffa6 	bne	e001a800 <decodeUntypedInvocation+0x1dc>
e001a964:	e5950000 	ldr	r0, [r5]
e001a968:	e3a02001 	mov	r2, #1
e001a96c:	e59d505c 	ldr	r5, [sp, #92]	; 0x5c
e001a970:	e1a08812 	lsl	r8, r2, r8
e001a974:	e2682000 	rsb	r2, r8, #0
e001a978:	e590c050 	ldr	ip, [r0, #80]	; 0x50
e001a97c:	e3c5500f 	bic	r5, r5, #15
e001a980:	e2455001 	sub	r5, r5, #1
e001a984:	e0855008 	add	r5, r5, r8
e001a988:	e3ccc00f 	bic	ip, ip, #15
e001a98c:	e38cc002 	orr	ip, ip, #2
e001a990:	e0855003 	add	r5, r5, r3
e001a994:	e580c050 	str	ip, [r0, #80]	; 0x50
e001a998:	e0055002 	and	r5, r5, r2
e001a99c:	ebffe1dc 	bl	e0013114 <setThreadState.part.166>
e001a9a0:	e28d3030 	add	r3, sp, #48	; 0x30
e001a9a4:	e28dc064 	add	ip, sp, #100	; 0x64
e001a9a8:	e523900c 	str	r9, [r3, #-12]!
e001a9ac:	e8930007 	ldm	r3, {r0, r1, r2}
e001a9b0:	e1a03006 	mov	r3, r6
e001a9b4:	e58da070 	str	sl, [sp, #112]	; 0x70
e001a9b8:	e58d7060 	str	r7, [sp, #96]	; 0x60
e001a9bc:	e88c0007 	stm	ip, {r0, r1, r2}
e001a9c0:	e1a02005 	mov	r2, r5
e001a9c4:	e59d1008 	ldr	r1, [sp, #8]
e001a9c8:	e1a00004 	mov	r0, r4
e001a9cc:	e28dd034 	add	sp, sp, #52	; 0x34
e001a9d0:	e8bd4ff0 	pop	{r4, r5, r6, r7, r8, r9, sl, fp, lr}
e001a9d4:	e28dd008 	add	sp, sp, #8
e001a9d8:	eafffe9d 	b	e001a454 <invokeUntyped_Retype>
e001a9dc:	e3091020 	movw	r1, #36896	; 0x9020
e001a9e0:	e34e1002 	movt	r1, #57346	; 0xe002
e001a9e4:	e3a0c004 	mov	ip, #4
e001a9e8:	e3a03003 	mov	r3, #3
e001a9ec:	e5812008 	str	r2, [r1, #8]
e001a9f0:	e581000c 	str	r0, [r1, #12]
e001a9f4:	e581c018 	str	ip, [r1, #24]
e001a9f8:	eaffff6f 	b	e001a7bc <decodeUntypedInvocation+0x198>
e001a9fc:	e3091020 	movw	r1, #36896	; 0x9020
e001aa00:	e34e1002 	movt	r1, #57346	; 0xe002
e001aa04:	e3a0000a 	mov	r0, #10
e001aa08:	e3a03003 	mov	r3, #3
e001aa0c:	e5812010 	str	r2, [r1, #16]
e001aa10:	e5810018 	str	r0, [r1, #24]
e001aa14:	eaffff68 	b	e001a7bc <decodeUntypedInvocation+0x198>

e001aa18 <decodeInvocation>:
e001aa18:	e92d4ff0 	push	{r4, r5, r6, r7, r8, r9, sl, fp, lr}
e001aa1c:	e24dd034 	sub	sp, sp, #52	; 0x34
e001aa20:	e1a0b002 	mov	fp, r2
e001aa24:	e1a0e000 	mov	lr, r0
e001aa28:	e59d4058 	ldr	r4, [sp, #88]	; 0x58
e001aa2c:	e1a05001 	mov	r5, r1
e001aa30:	e59da06c 	ldr	sl, [sp, #108]	; 0x6c
e001aa34:	e204200e 	and	r2, r4, #14
e001aa38:	e59d9070 	ldr	r9, [sp, #112]	; 0x70
e001aa3c:	e352000e 	cmp	r2, #14
e001aa40:	e59d8074 	ldr	r8, [sp, #116]	; 0x74
e001aa44:	1204c00f 	andne	ip, r4, #15
e001aa48:	06efc074 	uxtbeq	ip, r4
e001aa4c:	e31c0001 	tst	ip, #1
e001aa50:	e59d705c 	ldr	r7, [sp, #92]	; 0x5c
e001aa54:	1a000042 	bne	e001ab64 <decodeInvocation+0x14c>
e001aa58:	e1a06003 	mov	r6, r3
e001aa5c:	e35c003e 	cmp	ip, #62	; 0x3e
e001aa60:	979ff10c 	ldrls	pc, [pc, ip, lsl #2]
e001aa64:	ea0000d0 	b	e001adac <decodeInvocation+0x394>
e001aa68:	e001aba8 	.word	0xe001aba8
e001aa6c:	e001adac 	.word	0xe001adac
e001aa70:	e001abcc 	.word	0xe001abcc
e001aa74:	e001adac 	.word	0xe001adac
e001aa78:	e001ac00 	.word	0xe001ac00
e001aa7c:	e001adac 	.word	0xe001adac
e001aa80:	e001ac60 	.word	0xe001ac60
e001aa84:	e001adac 	.word	0xe001adac
e001aa88:	e001aca0 	.word	0xe001aca0
e001aa8c:	e001adac 	.word	0xe001adac
e001aa90:	e001acec 	.word	0xe001acec
e001aa94:	e001adac 	.word	0xe001adac
e001aa98:	e001ad14 	.word	0xe001ad14
e001aa9c:	e001adac 	.word	0xe001adac
e001aaa0:	e001ad44 	.word	0xe001ad44
e001aaa4:	e001adac 	.word	0xe001adac
e001aaa8:	e001adac 	.word	0xe001adac
e001aaac:	e001adac 	.word	0xe001adac
e001aab0:	e001adac 	.word	0xe001adac
e001aab4:	e001adac 	.word	0xe001adac
e001aab8:	e001adac 	.word	0xe001adac
e001aabc:	e001adac 	.word	0xe001adac
e001aac0:	e001adac 	.word	0xe001adac
e001aac4:	e001adac 	.word	0xe001adac
e001aac8:	e001adac 	.word	0xe001adac
e001aacc:	e001adac 	.word	0xe001adac
e001aad0:	e001adac 	.word	0xe001adac
e001aad4:	e001adac 	.word	0xe001adac
e001aad8:	e001adac 	.word	0xe001adac
e001aadc:	e001adac 	.word	0xe001adac
e001aae0:	e001ad6c 	.word	0xe001ad6c
e001aae4:	e001adac 	.word	0xe001adac
e001aae8:	e001adac 	.word	0xe001adac
e001aaec:	e001adac 	.word	0xe001adac
e001aaf0:	e001adac 	.word	0xe001adac
e001aaf4:	e001adac 	.word	0xe001adac
e001aaf8:	e001adac 	.word	0xe001adac
e001aafc:	e001adac 	.word	0xe001adac
e001ab00:	e001adac 	.word	0xe001adac
e001ab04:	e001adac 	.word	0xe001adac
e001ab08:	e001adac 	.word	0xe001adac
e001ab0c:	e001adac 	.word	0xe001adac
e001ab10:	e001adac 	.word	0xe001adac
e001ab14:	e001adac 	.word	0xe001adac
e001ab18:	e001adac 	.word	0xe001adac
e001ab1c:	e001adac 	.word	0xe001adac
e001ab20:	e001aba8 	.word	0xe001aba8
e001ab24:	e001adac 	.word	0xe001adac
e001ab28:	e001adac 	.word	0xe001adac
e001ab2c:	e001adac 	.word	0xe001adac
e001ab30:	e001adac 	.word	0xe001adac
e001ab34:	e001adac 	.word	0xe001adac
e001ab38:	e001adac 	.word	0xe001adac
e001ab3c:	e001adac 	.word	0xe001adac
e001ab40:	e001adac 	.word	0xe001adac
e001ab44:	e001adac 	.word	0xe001adac
e001ab48:	e001adac 	.word	0xe001adac
e001ab4c:	e001adac 	.word	0xe001adac
e001ab50:	e001adac 	.word	0xe001adac
e001ab54:	e001adac 	.word	0xe001adac
e001ab58:	e001adac 	.word	0xe001adac
e001ab5c:	e001adac 	.word	0xe001adac
e001ab60:	e001ad8c 	.word	0xe001ad8c
e001ab64:	e28dc060 	add	ip, sp, #96	; 0x60
e001ab68:	e28d6024 	add	r6, sp, #36	; 0x24
e001ab6c:	e28d901c 	add	r9, sp, #28
e001ab70:	e58d401c 	str	r4, [sp, #28]
e001ab74:	e89c0007 	ldm	ip, {r0, r1, r2}
e001ab78:	e28dc054 	add	ip, sp, #84	; 0x54
e001ab7c:	e58d806c 	str	r8, [sp, #108]	; 0x6c
e001ab80:	e58d7020 	str	r7, [sp, #32]
e001ab84:	e8860007 	stm	r6, {r0, r1, r2}
e001ab88:	e1a0200b 	mov	r2, fp
e001ab8c:	e8990003 	ldm	r9, {r0, r1}
e001ab90:	e98c0003 	stmib	ip, {r0, r1}
e001ab94:	e1a01005 	mov	r1, r5
e001ab98:	e1a0000e 	mov	r0, lr
e001ab9c:	e28dd034 	add	sp, sp, #52	; 0x34
e001aba0:	e8bd4ff0 	pop	{r4, r5, r6, r7, r8, r9, sl, fp, lr}
e001aba4:	eaffe892 	b	e0014df4 <decodeARMMMUInvocation>
e001aba8:	e3093020 	movw	r3, #36896	; 0x9020
e001abac:	e34e3002 	movt	r3, #57346	; 0xe002
e001abb0:	e3a00003 	mov	r0, #3
e001abb4:	e3a01002 	mov	r1, #2
e001abb8:	e3a02000 	mov	r2, #0
e001abbc:	e5831018 	str	r1, [r3, #24]
e001abc0:	e5832004 	str	r2, [r3, #4]
e001abc4:	e28dd034 	add	sp, sp, #52	; 0x34
e001abc8:	e8bd8ff0 	pop	{r4, r5, r6, r7, r8, r9, sl, fp, pc}
e001abcc:	e28d3060 	add	r3, sp, #96	; 0x60
e001abd0:	e58d8014 	str	r8, [sp, #20]
e001abd4:	e59dc05c 	ldr	ip, [sp, #92]	; 0x5c
e001abd8:	e8930007 	ldm	r3, {r0, r1, r2}
e001abdc:	e58d9010 	str	r9, [sp, #16]
e001abe0:	e58dc000 	str	ip, [sp]
e001abe4:	e59d3058 	ldr	r3, [sp, #88]	; 0x58
e001abe8:	e98d0007 	stmib	sp, {r0, r1, r2}
e001abec:	e1a02006 	mov	r2, r6
e001abf0:	e1a01005 	mov	r1, r5
e001abf4:	e1a0000e 	mov	r0, lr
e001abf8:	ebfffe89 	bl	e001a624 <decodeUntypedInvocation>
e001abfc:	eafffff0 	b	e001abc4 <decodeInvocation+0x1ac>
e001ac00:	e3170001 	tst	r7, #1
e001ac04:	0affffe7 	beq	e001aba8 <decodeInvocation+0x190>
e001ac08:	e303564c 	movw	r5, #13900	; 0x364c
e001ac0c:	e34e5003 	movt	r5, #57347	; 0xe003
e001ac10:	e5952000 	ldr	r2, [r5]
e001ac14:	e5923050 	ldr	r3, [r2, #80]	; 0x50
e001ac18:	e1a00002 	mov	r0, r2
e001ac1c:	e3c3300f 	bic	r3, r3, #15
e001ac20:	e3833002 	orr	r3, r3, #2
e001ac24:	e5823050 	str	r3, [r2, #80]	; 0x50
e001ac28:	ebffe139 	bl	e0013114 <setThreadState.part.166>
e001ac2c:	e595c000 	ldr	ip, [r5]
e001ac30:	e1a0000a 	mov	r0, sl
e001ac34:	e3c7300f 	bic	r3, r7, #15
e001ac38:	e1a02224 	lsr	r2, r4, #4
e001ac3c:	e58d3008 	str	r3, [sp, #8]
e001ac40:	e58dc004 	str	ip, [sp, #4]
e001ac44:	e1a01009 	mov	r1, r9
e001ac48:	e7e0c1d7 	ubfx	ip, r7, #3, #1
e001ac4c:	e7e03157 	ubfx	r3, r7, #2, #1
e001ac50:	e58dc000 	str	ip, [sp]
e001ac54:	ebfff565 	bl	e00181f0 <sendIPC>
e001ac58:	e3a00000 	mov	r0, #0
e001ac5c:	eaffffd8 	b	e001abc4 <decodeInvocation+0x1ac>
e001ac60:	e3170001 	tst	r7, #1
e001ac64:	0affffcf 	beq	e001aba8 <decodeInvocation+0x190>
e001ac68:	e303364c 	movw	r3, #13900	; 0x364c
e001ac6c:	e34e3003 	movt	r3, #57347	; 0xe003
e001ac70:	e5932000 	ldr	r2, [r3]
e001ac74:	e5923050 	ldr	r3, [r2, #80]	; 0x50
e001ac78:	e1a00002 	mov	r0, r2
e001ac7c:	e3c3300f 	bic	r3, r3, #15
e001ac80:	e3833002 	orr	r3, r3, #2
e001ac84:	e5823050 	str	r3, [r2, #80]	; 0x50
e001ac88:	ebffe121 	bl	e0013114 <setThreadState.part.166>
e001ac8c:	e3c4000f 	bic	r0, r4, #15
e001ac90:	e1a01227 	lsr	r1, r7, #4
e001ac94:	ebfff24f 	bl	e00175d8 <sendSignal>
e001ac98:	e3a00000 	mov	r0, #0
e001ac9c:	eaffffc8 	b	e001abc4 <decodeInvocation+0x1ac>
e001aca0:	e7e05254 	ubfx	r5, r4, #4, #1
e001aca4:	e3550000 	cmp	r5, #0
e001aca8:	1affffbe 	bne	e001aba8 <decodeInvocation+0x190>
e001acac:	e303764c 	movw	r7, #13900	; 0x364c
e001acb0:	e34e7003 	movt	r7, #57347	; 0xe003
e001acb4:	e5972000 	ldr	r2, [r7]
e001acb8:	e5923050 	ldr	r3, [r2, #80]	; 0x50
e001acbc:	e1a00002 	mov	r0, r2
e001acc0:	e3c3300f 	bic	r3, r3, #15
e001acc4:	e3833002 	orr	r3, r3, #2
e001acc8:	e5823050 	str	r3, [r2, #80]	; 0x50
e001accc:	ebffe110 	bl	e0013114 <setThreadState.part.166>
e001acd0:	e5970000 	ldr	r0, [r7]
e001acd4:	e1a02006 	mov	r2, r6
e001acd8:	e7e032d4 	ubfx	r3, r4, #5, #1
e001acdc:	e3c4103f 	bic	r1, r4, #63	; 0x3f
e001ace0:	ebfff4e6 	bl	e0018080 <doReplyTransfer>
e001ace4:	e1a00005 	mov	r0, r5
e001ace8:	eaffffb5 	b	e001abc4 <decodeInvocation+0x1ac>
e001acec:	e28d3060 	add	r3, sp, #96	; 0x60
e001acf0:	e58d800c 	str	r8, [sp, #12]
e001acf4:	e8930007 	ldm	r3, {r0, r1, r2}
e001acf8:	e28d3054 	add	r3, sp, #84	; 0x54
e001acfc:	e88d0007 	stm	sp, {r0, r1, r2}
e001ad00:	e1a01005 	mov	r1, r5
e001ad04:	e1a0000e 	mov	r0, lr
e001ad08:	e993000c 	ldmib	r3, {r2, r3}
e001ad0c:	ebfff00e 	bl	e0016d4c <decodeCNodeInvocation>
e001ad10:	eaffffab 	b	e001abc4 <decodeInvocation+0x1ac>
e001ad14:	e28d3060 	add	r3, sp, #96	; 0x60
e001ad18:	e58d8014 	str	r8, [sp, #20]
e001ad1c:	e58d9010 	str	r9, [sp, #16]
e001ad20:	e8930007 	ldm	r3, {r0, r1, r2}
e001ad24:	e28d3054 	add	r3, sp, #84	; 0x54
e001ad28:	e58d6000 	str	r6, [sp]
e001ad2c:	e98d0007 	stmib	sp, {r0, r1, r2}
e001ad30:	e1a01005 	mov	r1, r5
e001ad34:	e1a0000e 	mov	r0, lr
e001ad38:	e993000c 	ldmib	r3, {r2, r3}
e001ad3c:	ebfffca6 	bl	e0019fdc <decodeTCBInvocation>
e001ad40:	eaffff9f 	b	e001abc4 <decodeInvocation+0x1ac>
e001ad44:	e28d1064 	add	r1, sp, #100	; 0x64
e001ad48:	e58d8008 	str	r8, [sp, #8]
e001ad4c:	e1a02003 	mov	r2, r3
e001ad50:	e59d3060 	ldr	r3, [sp, #96]	; 0x60
e001ad54:	e8910003 	ldm	r1, {r0, r1}
e001ad58:	e88d0003 	stm	sp, {r0, r1}
e001ad5c:	e1a01005 	mov	r1, r5
e001ad60:	e1a0000e 	mov	r0, lr
e001ad64:	ebffe400 	bl	e0013d6c <decodeIRQControlInvocation>
e001ad68:	eaffff95 	b	e001abc4 <decodeInvocation+0x1ac>
e001ad6c:	e59dc068 	ldr	ip, [sp, #104]	; 0x68
e001ad70:	e28d3060 	add	r3, sp, #96	; 0x60
e001ad74:	e6ef1077 	uxtb	r1, r7
e001ad78:	e893000c 	ldm	r3, {r2, r3}
e001ad7c:	e58dc058 	str	ip, [sp, #88]	; 0x58
e001ad80:	e28dd034 	add	sp, sp, #52	; 0x34
e001ad84:	e8bd4ff0 	pop	{r4, r5, r6, r7, r8, r9, sl, fp, lr}
e001ad88:	eafff2f9 	b	e0017974 <decodeIRQHandlerInvocation>
e001ad8c:	e59dc068 	ldr	ip, [sp, #104]	; 0x68
e001ad90:	e28d3060 	add	r3, sp, #96	; 0x60
e001ad94:	e58d805c 	str	r8, [sp, #92]	; 0x5c
e001ad98:	e893000c 	ldm	r3, {r2, r3}
e001ad9c:	e58dc058 	str	ip, [sp, #88]	; 0x58
e001ada0:	e28dd034 	add	sp, sp, #52	; 0x34
e001ada4:	e8bd4ff0 	pop	{r4, r5, r6, r7, r8, r9, sl, fp, lr}
e001ada8:	eafff738 	b	e0018a90 <decodeDomainInvocation>
e001adac:	ebffd722 	bl	e0010a3c <halt>

e001adb0 <handleInvocation>:
e001adb0:	e92d4ff0 	push	{r4, r5, r6, r7, r8, r9, sl, fp, lr}
e001adb4:	e303764c 	movw	r7, #13900	; 0x364c
e001adb8:	e34e7003 	movt	r7, #57347	; 0xe003
e001adbc:	e24dd03c 	sub	sp, sp, #60	; 0x3c
e001adc0:	e1a0a000 	mov	sl, r0
e001adc4:	e1a09001 	mov	r9, r1
e001adc8:	e5975000 	ldr	r5, [r7]
e001adcc:	e28d0028 	add	r0, sp, #40	; 0x28
e001add0:	e5956004 	ldr	r6, [r5, #4]
e001add4:	e1a01005 	mov	r1, r5
e001add8:	e5958000 	ldr	r8, [r5]
e001addc:	e206307f 	and	r3, r6, #127	; 0x7f
e001ade0:	e3530078 	cmp	r3, #120	; 0x78
e001ade4:	83c6607f 	bichi	r6, r6, #127	; 0x7f
e001ade8:	e1a02008 	mov	r2, r8
e001adec:	83866078 	orrhi	r6, r6, #120	; 0x78
e001adf0:	ebffdff5 	bl	e0012dcc <lookupCapAndSlot>
e001adf4:	e59d4028 	ldr	r4, [sp, #40]	; 0x28
e001adf8:	e3540000 	cmp	r4, #0
e001adfc:	1a00002e 	bne	e001aebc <handleInvocation+0x10c>
e001ae00:	e1a01005 	mov	r1, r5
e001ae04:	e1a00004 	mov	r0, r4
e001ae08:	ebffd7d0 	bl	e0010d50 <lookupIPCBuffer>
e001ae0c:	e1a02006 	mov	r2, r6
e001ae10:	e1a01000 	mov	r1, r0
e001ae14:	e1a0b000 	mov	fp, r0
e001ae18:	e1a00005 	mov	r0, r5
e001ae1c:	ebfff39a 	bl	e0017c8c <lookupExtraCaps>
e001ae20:	e2503000 	subs	r3, r0, #0
e001ae24:	e58d3024 	str	r3, [sp, #36]	; 0x24
e001ae28:	1a00002d 	bne	e001aee4 <handleInvocation+0x134>
e001ae2c:	e309203c 	movw	r2, #36924	; 0x903c
e001ae30:	e34e2002 	movt	r2, #57346	; 0xe002
e001ae34:	e28dc008 	add	ip, sp, #8
e001ae38:	e28de02c 	add	lr, sp, #44	; 0x2c
e001ae3c:	e8920007 	ldm	r2, {r0, r1, r2}
e001ae40:	e1cda1f8 	strd	sl, [sp, #24]
e001ae44:	e58d9014 	str	r9, [sp, #20]
e001ae48:	e88c0007 	stm	ip, {r0, r1, r2}
e001ae4c:	e206c07f 	and	ip, r6, #127	; 0x7f
e001ae50:	e35c0004 	cmp	ip, #4
e001ae54:	e89e0003 	ldm	lr, {r0, r1}
e001ae58:	e59d3034 	ldr	r3, [sp, #52]	; 0x34
e001ae5c:	93a02000 	movls	r2, #0
e001ae60:	83a02001 	movhi	r2, #1
e001ae64:	e35b0000 	cmp	fp, #0
e001ae68:	e88d0003 	stm	sp, {r0, r1}
e001ae6c:	e1a00626 	lsr	r0, r6, #12
e001ae70:	13a02000 	movne	r2, #0
e001ae74:	e3520000 	cmp	r2, #0
e001ae78:	e1a02008 	mov	r2, r8
e001ae7c:	01a0100c 	moveq	r1, ip
e001ae80:	13a01004 	movne	r1, #4
e001ae84:	ebfffee3 	bl	e001aa18 <decodeInvocation>
e001ae88:	e3500004 	cmp	r0, #4
e001ae8c:	e1a04000 	mov	r4, r0
e001ae90:	0a000006 	beq	e001aeb0 <handleInvocation+0x100>
e001ae94:	e3500003 	cmp	r0, #3
e001ae98:	0a000016 	beq	e001aef8 <handleInvocation+0x148>
e001ae9c:	e5953050 	ldr	r3, [r5, #80]	; 0x50
e001aea0:	e203200f 	and	r2, r3, #15
e001aea4:	e3520002 	cmp	r2, #2
e001aea8:	0a000018 	beq	e001af10 <handleInvocation+0x160>
e001aeac:	e3a04000 	mov	r4, #0
e001aeb0:	e1a00004 	mov	r0, r4
e001aeb4:	e28dd03c 	add	sp, sp, #60	; 0x3c
e001aeb8:	e8bd8ff0 	pop	{r4, r5, r6, r7, r8, r9, sl, fp, pc}
e001aebc:	e3083000 	movw	r3, #32768	; 0x8000
e001aec0:	e3590000 	cmp	r9, #0
e001aec4:	e34e3002 	movt	r3, #57346	; 0xe002
e001aec8:	e3a02001 	mov	r2, #1
e001aecc:	e8830104 	stm	r3, {r2, r8}
e001aed0:	0afffff5 	beq	e001aeac <handleInvocation+0xfc>
e001aed4:	e1a00005 	mov	r0, r5
e001aed8:	e3a04000 	mov	r4, #0
e001aedc:	ebfff589 	bl	e0018508 <handleFault>
e001aee0:	eafffff2 	b	e001aeb0 <handleInvocation+0x100>
e001aee4:	e3590000 	cmp	r9, #0
e001aee8:	0affffef 	beq	e001aeac <handleInvocation+0xfc>
e001aeec:	e1a00005 	mov	r0, r5
e001aef0:	ebfff584 	bl	e0018508 <handleFault>
e001aef4:	eaffffed 	b	e001aeb0 <handleInvocation+0x100>
e001aef8:	e35a0000 	cmp	sl, #0
e001aefc:	0affffea 	beq	e001aeac <handleInvocation+0xfc>
e001af00:	e1a00005 	mov	r0, r5
e001af04:	e59d4024 	ldr	r4, [sp, #36]	; 0x24
e001af08:	ebfffd40 	bl	e001a410 <replyFromKernel_error>
e001af0c:	eaffffe7 	b	e001aeb0 <handleInvocation+0x100>
e001af10:	e35a0000 	cmp	sl, #0
e001af14:	e3c3300f 	bic	r3, r3, #15
e001af18:	e3833001 	orr	r3, r3, #1
e001af1c:	e5853050 	str	r3, [r5, #80]	; 0x50
e001af20:	159d2024 	ldrne	r2, [sp, #36]	; 0x24
e001af24:	15852000 	strne	r2, [r5]
e001af28:	15852004 	strne	r2, [r5, #4]
e001af2c:	e5972000 	ldr	r2, [r7]
e001af30:	e1550002 	cmp	r5, r2
e001af34:	1affffdc 	bne	e001aeac <handleInvocation+0xfc>
e001af38:	e1a00005 	mov	r0, r5
e001af3c:	e3a04000 	mov	r4, #0
e001af40:	ebffe073 	bl	e0013114 <setThreadState.part.166>
e001af44:	eaffffd9 	b	e001aeb0 <handleInvocation+0x100>

e001af48 <handleSyscall>:
e001af48:	e2800008 	add	r0, r0, #8
e001af4c:	e92d4010 	push	{r4, lr}
e001af50:	e3500007 	cmp	r0, #7
e001af54:	979ff100 	ldrls	pc, [pc, r0, lsl #2]
e001af58:	ea000041 	b	e001b064 <handleSyscall+0x11c>
e001af5c:	e001b02c 	.word	0xe001b02c
e001af60:	e001b038 	.word	0xe001b038
e001af64:	e001af98 	.word	0xe001af98
e001af68:	e001af80 	.word	0xe001af80
e001af6c:	e001afa0 	.word	0xe001afa0
e001af70:	e001affc 	.word	0xe001affc
e001af74:	e001af7c 	.word	0xe001af7c
e001af78:	e001b014 	.word	0xe001b014
e001af7c:	ebfff47b 	bl	e0018170 <handleReply>
e001af80:	e3a00001 	mov	r0, #1
e001af84:	ebfff644 	bl	e001889c <handleRecv>
e001af88:	ebffed86 	bl	e00165a8 <schedule>
e001af8c:	ebffe082 	bl	e001319c <activateThread>
e001af90:	e3a00000 	mov	r0, #0
e001af94:	e8bd8010 	pop	{r4, pc}
e001af98:	ebfff474 	bl	e0018170 <handleReply>
e001af9c:	eafffff9 	b	e001af88 <handleSyscall+0x40>
e001afa0:	e3a01000 	mov	r1, #0
e001afa4:	e1a00001 	mov	r0, r1
e001afa8:	ebffff80 	bl	e001adb0 <handleInvocation>
e001afac:	e3500000 	cmp	r0, #0
e001afb0:	0afffff4 	beq	e001af88 <handleSyscall+0x40>
e001afb4:	e30b34b8 	movw	r3, #46264	; 0xb4b8
e001afb8:	e34e3001 	movt	r3, #57345	; 0xe001
e001afbc:	e5930000 	ldr	r0, [r3]
e001afc0:	e7e90050 	ubfx	r0, r0, #0, #10
e001afc4:	e3500fff 	cmp	r0, #1020	; 0x3fc
e001afc8:	3a000006 	bcc	e001afe8 <handleSyscall+0xa0>
e001afcc:	e30221ff 	movw	r2, #8703	; 0x21ff
e001afd0:	e34f2ff0 	movt	r2, #65520	; 0xfff0
e001afd4:	e51220f3 	ldr	r2, [r2, #-243]	; 0xffffff0d
e001afd8:	e7e90052 	ubfx	r0, r2, #0, #10
e001afdc:	e3500fff 	cmp	r0, #1020	; 0x3fc
e001afe0:	e5832000 	str	r2, [r3]
e001afe4:	2affffe7 	bcs	e001af88 <handleSyscall+0x40>
e001afe8:	e5933004 	ldr	r3, [r3, #4]
e001afec:	e1530000 	cmp	r3, r0
e001aff0:	0affffe4 	beq	e001af88 <handleSyscall+0x40>
e001aff4:	ebfff1c8 	bl	e001771c <handleInterrupt>
e001aff8:	eaffffe2 	b	e001af88 <handleSyscall+0x40>
e001affc:	e3a01001 	mov	r1, #1
e001b000:	e3a00000 	mov	r0, #0
e001b004:	ebffff69 	bl	e001adb0 <handleInvocation>
e001b008:	e3500000 	cmp	r0, #0
e001b00c:	0affffdd 	beq	e001af88 <handleSyscall+0x40>
e001b010:	eaffffe7 	b	e001afb4 <handleSyscall+0x6c>
e001b014:	e3a01001 	mov	r1, #1
e001b018:	e1a00001 	mov	r0, r1
e001b01c:	ebffff63 	bl	e001adb0 <handleInvocation>
e001b020:	e3500000 	cmp	r0, #0
e001b024:	0affffd7 	beq	e001af88 <handleSyscall+0x40>
e001b028:	eaffffe1 	b	e001afb4 <handleSyscall+0x6c>
e001b02c:	e3a00000 	mov	r0, #0
e001b030:	ebfff619 	bl	e001889c <handleRecv>
e001b034:	eaffffd3 	b	e001af88 <handleSyscall+0x40>
e001b038:	e303464c 	movw	r4, #13900	; 0x364c
e001b03c:	e34e4003 	movt	r4, #57347	; 0xe003
e001b040:	e5940000 	ldr	r0, [r4]
e001b044:	ebffecce 	bl	e0016384 <tcbSchedDequeue>
e001b048:	e5940000 	ldr	r0, [r4]
e001b04c:	e5903054 	ldr	r3, [r0, #84]	; 0x54
e001b050:	e3130001 	tst	r3, #1
e001b054:	1a000000 	bne	e001b05c <handleSyscall+0x114>
e001b058:	ebffd604 	bl	e0010870 <tcbSchedAppend.part.171>
e001b05c:	ebffe00d 	bl	e0013098 <rescheduleRequired>
e001b060:	eaffffc8 	b	e001af88 <handleSyscall+0x40>
e001b064:	ebffd674 	bl	e0010a3c <halt>

e001b068 <slowpath>:
e001b068:	e3700009 	cmn	r0, #9
e001b06c:	e92d4010 	push	{r4, lr}
e001b070:	9a000001 	bls	e001b07c <slowpath+0x14>
e001b074:	ebffffb3 	bl	e001af48 <handleSyscall>
e001b078:	ebffd664 	bl	e0010a10 <restore_user_context>
e001b07c:	ebfff531 	bl	e0018548 <handleUnknownSyscall>
e001b080:	eafffffc 	b	e001b078 <slowpath+0x10>

e001b084 <strnlen>:
e001b084:	e3510000 	cmp	r1, #0
e001b088:	0a00000b 	beq	e001b0bc <strnlen+0x38>
e001b08c:	e5d03000 	ldrb	r3, [r0]
e001b090:	e3530000 	cmp	r3, #0
e001b094:	0a00000a 	beq	e001b0c4 <strnlen+0x40>
e001b098:	e1a03000 	mov	r3, r0
e001b09c:	e3a00000 	mov	r0, #0
e001b0a0:	e2800001 	add	r0, r0, #1
e001b0a4:	e1510000 	cmp	r1, r0
e001b0a8:	012fff1e 	bxeq	lr
e001b0ac:	e5f32001 	ldrb	r2, [r3, #1]!
e001b0b0:	e3520000 	cmp	r2, #0
e001b0b4:	1afffff9 	bne	e001b0a0 <strnlen+0x1c>
e001b0b8:	e12fff1e 	bx	lr
e001b0bc:	e1a00001 	mov	r0, r1
e001b0c0:	e12fff1e 	bx	lr
e001b0c4:	e1a00003 	mov	r0, r3
e001b0c8:	e12fff1e 	bx	lr

e001b0cc <strlcpy>:
e001b0cc:	e3520001 	cmp	r2, #1
e001b0d0:	e92d4010 	push	{r4, lr}
e001b0d4:	e1a04000 	mov	r4, r0
e001b0d8:	9a000012 	bls	e001b128 <strlcpy+0x5c>
e001b0dc:	e5d1c000 	ldrb	ip, [r1]
e001b0e0:	e35c0000 	cmp	ip, #0
e001b0e4:	0a000011 	beq	e001b130 <strlcpy+0x64>
e001b0e8:	e0812002 	add	r2, r1, r2
e001b0ec:	e2813001 	add	r3, r1, #1
e001b0f0:	e242e001 	sub	lr, r2, #1
e001b0f4:	e1a02000 	mov	r2, r0
e001b0f8:	ea000002 	b	e001b108 <strlcpy+0x3c>
e001b0fc:	e4d3c001 	ldrb	ip, [r3], #1
e001b100:	e35c0000 	cmp	ip, #0
e001b104:	0a000004 	beq	e001b11c <strlcpy+0x50>
e001b108:	e153000e 	cmp	r3, lr
e001b10c:	e4c2c001 	strb	ip, [r2], #1
e001b110:	e0430001 	sub	r0, r3, r1
e001b114:	e1a04002 	mov	r4, r2
e001b118:	1afffff7 	bne	e001b0fc <strlcpy+0x30>
e001b11c:	e3a03000 	mov	r3, #0
e001b120:	e5c43000 	strb	r3, [r4]
e001b124:	e8bd8010 	pop	{r4, pc}
e001b128:	e3a00000 	mov	r0, #0
e001b12c:	eafffffa 	b	e001b11c <strlcpy+0x50>
e001b130:	e1a0000c 	mov	r0, ip
e001b134:	eafffff8 	b	e001b11c <strlcpy+0x50>

e001b138 <strlcat>:
e001b138:	e3520000 	cmp	r2, #0
e001b13c:	0a000028 	beq	e001b1e4 <strlcat+0xac>
e001b140:	e92d4030 	push	{r4, r5, lr}
e001b144:	e5d05000 	ldrb	r5, [r0]
e001b148:	e3550000 	cmp	r5, #0
e001b14c:	0a000028 	beq	e001b1f4 <strlcat+0xbc>
e001b150:	e280e001 	add	lr, r0, #1
e001b154:	e3a04000 	mov	r4, #0
e001b158:	ea000003 	b	e001b16c <strlcat+0x34>
e001b15c:	e5dc5000 	ldrb	r5, [ip]
e001b160:	e3550000 	cmp	r5, #0
e001b164:	0a000007 	beq	e001b188 <strlcat+0x50>
e001b168:	e1a04003 	mov	r4, r3
e001b16c:	e2843001 	add	r3, r4, #1
e001b170:	e1a0c00e 	mov	ip, lr
e001b174:	e1520003 	cmp	r2, r3
e001b178:	e28ee001 	add	lr, lr, #1
e001b17c:	1afffff6 	bne	e001b15c <strlcat+0x24>
e001b180:	e1a00003 	mov	r0, r3
e001b184:	e8bd8030 	pop	{r4, r5, pc}
e001b188:	e1a05003 	mov	r5, r3
e001b18c:	e2843002 	add	r3, r4, #2
e001b190:	e1520003 	cmp	r2, r3
e001b194:	9a000014 	bls	e001b1ec <strlcat+0xb4>
e001b198:	e5d1e000 	ldrb	lr, [r1]
e001b19c:	e35e0000 	cmp	lr, #0
e001b1a0:	0a000011 	beq	e001b1ec <strlcat+0xb4>
e001b1a4:	e2422001 	sub	r2, r2, #1
e001b1a8:	ea000004 	b	e001b1c0 <strlcat+0x88>
e001b1ac:	e5f1e001 	ldrb	lr, [r1, #1]!
e001b1b0:	e1a05003 	mov	r5, r3
e001b1b4:	e35e0000 	cmp	lr, #0
e001b1b8:	0a000005 	beq	e001b1d4 <strlcat+0x9c>
e001b1bc:	e1a03004 	mov	r3, r4
e001b1c0:	e1530002 	cmp	r3, r2
e001b1c4:	e7c0e005 	strb	lr, [r0, r5]
e001b1c8:	e080c003 	add	ip, r0, r3
e001b1cc:	e2834001 	add	r4, r3, #1
e001b1d0:	1afffff5 	bne	e001b1ac <strlcat+0x74>
e001b1d4:	e3a02000 	mov	r2, #0
e001b1d8:	e1a00003 	mov	r0, r3
e001b1dc:	e5cc2000 	strb	r2, [ip]
e001b1e0:	e8bd8030 	pop	{r4, r5, pc}
e001b1e4:	e1a00002 	mov	r0, r2
e001b1e8:	e12fff1e 	bx	lr
e001b1ec:	e1a03005 	mov	r3, r5
e001b1f0:	eafffff7 	b	e001b1d4 <strlcat+0x9c>
e001b1f4:	e1a0c000 	mov	ip, r0
e001b1f8:	e3a03001 	mov	r3, #1
e001b1fc:	eaffffe3 	b	e001b190 <strlcat+0x58>

e001b200 <memzero>:
e001b200:	e3510000 	cmp	r1, #0
e001b204:	012fff1e 	bxeq	lr
e001b208:	e3a03000 	mov	r3, #0
e001b20c:	e2511004 	subs	r1, r1, #4
e001b210:	e4803004 	str	r3, [r0], #4
e001b214:	1afffffc 	bne	e001b20c <memzero+0xc>
e001b218:	e12fff1e 	bx	lr

e001b21c <memset>:
e001b21c:	e3510000 	cmp	r1, #0
e001b220:	1a000009 	bne	e001b24c <memset+0x30>
e001b224:	e1803002 	orr	r3, r0, r2
e001b228:	e2133003 	ands	r3, r3, #3
e001b22c:	1a000006 	bne	e001b24c <memset+0x30>
e001b230:	e3520000 	cmp	r2, #0
e001b234:	012fff1e 	bxeq	lr
e001b238:	e1a01000 	mov	r1, r0
e001b23c:	e2522004 	subs	r2, r2, #4
e001b240:	e4813004 	str	r3, [r1], #4
e001b244:	1afffffc 	bne	e001b23c <memset+0x20>
e001b248:	e12fff1e 	bx	lr
e001b24c:	e3520000 	cmp	r2, #0
e001b250:	012fff1e 	bxeq	lr
e001b254:	e6ef1071 	uxtb	r1, r1
e001b258:	e0802002 	add	r2, r0, r2
e001b25c:	e1a03000 	mov	r3, r0
e001b260:	e4c31001 	strb	r1, [r3], #1
e001b264:	e1520003 	cmp	r2, r3
e001b268:	1afffffc 	bne	e001b260 <memset+0x44>
e001b26c:	e12fff1e 	bx	lr

e001b270 <memcpy>:
e001b270:	e3520000 	cmp	r2, #0
e001b274:	012fff1e 	bxeq	lr
e001b278:	e2411001 	sub	r1, r1, #1
e001b27c:	e0802002 	add	r2, r0, r2
e001b280:	e1a03000 	mov	r3, r0
e001b284:	e5f1c001 	ldrb	ip, [r1, #1]!
e001b288:	e4c3c001 	strb	ip, [r3], #1
e001b28c:	e1530002 	cmp	r3, r2
e001b290:	1afffffb 	bne	e001b284 <memcpy+0x14>
e001b294:	e12fff1e 	bx	lr

e001b298 <strncmp>:
e001b298:	e3520000 	cmp	r2, #0
e001b29c:	0a000014 	beq	e001b2f4 <strncmp+0x5c>
e001b2a0:	e5d0c000 	ldrb	ip, [r0]
e001b2a4:	e5d13000 	ldrb	r3, [r1]
e001b2a8:	e05c3003 	subs	r3, ip, r3
e001b2ac:	1a000012 	bne	e001b2fc <strncmp+0x64>
e001b2b0:	e35c0000 	cmp	ip, #0
e001b2b4:	0a000012 	beq	e001b304 <strncmp+0x6c>
e001b2b8:	e52de004 	push	{lr}		; (str lr, [sp, #-4]!)
e001b2bc:	e240e001 	sub	lr, r0, #1
e001b2c0:	e1a0c000 	mov	ip, r0
e001b2c4:	e08ee002 	add	lr, lr, r2
e001b2c8:	ea000005 	b	e001b2e4 <strncmp+0x4c>
e001b2cc:	e5fc3001 	ldrb	r3, [ip, #1]!
e001b2d0:	e5f12001 	ldrb	r2, [r1, #1]!
e001b2d4:	e0530002 	subs	r0, r3, r2
e001b2d8:	149df004 	popne	{pc}		; (ldrne pc, [sp], #4)
e001b2dc:	e3530000 	cmp	r3, #0
e001b2e0:	049df004 	popeq	{pc}		; (ldreq pc, [sp], #4)
e001b2e4:	e15c000e 	cmp	ip, lr
e001b2e8:	1afffff7 	bne	e001b2cc <strncmp+0x34>
e001b2ec:	e3a00000 	mov	r0, #0
e001b2f0:	e49df004 	pop	{pc}		; (ldr pc, [sp], #4)
e001b2f4:	e1a00002 	mov	r0, r2
e001b2f8:	e12fff1e 	bx	lr
e001b2fc:	e1a00003 	mov	r0, r3
e001b300:	e12fff1e 	bx	lr
e001b304:	e1a0000c 	mov	r0, ip
e001b308:	e12fff1e 	bx	lr

e001b30c <char_to_long>:
e001b30c:	e2403030 	sub	r3, r0, #48	; 0x30
e001b310:	e6ef2073 	uxtb	r2, r3
e001b314:	e3520009 	cmp	r2, #9
e001b318:	9a000009 	bls	e001b344 <char_to_long+0x38>
e001b31c:	e2403041 	sub	r3, r0, #65	; 0x41
e001b320:	e3530005 	cmp	r3, #5
e001b324:	9a000004 	bls	e001b33c <char_to_long+0x30>
e001b328:	e2403061 	sub	r3, r0, #97	; 0x61
e001b32c:	e3530005 	cmp	r3, #5
e001b330:	92400057 	subls	r0, r0, #87	; 0x57
e001b334:	83e00000 	mvnhi	r0, #0
e001b338:	e12fff1e 	bx	lr
e001b33c:	e2400037 	sub	r0, r0, #55	; 0x37
e001b340:	e12fff1e 	bx	lr
e001b344:	e1a00003 	mov	r0, r3
e001b348:	e12fff1e 	bx	lr

e001b34c <str_to_long>:
e001b34c:	e92d4070 	push	{r4, r5, r6, lr}
e001b350:	e1a04000 	mov	r4, r0
e001b354:	e5d00000 	ldrb	r0, [r0]
e001b358:	e3500030 	cmp	r0, #48	; 0x30
e001b35c:	13a0500a 	movne	r5, #10
e001b360:	0a00000f 	beq	e001b3a4 <str_to_long+0x58>
e001b364:	e3500000 	cmp	r0, #0
e001b368:	0a00000a 	beq	e001b398 <str_to_long+0x4c>
e001b36c:	e3a01000 	mov	r1, #0
e001b370:	ebffffe5 	bl	e001b30c <char_to_long>
e001b374:	e3700001 	cmn	r0, #1
e001b378:	11500005 	cmpne	r0, r5
e001b37c:	e0210195 	mla	r1, r5, r1, r0
e001b380:	2a000004 	bcs	e001b398 <str_to_long+0x4c>
e001b384:	e5f40001 	ldrb	r0, [r4, #1]!
e001b388:	e3500000 	cmp	r0, #0
e001b38c:	1afffff7 	bne	e001b370 <str_to_long+0x24>
e001b390:	e1a00001 	mov	r0, r1
e001b394:	e8bd8070 	pop	{r4, r5, r6, pc}
e001b398:	e3e01000 	mvn	r1, #0
e001b39c:	e1a00001 	mov	r0, r1
e001b3a0:	e8bd8070 	pop	{r4, r5, r6, pc}
e001b3a4:	e5d43001 	ldrb	r3, [r4, #1]
e001b3a8:	e20330df 	and	r3, r3, #223	; 0xdf
e001b3ac:	e3530058 	cmp	r3, #88	; 0x58
e001b3b0:	05d40002 	ldrbeq	r0, [r4, #2]
e001b3b4:	03a05010 	moveq	r5, #16
e001b3b8:	02844002 	addeq	r4, r4, #2
e001b3bc:	0affffe8 	beq	e001b364 <str_to_long+0x18>
e001b3c0:	e3a0500a 	mov	r5, #10
e001b3c4:	eaffffe8 	b	e001b36c <str_to_long+0x20>
