
/nix/store/fh6yhyapiafprz294lmcn2cnqxlc606d-kernel/kernel.elf:     file format elf64-littleriscv


Disassembly of section .boot.text:

ffffffff84000000 <_start>:
ffffffff84000000:	0000100f          	fence.i
ffffffff84000004:	0000b197          	auipc	gp,0xb
ffffffff84000008:	2ac18193          	add	gp,gp,684 # ffffffff8400b2b0 <__global_pointer$>
ffffffff8400000c:	0001d117          	auipc	sp,0x1d
ffffffff84000010:	7f410113          	add	sp,sp,2036 # ffffffff8401d800 <_breakpoint_stack_bottom>
ffffffff84000014:	14001073          	csrw	sscratch,zero
ffffffff84000018:	67e010ef          	jal	ffffffff84001696 <init_kernel>
ffffffff8400001c:	00003097          	auipc	ra,0x3
ffffffff84000020:	0ca08093          	add	ra,ra,202 # ffffffff840030e6 <restore_user_context>
ffffffff84000024:	8082                	ret

ffffffff84000026 <merge_regions>:
ffffffff84000026:	00002597          	auipc	a1,0x2
ffffffff8400002a:	e1258593          	add	a1,a1,-494 # ffffffff84001e38 <ndks_boot>
ffffffff8400002e:	3405b883          	ld	a7,832(a1)
ffffffff84000032:	4685                	li	a3,1
ffffffff84000034:	4301                	li	t1,0
ffffffff84000036:	00002e17          	auipc	t3,0x2
ffffffff8400003a:	df2e0e13          	add	t3,t3,-526 # ffffffff84001e28 <avail_p_regs>
ffffffff8400003e:	0316f763          	bgeu	a3,a7,ffffffff8400006c <merge_regions+0x46>
ffffffff84000042:	fff68713          	add	a4,a3,-1
ffffffff84000046:	0712                	sll	a4,a4,0x4
ffffffff84000048:	00469793          	sll	a5,a3,0x4
ffffffff8400004c:	972e                	add	a4,a4,a1
ffffffff8400004e:	97ae                	add	a5,a5,a1
ffffffff84000050:	00873803          	ld	a6,8(a4)
ffffffff84000054:	6388                	ld	a0,0(a5)
ffffffff84000056:	00168613          	add	a2,a3,1
ffffffff8400005a:	00a80a63          	beq	a6,a0,ffffffff8400006e <merge_regions+0x48>
ffffffff8400005e:	86b2                	mv	a3,a2
ffffffff84000060:	ff16e1e3          	bltu	a3,a7,ffffffff84000042 <merge_regions+0x1c>
ffffffff84000064:	00030463          	beqz	t1,ffffffff8400006c <merge_regions+0x46>
ffffffff84000068:	3515b023          	sd	a7,832(a1)
ffffffff8400006c:	8082                	ret
ffffffff8400006e:	0087b803          	ld	a6,8(a5)
ffffffff84000072:	00489513          	sll	a0,a7,0x4
ffffffff84000076:	9572                	add	a0,a0,t3
ffffffff84000078:	01073423          	sd	a6,8(a4)
ffffffff8400007c:	01167b63          	bgeu	a2,a7,ffffffff84000092 <merge_regions+0x6c>
ffffffff84000080:	6b90                	ld	a2,16(a5)
ffffffff84000082:	6f98                	ld	a4,24(a5)
ffffffff84000084:	07c1                	add	a5,a5,16
ffffffff84000086:	fec7b823          	sd	a2,-16(a5)
ffffffff8400008a:	fee7bc23          	sd	a4,-8(a5)
ffffffff8400008e:	fea799e3          	bne	a5,a0,ffffffff84000080 <merge_regions+0x5a>
ffffffff84000092:	18fd                	add	a7,a7,-1
ffffffff84000094:	4305                	li	t1,1
ffffffff84000096:	fb16e6e3          	bltu	a3,a7,ffffffff84000042 <merge_regions+0x1c>
ffffffff8400009a:	b7e9                	j	ffffffff84000064 <merge_regions+0x3e>

ffffffff8400009c <Arch_configureIdleThread>:
ffffffff8400009c:	00003797          	auipc	a5,0x3
ffffffff840000a0:	72478793          	add	a5,a5,1828 # ffffffff840037c0 <idle_thread>
ffffffff840000a4:	10f53823          	sd	a5,272(a0)
ffffffff840000a8:	12000793          	li	a5,288
ffffffff840000ac:	10f53023          	sd	a5,256(a0)
ffffffff840000b0:	0001d797          	auipc	a5,0x1d
ffffffff840000b4:	75078793          	add	a5,a5,1872 # ffffffff8401d800 <_breakpoint_stack_bottom>
ffffffff840000b8:	e51c                	sd	a5,8(a0)
ffffffff840000ba:	8082                	ret

ffffffff840000bc <map_kernel_frame>:
ffffffff840000bc:	1141                	add	sp,sp,-16
ffffffff840000be:	e406                	sd	ra,8(sp)
ffffffff840000c0:	e022                	sd	s0,0(sp)
ffffffff840000c2:	c0000737          	lui	a4,0xc0000
ffffffff840000c6:	02e5e763          	bltu	a1,a4,ffffffff840000f4 <map_kernel_frame+0x38>
ffffffff840000ca:	0155d793          	srl	a5,a1,0x15
ffffffff840000ce:	ffe00737          	lui	a4,0xffe00
ffffffff840000d2:	1ff7f793          	and	a5,a5,511
ffffffff840000d6:	078e                	sll	a5,a5,0x3
ffffffff840000d8:	4585                	li	a1,1
ffffffff840000da:	8d79                	and	a0,a0,a4
ffffffff840000dc:	0001f417          	auipc	s0,0x1f
ffffffff840000e0:	f2440413          	add	s0,s0,-220 # ffffffff8401f000 <kernel_image_level2_dev_pt>
ffffffff840000e4:	943e                	add	s0,s0,a5
ffffffff840000e6:	6e0030ef          	jal	ffffffff840037c6 <pte_next>
ffffffff840000ea:	60a2                	ld	ra,8(sp)
ffffffff840000ec:	e008                	sd	a0,0(s0)
ffffffff840000ee:	6402                	ld	s0,0(sp)
ffffffff840000f0:	0141                	add	sp,sp,16
ffffffff840000f2:	8082                	ret
ffffffff840000f4:	01e5d793          	srl	a5,a1,0x1e
ffffffff840000f8:	1ff7f793          	and	a5,a5,511
ffffffff840000fc:	078e                	sll	a5,a5,0x3
ffffffff840000fe:	4585                	li	a1,1
ffffffff84000100:	8d79                	and	a0,a0,a4
ffffffff84000102:	00021417          	auipc	s0,0x21
ffffffff84000106:	efe40413          	add	s0,s0,-258 # ffffffff84021000 <kernel_root_pageTable>
ffffffff8400010a:	943e                	add	s0,s0,a5
ffffffff8400010c:	6ba030ef          	jal	ffffffff840037c6 <pte_next>
ffffffff84000110:	60a2                	ld	ra,8(sp)
ffffffff84000112:	e008                	sd	a0,0(s0)
ffffffff84000114:	6402                	ld	s0,0(sp)
ffffffff84000116:	0141                	add	sp,sp,16
ffffffff84000118:	8082                	ret

ffffffff8400011a <create_unmapped_it_frame_cap>:
ffffffff8400011a:	fe0007b7          	lui	a5,0xfe000
ffffffff8400011e:	1141                	add	sp,sp,-16
ffffffff84000120:	00951593          	sll	a1,a0,0x9
ffffffff84000124:	83c1                	srl	a5,a5,0x10
ffffffff84000126:	4505                	li	a0,1
ffffffff84000128:	156e                	sll	a0,a0,0x3b
ffffffff8400012a:	8dfd                	and	a1,a1,a5
ffffffff8400012c:	0141                	add	sp,sp,16
ffffffff8400012e:	8082                	ret

ffffffff84000130 <arch_get_n_paging>:
ffffffff84000130:	15fd                	add	a1,a1,-1
ffffffff84000132:	01e5d793          	srl	a5,a1,0x1e
ffffffff84000136:	81d5                	srl	a1,a1,0x15
ffffffff84000138:	0785                	add	a5,a5,1 # fffffffffe000001 <ki_end+0x79fde001>
ffffffff8400013a:	0585                	add	a1,a1,1
ffffffff8400013c:	c00006b7          	lui	a3,0xc0000
ffffffff84000140:	ffe00737          	lui	a4,0xffe00
ffffffff84000144:	8f69                	and	a4,a4,a0
ffffffff84000146:	07fa                	sll	a5,a5,0x1e
ffffffff84000148:	8ee9                	and	a3,a3,a0
ffffffff8400014a:	05d6                	sll	a1,a1,0x15
ffffffff8400014c:	40d78533          	sub	a0,a5,a3
ffffffff84000150:	8d99                	sub	a1,a1,a4
ffffffff84000152:	1141                	add	sp,sp,-16
ffffffff84000154:	8179                	srl	a0,a0,0x1e
ffffffff84000156:	81d5                	srl	a1,a1,0x15
ffffffff84000158:	952e                	add	a0,a0,a1
ffffffff8400015a:	0141                	add	sp,sp,16
ffffffff8400015c:	8082                	ret

ffffffff8400015e <activate_kernel_vspace>:
ffffffff8400015e:	4685                	li	a3,1
ffffffff84000160:	1682                	sll	a3,a3,0x20
ffffffff84000162:	00021797          	auipc	a5,0x21
ffffffff84000166:	e9e78793          	add	a5,a5,-354 # ffffffff84021000 <kernel_root_pageTable>
ffffffff8400016a:	577d                	li	a4,-1
ffffffff8400016c:	97b6                	add	a5,a5,a3
ffffffff8400016e:	83b1                	srl	a5,a5,0xc
ffffffff84000170:	01475693          	srl	a3,a4,0x14
ffffffff84000174:	8ff5                	and	a5,a5,a3
ffffffff84000176:	177e                	sll	a4,a4,0x3f
ffffffff84000178:	8fd9                	or	a5,a5,a4
ffffffff8400017a:	18079073          	csrw	satp,a5
ffffffff8400017e:	12000073          	sfence.vma
ffffffff84000182:	8082                	ret

ffffffff84000184 <initTimer>:
ffffffff84000184:	c000c7b7          	lui	a5,0xc000c
ffffffff84000188:	ff87b503          	ld	a0,-8(a5) # ffffffffc000bff8 <ki_end+0x3bfe9ff8>
ffffffff8400018c:	4581                	li	a1,0
ffffffff8400018e:	4601                	li	a2,0
ffffffff84000190:	7d050513          	add	a0,a0,2000
ffffffff84000194:	4881                	li	a7,0
ffffffff84000196:	00000073          	ecall
ffffffff8400019a:	8082                	ret

ffffffff8400019c <initLocalIRQController>:
ffffffff8400019c:	c02025b7          	lui	a1,0xc0202
ffffffff840001a0:	4685                	li	a3,1
ffffffff840001a2:	10058593          	add	a1,a1,256 # ffffffffc0202100 <ki_end+0x3c1e0100>
ffffffff840001a6:	4805                	li	a6,1
ffffffff840001a8:	03600513          	li	a0,54
ffffffff840001ac:	0056d713          	srl	a4,a3,0x5
ffffffff840001b0:	070a                	sll	a4,a4,0x2
ffffffff840001b2:	972e                	add	a4,a4,a1
ffffffff840001b4:	4310                	lw	a2,0(a4)
ffffffff840001b6:	01f6f793          	and	a5,a3,31
ffffffff840001ba:	00f817b3          	sll	a5,a6,a5
ffffffff840001be:	fff7c793          	not	a5,a5
ffffffff840001c2:	8ff1                	and	a5,a5,a2
ffffffff840001c4:	2781                	sext.w	a5,a5
ffffffff840001c6:	c31c                	sw	a5,0(a4)
ffffffff840001c8:	0685                	add	a3,a3,1 # ffffffffc0000001 <ki_end+0x3bfde001>
ffffffff840001ca:	fea691e3          	bne	a3,a0,ffffffff840001ac <initLocalIRQController+0x10>
ffffffff840001ce:	c04027b7          	lui	a5,0xc0402
ffffffff840001d2:	0007a023          	sw	zero,0(a5) # ffffffffc0402000 <ki_end+0x3c3e0000>
ffffffff840001d6:	22000793          	li	a5,544
ffffffff840001da:	1047a7f3          	csrrs	a5,sie,a5
ffffffff840001de:	8082                	ret

ffffffff840001e0 <initIRQController>:
ffffffff840001e0:	1801b423          	sd	zero,392(gp) # ffffffff8400b438 <active_irq>
ffffffff840001e4:	4705                	li	a4,1
ffffffff840001e6:	c0201537          	lui	a0,0xc0201
ffffffff840001ea:	c0402837          	lui	a6,0xc0402
ffffffff840001ee:	03600593          	li	a1,54
ffffffff840001f2:	00575793          	srl	a5,a4,0x5
ffffffff840001f6:	078a                	sll	a5,a5,0x2
ffffffff840001f8:	97aa                	add	a5,a5,a0
ffffffff840001fa:	439c                	lw	a5,0(a5)
ffffffff840001fc:	01f77693          	and	a3,a4,31
ffffffff84000200:	0007061b          	sext.w	a2,a4
ffffffff84000204:	1782                	sll	a5,a5,0x20
ffffffff84000206:	9381                	srl	a5,a5,0x20
ffffffff84000208:	00d7d7b3          	srl	a5,a5,a3
ffffffff8400020c:	8b85                	and	a5,a5,1
ffffffff8400020e:	0705                	add	a4,a4,1 # ffffffffffe00001 <ki_end+0x7bdde001>
ffffffff84000210:	c789                	beqz	a5,ffffffff8400021a <initIRQController+0x3a>
ffffffff84000212:	00482783          	lw	a5,4(a6) # ffffffffc0402004 <ki_end+0x3c3e0004>
ffffffff84000216:	00c82223          	sw	a2,4(a6)
ffffffff8400021a:	fcb71ce3          	bne	a4,a1,ffffffff840001f2 <initIRQController+0x12>
ffffffff8400021e:	c0200737          	lui	a4,0xc0200
ffffffff84000222:	00470793          	add	a5,a4,4 # ffffffffc0200004 <ki_end+0x3c1de004>
ffffffff84000226:	4689                	li	a3,2
ffffffff84000228:	0dc70713          	add	a4,a4,220
ffffffff8400022c:	c394                	sw	a3,0(a5)
ffffffff8400022e:	0791                	add	a5,a5,4
ffffffff84000230:	fee79ee3          	bne	a5,a4,ffffffff8400022c <initIRQController+0x4c>
ffffffff84000234:	8082                	ret

ffffffff84000236 <get_p_reg_kernel_img_boot>:
ffffffff84000236:	4785                	li	a5,1
ffffffff84000238:	1141                	add	sp,sp,-16
ffffffff8400023a:	02100513          	li	a0,33
ffffffff8400023e:	00003597          	auipc	a1,0x3
ffffffff84000242:	dc258593          	add	a1,a1,-574 # ffffffff84003000 <ki_boot_end>
ffffffff84000246:	1782                	sll	a5,a5,0x20
ffffffff84000248:	056a                	sll	a0,a0,0x1a
ffffffff8400024a:	95be                	add	a1,a1,a5
ffffffff8400024c:	0141                	add	sp,sp,16
ffffffff8400024e:	8082                	ret

ffffffff84000250 <get_p_reg_kernel_img>:
ffffffff84000250:	4785                	li	a5,1
ffffffff84000252:	1141                	add	sp,sp,-16
ffffffff84000254:	02100513          	li	a0,33
ffffffff84000258:	00022597          	auipc	a1,0x22
ffffffff8400025c:	da858593          	add	a1,a1,-600 # ffffffff84022000 <ki_end>
ffffffff84000260:	1782                	sll	a5,a5,0x20
ffffffff84000262:	056a                	sll	a0,a0,0x1a
ffffffff84000264:	95be                	add	a1,a1,a5
ffffffff84000266:	0141                	add	sp,sp,16
ffffffff84000268:	8082                	ret

ffffffff8400026a <reserve_region>:
ffffffff8400026a:	0cb50463          	beq	a0,a1,ffffffff84000332 <reserve_region+0xc8>
ffffffff8400026e:	00002317          	auipc	t1,0x2
ffffffff84000272:	bca30313          	add	t1,t1,-1078 # ffffffff84001e38 <ndks_boot>
ffffffff84000276:	34033603          	ld	a2,832(t1)
ffffffff8400027a:	88aa                	mv	a7,a0
ffffffff8400027c:	c25d                	beqz	a2,ffffffff84000322 <reserve_region+0xb8>
ffffffff8400027e:	1101                	add	sp,sp,-32
ffffffff84000280:	ec06                	sd	ra,24(sp)
ffffffff84000282:	879a                	mv	a5,t1
ffffffff84000284:	4701                	li	a4,0
ffffffff84000286:	a819                	j	ffffffff8400029c <reserve_region+0x32>
ffffffff84000288:	0087b803          	ld	a6,8(a5)
ffffffff8400028c:	07c1                	add	a5,a5,16
ffffffff8400028e:	03180463          	beq	a6,a7,ffffffff840002b6 <reserve_region+0x4c>
ffffffff84000292:	02d5e963          	bltu	a1,a3,ffffffff840002c4 <reserve_region+0x5a>
ffffffff84000296:	0705                	add	a4,a4,1
ffffffff84000298:	06e60663          	beq	a2,a4,ffffffff84000304 <reserve_region+0x9a>
ffffffff8400029c:	6394                	ld	a3,0(a5)
ffffffff8400029e:	feb695e3          	bne	a3,a1,ffffffff84000288 <reserve_region+0x1e>
ffffffff840002a2:	0712                	sll	a4,a4,0x4
ffffffff840002a4:	933a                	add	t1,t1,a4
ffffffff840002a6:	01133023          	sd	a7,0(t1)
ffffffff840002aa:	d7dff0ef          	jal	ffffffff84000026 <merge_regions>
ffffffff840002ae:	4505                	li	a0,1
ffffffff840002b0:	60e2                	ld	ra,24(sp)
ffffffff840002b2:	6105                	add	sp,sp,32
ffffffff840002b4:	8082                	ret
ffffffff840002b6:	0712                	sll	a4,a4,0x4
ffffffff840002b8:	933a                	add	t1,t1,a4
ffffffff840002ba:	00b33423          	sd	a1,8(t1)
ffffffff840002be:	d69ff0ef          	jal	ffffffff84000026 <merge_regions>
ffffffff840002c2:	b7f5                	j	ffffffff840002ae <reserve_region+0x44>
ffffffff840002c4:	00160813          	add	a6,a2,1
ffffffff840002c8:	03300793          	li	a5,51
ffffffff840002cc:	4501                	li	a0,0
ffffffff840002ce:	ff07e1e3          	bltu	a5,a6,ffffffff840002b0 <reserve_region+0x46>
ffffffff840002d2:	06c77263          	bgeu	a4,a2,ffffffff84000336 <reserve_region+0xcc>
ffffffff840002d6:	00461793          	sll	a5,a2,0x4
ffffffff840002da:	0712                	sll	a4,a4,0x4
ffffffff840002dc:	979a                	add	a5,a5,t1
ffffffff840002de:	00e30533          	add	a0,t1,a4
ffffffff840002e2:	ff07b603          	ld	a2,-16(a5)
ffffffff840002e6:	ff87b683          	ld	a3,-8(a5)
ffffffff840002ea:	17c1                	add	a5,a5,-16
ffffffff840002ec:	eb90                	sd	a2,16(a5)
ffffffff840002ee:	ef94                	sd	a3,24(a5)
ffffffff840002f0:	fea799e3          	bne	a5,a0,ffffffff840002e2 <reserve_region+0x78>
ffffffff840002f4:	00e307b3          	add	a5,t1,a4
ffffffff840002f8:	0117b023          	sd	a7,0(a5)
ffffffff840002fc:	e78c                	sd	a1,8(a5)
ffffffff840002fe:	35033023          	sd	a6,832(t1)
ffffffff84000302:	b775                	j	ffffffff840002ae <reserve_region+0x44>
ffffffff84000304:	03300793          	li	a5,51
ffffffff84000308:	4501                	li	a0,0
ffffffff8400030a:	faf703e3          	beq	a4,a5,ffffffff840002b0 <reserve_region+0x46>
ffffffff8400030e:	00170793          	add	a5,a4,1
ffffffff84000312:	0712                	sll	a4,a4,0x4
ffffffff84000314:	971a                	add	a4,a4,t1
ffffffff84000316:	01173023          	sd	a7,0(a4)
ffffffff8400031a:	e70c                	sd	a1,8(a4)
ffffffff8400031c:	34f33023          	sd	a5,832(t1)
ffffffff84000320:	b779                	j	ffffffff840002ae <reserve_region+0x44>
ffffffff84000322:	4701                	li	a4,0
ffffffff84000324:	0712                	sll	a4,a4,0x4
ffffffff84000326:	971a                	add	a4,a4,t1
ffffffff84000328:	4785                	li	a5,1
ffffffff8400032a:	e308                	sd	a0,0(a4)
ffffffff8400032c:	e70c                	sd	a1,8(a4)
ffffffff8400032e:	34f33023          	sd	a5,832(t1)
ffffffff84000332:	4505                	li	a0,1
ffffffff84000334:	8082                	ret
ffffffff84000336:	0712                	sll	a4,a4,0x4
ffffffff84000338:	bf75                	j	ffffffff840002f4 <reserve_region+0x8a>

ffffffff8400033a <map_kernel_devices>:
ffffffff8400033a:	7159                	add	sp,sp,-112
ffffffff8400033c:	eca6                	sd	s1,88(sp)
ffffffff8400033e:	e8ca                	sd	s2,80(sp)
ffffffff84000340:	e4ce                	sd	s3,72(sp)
ffffffff84000342:	e0d2                	sd	s4,64(sp)
ffffffff84000344:	fc56                	sd	s5,56(sp)
ffffffff84000346:	f85a                	sd	s6,48(sp)
ffffffff84000348:	f062                	sd	s8,32(sp)
ffffffff8400034a:	f486                	sd	ra,104(sp)
ffffffff8400034c:	f0a2                	sd	s0,96(sp)
ffffffff8400034e:	f45e                	sd	s7,40(sp)
ffffffff84000350:	ec66                	sd	s9,24(sp)
ffffffff84000352:	00001c17          	auipc	s8,0x1
ffffffff84000356:	7bec0c13          	add	s8,s8,1982 # ffffffff84001b10 <kernel_device_frames>
ffffffff8400035a:	00002a97          	auipc	s5,0x2
ffffffff8400035e:	acea8a93          	add	s5,s5,-1330 # ffffffff84001e28 <avail_p_regs>
ffffffff84000362:	c00004b7          	lui	s1,0xc0000
ffffffff84000366:	00021a17          	auipc	s4,0x21
ffffffff8400036a:	c9aa0a13          	add	s4,s4,-870 # ffffffff84021000 <kernel_root_pageTable>
ffffffff8400036e:	0001f997          	auipc	s3,0x1f
ffffffff84000372:	c9298993          	add	s3,s3,-878 # ffffffff8401f000 <kernel_image_level2_dev_pt>
ffffffff84000376:	ffe00937          	lui	s2,0xffe00
ffffffff8400037a:	00200b37          	lui	s6,0x200
ffffffff8400037e:	008c3683          	ld	a3,8(s8)
ffffffff84000382:	000c3c83          	ld	s9,0(s8)
ffffffff84000386:	4585                	li	a1,1
ffffffff84000388:	0156d713          	srl	a4,a3,0x15
ffffffff8400038c:	01e6d793          	srl	a5,a3,0x1e
ffffffff84000390:	1ff77713          	and	a4,a4,511
ffffffff84000394:	1ff7f793          	and	a5,a5,511
ffffffff84000398:	070e                	sll	a4,a4,0x3
ffffffff8400039a:	078e                	sll	a5,a5,0x3
ffffffff8400039c:	012cf533          	and	a0,s9,s2
ffffffff840003a0:	00e98bb3          	add	s7,s3,a4
ffffffff840003a4:	00fa0433          	add	s0,s4,a5
ffffffff840003a8:	0496e163          	bltu	a3,s1,ffffffff840003ea <map_kernel_devices+0xb0>
ffffffff840003ac:	41a030ef          	jal	ffffffff840037c6 <pte_next>
ffffffff840003b0:	00abb023          	sd	a0,0(s7)
ffffffff840003b4:	010c2783          	lw	a5,16(s8)
ffffffff840003b8:	0c61                	add	s8,s8,24
ffffffff840003ba:	c385                	beqz	a5,ffffffff840003da <map_kernel_devices+0xa0>
ffffffff840003bc:	fd5c11e3          	bne	s8,s5,ffffffff8400037e <map_kernel_devices+0x44>
ffffffff840003c0:	70a6                	ld	ra,104(sp)
ffffffff840003c2:	7406                	ld	s0,96(sp)
ffffffff840003c4:	64e6                	ld	s1,88(sp)
ffffffff840003c6:	6946                	ld	s2,80(sp)
ffffffff840003c8:	69a6                	ld	s3,72(sp)
ffffffff840003ca:	6a06                	ld	s4,64(sp)
ffffffff840003cc:	7ae2                	ld	s5,56(sp)
ffffffff840003ce:	7b42                	ld	s6,48(sp)
ffffffff840003d0:	7ba2                	ld	s7,40(sp)
ffffffff840003d2:	7c02                	ld	s8,32(sp)
ffffffff840003d4:	6ce2                	ld	s9,24(sp)
ffffffff840003d6:	6165                	add	sp,sp,112
ffffffff840003d8:	8082                	ret
ffffffff840003da:	8566                	mv	a0,s9
ffffffff840003dc:	016c85b3          	add	a1,s9,s6
ffffffff840003e0:	e8bff0ef          	jal	ffffffff8400026a <reserve_region>
ffffffff840003e4:	f95c1de3          	bne	s8,s5,ffffffff8400037e <map_kernel_devices+0x44>
ffffffff840003e8:	bfe1                	j	ffffffff840003c0 <map_kernel_devices+0x86>
ffffffff840003ea:	4585                	li	a1,1
ffffffff840003ec:	009cf533          	and	a0,s9,s1
ffffffff840003f0:	3d6030ef          	jal	ffffffff840037c6 <pte_next>
ffffffff840003f4:	e008                	sd	a0,0(s0)
ffffffff840003f6:	bf7d                	j	ffffffff840003b4 <map_kernel_devices+0x7a>

ffffffff840003f8 <map_kernel_window>:
ffffffff840003f8:	7139                	add	sp,sp,-64
ffffffff840003fa:	f426                	sd	s1,40(sp)
ffffffff840003fc:	f04a                	sd	s2,32(sp)
ffffffff840003fe:	54fd                	li	s1,-1
ffffffff84000400:	4905                	li	s2,1
ffffffff84000402:	ec4e                	sd	s3,24(sp)
ffffffff84000404:	e852                	sd	s4,16(sp)
ffffffff84000406:	e456                	sd	s5,8(sp)
ffffffff84000408:	e05a                	sd	s6,0(sp)
ffffffff8400040a:	fc06                	sd	ra,56(sp)
ffffffff8400040c:	f822                	sd	s0,48(sp)
ffffffff8400040e:	149a                	sll	s1,s1,0x26
ffffffff84000410:	00021b17          	auipc	s6,0x21
ffffffff84000414:	bf0b0b13          	add	s6,s6,-1040 # ffffffff84021000 <kernel_root_pageTable>
ffffffff84000418:	02691a93          	sll	s5,s2,0x26
ffffffff8400041c:	40000a37          	lui	s4,0x40000
ffffffff84000420:	800009b7          	lui	s3,0x80000
ffffffff84000424:	01e4d413          	srl	s0,s1,0x1e
ffffffff84000428:	1ff47413          	and	s0,s0,511
ffffffff8400042c:	01548533          	add	a0,s1,s5
ffffffff84000430:	040e                	sll	s0,s0,0x3
ffffffff84000432:	4585                	li	a1,1
ffffffff84000434:	945a                	add	s0,s0,s6
ffffffff84000436:	390030ef          	jal	ffffffff840037c6 <pte_next>
ffffffff8400043a:	e008                	sd	a0,0(s0)
ffffffff8400043c:	94d2                	add	s1,s1,s4
ffffffff8400043e:	ff3493e3          	bne	s1,s3,ffffffff84000424 <map_kernel_window+0x2c>
ffffffff84000442:	02091413          	sll	s0,s2,0x20
ffffffff84000446:	00020a17          	auipc	s4,0x20
ffffffff8400044a:	bbaa0a13          	add	s4,s4,-1094 # ffffffff84020000 <kernel_image_level2_pt>
ffffffff8400044e:	9452                	add	s0,s0,s4
ffffffff84000450:	4581                	li	a1,0
ffffffff84000452:	8522                	mv	a0,s0
ffffffff84000454:	372030ef          	jal	ffffffff840037c6 <pte_next>
ffffffff84000458:	00022b17          	auipc	s6,0x22
ffffffff8400045c:	ba8b0b13          	add	s6,s6,-1112 # ffffffff84022000 <ki_end>
ffffffff84000460:	80ab3823          	sd	a0,-2032(s6)
ffffffff84000464:	4581                	li	a1,0
ffffffff84000466:	8522                	mv	a0,s0
ffffffff84000468:	35e030ef          	jal	ffffffff840037c6 <pte_next>
ffffffff8400046c:	01f91413          	sll	s0,s2,0x1f
ffffffff84000470:	490d                	li	s2,3
ffffffff84000472:	feab3823          	sd	a0,-16(s6)
ffffffff84000476:	4981                	li	s3,0
ffffffff84000478:	00200ab7          	lui	s5,0x200
ffffffff8400047c:	097a                	sll	s2,s2,0x1e
ffffffff8400047e:	00399493          	sll	s1,s3,0x3
ffffffff84000482:	8522                	mv	a0,s0
ffffffff84000484:	4585                	li	a1,1
ffffffff84000486:	94d2                	add	s1,s1,s4
ffffffff84000488:	33e030ef          	jal	ffffffff840037c6 <pte_next>
ffffffff8400048c:	e088                	sd	a0,0(s1)
ffffffff8400048e:	9456                	add	s0,s0,s5
ffffffff84000490:	0985                	add	s3,s3,1 # ffffffff80000001 <KERNEL_OFFSET+0x80000001>
ffffffff84000492:	ff2416e3          	bne	s0,s2,ffffffff8400047e <map_kernel_window+0x86>
ffffffff84000496:	4785                	li	a5,1
ffffffff84000498:	1782                	sll	a5,a5,0x20
ffffffff8400049a:	0001f517          	auipc	a0,0x1f
ffffffff8400049e:	b6650513          	add	a0,a0,-1178 # ffffffff8401f000 <kernel_image_level2_dev_pt>
ffffffff840004a2:	4581                	li	a1,0
ffffffff840004a4:	953e                	add	a0,a0,a5
ffffffff840004a6:	320030ef          	jal	ffffffff840037c6 <pte_next>
ffffffff840004aa:	7442                	ld	s0,48(sp)
ffffffff840004ac:	70e2                	ld	ra,56(sp)
ffffffff840004ae:	74a2                	ld	s1,40(sp)
ffffffff840004b0:	7902                	ld	s2,32(sp)
ffffffff840004b2:	69e2                	ld	s3,24(sp)
ffffffff840004b4:	6a42                	ld	s4,16(sp)
ffffffff840004b6:	6aa2                	ld	s5,8(sp)
ffffffff840004b8:	feab3c23          	sd	a0,-8(s6)
ffffffff840004bc:	6b02                	ld	s6,0(sp)
ffffffff840004be:	6121                	add	sp,sp,64
ffffffff840004c0:	bdad                	j	ffffffff8400033a <map_kernel_devices>

ffffffff840004c2 <insert_region>:
ffffffff840004c2:	06a58763          	beq	a1,a0,ffffffff84000530 <insert_region+0x6e>
ffffffff840004c6:	7139                	add	sp,sp,-64
ffffffff840004c8:	f822                	sd	s0,48(sp)
ffffffff840004ca:	f426                	sd	s1,40(sp)
ffffffff840004cc:	f04a                	sd	s2,32(sp)
ffffffff840004ce:	fc06                	sd	ra,56(sp)
ffffffff840004d0:	892a                	mv	s2,a0
ffffffff840004d2:	84ae                	mv	s1,a1
ffffffff840004d4:	00002797          	auipc	a5,0x2
ffffffff840004d8:	cac78793          	add	a5,a5,-852 # ffffffff84002180 <ndks_boot+0x348>
ffffffff840004dc:	4401                	li	s0,0
ffffffff840004de:	4641                	li	a2,16
ffffffff840004e0:	6394                	ld	a3,0(a5)
ffffffff840004e2:	6798                	ld	a4,8(a5)
ffffffff840004e4:	07c1                	add	a5,a5,16
ffffffff840004e6:	00e68c63          	beq	a3,a4,ffffffff840004fe <insert_region+0x3c>
ffffffff840004ea:	0405                	add	s0,s0,1
ffffffff840004ec:	fec41ae3          	bne	s0,a2,ffffffff840004e0 <insert_region+0x1e>
ffffffff840004f0:	70e2                	ld	ra,56(sp)
ffffffff840004f2:	7442                	ld	s0,48(sp)
ffffffff840004f4:	74a2                	ld	s1,40(sp)
ffffffff840004f6:	7902                	ld	s2,32(sp)
ffffffff840004f8:	4501                	li	a0,0
ffffffff840004fa:	6121                	add	sp,sp,64
ffffffff840004fc:	8082                	ret
ffffffff840004fe:	4585                	li	a1,1
ffffffff84000500:	159a                	sll	a1,a1,0x26
ffffffff84000502:	00b90533          	add	a0,s2,a1
ffffffff84000506:	95a6                	add	a1,a1,s1
ffffffff84000508:	d63ff0ef          	jal	ffffffff8400026a <reserve_region>
ffffffff8400050c:	03440413          	add	s0,s0,52
ffffffff84000510:	0412                	sll	s0,s0,0x4
ffffffff84000512:	00002797          	auipc	a5,0x2
ffffffff84000516:	92678793          	add	a5,a5,-1754 # ffffffff84001e38 <ndks_boot>
ffffffff8400051a:	97a2                	add	a5,a5,s0
ffffffff8400051c:	70e2                	ld	ra,56(sp)
ffffffff8400051e:	7442                	ld	s0,48(sp)
ffffffff84000520:	0127b423          	sd	s2,8(a5)
ffffffff84000524:	eb84                	sd	s1,16(a5)
ffffffff84000526:	7902                	ld	s2,32(sp)
ffffffff84000528:	74a2                	ld	s1,40(sp)
ffffffff8400052a:	4505                	li	a0,1
ffffffff8400052c:	6121                	add	sp,sp,64
ffffffff8400052e:	8082                	ret
ffffffff84000530:	4505                	li	a0,1
ffffffff84000532:	8082                	ret

ffffffff84000534 <write_slot>:
ffffffff84000534:	478d                	li	a5,3
ffffffff84000536:	1141                	add	sp,sp,-16
ffffffff84000538:	e10c                	sd	a1,0(a0)
ffffffff8400053a:	e510                	sd	a2,8(a0)
ffffffff8400053c:	00053823          	sd	zero,16(a0)
ffffffff84000540:	ed1c                	sd	a5,24(a0)
ffffffff84000542:	0141                	add	sp,sp,16
ffffffff84000544:	8082                	ret

ffffffff84000546 <create_root_cnode>:
ffffffff84000546:	00002717          	auipc	a4,0x2
ffffffff8400054a:	d4a73703          	ld	a4,-694(a4) # ffffffff84002290 <rootserver>
ffffffff8400054e:	01971513          	sll	a0,a4,0x19
ffffffff84000552:	0ab537b7          	lui	a5,0xab53
ffffffff84000556:	178e                	sll	a5,a5,0x23
ffffffff84000558:	8169                	srl	a0,a0,0x1a
ffffffff8400055a:	8d5d                	or	a0,a0,a5
ffffffff8400055c:	e328                	sd	a0,64(a4)
ffffffff8400055e:	04073423          	sd	zero,72(a4)
ffffffff84000562:	04073823          	sd	zero,80(a4)
ffffffff84000566:	04070793          	add	a5,a4,64
ffffffff8400056a:	470d                	li	a4,3
ffffffff8400056c:	1141                	add	sp,sp,-16
ffffffff8400056e:	ef98                	sd	a4,24(a5)
ffffffff84000570:	4581                	li	a1,0
ffffffff84000572:	0141                	add	sp,sp,16
ffffffff84000574:	8082                	ret

ffffffff84000576 <calculate_extra_bi_size_bits>:
ffffffff84000576:	85aa                	mv	a1,a0
ffffffff84000578:	cd59                	beqz	a0,ffffffff84000616 <calculate_extra_bi_size_bits+0xa0>
ffffffff8400057a:	fff50793          	add	a5,a0,-1
ffffffff8400057e:	83b1                	srl	a5,a5,0xc
ffffffff84000580:	4805                	li	a6,1
ffffffff84000582:	0785                	add	a5,a5,1 # ab53001 <KERNEL_OFFSET-0xfffffffef54acfff>
ffffffff84000584:	07b2                	sll	a5,a5,0xc
ffffffff84000586:	02081613          	sll	a2,a6,0x20
ffffffff8400058a:	00c7b633          	sltu	a2,a5,a2
ffffffff8400058e:	00164613          	xor	a2,a2,1
ffffffff84000592:	0056161b          	sllw	a2,a2,0x5
ffffffff84000596:	00c7d7b3          	srl	a5,a5,a2
ffffffff8400059a:	66c1                	lui	a3,0x10
ffffffff8400059c:	00d7b6b3          	sltu	a3,a5,a3
ffffffff840005a0:	0016c693          	xor	a3,a3,1
ffffffff840005a4:	0046969b          	sllw	a3,a3,0x4
ffffffff840005a8:	00d7d7b3          	srl	a5,a5,a3
ffffffff840005ac:	1007b313          	sltiu	t1,a5,256
ffffffff840005b0:	00134313          	xor	t1,t1,1
ffffffff840005b4:	0033131b          	sllw	t1,t1,0x3
ffffffff840005b8:	0067d7b3          	srl	a5,a5,t1
ffffffff840005bc:	0107b893          	sltiu	a7,a5,16
ffffffff840005c0:	0018c893          	xor	a7,a7,1
ffffffff840005c4:	0028989b          	sllw	a7,a7,0x2
ffffffff840005c8:	0117d7b3          	srl	a5,a5,a7
ffffffff840005cc:	0047b513          	sltiu	a0,a5,4
ffffffff840005d0:	04000713          	li	a4,64
ffffffff840005d4:	9f11                	subw	a4,a4,a2
ffffffff840005d6:	00154613          	xor	a2,a0,1
ffffffff840005da:	0016161b          	sllw	a2,a2,0x1
ffffffff840005de:	9f15                	subw	a4,a4,a3
ffffffff840005e0:	00c7d7b3          	srl	a5,a5,a2
ffffffff840005e4:	4067073b          	subw	a4,a4,t1
ffffffff840005e8:	0027b693          	sltiu	a3,a5,2
ffffffff840005ec:	4117073b          	subw	a4,a4,a7
ffffffff840005f0:	0016c693          	xor	a3,a3,1
ffffffff840005f4:	9f11                	subw	a4,a4,a2
ffffffff840005f6:	9f15                	subw	a4,a4,a3
ffffffff840005f8:	00d7d7b3          	srl	a5,a5,a3
ffffffff840005fc:	40f707bb          	subw	a5,a4,a5
ffffffff84000600:	03f00513          	li	a0,63
ffffffff84000604:	8d1d                	sub	a0,a0,a5
ffffffff84000606:	00a81833          	sll	a6,a6,a0
ffffffff8400060a:	00b87763          	bgeu	a6,a1,ffffffff84000618 <calculate_extra_bi_size_bits+0xa2>
ffffffff8400060e:	04000513          	li	a0,64
ffffffff84000612:	8d1d                	sub	a0,a0,a5
ffffffff84000614:	8082                	ret
ffffffff84000616:	4501                	li	a0,0
ffffffff84000618:	8082                	ret

ffffffff8400061a <populate_bi_frame>:
ffffffff8400061a:	00002817          	auipc	a6,0x2
ffffffff8400061e:	81e80813          	add	a6,a6,-2018 # ffffffff84001e38 <ndks_boot>
ffffffff84000622:	47883783          	ld	a5,1144(a6)
ffffffff84000626:	6705                	lui	a4,0x1
ffffffff84000628:	973e                	add	a4,a4,a5
ffffffff8400062a:	0007b023          	sd	zero,0(a5)
ffffffff8400062e:	07a1                	add	a5,a5,8
ffffffff84000630:	fee79de3          	bne	a5,a4,ffffffff8400062a <populate_bi_frame+0x10>
ffffffff84000634:	cacd                	beqz	a3,ffffffff840006e6 <populate_bi_frame+0xcc>
ffffffff84000636:	fff68793          	add	a5,a3,-1 # ffff <KERNEL_OFFSET-0xfffffffeffff0001>
ffffffff8400063a:	83b1                	srl	a5,a5,0xc
ffffffff8400063c:	4305                	li	t1,1
ffffffff8400063e:	0785                	add	a5,a5,1
ffffffff84000640:	07b2                	sll	a5,a5,0xc
ffffffff84000642:	02031e13          	sll	t3,t1,0x20
ffffffff84000646:	01c7be33          	sltu	t3,a5,t3
ffffffff8400064a:	001e4e13          	xor	t3,t3,1
ffffffff8400064e:	005e1e1b          	sllw	t3,t3,0x5
ffffffff84000652:	01c7d7b3          	srl	a5,a5,t3
ffffffff84000656:	68c1                	lui	a7,0x10
ffffffff84000658:	0117b8b3          	sltu	a7,a5,a7
ffffffff8400065c:	0018c893          	xor	a7,a7,1
ffffffff84000660:	0048989b          	sllw	a7,a7,0x4
ffffffff84000664:	0117d7b3          	srl	a5,a5,a7
ffffffff84000668:	1007bf93          	sltiu	t6,a5,256
ffffffff8400066c:	001fcf93          	xor	t6,t6,1
ffffffff84000670:	003f9f9b          	sllw	t6,t6,0x3
ffffffff84000674:	01f7d7b3          	srl	a5,a5,t6
ffffffff84000678:	0107bf13          	sltiu	t5,a5,16
ffffffff8400067c:	001f4f13          	xor	t5,t5,1
ffffffff84000680:	002f1f1b          	sllw	t5,t5,0x2
ffffffff84000684:	01e7d7b3          	srl	a5,a5,t5
ffffffff84000688:	0047be93          	sltiu	t4,a5,4
ffffffff8400068c:	04000713          	li	a4,64
ffffffff84000690:	41c7073b          	subw	a4,a4,t3
ffffffff84000694:	001ece13          	xor	t3,t4,1
ffffffff84000698:	001e1e1b          	sllw	t3,t3,0x1
ffffffff8400069c:	4117073b          	subw	a4,a4,a7
ffffffff840006a0:	01c7d7b3          	srl	a5,a5,t3
ffffffff840006a4:	41f7073b          	subw	a4,a4,t6
ffffffff840006a8:	0027b893          	sltiu	a7,a5,2
ffffffff840006ac:	41e7073b          	subw	a4,a4,t5
ffffffff840006b0:	0018c893          	xor	a7,a7,1
ffffffff840006b4:	41c7073b          	subw	a4,a4,t3
ffffffff840006b8:	0117d7b3          	srl	a5,a5,a7
ffffffff840006bc:	4117073b          	subw	a4,a4,a7
ffffffff840006c0:	9f1d                	subw	a4,a4,a5
ffffffff840006c2:	48083883          	ld	a7,1152(a6)
ffffffff840006c6:	03f00e13          	li	t3,63
ffffffff840006ca:	40ee0e33          	sub	t3,t3,a4
ffffffff840006ce:	01c31e33          	sll	t3,t1,t3
ffffffff840006d2:	87c6                	mv	a5,a7
ffffffff840006d4:	04de6363          	bltu	t3,a3,ffffffff8400071a <populate_bi_frame+0x100>
ffffffff840006d8:	01c88733          	add	a4,a7,t3
ffffffff840006dc:	0007b023          	sd	zero,0(a5)
ffffffff840006e0:	07a1                	add	a5,a5,8
ffffffff840006e2:	fee79de3          	bne	a5,a4,ffffffff840006dc <populate_bi_frame+0xc2>
ffffffff840006e6:	8b81b783          	ld	a5,-1864(gp) # ffffffff8400ab68 <ksDomScheduleIdx>
ffffffff840006ea:	0792                	sll	a5,a5,0x4
ffffffff840006ec:	0000a717          	auipc	a4,0xa
ffffffff840006f0:	3ec70713          	add	a4,a4,1004 # ffffffff8400aad8 <ksDomSchedule>
ffffffff840006f4:	973e                	add	a4,a4,a5
ffffffff840006f6:	47883783          	ld	a5,1144(a6)
ffffffff840006fa:	6318                	ld	a4,0(a4)
ffffffff840006fc:	f390                	sd	a2,32(a5)
ffffffff840006fe:	464d                	li	a2,19
ffffffff84000700:	e788                	sd	a0,8(a5)
ffffffff84000702:	eb8c                	sd	a1,16(a5)
ffffffff84000704:	0007bc23          	sd	zero,24(a5)
ffffffff84000708:	e7d0                	sd	a2,136(a5)
ffffffff8400070a:	ebd8                	sd	a4,144(a5)
ffffffff8400070c:	e394                	sd	a3,0(a5)
ffffffff8400070e:	44f83423          	sd	a5,1096(a6)
ffffffff84000712:	47c1                	li	a5,16
ffffffff84000714:	44f83823          	sd	a5,1104(a6)
ffffffff84000718:	8082                	ret
ffffffff8400071a:	04000e13          	li	t3,64
ffffffff8400071e:	40ee0e33          	sub	t3,t3,a4
ffffffff84000722:	01c31e33          	sll	t3,t1,t3
ffffffff84000726:	bf4d                	j	ffffffff840006d8 <populate_bi_frame+0xbe>

ffffffff84000728 <init_core_state>:
ffffffff84000728:	a8a1b823          	sd	a0,-1392(gp) # ffffffff8400ad40 <ksSchedulerAction>
ffffffff8400072c:	a981b783          	ld	a5,-1384(gp) # ffffffff8400ad48 <ksIdleThread>
ffffffff84000730:	aaf1b023          	sd	a5,-1376(gp) # ffffffff8400ad50 <ksCurThread>
ffffffff84000734:	8082                	ret

ffffffff84000736 <bi_finalise>:
ffffffff84000736:	00001717          	auipc	a4,0x1
ffffffff8400073a:	70270713          	add	a4,a4,1794 # ffffffff84001e38 <ndks_boot>
ffffffff8400073e:	44873783          	ld	a5,1096(a4)
ffffffff84000742:	45073703          	ld	a4,1104(a4)
ffffffff84000746:	000806b7          	lui	a3,0x80
ffffffff8400074a:	fb94                	sd	a3,48(a5)
ffffffff8400074c:	f798                	sd	a4,40(a5)
ffffffff8400074e:	8082                	ret

ffffffff84000750 <init_freemem>:
ffffffff84000750:	7171                	add	sp,sp,-176
ffffffff84000752:	f506                	sd	ra,168(sp)
ffffffff84000754:	f122                	sd	s0,160(sp)
ffffffff84000756:	ed26                	sd	s1,152(sp)
ffffffff84000758:	e94a                	sd	s2,144(sp)
ffffffff8400075a:	e54e                	sd	s3,136(sp)
ffffffff8400075c:	e152                	sd	s4,128(sp)
ffffffff8400075e:	fcd6                	sd	s5,120(sp)
ffffffff84000760:	f8da                	sd	s6,112(sp)
ffffffff84000762:	f4de                	sd	s7,104(sp)
ffffffff84000764:	f0e2                	sd	s8,96(sp)
ffffffff84000766:	ece6                	sd	s9,88(sp)
ffffffff84000768:	e03a                	sd	a4,0(sp)
ffffffff8400076a:	e43e                	sd	a5,8(sp)
ffffffff8400076c:	c905                	beqz	a0,ffffffff8400079c <init_freemem+0x4c>
ffffffff8400076e:	6198                	ld	a4,0(a1)
ffffffff84000770:	659c                	ld	a5,8(a1)
ffffffff84000772:	8942                	mv	s2,a6
ffffffff84000774:	882e                	mv	a6,a1
ffffffff84000776:	02f77363          	bgeu	a4,a5,ffffffff8400079c <init_freemem+0x4c>
ffffffff8400077a:	8a2a                	mv	s4,a0
ffffffff8400077c:	8ab2                	mv	s5,a2
ffffffff8400077e:	8c36                	mv	s8,a3
ffffffff84000780:	87ae                	mv	a5,a1
ffffffff84000782:	4701                	li	a4,0
ffffffff84000784:	0705                	add	a4,a4,1
ffffffff84000786:	07c1                	add	a5,a5,16
ffffffff84000788:	02ea0863          	beq	s4,a4,ffffffff840007b8 <init_freemem+0x68>
ffffffff8400078c:	6390                	ld	a2,0(a5)
ffffffff8400078e:	6794                	ld	a3,8(a5)
ffffffff84000790:	00d67663          	bgeu	a2,a3,ffffffff8400079c <init_freemem+0x4c>
ffffffff84000794:	ff87b683          	ld	a3,-8(a5)
ffffffff84000798:	fed676e3          	bgeu	a2,a3,ffffffff84000784 <init_freemem+0x34>
ffffffff8400079c:	4501                	li	a0,0
ffffffff8400079e:	70aa                	ld	ra,168(sp)
ffffffff840007a0:	740a                	ld	s0,160(sp)
ffffffff840007a2:	64ea                	ld	s1,152(sp)
ffffffff840007a4:	694a                	ld	s2,144(sp)
ffffffff840007a6:	69aa                	ld	s3,136(sp)
ffffffff840007a8:	6a0a                	ld	s4,128(sp)
ffffffff840007aa:	7ae6                	ld	s5,120(sp)
ffffffff840007ac:	7b46                	ld	s6,112(sp)
ffffffff840007ae:	7ba6                	ld	s7,104(sp)
ffffffff840007b0:	7c06                	ld	s8,96(sp)
ffffffff840007b2:	6ce6                	ld	s9,88(sp)
ffffffff840007b4:	614d                	add	sp,sp,176
ffffffff840007b6:	8082                	ret
ffffffff840007b8:	020a8a63          	beqz	s5,ffffffff840007ec <init_freemem+0x9c>
ffffffff840007bc:	000c3683          	ld	a3,0(s8)
ffffffff840007c0:	008c3703          	ld	a4,8(s8)
ffffffff840007c4:	87e2                	mv	a5,s8
ffffffff840007c6:	fcd76be3          	bltu	a4,a3,ffffffff8400079c <init_freemem+0x4c>
ffffffff840007ca:	4701                	li	a4,0
ffffffff840007cc:	0705                	add	a4,a4,1
ffffffff840007ce:	07c1                	add	a5,a5,16
ffffffff840007d0:	00ea8e63          	beq	s5,a4,ffffffff840007ec <init_freemem+0x9c>
ffffffff840007d4:	6390                	ld	a2,0(a5)
ffffffff840007d6:	6794                	ld	a3,8(a5)
ffffffff840007d8:	fcc6e2e3          	bltu	a3,a2,ffffffff8400079c <init_freemem+0x4c>
ffffffff840007dc:	ff87b683          	ld	a3,-8(a5)
ffffffff840007e0:	fad66ee3          	bltu	a2,a3,ffffffff8400079c <init_freemem+0x4c>
ffffffff840007e4:	0705                	add	a4,a4,1
ffffffff840007e6:	07c1                	add	a5,a5,16
ffffffff840007e8:	feea96e3          	bne	s5,a4,ffffffff840007d4 <init_freemem+0x84>
ffffffff840007ec:	00002797          	auipc	a5,0x2
ffffffff840007f0:	99478793          	add	a5,a5,-1644 # ffffffff84002180 <ndks_boot+0x348>
ffffffff840007f4:	00002717          	auipc	a4,0x2
ffffffff840007f8:	a8c70713          	add	a4,a4,-1396 # ffffffff84002280 <ndks_boot+0x448>
ffffffff840007fc:	0007b023          	sd	zero,0(a5)
ffffffff84000800:	0007b423          	sd	zero,8(a5)
ffffffff84000804:	07c1                	add	a5,a5,16
ffffffff84000806:	fef71be3          	bne	a4,a5,ffffffff840007fc <init_freemem+0xac>
ffffffff8400080a:	004a1793          	sll	a5,s4,0x4
ffffffff8400080e:	07f00693          	li	a3,127
ffffffff84000812:	557d                	li	a0,-1
ffffffff84000814:	00002617          	auipc	a2,0x2
ffffffff84000818:	acc60613          	add	a2,a2,-1332 # ffffffff840022e0 <avail_reg+0x8>
ffffffff8400081c:	95be                	add	a1,a1,a5
ffffffff8400081e:	06fe                	sll	a3,a3,0x1f
ffffffff84000820:	151a                	sll	a0,a0,0x26
ffffffff84000822:	00883703          	ld	a4,8(a6)
ffffffff84000826:	00083783          	ld	a5,0(a6)
ffffffff8400082a:	0841                	add	a6,a6,16
ffffffff8400082c:	00e6f363          	bgeu	a3,a4,ffffffff84000832 <init_freemem+0xe2>
ffffffff84000830:	8736                	mv	a4,a3
ffffffff84000832:	972a                	add	a4,a4,a0
ffffffff84000834:	e218                	sd	a4,0(a2)
ffffffff84000836:	00f6f363          	bgeu	a3,a5,ffffffff8400083c <init_freemem+0xec>
ffffffff8400083a:	87b6                	mv	a5,a3
ffffffff8400083c:	97aa                	add	a5,a5,a0
ffffffff8400083e:	fef63c23          	sd	a5,-8(a2)
ffffffff84000842:	0641                	add	a2,a2,16
ffffffff84000844:	fcb81fe3          	bne	a6,a1,ffffffff84000822 <init_freemem+0xd2>
ffffffff84000848:	360a8263          	beqz	s5,ffffffff84000bac <init_freemem+0x45c>
ffffffff8400084c:	4c85                	li	s9,1
ffffffff8400084e:	4401                	li	s0,0
ffffffff84000850:	4481                	li	s1,0
ffffffff84000852:	00001b17          	auipc	s6,0x1
ffffffff84000856:	5e6b0b13          	add	s6,s6,1510 # ffffffff84001e38 <ndks_boot>
ffffffff8400085a:	1c9a                	sll	s9,s9,0x26
ffffffff8400085c:	00441993          	sll	s3,s0,0x4
ffffffff84000860:	99e2                	add	s3,s3,s8
ffffffff84000862:	0009b703          	ld	a4,0(s3)
ffffffff84000866:	0089b783          	ld	a5,8(s3)
ffffffff8400086a:	1af70463          	beq	a4,a5,ffffffff84000a12 <init_freemem+0x2c2>
ffffffff8400086e:	00449b93          	sll	s7,s1,0x4
ffffffff84000872:	9bda                	add	s7,s7,s6
ffffffff84000874:	4a0bb503          	ld	a0,1184(s7)
ffffffff84000878:	4a8bb583          	ld	a1,1192(s7)
ffffffff8400087c:	14b57663          	bgeu	a0,a1,ffffffff840009c8 <init_freemem+0x278>
ffffffff84000880:	18f57b63          	bgeu	a0,a5,ffffffff84000a16 <init_freemem+0x2c6>
ffffffff84000884:	1ab77363          	bgeu	a4,a1,ffffffff84000a2a <init_freemem+0x2da>
ffffffff84000888:	12e56563          	bltu	a0,a4,ffffffff840009b2 <init_freemem+0x262>
ffffffff8400088c:	873e                	mv	a4,a5
ffffffff8400088e:	1af5e263          	bltu	a1,a5,ffffffff84000a32 <init_freemem+0x2e2>
ffffffff84000892:	4aebb023          	sd	a4,1184(s7)
ffffffff84000896:	0009b503          	ld	a0,0(s3)
ffffffff8400089a:	4705                	li	a4,1
ffffffff8400089c:	171a                	sll	a4,a4,0x26
ffffffff8400089e:	953a                	add	a0,a0,a4
ffffffff840008a0:	00e785b3          	add	a1,a5,a4
ffffffff840008a4:	f02a                	sd	a0,32(sp)
ffffffff840008a6:	f42e                	sd	a1,40(sp)
ffffffff840008a8:	0405                	add	s0,s0,1
ffffffff840008aa:	9c1ff0ef          	jal	ffffffff8400026a <reserve_region>
ffffffff840008ae:	1344f063          	bgeu	s1,s4,ffffffff840009ce <init_freemem+0x27e>
ffffffff840008b2:	fb5465e3          	bltu	s0,s5,ffffffff8400085c <init_freemem+0x10c>
ffffffff840008b6:	0344fe63          	bgeu	s1,s4,ffffffff840008f2 <init_freemem+0x1a2>
ffffffff840008ba:	00449793          	sll	a5,s1,0x4
ffffffff840008be:	00002417          	auipc	s0,0x2
ffffffff840008c2:	a1a40413          	add	s0,s0,-1510 # ffffffff840022d8 <avail_reg>
ffffffff840008c6:	943e                	add	s0,s0,a5
ffffffff840008c8:	a021                	j	ffffffff840008d0 <init_freemem+0x180>
ffffffff840008ca:	0485                	add	s1,s1,1 # ffffffffc0000001 <ki_end+0x3bfde001>
ffffffff840008cc:	0344f363          	bgeu	s1,s4,ffffffff840008f2 <init_freemem+0x1a2>
ffffffff840008d0:	6018                	ld	a4,0(s0)
ffffffff840008d2:	641c                	ld	a5,8(s0)
ffffffff840008d4:	0441                	add	s0,s0,16
ffffffff840008d6:	fef77ae3          	bgeu	a4,a5,ffffffff840008ca <init_freemem+0x17a>
ffffffff840008da:	00449793          	sll	a5,s1,0x4
ffffffff840008de:	97da                	add	a5,a5,s6
ffffffff840008e0:	4a07b503          	ld	a0,1184(a5)
ffffffff840008e4:	4a87b583          	ld	a1,1192(a5)
ffffffff840008e8:	0485                	add	s1,s1,1
ffffffff840008ea:	bd9ff0ef          	jal	ffffffff840004c2 <insert_region>
ffffffff840008ee:	ff44e1e3          	bltu	s1,s4,ffffffff840008d0 <init_freemem+0x180>
ffffffff840008f2:	438b3703          	ld	a4,1080(s6)
ffffffff840008f6:	440b3783          	ld	a5,1088(s6)
ffffffff840008fa:	eaf711e3          	bne	a4,a5,ffffffff8400079c <init_freemem+0x4c>
ffffffff840008fe:	00002797          	auipc	a5,0x2
ffffffff84000902:	97278793          	add	a5,a5,-1678 # ffffffff84002270 <ndks_boot+0x438>
ffffffff84000906:	473d                	li	a4,15
ffffffff84000908:	55fd                	li	a1,-1
ffffffff8400090a:	6390                	ld	a2,0(a5)
ffffffff8400090c:	6794                	ld	a3,8(a5)
ffffffff8400090e:	17c1                	add	a5,a5,-16
ffffffff84000910:	00d61563          	bne	a2,a3,ffffffff8400091a <init_freemem+0x1ca>
ffffffff84000914:	377d                	addw	a4,a4,-1
ffffffff84000916:	feb71ae3          	bne	a4,a1,ffffffff8400090a <init_freemem+0x1ba>
ffffffff8400091a:	6682                	ld	a3,0(sp)
ffffffff8400091c:	67a2                	ld	a5,8(sp)
ffffffff8400091e:	4581                	li	a1,0
ffffffff84000920:	00090563          	beqz	s2,ffffffff8400092a <init_freemem+0x1da>
ffffffff84000924:	4585                	li	a1,1
ffffffff84000926:	012595b3          	sll	a1,a1,s2
ffffffff8400092a:	17fd                	add	a5,a5,-1
ffffffff8400092c:	01e7d893          	srl	a7,a5,0x1e
ffffffff84000930:	83d5                	srl	a5,a5,0x15
ffffffff84000932:	0885                	add	a7,a7,1 # 10001 <KERNEL_OFFSET-0xfffffffefffeffff>
ffffffff84000934:	0785                	add	a5,a5,1
ffffffff84000936:	c0000637          	lui	a2,0xc0000
ffffffff8400093a:	ffe00537          	lui	a0,0xffe00
ffffffff8400093e:	8e75                	and	a2,a2,a3
ffffffff84000940:	08fa                	sll	a7,a7,0x1e
ffffffff84000942:	07d6                	sll	a5,a5,0x15
ffffffff84000944:	8ee9                	and	a3,a3,a0
ffffffff84000946:	40c888b3          	sub	a7,a7,a2
ffffffff8400094a:	8f95                	sub	a5,a5,a3
ffffffff8400094c:	83d5                	srl	a5,a5,0x15
ffffffff8400094e:	01e8d893          	srl	a7,a7,0x1e
ffffffff84000952:	98be                	add	a7,a7,a5
ffffffff84000954:	01004837          	lui	a6,0x1004
ffffffff84000958:	08b2                	sll	a7,a7,0xc
ffffffff8400095a:	40080813          	add	a6,a6,1024 # 1004400 <KERNEL_OFFSET-0xfffffffefeffbc00>
ffffffff8400095e:	9846                	add	a6,a6,a7
ffffffff84000960:	47e1                	li	a5,24
ffffffff84000962:	982e                	add	a6,a6,a1
ffffffff84000964:	8e4a                	mv	t3,s2
ffffffff84000966:	0cf96863          	bltu	s2,a5,ffffffff84000a36 <init_freemem+0x2e6>
ffffffff8400096a:	57fd                	li	a5,-1
ffffffff8400096c:	e2f708e3          	beq	a4,a5,ffffffff8400079c <init_freemem+0x4c>
ffffffff84000970:	00471793          	sll	a5,a4,0x4
ffffffff84000974:	34878793          	add	a5,a5,840
ffffffff84000978:	000e059b          	sext.w	a1,t3
ffffffff8400097c:	97da                	add	a5,a5,s6
ffffffff8400097e:	537d                	li	t1,-1
ffffffff84000980:	6790                	ld	a2,8(a5)
ffffffff84000982:	410606b3          	sub	a3,a2,a6
ffffffff84000986:	00b6d533          	srl	a0,a3,a1
ffffffff8400098a:	00b51533          	sll	a0,a0,a1
ffffffff8400098e:	00d66563          	bltu	a2,a3,ffffffff84000998 <init_freemem+0x248>
ffffffff84000992:	6394                	ld	a3,0(a5)
ffffffff84000994:	0cd57263          	bgeu	a0,a3,ffffffff84000a58 <init_freemem+0x308>
ffffffff84000998:	6390                	ld	a2,0(a5)
ffffffff8400099a:	6794                	ld	a3,8(a5)
ffffffff8400099c:	0007b023          	sd	zero,0(a5)
ffffffff840009a0:	eb90                	sd	a2,16(a5)
ffffffff840009a2:	ef94                	sd	a3,24(a5)
ffffffff840009a4:	0007b423          	sd	zero,8(a5)
ffffffff840009a8:	377d                	addw	a4,a4,-1
ffffffff840009aa:	17c1                	add	a5,a5,-16
ffffffff840009ac:	fc671ae3          	bne	a4,t1,ffffffff84000980 <init_freemem+0x230>
ffffffff840009b0:	b3f5                	j	ffffffff8400079c <init_freemem+0x4c>
ffffffff840009b2:	85ba                	mv	a1,a4
ffffffff840009b4:	e4ba                	sd	a4,72(sp)
ffffffff840009b6:	e0aa                	sd	a0,64(sp)
ffffffff840009b8:	b0bff0ef          	jal	ffffffff840004c2 <insert_region>
ffffffff840009bc:	0089b783          	ld	a5,8(s3)
ffffffff840009c0:	4a8bb703          	ld	a4,1192(s7)
ffffffff840009c4:	06e7eb63          	bltu	a5,a4,ffffffff84000a3a <init_freemem+0x2ea>
ffffffff840009c8:	0485                	add	s1,s1,1
ffffffff840009ca:	ef44e4e3          	bltu	s1,s4,ffffffff840008b2 <init_freemem+0x162>
ffffffff840009ce:	00441993          	sll	s3,s0,0x4
ffffffff840009d2:	4b85                	li	s7,1
ffffffff840009d4:	99e2                	add	s3,s3,s8
ffffffff840009d6:	1b9a                	sll	s7,s7,0x26
ffffffff840009d8:	f1547de3          	bgeu	s0,s5,ffffffff840008f2 <init_freemem+0x1a2>
ffffffff840009dc:	0009b503          	ld	a0,0(s3)
ffffffff840009e0:	0089b583          	ld	a1,8(s3)
ffffffff840009e4:	0405                	add	s0,s0,1
ffffffff840009e6:	09c1                	add	s3,s3,16
ffffffff840009e8:	00b56c63          	bltu	a0,a1,ffffffff84000a00 <init_freemem+0x2b0>
ffffffff840009ec:	ec8a85e3          	beq	s5,s0,ffffffff840008b6 <init_freemem+0x166>
ffffffff840009f0:	0009b503          	ld	a0,0(s3)
ffffffff840009f4:	0089b583          	ld	a1,8(s3)
ffffffff840009f8:	0405                	add	s0,s0,1
ffffffff840009fa:	09c1                	add	s3,s3,16
ffffffff840009fc:	feb578e3          	bgeu	a0,a1,ffffffff840009ec <init_freemem+0x29c>
ffffffff84000a00:	955e                	add	a0,a0,s7
ffffffff84000a02:	95de                	add	a1,a1,s7
ffffffff84000a04:	e0aa                	sd	a0,64(sp)
ffffffff84000a06:	e4ae                	sd	a1,72(sp)
ffffffff84000a08:	863ff0ef          	jal	ffffffff8400026a <reserve_region>
ffffffff84000a0c:	fe8a92e3          	bne	s5,s0,ffffffff840009f0 <init_freemem+0x2a0>
ffffffff84000a10:	b55d                	j	ffffffff840008b6 <init_freemem+0x166>
ffffffff84000a12:	0405                	add	s0,s0,1
ffffffff84000a14:	bd69                	j	ffffffff840008ae <init_freemem+0x15e>
ffffffff84000a16:	01970533          	add	a0,a4,s9
ffffffff84000a1a:	019785b3          	add	a1,a5,s9
ffffffff84000a1e:	e82a                	sd	a0,16(sp)
ffffffff84000a20:	ec2e                	sd	a1,24(sp)
ffffffff84000a22:	0405                	add	s0,s0,1
ffffffff84000a24:	847ff0ef          	jal	ffffffff8400026a <reserve_region>
ffffffff84000a28:	b559                	j	ffffffff840008ae <init_freemem+0x15e>
ffffffff84000a2a:	a99ff0ef          	jal	ffffffff840004c2 <insert_region>
ffffffff84000a2e:	0485                	add	s1,s1,1
ffffffff84000a30:	bdbd                	j	ffffffff840008ae <init_freemem+0x15e>
ffffffff84000a32:	872e                	mv	a4,a1
ffffffff84000a34:	bdb9                	j	ffffffff84000892 <init_freemem+0x142>
ffffffff84000a36:	4e61                	li	t3,24
ffffffff84000a38:	bf0d                	j	ffffffff8400096a <init_freemem+0x21a>
ffffffff84000a3a:	4afbb023          	sd	a5,1184(s7)
ffffffff84000a3e:	0009b503          	ld	a0,0(s3)
ffffffff84000a42:	4705                	li	a4,1
ffffffff84000a44:	171a                	sll	a4,a4,0x26
ffffffff84000a46:	953a                	add	a0,a0,a4
ffffffff84000a48:	00e785b3          	add	a1,a5,a4
ffffffff84000a4c:	f82a                	sd	a0,48(sp)
ffffffff84000a4e:	fc2e                	sd	a1,56(sp)
ffffffff84000a50:	0405                	add	s0,s0,1
ffffffff84000a52:	819ff0ef          	jal	ffffffff8400026a <reserve_region>
ffffffff84000a56:	bda1                	j	ffffffff840008ae <init_freemem+0x15e>
ffffffff84000a58:	982a                	add	a6,a6,a0
ffffffff84000a5a:	5aab3023          	sd	a0,1440(s6)
ffffffff84000a5e:	5b0b3423          	sd	a6,1448(s6)
ffffffff84000a62:	862a                	mv	a2,a0
ffffffff84000a64:	03c96163          	bltu	s2,t3,ffffffff84000a86 <init_freemem+0x336>
ffffffff84000a68:	480b3783          	ld	a5,1152(s6)
ffffffff84000a6c:	ef89                	bnez	a5,ffffffff84000a86 <init_freemem+0x336>
ffffffff84000a6e:	4605                	li	a2,1
ffffffff84000a70:	01261633          	sll	a2,a2,s2
ffffffff84000a74:	87aa                	mv	a5,a0
ffffffff84000a76:	962a                	add	a2,a2,a0
ffffffff84000a78:	0007b023          	sd	zero,0(a5)
ffffffff84000a7c:	07a1                	add	a5,a5,8
ffffffff84000a7e:	fec79de3          	bne	a5,a2,ffffffff84000a78 <init_freemem+0x328>
ffffffff84000a82:	48ab3023          	sd	a0,1152(s6)
ffffffff84000a86:	010006b7          	lui	a3,0x1000
ffffffff84000a8a:	96b2                	add	a3,a3,a2
ffffffff84000a8c:	5adb3023          	sd	a3,1440(s6)
ffffffff84000a90:	87b2                	mv	a5,a2
ffffffff84000a92:	0007b023          	sd	zero,0(a5)
ffffffff84000a96:	07a1                	add	a5,a5,8
ffffffff84000a98:	fed79de3          	bne	a5,a3,ffffffff84000a92 <init_freemem+0x342>
ffffffff84000a9c:	44cb3c23          	sd	a2,1112(s6)
ffffffff84000aa0:	45ad                	li	a1,11
ffffffff84000aa2:	0325f563          	bgeu	a1,s2,ffffffff84000acc <init_freemem+0x37c>
ffffffff84000aa6:	480b3583          	ld	a1,1152(s6)
ffffffff84000aaa:	e18d                	bnez	a1,ffffffff84000acc <init_freemem+0x37c>
ffffffff84000aac:	4305                	li	t1,1
ffffffff84000aae:	01231333          	sll	t1,t1,s2
ffffffff84000ab2:	010005b7          	lui	a1,0x1000
ffffffff84000ab6:	959a                	add	a1,a1,t1
ffffffff84000ab8:	962e                	add	a2,a2,a1
ffffffff84000aba:	933e                	add	t1,t1,a5
ffffffff84000abc:	0007b023          	sd	zero,0(a5)
ffffffff84000ac0:	07a1                	add	a5,a5,8
ffffffff84000ac2:	fec79de3          	bne	a5,a2,ffffffff84000abc <init_freemem+0x36c>
ffffffff84000ac6:	48db3023          	sd	a3,1152(s6)
ffffffff84000aca:	869a                	mv	a3,t1
ffffffff84000acc:	6605                	lui	a2,0x1
ffffffff84000ace:	9636                	add	a2,a2,a3
ffffffff84000ad0:	5acb3023          	sd	a2,1440(s6)
ffffffff84000ad4:	87b6                	mv	a5,a3
ffffffff84000ad6:	0007b023          	sd	zero,0(a5)
ffffffff84000ada:	07a1                	add	a5,a5,8
ffffffff84000adc:	fec79de3          	bne	a5,a2,ffffffff84000ad6 <init_freemem+0x386>
ffffffff84000ae0:	46db3023          	sd	a3,1120(s6)
ffffffff84000ae4:	45ad                	li	a1,11
ffffffff84000ae6:	0325f763          	bgeu	a1,s2,ffffffff84000b14 <init_freemem+0x3c4>
ffffffff84000aea:	480b3583          	ld	a1,1152(s6)
ffffffff84000aee:	e19d                	bnez	a1,ffffffff84000b14 <init_freemem+0x3c4>
ffffffff84000af0:	4585                	li	a1,1
ffffffff84000af2:	012595b3          	sll	a1,a1,s2
ffffffff84000af6:	6e05                	lui	t3,0x1
ffffffff84000af8:	00b78333          	add	t1,a5,a1
ffffffff84000afc:	95f2                	add	a1,a1,t3
ffffffff84000afe:	5a6b3023          	sd	t1,1440(s6)
ffffffff84000b02:	96ae                	add	a3,a3,a1
ffffffff84000b04:	0007b023          	sd	zero,0(a5)
ffffffff84000b08:	07a1                	add	a5,a5,8
ffffffff84000b0a:	fed79de3          	bne	a5,a3,ffffffff84000b04 <init_freemem+0x3b4>
ffffffff84000b0e:	48cb3023          	sd	a2,1152(s6)
ffffffff84000b12:	861a                	mv	a2,t1
ffffffff84000b14:	6585                	lui	a1,0x1
ffffffff84000b16:	95b2                	add	a1,a1,a2
ffffffff84000b18:	87b2                	mv	a5,a2
ffffffff84000b1a:	86ae                	mv	a3,a1
ffffffff84000b1c:	0007b023          	sd	zero,0(a5)
ffffffff84000b20:	07a1                	add	a5,a5,8
ffffffff84000b22:	feb79de3          	bne	a5,a1,ffffffff84000b1c <init_freemem+0x3cc>
ffffffff84000b26:	6309                	lui	t1,0x2
ffffffff84000b28:	9332                	add	t1,t1,a2
ffffffff84000b2a:	46cb3423          	sd	a2,1128(s6)
ffffffff84000b2e:	879a                	mv	a5,t1
ffffffff84000b30:	0006b023          	sd	zero,0(a3) # 1000000 <KERNEL_OFFSET-0xfffffffeff000000>
ffffffff84000b34:	06a1                	add	a3,a3,8
ffffffff84000b36:	fe669de3          	bne	a3,t1,ffffffff84000b30 <init_freemem+0x3e0>
ffffffff84000b3a:	668d                	lui	a3,0x3
ffffffff84000b3c:	46bb3823          	sd	a1,1136(s6)
ffffffff84000b40:	96b2                	add	a3,a3,a2
ffffffff84000b42:	0007b023          	sd	zero,0(a5)
ffffffff84000b46:	07a1                	add	a5,a5,8
ffffffff84000b48:	fed79de3          	bne	a5,a3,ffffffff84000b42 <init_freemem+0x3f2>
ffffffff84000b4c:	658d                	lui	a1,0x3
ffffffff84000b4e:	95c6                	add	a1,a1,a7
ffffffff84000b50:	466b3c23          	sd	t1,1144(s6)
ffffffff84000b54:	962e                	add	a2,a2,a1
ffffffff84000b56:	01178333          	add	t1,a5,a7
ffffffff84000b5a:	00088763          	beqz	a7,ffffffff84000b68 <init_freemem+0x418>
ffffffff84000b5e:	0007b023          	sd	zero,0(a5)
ffffffff84000b62:	07a1                	add	a5,a5,8
ffffffff84000b64:	fec79de3          	bne	a5,a2,ffffffff84000b5e <init_freemem+0x40e>
ffffffff84000b68:	98b6                	add	a7,a7,a3
ffffffff84000b6a:	40030613          	add	a2,t1,1024 # 2400 <KERNEL_OFFSET-0xfffffffeffffdc00>
ffffffff84000b6e:	48db3823          	sd	a3,1168(s6)
ffffffff84000b72:	491b3c23          	sd	a7,1176(s6)
ffffffff84000b76:	5acb3023          	sd	a2,1440(s6)
ffffffff84000b7a:	879a                	mv	a5,t1
ffffffff84000b7c:	0007b023          	sd	zero,0(a5)
ffffffff84000b80:	07a1                	add	a5,a5,8
ffffffff84000b82:	fec79de3          	bne	a5,a2,ffffffff84000b7c <init_freemem+0x42c>
ffffffff84000b86:	03470693          	add	a3,a4,52
ffffffff84000b8a:	0692                	sll	a3,a3,0x4
ffffffff84000b8c:	96da                	add	a3,a3,s6
ffffffff84000b8e:	0017079b          	addw	a5,a4,1
ffffffff84000b92:	03478793          	add	a5,a5,52
ffffffff84000b96:	6a98                	ld	a4,16(a3)
ffffffff84000b98:	0792                	sll	a5,a5,0x4
ffffffff84000b9a:	97da                	add	a5,a5,s6
ffffffff84000b9c:	eb98                	sd	a4,16(a5)
ffffffff84000b9e:	ea88                	sd	a0,16(a3)
ffffffff84000ba0:	486b3423          	sd	t1,1160(s6)
ffffffff84000ba4:	0107b423          	sd	a6,8(a5)
ffffffff84000ba8:	4505                	li	a0,1
ffffffff84000baa:	bed5                	j	ffffffff8400079e <init_freemem+0x4e>
ffffffff84000bac:	4481                	li	s1,0
ffffffff84000bae:	00001b17          	auipc	s6,0x1
ffffffff84000bb2:	28ab0b13          	add	s6,s6,650 # ffffffff84001e38 <ndks_boot>
ffffffff84000bb6:	b311                	j	ffffffff840008ba <init_freemem+0x16a>

ffffffff84000bb8 <map_it_pt_cap>:
ffffffff84000bb8:	715d                	add	sp,sp,-80
ffffffff84000bba:	57fd                	li	a5,-1
ffffffff84000bbc:	02665713          	srl	a4,a2,0x26
ffffffff84000bc0:	fc26                	sd	s1,56(sp)
ffffffff84000bc2:	0197d813          	srl	a6,a5,0x19
ffffffff84000bc6:	e486                	sd	ra,72(sp)
ffffffff84000bc8:	e0a2                	sd	s0,64(sp)
ffffffff84000bca:	f84a                	sd	s2,48(sp)
ffffffff84000bcc:	e82a                	sd	a0,16(sp)
ffffffff84000bce:	ec2e                	sd	a1,24(sp)
ffffffff84000bd0:	e032                	sd	a2,0(sp)
ffffffff84000bd2:	e436                	sd	a3,8(sp)
ffffffff84000bd4:	8b05                	and	a4,a4,1
ffffffff84000bd6:	010674b3          	and	s1,a2,a6
ffffffff84000bda:	c319                	beqz	a4,ffffffff84000be0 <map_it_pt_cap+0x28>
ffffffff84000bdc:	179e                	sll	a5,a5,0x27
ffffffff84000bde:	8cdd                	or	s1,s1,a5
ffffffff84000be0:	65e2                	ld	a1,24(sp)
ffffffff84000be2:	6542                	ld	a0,16(sp)
ffffffff84000be4:	2e1040ef          	jal	ffffffff840056c4 <cap_get_capPtr>
ffffffff84000be8:	65a2                	ld	a1,8(sp)
ffffffff84000bea:	892a                	mv	s2,a0
ffffffff84000bec:	6502                	ld	a0,0(sp)
ffffffff84000bee:	2d7040ef          	jal	ffffffff840056c4 <cap_get_capPtr>
ffffffff84000bf2:	842a                	mv	s0,a0
ffffffff84000bf4:	85a6                	mv	a1,s1
ffffffff84000bf6:	854a                	mv	a0,s2
ffffffff84000bf8:	334030ef          	jal	ffffffff84003f2c <lookupPTSlot>
ffffffff84000bfc:	4785                	li	a5,1
ffffffff84000bfe:	179a                	sll	a5,a5,0x26
ffffffff84000c00:	943e                	add	s0,s0,a5
ffffffff84000c02:	fff007b7          	lui	a5,0xfff00
ffffffff84000c06:	83a9                	srl	a5,a5,0xa
ffffffff84000c08:	8009                	srl	s0,s0,0x2
ffffffff84000c0a:	8c7d                	and	s0,s0,a5
ffffffff84000c0c:	00146413          	or	s0,s0,1
ffffffff84000c10:	f02a                	sd	a0,32(sp)
ffffffff84000c12:	f42e                	sd	a1,40(sp)
ffffffff84000c14:	e100                	sd	s0,0(a0)
ffffffff84000c16:	12000073          	sfence.vma
ffffffff84000c1a:	60a6                	ld	ra,72(sp)
ffffffff84000c1c:	6406                	ld	s0,64(sp)
ffffffff84000c1e:	74e2                	ld	s1,56(sp)
ffffffff84000c20:	7942                	ld	s2,48(sp)
ffffffff84000c22:	6161                	add	sp,sp,80
ffffffff84000c24:	8082                	ret

ffffffff84000c26 <map_it_frame_cap>:
ffffffff84000c26:	715d                	add	sp,sp,-80
ffffffff84000c28:	e436                	sd	a3,8(sp)
ffffffff84000c2a:	e486                	sd	ra,72(sp)
ffffffff84000c2c:	e0a2                	sd	s0,64(sp)
ffffffff84000c2e:	fc26                	sd	s1,56(sp)
ffffffff84000c30:	f84a                	sd	s2,48(sp)
ffffffff84000c32:	84b2                	mv	s1,a2
ffffffff84000c34:	8936                	mv	s2,a3
ffffffff84000c36:	ec2e                	sd	a1,24(sp)
ffffffff84000c38:	e032                	sd	a2,0(sp)
ffffffff84000c3a:	e82a                	sd	a0,16(sp)
ffffffff84000c3c:	289040ef          	jal	ffffffff840056c4 <cap_get_capPtr>
ffffffff84000c40:	87aa                	mv	a5,a0
ffffffff84000c42:	85ca                	mv	a1,s2
ffffffff84000c44:	8526                	mv	a0,s1
ffffffff84000c46:	893e                	mv	s2,a5
ffffffff84000c48:	27d040ef          	jal	ffffffff840056c4 <cap_get_capPtr>
ffffffff84000c4c:	0264d413          	srl	s0,s1,0x26
ffffffff84000c50:	577d                	li	a4,-1
ffffffff84000c52:	01975693          	srl	a3,a4,0x19
ffffffff84000c56:	00147793          	and	a5,s0,1
ffffffff84000c5a:	00d4f5b3          	and	a1,s1,a3
ffffffff84000c5e:	842a                	mv	s0,a0
ffffffff84000c60:	c399                	beqz	a5,ffffffff84000c66 <map_it_frame_cap+0x40>
ffffffff84000c62:	171e                	sll	a4,a4,0x27
ffffffff84000c64:	8dd9                	or	a1,a1,a4
ffffffff84000c66:	854a                	mv	a0,s2
ffffffff84000c68:	2c4030ef          	jal	ffffffff84003f2c <lookupPTSlot>
ffffffff84000c6c:	4785                	li	a5,1
ffffffff84000c6e:	179a                	sll	a5,a5,0x26
ffffffff84000c70:	943e                	add	s0,s0,a5
ffffffff84000c72:	fff007b7          	lui	a5,0xfff00
ffffffff84000c76:	83a9                	srl	a5,a5,0xa
ffffffff84000c78:	8009                	srl	s0,s0,0x2
ffffffff84000c7a:	8c7d                	and	s0,s0,a5
ffffffff84000c7c:	0df46413          	or	s0,s0,223
ffffffff84000c80:	f02a                	sd	a0,32(sp)
ffffffff84000c82:	f42e                	sd	a1,40(sp)
ffffffff84000c84:	e100                	sd	s0,0(a0)
ffffffff84000c86:	12000073          	sfence.vma
ffffffff84000c8a:	60a6                	ld	ra,72(sp)
ffffffff84000c8c:	6406                	ld	s0,64(sp)
ffffffff84000c8e:	74e2                	ld	s1,56(sp)
ffffffff84000c90:	7942                	ld	s2,48(sp)
ffffffff84000c92:	6161                	add	sp,sp,80
ffffffff84000c94:	8082                	ret

ffffffff84000c96 <create_mapped_it_frame_cap>:
ffffffff84000c96:	00f037b3          	snez	a5,a5
ffffffff84000c9a:	06e6                	sll	a3,a3,0x19
ffffffff84000c9c:	82e5                	srl	a3,a3,0x19
ffffffff84000c9e:	17e6                	sll	a5,a5,0x39
ffffffff84000ca0:	715d                	add	sp,sp,-80
ffffffff84000ca2:	8fd5                	or	a5,a5,a3
ffffffff84000ca4:	fe0006b7          	lui	a3,0xfe000
ffffffff84000ca8:	fc26                	sd	s1,56(sp)
ffffffff84000caa:	82c1                	srl	a3,a3,0x10
ffffffff84000cac:	00961493          	sll	s1,a2,0x9
ffffffff84000cb0:	8cf5                	and	s1,s1,a3
ffffffff84000cb2:	46cd                	li	a3,19
ffffffff84000cb4:	1742                	sll	a4,a4,0x30
ffffffff84000cb6:	16de                	sll	a3,a3,0x37
ffffffff84000cb8:	e0a2                	sd	s0,64(sp)
ffffffff84000cba:	8cd9                	or	s1,s1,a4
ffffffff84000cbc:	00d7e433          	or	s0,a5,a3
ffffffff84000cc0:	8622                	mv	a2,s0
ffffffff84000cc2:	86a6                	mv	a3,s1
ffffffff84000cc4:	e486                	sd	ra,72(sp)
ffffffff84000cc6:	f61ff0ef          	jal	ffffffff84000c26 <map_it_frame_cap>
ffffffff84000cca:	60a6                	ld	ra,72(sp)
ffffffff84000ccc:	8522                	mv	a0,s0
ffffffff84000cce:	6406                	ld	s0,64(sp)
ffffffff84000cd0:	85a6                	mv	a1,s1
ffffffff84000cd2:	74e2                	ld	s1,56(sp)
ffffffff84000cd4:	6161                	add	sp,sp,80
ffffffff84000cd6:	8082                	ret

ffffffff84000cd8 <write_it_asid_pool>:
ffffffff84000cd8:	7139                	add	sp,sp,-64
ffffffff84000cda:	fc06                	sd	ra,56(sp)
ffffffff84000cdc:	f822                	sd	s0,48(sp)
ffffffff84000cde:	f426                	sd	s1,40(sp)
ffffffff84000ce0:	f04a                	sd	s2,32(sp)
ffffffff84000ce2:	84b2                	mv	s1,a2
ffffffff84000ce4:	8936                	mv	s2,a3
ffffffff84000ce6:	1df040ef          	jal	ffffffff840056c4 <cap_get_capPtr>
ffffffff84000cea:	842a                	mv	s0,a0
ffffffff84000cec:	85ca                	mv	a1,s2
ffffffff84000cee:	8526                	mv	a0,s1
ffffffff84000cf0:	1d5040ef          	jal	ffffffff840056c4 <cap_get_capPtr>
ffffffff84000cf4:	70e2                	ld	ra,56(sp)
ffffffff84000cf6:	e408                	sd	a0,8(s0)
ffffffff84000cf8:	d881b423          	sd	s0,-632(gp) # ffffffff8400b038 <riscvKSASIDTable>
ffffffff84000cfc:	7442                	ld	s0,48(sp)
ffffffff84000cfe:	74a2                	ld	s1,40(sp)
ffffffff84000d00:	7902                	ld	s2,32(sp)
ffffffff84000d02:	6121                	add	sp,sp,64
ffffffff84000d04:	8082                	ret

ffffffff84000d06 <create_domain_cap>:
ffffffff84000d06:	1101                	add	sp,sp,-32
ffffffff84000d08:	ec06                	sd	ra,24(sp)
ffffffff84000d0a:	1bb040ef          	jal	ffffffff840056c4 <cap_get_capPtr>
ffffffff84000d0e:	57f5                	li	a5,-3
ffffffff84000d10:	60e2                	ld	ra,24(sp)
ffffffff84000d12:	17f6                	sll	a5,a5,0x3d
ffffffff84000d14:	16f53023          	sd	a5,352(a0) # ffffffffffe00160 <ki_end+0x7bdde160>
ffffffff84000d18:	478d                	li	a5,3
ffffffff84000d1a:	16053423          	sd	zero,360(a0)
ffffffff84000d1e:	16053823          	sd	zero,368(a0)
ffffffff84000d22:	16f53c23          	sd	a5,376(a0)
ffffffff84000d26:	6105                	add	sp,sp,32
ffffffff84000d28:	8082                	ret

ffffffff84000d2a <create_bi_frame_cap>:
ffffffff84000d2a:	711d                	add	sp,sp,-96
ffffffff84000d2c:	e8a2                	sd	s0,80(sp)
ffffffff84000d2e:	fe0007b7          	lui	a5,0xfe000
ffffffff84000d32:	00001417          	auipc	s0,0x1
ffffffff84000d36:	57e43403          	ld	s0,1406(s0) # ffffffff840022b0 <rootserver+0x20>
ffffffff84000d3a:	83c1                	srl	a5,a5,0x10
ffffffff84000d3c:	0426                	sll	s0,s0,0x9
ffffffff84000d3e:	e4a6                	sd	s1,72(sp)
ffffffff84000d40:	8c7d                	and	s0,s0,a5
ffffffff84000d42:	01971493          	sll	s1,a4,0x19
ffffffff84000d46:	47cd                	li	a5,19
ffffffff84000d48:	17de                	sll	a5,a5,0x37
ffffffff84000d4a:	80e5                	srl	s1,s1,0x19
ffffffff84000d4c:	8cdd                	or	s1,s1,a5
ffffffff84000d4e:	4785                	li	a5,1
ffffffff84000d50:	17c2                	sll	a5,a5,0x30
ffffffff84000d52:	8c5d                	or	s0,s0,a5
ffffffff84000d54:	8732                	mv	a4,a2
ffffffff84000d56:	87b6                	mv	a5,a3
ffffffff84000d58:	e82a                	sd	a0,16(sp)
ffffffff84000d5a:	ec2e                	sd	a1,24(sp)
ffffffff84000d5c:	8626                	mv	a2,s1
ffffffff84000d5e:	85be                	mv	a1,a5
ffffffff84000d60:	86a2                	mv	a3,s0
ffffffff84000d62:	853a                	mv	a0,a4
ffffffff84000d64:	ec86                	sd	ra,88(sp)
ffffffff84000d66:	ec1ff0ef          	jal	ffffffff84000c26 <map_it_frame_cap>
ffffffff84000d6a:	6542                	ld	a0,16(sp)
ffffffff84000d6c:	65e2                	ld	a1,24(sp)
ffffffff84000d6e:	157040ef          	jal	ffffffff840056c4 <cap_get_capPtr>
ffffffff84000d72:	60e6                	ld	ra,88(sp)
ffffffff84000d74:	12853423          	sd	s0,296(a0)
ffffffff84000d78:	6446                	ld	s0,80(sp)
ffffffff84000d7a:	478d                	li	a5,3
ffffffff84000d7c:	12953023          	sd	s1,288(a0)
ffffffff84000d80:	12053823          	sd	zero,304(a0)
ffffffff84000d84:	12f53c23          	sd	a5,312(a0)
ffffffff84000d88:	64a6                	ld	s1,72(sp)
ffffffff84000d8a:	6125                	add	sp,sp,96
ffffffff84000d8c:	8082                	ret

ffffffff84000d8e <provide_cap>:
ffffffff84000d8e:	7139                	add	sp,sp,-64
ffffffff84000d90:	f426                	sd	s1,40(sp)
ffffffff84000d92:	00001497          	auipc	s1,0x1
ffffffff84000d96:	0a648493          	add	s1,s1,166 # ffffffff84001e38 <ndks_boot>
ffffffff84000d9a:	f822                	sd	s0,48(sp)
ffffffff84000d9c:	4504b403          	ld	s0,1104(s1)
ffffffff84000da0:	fc06                	sd	ra,56(sp)
ffffffff84000da2:	e032                	sd	a2,0(sp)
ffffffff84000da4:	e436                	sd	a3,8(sp)
ffffffff84000da6:	000807b7          	lui	a5,0x80
ffffffff84000daa:	02f47863          	bgeu	s0,a5,ffffffff84000dda <provide_cap+0x4c>
ffffffff84000dae:	117040ef          	jal	ffffffff840056c4 <cap_get_capPtr>
ffffffff84000db2:	00541793          	sll	a5,s0,0x5
ffffffff84000db6:	953e                	add	a0,a0,a5
ffffffff84000db8:	6782                	ld	a5,0(sp)
ffffffff84000dba:	00053823          	sd	zero,16(a0)
ffffffff84000dbe:	0405                	add	s0,s0,1
ffffffff84000dc0:	e11c                	sd	a5,0(a0)
ffffffff84000dc2:	67a2                	ld	a5,8(sp)
ffffffff84000dc4:	70e2                	ld	ra,56(sp)
ffffffff84000dc6:	e51c                	sd	a5,8(a0)
ffffffff84000dc8:	478d                	li	a5,3
ffffffff84000dca:	ed1c                	sd	a5,24(a0)
ffffffff84000dcc:	4484b823          	sd	s0,1104(s1)
ffffffff84000dd0:	7442                	ld	s0,48(sp)
ffffffff84000dd2:	74a2                	ld	s1,40(sp)
ffffffff84000dd4:	4505                	li	a0,1
ffffffff84000dd6:	6121                	add	sp,sp,64
ffffffff84000dd8:	8082                	ret
ffffffff84000dda:	70e2                	ld	ra,56(sp)
ffffffff84000ddc:	7442                	ld	s0,48(sp)
ffffffff84000dde:	74a2                	ld	s1,40(sp)
ffffffff84000de0:	4501                	li	a0,0
ffffffff84000de2:	6121                	add	sp,sp,64
ffffffff84000de4:	8082                	ret

ffffffff84000de6 <create_it_asid_pool>:
ffffffff84000de6:	7179                	add	sp,sp,-48
ffffffff84000de8:	f022                	sd	s0,32(sp)
ffffffff84000dea:	00001417          	auipc	s0,0x1
ffffffff84000dee:	4b643403          	ld	s0,1206(s0) # ffffffff840022a0 <rootserver+0x10>
ffffffff84000df2:	0466                	sll	s0,s0,0x19
ffffffff84000df4:	47b5                	li	a5,13
ffffffff84000df6:	17ee                	sll	a5,a5,0x3b
ffffffff84000df8:	806d                	srl	s0,s0,0x1b
ffffffff84000dfa:	f406                	sd	ra,40(sp)
ffffffff84000dfc:	8c5d                	or	s0,s0,a5
ffffffff84000dfe:	0c7040ef          	jal	ffffffff840056c4 <cap_get_capPtr>
ffffffff84000e02:	47ad                	li	a5,11
ffffffff84000e04:	470d                	li	a4,3
ffffffff84000e06:	17ee                	sll	a5,a5,0x3b
ffffffff84000e08:	e160                	sd	s0,192(a0)
ffffffff84000e0a:	70a2                	ld	ra,40(sp)
ffffffff84000e0c:	0c053423          	sd	zero,200(a0)
ffffffff84000e10:	0c053823          	sd	zero,208(a0)
ffffffff84000e14:	ed78                	sd	a4,216(a0)
ffffffff84000e16:	f15c                	sd	a5,160(a0)
ffffffff84000e18:	0a053423          	sd	zero,168(a0)
ffffffff84000e1c:	0a053823          	sd	zero,176(a0)
ffffffff84000e20:	fd58                	sd	a4,184(a0)
ffffffff84000e22:	8522                	mv	a0,s0
ffffffff84000e24:	7402                	ld	s0,32(sp)
ffffffff84000e26:	4581                	li	a1,0
ffffffff84000e28:	6145                	add	sp,sp,48
ffffffff84000e2a:	8082                	ret

ffffffff84000e2c <create_ipcbuf_frame_cap>:
ffffffff84000e2c:	00001817          	auipc	a6,0x1
ffffffff84000e30:	00c80813          	add	a6,a6,12 # ffffffff84001e38 <ndks_boot>
ffffffff84000e34:	47083783          	ld	a5,1136(a6)
ffffffff84000e38:	711d                	add	sp,sp,-96
ffffffff84000e3a:	e436                	sd	a3,8(sp)
ffffffff84000e3c:	6685                	lui	a3,0x1
ffffffff84000e3e:	ec86                	sd	ra,88(sp)
ffffffff84000e40:	e8a2                	sd	s0,80(sp)
ffffffff84000e42:	e4a6                	sd	s1,72(sp)
ffffffff84000e44:	e82a                	sd	a0,16(sp)
ffffffff84000e46:	ec2e                	sd	a1,24(sp)
ffffffff84000e48:	e032                	sd	a2,0(sp)
ffffffff84000e4a:	96be                	add	a3,a3,a5
ffffffff84000e4c:	0007b023          	sd	zero,0(a5) # 80000 <KERNEL_OFFSET-0xfffffffefff80000>
ffffffff84000e50:	07a1                	add	a5,a5,8
ffffffff84000e52:	fed79de3          	bne	a5,a3,ffffffff84000e4c <create_ipcbuf_frame_cap+0x20>
ffffffff84000e56:	47083483          	ld	s1,1136(a6)
ffffffff84000e5a:	fe0007b7          	lui	a5,0xfe000
ffffffff84000e5e:	83c1                	srl	a5,a5,0x10
ffffffff84000e60:	04a6                	sll	s1,s1,0x9
ffffffff84000e62:	01971413          	sll	s0,a4,0x19
ffffffff84000e66:	8cfd                	and	s1,s1,a5
ffffffff84000e68:	47cd                	li	a5,19
ffffffff84000e6a:	17de                	sll	a5,a5,0x37
ffffffff84000e6c:	8065                	srl	s0,s0,0x19
ffffffff84000e6e:	8c5d                	or	s0,s0,a5
ffffffff84000e70:	4785                	li	a5,1
ffffffff84000e72:	6502                	ld	a0,0(sp)
ffffffff84000e74:	65a2                	ld	a1,8(sp)
ffffffff84000e76:	17c2                	sll	a5,a5,0x30
ffffffff84000e78:	8cdd                	or	s1,s1,a5
ffffffff84000e7a:	8622                	mv	a2,s0
ffffffff84000e7c:	86a6                	mv	a3,s1
ffffffff84000e7e:	f02a                	sd	a0,32(sp)
ffffffff84000e80:	f42e                	sd	a1,40(sp)
ffffffff84000e82:	da5ff0ef          	jal	ffffffff84000c26 <map_it_frame_cap>
ffffffff84000e86:	65e2                	ld	a1,24(sp)
ffffffff84000e88:	6542                	ld	a0,16(sp)
ffffffff84000e8a:	03b040ef          	jal	ffffffff840056c4 <cap_get_capPtr>
ffffffff84000e8e:	478d                	li	a5,3
ffffffff84000e90:	14853023          	sd	s0,320(a0)
ffffffff84000e94:	14953423          	sd	s1,328(a0)
ffffffff84000e98:	60e6                	ld	ra,88(sp)
ffffffff84000e9a:	14053823          	sd	zero,336(a0)
ffffffff84000e9e:	14f53c23          	sd	a5,344(a0)
ffffffff84000ea2:	8522                	mv	a0,s0
ffffffff84000ea4:	6446                	ld	s0,80(sp)
ffffffff84000ea6:	85a6                	mv	a1,s1
ffffffff84000ea8:	64a6                	ld	s1,72(sp)
ffffffff84000eaa:	6125                	add	sp,sp,96
ffffffff84000eac:	8082                	ret

ffffffff84000eae <create_frames_of_region>:
ffffffff84000eae:	7155                	add	sp,sp,-208
ffffffff84000eb0:	e1a2                	sd	s0,192(sp)
ffffffff84000eb2:	fce6                	sd	s9,120(sp)
ffffffff84000eb4:	00001417          	auipc	s0,0x1
ffffffff84000eb8:	f8440413          	add	s0,s0,-124 # ffffffff84001e38 <ndks_boot>
ffffffff84000ebc:	e586                	sd	ra,200(sp)
ffffffff84000ebe:	fd26                	sd	s1,184(sp)
ffffffff84000ec0:	f94a                	sd	s2,176(sp)
ffffffff84000ec2:	f54e                	sd	s3,168(sp)
ffffffff84000ec4:	f152                	sd	s4,160(sp)
ffffffff84000ec6:	ed56                	sd	s5,152(sp)
ffffffff84000ec8:	e95a                	sd	s6,144(sp)
ffffffff84000eca:	e55e                	sd	s7,136(sp)
ffffffff84000ecc:	e162                	sd	s8,128(sp)
ffffffff84000ece:	f8ea                	sd	s10,112(sp)
ffffffff84000ed0:	f4ee                	sd	s11,104(sp)
ffffffff84000ed2:	f82e                	sd	a1,48(sp)
ffffffff84000ed4:	fc32                	sd	a2,56(sp)
ffffffff84000ed6:	f036                	sd	a3,32(sp)
ffffffff84000ed8:	f43a                	sd	a4,40(sp)
ffffffff84000eda:	e42a                	sd	a0,8(sp)
ffffffff84000edc:	45043c83          	ld	s9,1104(s0)
ffffffff84000ee0:	0d07f863          	bgeu	a5,a6,ffffffff84000fb0 <create_frames_of_region+0x102>
ffffffff84000ee4:	674e                	ld	a4,208(sp)
ffffffff84000ee6:	4485                	li	s1,1
ffffffff84000ee8:	4b4d                	li	s6,19
ffffffff84000eea:	8abe                	mv	s5,a5
ffffffff84000eec:	02649c13          	sll	s8,s1,0x26
ffffffff84000ef0:	fe000a37          	lui	s4,0xfe000
ffffffff84000ef4:	5bfd                	li	s7,-1
ffffffff84000ef6:	037b1793          	sll	a5,s6,0x37
ffffffff84000efa:	8942                	mv	s2,a6
ffffffff84000efc:	89c6                	mv	s3,a7
ffffffff84000efe:	010a5a13          	srl	s4,s4,0x10
ffffffff84000f02:	40ec0c33          	sub	s8,s8,a4
ffffffff84000f06:	019bdb93          	srl	s7,s7,0x19
ffffffff84000f0a:	e03e                	sd	a5,0(sp)
ffffffff84000f0c:	a02d                	j	ffffffff84000f36 <create_frames_of_region+0x88>
ffffffff84000f0e:	7b6040ef          	jal	ffffffff840056c4 <cap_get_capPtr>
ffffffff84000f12:	005d9713          	sll	a4,s11,0x5
ffffffff84000f16:	953a                	add	a0,a0,a4
ffffffff84000f18:	470d                	li	a4,3
ffffffff84000f1a:	ed18                	sd	a4,24(a0)
ffffffff84000f1c:	01a53023          	sd	s10,0(a0)
ffffffff84000f20:	01653423          	sd	s6,8(a0)
ffffffff84000f24:	00053823          	sd	zero,16(a0)
ffffffff84000f28:	0d85                	add	s11,s11,1
ffffffff84000f2a:	6705                	lui	a4,0x1
ffffffff84000f2c:	45b43823          	sd	s11,1104(s0)
ffffffff84000f30:	9aba                	add	s5,s5,a4
ffffffff84000f32:	092af063          	bgeu	s5,s2,ffffffff84000fb2 <create_frames_of_region+0x104>
ffffffff84000f36:	009a9693          	sll	a3,s5,0x9
ffffffff84000f3a:	0146fb33          	and	s6,a3,s4
ffffffff84000f3e:	03b49d13          	sll	s10,s1,0x3b
ffffffff84000f42:	04099363          	bnez	s3,ffffffff84000f88 <create_frames_of_region+0xda>
ffffffff84000f46:	45043d83          	ld	s11,1104(s0)
ffffffff84000f4a:	00080737          	lui	a4,0x80
ffffffff84000f4e:	7542                	ld	a0,48(sp)
ffffffff84000f50:	75e2                	ld	a1,56(sp)
ffffffff84000f52:	faedeee3          	bltu	s11,a4,ffffffff84000f0e <create_frames_of_region+0x60>
ffffffff84000f56:	4c81                	li	s9,0
ffffffff84000f58:	4d81                	li	s11,0
ffffffff84000f5a:	4781                	li	a5,0
ffffffff84000f5c:	6722                	ld	a4,8(sp)
ffffffff84000f5e:	60ae                	ld	ra,200(sp)
ffffffff84000f60:	640e                	ld	s0,192(sp)
ffffffff84000f62:	01973023          	sd	s9,0(a4) # 80000 <KERNEL_OFFSET-0xfffffffefff80000>
ffffffff84000f66:	01b73423          	sd	s11,8(a4)
ffffffff84000f6a:	eb1c                	sd	a5,16(a4)
ffffffff84000f6c:	74ea                	ld	s1,184(sp)
ffffffff84000f6e:	794a                	ld	s2,176(sp)
ffffffff84000f70:	79aa                	ld	s3,168(sp)
ffffffff84000f72:	7a0a                	ld	s4,160(sp)
ffffffff84000f74:	6aea                	ld	s5,152(sp)
ffffffff84000f76:	6b4a                	ld	s6,144(sp)
ffffffff84000f78:	6baa                	ld	s7,136(sp)
ffffffff84000f7a:	6c0a                	ld	s8,128(sp)
ffffffff84000f7c:	7ce6                	ld	s9,120(sp)
ffffffff84000f7e:	7d46                	ld	s10,112(sp)
ffffffff84000f80:	7da6                	ld	s11,104(sp)
ffffffff84000f82:	853a                	mv	a0,a4
ffffffff84000f84:	6169                	add	sp,sp,208
ffffffff84000f86:	8082                	ret
ffffffff84000f88:	6782                	ld	a5,0(sp)
ffffffff84000f8a:	015c0d33          	add	s10,s8,s5
ffffffff84000f8e:	7502                	ld	a0,32(sp)
ffffffff84000f90:	75a2                	ld	a1,40(sp)
ffffffff84000f92:	017d7d33          	and	s10,s10,s7
ffffffff84000f96:	03049713          	sll	a4,s1,0x30
ffffffff84000f9a:	00fd6d33          	or	s10,s10,a5
ffffffff84000f9e:	00eb6b33          	or	s6,s6,a4
ffffffff84000fa2:	866a                	mv	a2,s10
ffffffff84000fa4:	86da                	mv	a3,s6
ffffffff84000fa6:	e8aa                	sd	a0,80(sp)
ffffffff84000fa8:	ecae                	sd	a1,88(sp)
ffffffff84000faa:	c7dff0ef          	jal	ffffffff84000c26 <map_it_frame_cap>
ffffffff84000fae:	bf61                	j	ffffffff84000f46 <create_frames_of_region+0x98>
ffffffff84000fb0:	8de6                	mv	s11,s9
ffffffff84000fb2:	4785                	li	a5,1
ffffffff84000fb4:	b765                	j	ffffffff84000f5c <create_frames_of_region+0xae>

ffffffff84000fb6 <create_it_address_space>:
ffffffff84000fb6:	7155                	add	sp,sp,-208
ffffffff84000fb8:	f8ea                	sd	s10,112(sp)
ffffffff84000fba:	00001d17          	auipc	s10,0x1
ffffffff84000fbe:	e7ed0d13          	add	s10,s10,-386 # ffffffff84001e38 <ndks_boot>
ffffffff84000fc2:	460d3883          	ld	a7,1120(s10)
ffffffff84000fc6:	f032                	sd	a2,32(sp)
ffffffff84000fc8:	00020617          	auipc	a2,0x20
ffffffff84000fcc:	03860613          	add	a2,a2,56 # ffffffff84021000 <kernel_root_pageTable>
ffffffff84000fd0:	ed56                	sd	s5,152(sp)
ffffffff84000fd2:	fc2e                	sd	a1,56(sp)
ffffffff84000fd4:	e586                	sd	ra,200(sp)
ffffffff84000fd6:	e1a2                	sd	s0,192(sp)
ffffffff84000fd8:	fd26                	sd	s1,184(sp)
ffffffff84000fda:	f94a                	sd	s2,176(sp)
ffffffff84000fdc:	f54e                	sd	s3,168(sp)
ffffffff84000fde:	f152                	sd	s4,160(sp)
ffffffff84000fe0:	e95a                	sd	s6,144(sp)
ffffffff84000fe2:	e55e                	sd	s7,136(sp)
ffffffff84000fe4:	e162                	sd	s8,128(sp)
ffffffff84000fe6:	fce6                	sd	s9,120(sp)
ffffffff84000fe8:	f4ee                	sd	s11,104(sp)
ffffffff84000fea:	f82a                	sd	a0,48(sp)
ffffffff84000fec:	8ab6                	mv	s5,a3
ffffffff84000fee:	00021797          	auipc	a5,0x21
ffffffff84000ff2:	81278793          	add	a5,a5,-2030 # ffffffff84021800 <kernel_root_pageTable+0x800>
ffffffff84000ff6:	00021597          	auipc	a1,0x21
ffffffff84000ffa:	00a58593          	add	a1,a1,10 # ffffffff84022000 <ki_end>
ffffffff84000ffe:	40c88633          	sub	a2,a7,a2
ffffffff84001002:	6394                	ld	a3,0(a5)
ffffffff84001004:	00f60733          	add	a4,a2,a5
ffffffff84001008:	07a1                	add	a5,a5,8
ffffffff8400100a:	e314                	sd	a3,0(a4)
ffffffff8400100c:	fef59be3          	bne	a1,a5,ffffffff84001002 <create_it_address_space+0x4c>
ffffffff84001010:	003007b7          	lui	a5,0x300
ffffffff84001014:	01989993          	sll	s3,a7,0x19
ffffffff84001018:	0785                	add	a5,a5,1 # 300001 <KERNEL_OFFSET-0xfffffffeffcfffff>
ffffffff8400101a:	179e                	sll	a5,a5,0x27
ffffffff8400101c:	7542                	ld	a0,48(sp)
ffffffff8400101e:	75e2                	ld	a1,56(sp)
ffffffff84001020:	0199d993          	srl	s3,s3,0x19
ffffffff84001024:	fe000737          	lui	a4,0xfe000
ffffffff84001028:	00989913          	sll	s2,a7,0x9
ffffffff8400102c:	8341                	srl	a4,a4,0x10
ffffffff8400102e:	00f9e9b3          	or	s3,s3,a5
ffffffff84001032:	4785                	li	a5,1
ffffffff84001034:	17c2                	sll	a5,a5,0x30
ffffffff84001036:	00e97933          	and	s2,s2,a4
ffffffff8400103a:	00f96933          	or	s2,s2,a5
ffffffff8400103e:	686040ef          	jal	ffffffff840056c4 <cap_get_capPtr>
ffffffff84001042:	450d3783          	ld	a5,1104(s10)
ffffffff84001046:	07353023          	sd	s3,96(a0)
ffffffff8400104a:	07253423          	sd	s2,104(a0)
ffffffff8400104e:	ec3e                	sd	a5,24(sp)
ffffffff84001050:	7782                	ld	a5,32(sp)
ffffffff84001052:	06053823          	sd	zero,112(a0)
ffffffff84001056:	e83e                	sd	a5,16(sp)
ffffffff84001058:	478d                	li	a5,3
ffffffff8400105a:	fd3c                	sd	a5,120(a0)
ffffffff8400105c:	47f9                	li	a5,30
ffffffff8400105e:	e43e                	sd	a5,8(sp)
ffffffff84001060:	67a2                	ld	a5,8(sp)
ffffffff84001062:	6742                	ld	a4,16(sp)
ffffffff84001064:	00f75733          	srl	a4,a4,a5
ffffffff84001068:	00f71db3          	sll	s11,a4,a5
ffffffff8400106c:	4705                	li	a4,1
ffffffff8400106e:	00f71cb3          	sll	s9,a4,a5
ffffffff84001072:	0b5df763          	bgeu	s11,s5,ffffffff84001120 <create_it_address_space+0x16a>
ffffffff84001076:	00300a37          	lui	s4,0x300
ffffffff8400107a:	0a05                	add	s4,s4,1 # 300001 <KERNEL_OFFSET-0xfffffffeffcfffff>
ffffffff8400107c:	5c7d                	li	s8,-1
ffffffff8400107e:	027a1793          	sll	a5,s4,0x27
ffffffff84001082:	fe000bb7          	lui	s7,0xfe000
ffffffff84001086:	4b05                	li	s6,1
ffffffff84001088:	019c5c13          	srl	s8,s8,0x19
ffffffff8400108c:	e03e                	sd	a5,0(sp)
ffffffff8400108e:	010bdb93          	srl	s7,s7,0x10
ffffffff84001092:	1b42                	sll	s6,s6,0x30
ffffffff84001094:	a015                	j	ffffffff840010b8 <create_it_address_space+0x102>
ffffffff84001096:	62e040ef          	jal	ffffffff840056c4 <cap_get_capPtr>
ffffffff8400109a:	005a1693          	sll	a3,s4,0x5
ffffffff8400109e:	9536                	add	a0,a0,a3
ffffffff840010a0:	478d                	li	a5,3
ffffffff840010a2:	ed1c                	sd	a5,24(a0)
ffffffff840010a4:	e104                	sd	s1,0(a0)
ffffffff840010a6:	e500                	sd	s0,8(a0)
ffffffff840010a8:	00053823          	sd	zero,16(a0)
ffffffff840010ac:	001a0793          	add	a5,s4,1
ffffffff840010b0:	44fd3823          	sd	a5,1104(s10)
ffffffff840010b4:	075df663          	bgeu	s11,s5,ffffffff84001120 <create_it_address_space+0x16a>
ffffffff840010b8:	490d3783          	ld	a5,1168(s10)
ffffffff840010bc:	6702                	ld	a4,0(sp)
ffffffff840010be:	018df4b3          	and	s1,s11,s8
ffffffff840010c2:	00979413          	sll	s0,a5,0x9
ffffffff840010c6:	01747433          	and	s0,s0,s7
ffffffff840010ca:	8cd9                	or	s1,s1,a4
ffffffff840010cc:	01646433          	or	s0,s0,s6
ffffffff840010d0:	6705                	lui	a4,0x1
ffffffff840010d2:	97ba                	add	a5,a5,a4
ffffffff840010d4:	854e                	mv	a0,s3
ffffffff840010d6:	85ca                	mv	a1,s2
ffffffff840010d8:	8626                	mv	a2,s1
ffffffff840010da:	86a2                	mv	a3,s0
ffffffff840010dc:	48fd3823          	sd	a5,1168(s10)
ffffffff840010e0:	e0ce                	sd	s3,64(sp)
ffffffff840010e2:	e4ca                	sd	s2,72(sp)
ffffffff840010e4:	ad5ff0ef          	jal	ffffffff84000bb8 <map_it_pt_cap>
ffffffff840010e8:	450d3a03          	ld	s4,1104(s10)
ffffffff840010ec:	000807b7          	lui	a5,0x80
ffffffff840010f0:	7542                	ld	a0,48(sp)
ffffffff840010f2:	75e2                	ld	a1,56(sp)
ffffffff840010f4:	9de6                	add	s11,s11,s9
ffffffff840010f6:	fafa60e3          	bltu	s4,a5,ffffffff84001096 <create_it_address_space+0xe0>
ffffffff840010fa:	e082                	sd	zero,64(sp)
ffffffff840010fc:	e482                	sd	zero,72(sp)
ffffffff840010fe:	60ae                	ld	ra,200(sp)
ffffffff84001100:	640e                	ld	s0,192(sp)
ffffffff84001102:	6506                	ld	a0,64(sp)
ffffffff84001104:	65a6                	ld	a1,72(sp)
ffffffff84001106:	74ea                	ld	s1,184(sp)
ffffffff84001108:	794a                	ld	s2,176(sp)
ffffffff8400110a:	79aa                	ld	s3,168(sp)
ffffffff8400110c:	7a0a                	ld	s4,160(sp)
ffffffff8400110e:	6aea                	ld	s5,152(sp)
ffffffff84001110:	6b4a                	ld	s6,144(sp)
ffffffff84001112:	6baa                	ld	s7,136(sp)
ffffffff84001114:	6c0a                	ld	s8,128(sp)
ffffffff84001116:	7ce6                	ld	s9,120(sp)
ffffffff84001118:	7d46                	ld	s10,112(sp)
ffffffff8400111a:	7da6                	ld	s11,104(sp)
ffffffff8400111c:	6169                	add	sp,sp,208
ffffffff8400111e:	8082                	ret
ffffffff84001120:	6722                	ld	a4,8(sp)
ffffffff84001122:	47d5                	li	a5,21
ffffffff84001124:	00f70563          	beq	a4,a5,ffffffff8400112e <create_it_address_space+0x178>
ffffffff84001128:	47d5                	li	a5,21
ffffffff8400112a:	e43e                	sd	a5,8(sp)
ffffffff8400112c:	bf15                	j	ffffffff84001060 <create_it_address_space+0xaa>
ffffffff8400112e:	450d3703          	ld	a4,1104(s10)
ffffffff84001132:	448d3783          	ld	a5,1096(s10)
ffffffff84001136:	66e2                	ld	a3,24(sp)
ffffffff84001138:	e0ce                	sd	s3,64(sp)
ffffffff8400113a:	e4ca                	sd	s2,72(sp)
ffffffff8400113c:	efb4                	sd	a3,88(a5)
ffffffff8400113e:	f3b8                	sd	a4,96(a5)
ffffffff84001140:	bf7d                	j	ffffffff840010fe <create_it_address_space+0x148>

ffffffff84001142 <create_untypeds_for_region>:
ffffffff84001142:	7155                	add	sp,sp,-208
ffffffff84001144:	f94a                	sd	s2,176(sp)
ffffffff84001146:	e586                	sd	ra,200(sp)
ffffffff84001148:	e1a2                	sd	s0,192(sp)
ffffffff8400114a:	fd26                	sd	s1,184(sp)
ffffffff8400114c:	f54e                	sd	s3,168(sp)
ffffffff8400114e:	f152                	sd	s4,160(sp)
ffffffff84001150:	ed56                	sd	s5,152(sp)
ffffffff84001152:	e95a                	sd	s6,144(sp)
ffffffff84001154:	e55e                	sd	s7,136(sp)
ffffffff84001156:	e162                	sd	s8,128(sp)
ffffffff84001158:	fce6                	sd	s9,120(sp)
ffffffff8400115a:	f8ea                	sd	s10,112(sp)
ffffffff8400115c:	f4ee                	sd	s11,104(sp)
ffffffff8400115e:	893a                	mv	s2,a4
ffffffff84001160:	12e68c63          	beq	a3,a4,ffffffff84001298 <create_untypeds_for_region+0x156>
ffffffff84001164:	4a05                	li	s4,1
ffffffff84001166:	69c1                	lui	s3,0x10
ffffffff84001168:	5dfd                	li	s11,-1
ffffffff8400116a:	84b6                	mv	s1,a3
ffffffff8400116c:	8d32                	mv	s10,a2
ffffffff8400116e:	872a                	mv	a4,a0
ffffffff84001170:	020a1b13          	sll	s6,s4,0x20
ffffffff84001174:	02600a93          	li	s5,38
ffffffff84001178:	4b8d                	li	s7,3
ffffffff8400117a:	00001697          	auipc	a3,0x1
ffffffff8400117e:	cbe68693          	add	a3,a3,-834 # ffffffff84001e38 <ndks_boot>
ffffffff84001182:	03100613          	li	a2,49
ffffffff84001186:	020ddc93          	srl	s9,s11,0x20
ffffffff8400118a:	fff98c13          	add	s8,s3,-1 # ffff <KERNEL_OFFSET-0xfffffffeffff0001>
ffffffff8400118e:	40990533          	sub	a0,s2,s1
ffffffff84001192:	01653833          	sltu	a6,a0,s6
ffffffff84001196:	00184813          	xor	a6,a6,1
ffffffff8400119a:	0058181b          	sllw	a6,a6,0x5
ffffffff8400119e:	01055533          	srl	a0,a0,a6
ffffffff840011a2:	01353e33          	sltu	t3,a0,s3
ffffffff840011a6:	001e4e13          	xor	t3,t3,1
ffffffff840011aa:	004e1e1b          	sllw	t3,t3,0x4
ffffffff840011ae:	01c55533          	srl	a0,a0,t3
ffffffff840011b2:	10053313          	sltiu	t1,a0,256
ffffffff840011b6:	00134313          	xor	t1,t1,1
ffffffff840011ba:	0033131b          	sllw	t1,t1,0x3
ffffffff840011be:	00655533          	srl	a0,a0,t1
ffffffff840011c2:	01053893          	sltiu	a7,a0,16
ffffffff840011c6:	0018c893          	xor	a7,a7,1
ffffffff840011ca:	0028989b          	sllw	a7,a7,0x2
ffffffff840011ce:	01155533          	srl	a0,a0,a7
ffffffff840011d2:	00453e93          	sltiu	t4,a0,4
ffffffff840011d6:	fff8041b          	addw	s0,a6,-1
ffffffff840011da:	001ece93          	xor	t4,t4,1
ffffffff840011de:	001e981b          	sllw	a6,t4,0x1
ffffffff840011e2:	01c4043b          	addw	s0,s0,t3
ffffffff840011e6:	01055533          	srl	a0,a0,a6
ffffffff840011ea:	0064043b          	addw	s0,s0,t1
ffffffff840011ee:	0114043b          	addw	s0,s0,a7
ffffffff840011f2:	00253313          	sltiu	t1,a0,2
ffffffff840011f6:	00134893          	xor	a7,t1,1
ffffffff840011fa:	0104043b          	addw	s0,s0,a6
ffffffff840011fe:	0114043b          	addw	s0,s0,a7
ffffffff84001202:	01155533          	srl	a0,a0,a7
ffffffff84001206:	9d21                	addw	a0,a0,s0
ffffffff84001208:	842a                	mv	s0,a0
ffffffff8400120a:	00aaf463          	bgeu	s5,a0,ffffffff84001212 <create_untypeds_for_region+0xd0>
ffffffff8400120e:	02600413          	li	s0,38
ffffffff84001212:	c0dd                	beqz	s1,ffffffff840012b8 <create_untypeds_for_region+0x176>
ffffffff84001214:	0194feb3          	and	t4,s1,s9
ffffffff84001218:	001ebe93          	seqz	t4,t4
ffffffff8400121c:	005e9e9b          	sllw	t4,t4,0x5
ffffffff84001220:	01d4d533          	srl	a0,s1,t4
ffffffff84001224:	01857833          	and	a6,a0,s8
ffffffff84001228:	00183813          	seqz	a6,a6
ffffffff8400122c:	0048181b          	sllw	a6,a6,0x4
ffffffff84001230:	01055533          	srl	a0,a0,a6
ffffffff84001234:	0ff57e13          	zext.b	t3,a0
ffffffff84001238:	001e3e13          	seqz	t3,t3
ffffffff8400123c:	003e1e1b          	sllw	t3,t3,0x3
ffffffff84001240:	01c55533          	srl	a0,a0,t3
ffffffff84001244:	00f57313          	and	t1,a0,15
ffffffff84001248:	00133313          	seqz	t1,t1
ffffffff8400124c:	0023131b          	sllw	t1,t1,0x2
ffffffff84001250:	00655533          	srl	a0,a0,t1
ffffffff84001254:	00357893          	and	a7,a0,3
ffffffff84001258:	0018b893          	seqz	a7,a7
ffffffff8400125c:	0018989b          	sllw	a7,a7,0x1
ffffffff84001260:	01d8083b          	addw	a6,a6,t4
ffffffff84001264:	01c8083b          	addw	a6,a6,t3
ffffffff84001268:	01155533          	srl	a0,a0,a7
ffffffff8400126c:	0068083b          	addw	a6,a6,t1
ffffffff84001270:	fff54513          	not	a0,a0
ffffffff84001274:	8905                	and	a0,a0,1
ffffffff84001276:	0118083b          	addw	a6,a6,a7
ffffffff8400127a:	0105083b          	addw	a6,a0,a6
ffffffff8400127e:	8542                	mv	a0,a6
ffffffff84001280:	01047363          	bgeu	s0,a6,ffffffff84001286 <create_untypeds_for_region+0x144>
ffffffff84001284:	8522                	mv	a0,s0
ffffffff84001286:	0005041b          	sext.w	s0,a0
ffffffff8400128a:	0e8bec63          	bltu	s7,s0,ffffffff84001382 <create_untypeds_for_region+0x240>
ffffffff8400128e:	008a1433          	sll	s0,s4,s0
ffffffff84001292:	94a2                	add	s1,s1,s0
ffffffff84001294:	ef249de3          	bne	s1,s2,ffffffff8400118e <create_untypeds_for_region+0x4c>
ffffffff84001298:	4505                	li	a0,1
ffffffff8400129a:	60ae                	ld	ra,200(sp)
ffffffff8400129c:	640e                	ld	s0,192(sp)
ffffffff8400129e:	74ea                	ld	s1,184(sp)
ffffffff840012a0:	794a                	ld	s2,176(sp)
ffffffff840012a2:	79aa                	ld	s3,168(sp)
ffffffff840012a4:	7a0a                	ld	s4,160(sp)
ffffffff840012a6:	6aea                	ld	s5,152(sp)
ffffffff840012a8:	6b4a                	ld	s6,144(sp)
ffffffff840012aa:	6baa                	ld	s7,136(sp)
ffffffff840012ac:	6c0a                	ld	s8,128(sp)
ffffffff840012ae:	7ce6                	ld	s9,120(sp)
ffffffff840012b0:	7d46                	ld	s10,112(sp)
ffffffff840012b2:	7da6                	ld	s11,104(sp)
ffffffff840012b4:	6169                	add	sp,sp,208
ffffffff840012b6:	8082                	ret
ffffffff840012b8:	fcabfbe3          	bgeu	s7,a0,ffffffff8400128e <create_untypeds_for_region+0x14c>
ffffffff840012bc:	0c0d0963          	beqz	s10,ffffffff8400138e <create_untypeds_for_region+0x24c>
ffffffff840012c0:	02041893          	sll	a7,s0,0x20
ffffffff840012c4:	0208d893          	srl	a7,a7,0x20
ffffffff840012c8:	4506b803          	ld	a6,1104(a3)
ffffffff840012cc:	40f80533          	sub	a0,a6,a5
ffffffff840012d0:	faa66fe3          	bltu	a2,a0,ffffffff8400128e <create_untypeds_for_region+0x14c>
ffffffff840012d4:	4486bf03          	ld	t5,1096(a3)
ffffffff840012d8:	4305                	li	t1,1
ffffffff840012da:	00451f93          	sll	t6,a0,0x4
ffffffff840012de:	02631293          	sll	t0,t1,0x26
ffffffff840012e2:	0529                	add	a0,a0,10
ffffffff840012e4:	0ffd7e93          	zext.b	t4,s10
ffffffff840012e8:	9ffa                	add	t6,t6,t5
ffffffff840012ea:	0512                	sll	a0,a0,0x4
ffffffff840012ec:	92a6                	add	t0,t0,s1
ffffffff840012ee:	008e9e9b          	sllw	t4,t4,0x8
ffffffff840012f2:	0ff47e13          	zext.b	t3,s0
ffffffff840012f6:	9f2a                	add	t5,t5,a0
ffffffff840012f8:	0a0fb823          	sd	zero,176(t6)
ffffffff840012fc:	01de6533          	or	a0,t3,t4
ffffffff84001300:	0a5fb423          	sd	t0,168(t6)
ffffffff84001304:	00af1823          	sh	a0,16(t5)
ffffffff84001308:	ec3e                	sd	a5,24(sp)
ffffffff8400130a:	e846                	sd	a7,16(sp)
ffffffff8400130c:	00080537          	lui	a0,0x80
ffffffff84001310:	e442                	sd	a6,8(sp)
ffffffff84001312:	06a87e63          	bgeu	a6,a0,ffffffff8400138e <create_untypeds_for_region+0x24c>
ffffffff84001316:	853a                	mv	a0,a4
ffffffff84001318:	f43a                	sd	a4,40(sp)
ffffffff8400131a:	f02e                	sd	a1,32(sp)
ffffffff8400131c:	3a8040ef          	jal	ffffffff840056c4 <cap_get_capPtr>
ffffffff84001320:	6822                	ld	a6,8(sp)
ffffffff84001322:	68c2                	ld	a7,16(sp)
ffffffff84001324:	4305                	li	t1,1
ffffffff84001326:	006d1e13          	sll	t3,s10,0x6
ffffffff8400132a:	ffc40f9b          	addw	t6,s0,-4
ffffffff8400132e:	040e7e13          	and	t3,t3,64
ffffffff84001332:	01f31fb3          	sll	t6,t1,t6
ffffffff84001336:	00581f13          	sll	t5,a6,0x5
ffffffff8400133a:	011e68b3          	or	a7,t3,a7
ffffffff8400133e:	01949e93          	sll	t4,s1,0x19
ffffffff84001342:	019f9e13          	sll	t3,t6,0x19
ffffffff84001346:	957a                	add	a0,a0,t5
ffffffff84001348:	01c8e8b3          	or	a7,a7,t3
ffffffff8400134c:	019ede93          	srl	t4,t4,0x19
ffffffff84001350:	1372                	sll	t1,t1,0x3c
ffffffff84001352:	01153423          	sd	a7,8(a0) # 80008 <KERNEL_OFFSET-0xfffffffefff7fff8>
ffffffff84001356:	006eeeb3          	or	t4,t4,t1
ffffffff8400135a:	488d                	li	a7,3
ffffffff8400135c:	01d53023          	sd	t4,0(a0)
ffffffff84001360:	00053823          	sd	zero,16(a0)
ffffffff84001364:	01153c23          	sd	a7,24(a0)
ffffffff84001368:	0805                	add	a6,a6,1
ffffffff8400136a:	00001697          	auipc	a3,0x1
ffffffff8400136e:	ace68693          	add	a3,a3,-1330 # ffffffff84001e38 <ndks_boot>
ffffffff84001372:	67e2                	ld	a5,24(sp)
ffffffff84001374:	7722                	ld	a4,40(sp)
ffffffff84001376:	7582                	ld	a1,32(sp)
ffffffff84001378:	4506b823          	sd	a6,1104(a3)
ffffffff8400137c:	03100613          	li	a2,49
ffffffff84001380:	b739                	j	ffffffff8400128e <create_untypeds_for_region+0x14c>
ffffffff84001382:	008d9533          	sll	a0,s11,s0
ffffffff84001386:	fff54513          	not	a0,a0
ffffffff8400138a:	8d65                	and	a0,a0,s1
ffffffff8400138c:	c119                	beqz	a0,ffffffff84001392 <create_untypeds_for_region+0x250>
ffffffff8400138e:	4501                	li	a0,0
ffffffff84001390:	b729                	j	ffffffff8400129a <create_untypeds_for_region+0x158>
ffffffff84001392:	02041893          	sll	a7,s0,0x20
ffffffff84001396:	0208d893          	srl	a7,a7,0x20
ffffffff8400139a:	f20d17e3          	bnez	s10,ffffffff840012c8 <create_untypeds_for_region+0x186>
ffffffff8400139e:	4305                	li	t1,1
ffffffff840013a0:	02631513          	sll	a0,t1,0x26
ffffffff840013a4:	07f00e13          	li	t3,127
ffffffff840013a8:	9526                	add	a0,a0,s1
ffffffff840013aa:	0e7e                	sll	t3,t3,0x1f
ffffffff840013ac:	ffc571e3          	bgeu	a0,t3,ffffffff8400138e <create_untypeds_for_region+0x24c>
ffffffff840013b0:	01add513          	srl	a0,s11,0x1a
ffffffff840013b4:	9526                	add	a0,a0,s1
ffffffff840013b6:	00831833          	sll	a6,t1,s0
ffffffff840013ba:	9542                	add	a0,a0,a6
ffffffff840013bc:	f1c566e3          	bltu	a0,t3,ffffffff840012c8 <create_untypeds_for_region+0x186>
ffffffff840013c0:	4501                	li	a0,0
ffffffff840013c2:	bde1                	j	ffffffff8400129a <create_untypeds_for_region+0x158>

ffffffff840013c4 <create_untypeds>:
ffffffff840013c4:	711d                	add	sp,sp,-96
ffffffff840013c6:	e0ca                	sd	s2,64(sp)
ffffffff840013c8:	00001917          	auipc	s2,0x1
ffffffff840013cc:	a7090913          	add	s2,s2,-1424 # ffffffff84001e38 <ndks_boot>
ffffffff840013d0:	34093783          	ld	a5,832(s2)
ffffffff840013d4:	fc4e                	sd	s3,56(sp)
ffffffff840013d6:	ec86                	sd	ra,88(sp)
ffffffff840013d8:	e8a2                	sd	s0,80(sp)
ffffffff840013da:	e4a6                	sd	s1,72(sp)
ffffffff840013dc:	f852                	sd	s4,48(sp)
ffffffff840013de:	e02a                	sd	a0,0(sp)
ffffffff840013e0:	e42e                	sd	a1,8(sp)
ffffffff840013e2:	45093983          	ld	s3,1104(s2)
ffffffff840013e6:	c7e5                	beqz	a5,ffffffff840014ce <create_untypeds+0x10a>
ffffffff840013e8:	5a7d                	li	s4,-1
ffffffff840013ea:	844a                	mv	s0,s2
ffffffff840013ec:	4481                	li	s1,0
ffffffff840013ee:	4681                	li	a3,0
ffffffff840013f0:	1a1a                	sll	s4,s4,0x26
ffffffff840013f2:	a039                	j	ffffffff84001400 <create_untypeds+0x3c>
ffffffff840013f4:	34093783          	ld	a5,832(s2)
ffffffff840013f8:	6414                	ld	a3,8(s0)
ffffffff840013fa:	0441                	add	s0,s0,16
ffffffff840013fc:	02f4fa63          	bgeu	s1,a5,ffffffff84001430 <create_untypeds+0x6c>
ffffffff84001400:	6018                	ld	a4,0(s0)
ffffffff84001402:	0485                	add	s1,s1,1
ffffffff84001404:	fee6f8e3          	bgeu	a3,a4,ffffffff840013f4 <create_untypeds+0x30>
ffffffff84001408:	6502                	ld	a0,0(sp)
ffffffff8400140a:	65a2                	ld	a1,8(sp)
ffffffff8400140c:	96d2                	add	a3,a3,s4
ffffffff8400140e:	9752                	add	a4,a4,s4
ffffffff84001410:	87ce                	mv	a5,s3
ffffffff84001412:	4605                	li	a2,1
ffffffff84001414:	f036                	sd	a3,32(sp)
ffffffff84001416:	f43a                	sd	a4,40(sp)
ffffffff84001418:	d2bff0ef          	jal	ffffffff84001142 <create_untypeds_for_region>
ffffffff8400141c:	fd61                	bnez	a0,ffffffff840013f4 <create_untypeds+0x30>
ffffffff8400141e:	60e6                	ld	ra,88(sp)
ffffffff84001420:	6446                	ld	s0,80(sp)
ffffffff84001422:	64a6                	ld	s1,72(sp)
ffffffff84001424:	6906                	ld	s2,64(sp)
ffffffff84001426:	79e2                	ld	s3,56(sp)
ffffffff84001428:	7a42                	ld	s4,48(sp)
ffffffff8400142a:	4501                	li	a0,0
ffffffff8400142c:	6125                	add	sp,sp,96
ffffffff8400142e:	8082                	ret
ffffffff84001430:	57fd                	li	a5,-1
ffffffff84001432:	0197d713          	srl	a4,a5,0x19
ffffffff84001436:	06d77e63          	bgeu	a4,a3,ffffffff840014b2 <create_untypeds+0xee>
ffffffff8400143a:	fc100713          	li	a4,-63
ffffffff8400143e:	6502                	ld	a0,0(sp)
ffffffff84001440:	65a2                	ld	a1,8(sp)
ffffffff84001442:	00002617          	auipc	a2,0x2
ffffffff84001446:	bbe60613          	add	a2,a2,-1090 # ffffffff84003000 <ki_boot_end>
ffffffff8400144a:	ff0216b7          	lui	a3,0xff021
ffffffff8400144e:	1702                	sll	a4,a4,0x20
ffffffff84001450:	9732                	add	a4,a4,a2
ffffffff84001452:	87ce                	mv	a5,s3
ffffffff84001454:	06ba                	sll	a3,a3,0xe
ffffffff84001456:	4601                	li	a2,0
ffffffff84001458:	cebff0ef          	jal	ffffffff84001142 <create_untypeds_for_region>
ffffffff8400145c:	d169                	beqz	a0,ffffffff8400141e <create_untypeds+0x5a>
ffffffff8400145e:	00001417          	auipc	s0,0x1
ffffffff84001462:	d2240413          	add	s0,s0,-734 # ffffffff84002180 <ndks_boot+0x348>
ffffffff84001466:	00001497          	auipc	s1,0x1
ffffffff8400146a:	e1a48493          	add	s1,s1,-486 # ffffffff84002280 <ndks_boot+0x448>
ffffffff8400146e:	6014                	ld	a3,0(s0)
ffffffff84001470:	6418                	ld	a4,8(s0)
ffffffff84001472:	6502                	ld	a0,0(sp)
ffffffff84001474:	65a2                	ld	a1,8(sp)
ffffffff84001476:	00043023          	sd	zero,0(s0)
ffffffff8400147a:	00043423          	sd	zero,8(s0)
ffffffff8400147e:	87ce                	mv	a5,s3
ffffffff84001480:	4601                	li	a2,0
ffffffff84001482:	f036                	sd	a3,32(sp)
ffffffff84001484:	f43a                	sd	a4,40(sp)
ffffffff84001486:	cbdff0ef          	jal	ffffffff84001142 <create_untypeds_for_region>
ffffffff8400148a:	0441                	add	s0,s0,16
ffffffff8400148c:	d949                	beqz	a0,ffffffff8400141e <create_untypeds+0x5a>
ffffffff8400148e:	fe9410e3          	bne	s0,s1,ffffffff8400146e <create_untypeds+0xaa>
ffffffff84001492:	44893783          	ld	a5,1096(s2)
ffffffff84001496:	45093703          	ld	a4,1104(s2)
ffffffff8400149a:	60e6                	ld	ra,88(sp)
ffffffff8400149c:	6446                	ld	s0,80(sp)
ffffffff8400149e:	0937bc23          	sd	s3,152(a5) # 80098 <KERNEL_OFFSET-0xfffffffefff7ff68>
ffffffff840014a2:	f3d8                	sd	a4,160(a5)
ffffffff840014a4:	64a6                	ld	s1,72(sp)
ffffffff840014a6:	6906                	ld	s2,64(sp)
ffffffff840014a8:	79e2                	ld	s3,56(sp)
ffffffff840014aa:	7a42                	ld	s4,48(sp)
ffffffff840014ac:	4505                	li	a0,1
ffffffff840014ae:	6125                	add	sp,sp,96
ffffffff840014b0:	8082                	ret
ffffffff840014b2:	179a                	sll	a5,a5,0x26
ffffffff840014b4:	96be                	add	a3,a3,a5
ffffffff840014b6:	6502                	ld	a0,0(sp)
ffffffff840014b8:	65a2                	ld	a1,8(sp)
ffffffff840014ba:	4705                	li	a4,1
ffffffff840014bc:	171a                	sll	a4,a4,0x26
ffffffff840014be:	87ce                	mv	a5,s3
ffffffff840014c0:	4605                	li	a2,1
ffffffff840014c2:	f036                	sd	a3,32(sp)
ffffffff840014c4:	f43a                	sd	a4,40(sp)
ffffffff840014c6:	c7dff0ef          	jal	ffffffff84001142 <create_untypeds_for_region>
ffffffff840014ca:	f925                	bnez	a0,ffffffff8400143a <create_untypeds+0x76>
ffffffff840014cc:	bf89                	j	ffffffff8400141e <create_untypeds+0x5a>
ffffffff840014ce:	56fd                	li	a3,-1
ffffffff840014d0:	169a                	sll	a3,a3,0x26
ffffffff840014d2:	b7d5                	j	ffffffff840014b6 <create_untypeds+0xf2>

ffffffff840014d4 <create_initial_thread>:
ffffffff840014d4:	7135                	add	sp,sp,-160
ffffffff840014d6:	f4ce                	sd	s3,104(sp)
ffffffff840014d8:	00001997          	auipc	s3,0x1
ffffffff840014dc:	de89b983          	ld	s3,-536(s3) # ffffffff840022c0 <rootserver+0x30>
ffffffff840014e0:	e506                	sd	ra,136(sp)
ffffffff840014e2:	e122                	sd	s0,128(sp)
ffffffff840014e4:	fca6                	sd	s1,120(sp)
ffffffff840014e6:	f8ca                	sd	s2,112(sp)
ffffffff840014e8:	f0d2                	sd	s4,96(sp)
ffffffff840014ea:	ecd6                	sd	s5,88(sp)
ffffffff840014ec:	e8da                	sd	s6,80(sp)
ffffffff840014ee:	e4de                	sd	s7,72(sp)
ffffffff840014f0:	20098413          	add	s0,s3,512
ffffffff840014f4:	4315                	li	t1,5
ffffffff840014f6:	16643823          	sd	t1,368(s0)
ffffffff840014fa:	02000313          	li	t1,32
ffffffff840014fe:	10643023          	sd	t1,256(s0)
ffffffff84001502:	8946                	mv	s2,a7
ffffffff84001504:	8abe                	mv	s5,a5
ffffffff84001506:	ec2e                	sd	a1,24(sp)
ffffffff84001508:	e032                	sd	a2,0(sp)
ffffffff8400150a:	e436                	sd	a3,8(sp)
ffffffff8400150c:	ed46                	sd	a7,152(sp)
ffffffff8400150e:	8a3a                	mv	s4,a4
ffffffff84001510:	8b42                	mv	s6,a6
ffffffff84001512:	e82a                	sd	a0,16(sp)
ffffffff84001514:	1b0040ef          	jal	ffffffff840056c4 <cap_get_capPtr>
ffffffff84001518:	768a                	ld	a3,160(sp)
ffffffff8400151a:	14050b93          	add	s7,a0,320
ffffffff8400151e:	84aa                	mv	s1,a0
ffffffff84001520:	864a                	mv	a2,s2
ffffffff84001522:	85de                	mv	a1,s7
ffffffff84001524:	1028                	add	a0,sp,40
ffffffff84001526:	544040ef          	jal	ffffffff84005a6a <deriveCap>
ffffffff8400152a:	77a2                	ld	a5,40(sp)
ffffffff8400152c:	ebe9                	bnez	a5,ffffffff840015fe <create_initial_thread+0x12a>
ffffffff8400152e:	6542                	ld	a0,16(sp)
ffffffff84001530:	65e2                	ld	a1,24(sp)
ffffffff84001532:	86ce                	mv	a3,s3
ffffffff84001534:	04048613          	add	a2,s1,64
ffffffff84001538:	682030ef          	jal	ffffffff84004bba <cteInsert>
ffffffff8400153c:	6502                	ld	a0,0(sp)
ffffffff8400153e:	65a2                	ld	a1,8(sp)
ffffffff84001540:	02098693          	add	a3,s3,32
ffffffff84001544:	06048613          	add	a2,s1,96
ffffffff84001548:	672030ef          	jal	ffffffff84004bba <cteInsert>
ffffffff8400154c:	7542                	ld	a0,48(sp)
ffffffff8400154e:	75e2                	ld	a1,56(sp)
ffffffff84001550:	08098693          	add	a3,s3,128
ffffffff84001554:	865e                	mv	a2,s7
ffffffff84001556:	664030ef          	jal	ffffffff84004bba <cteInsert>
ffffffff8400155a:	8b81b983          	ld	s3,-1864(gp) # ffffffff8400ab68 <ksDomScheduleIdx>
ffffffff8400155e:	00009917          	auipc	s2,0x9
ffffffff84001562:	57a90913          	add	s2,s2,1402 # ffffffff8400aad8 <ksDomSchedule>
ffffffff84001566:	0992                	sll	s3,s3,0x4
ffffffff84001568:	013907b3          	add	a5,s2,s3
ffffffff8400156c:	c0047713          	and	a4,s0,-1024
ffffffff84001570:	0007bb83          	ld	s7,0(a5)
ffffffff84001574:	633c                	ld	a5,64(a4)
ffffffff84001576:	0ff00693          	li	a3,255
ffffffff8400157a:	19643023          	sd	s6,384(s0)
ffffffff8400157e:	05543423          	sd	s5,72(s0)
ffffffff84001582:	11443823          	sd	s4,272(s0)
ffffffff84001586:	16d43423          	sd	a3,360(s0)
ffffffff8400158a:	16d43023          	sd	a3,352(s0)
ffffffff8400158e:	15743c23          	sd	s7,344(s0)
ffffffff84001592:	93ed                	srl	a5,a5,0x3b
ffffffff84001594:	cbb9                	beqz	a5,ffffffff840015ea <create_initial_thread+0x116>
ffffffff84001596:	11843783          	ld	a5,280(s0)
ffffffff8400159a:	8522                	mv	a0,s0
ffffffff8400159c:	994e                	add	s2,s2,s3
ffffffff8400159e:	9bc1                	and	a5,a5,-16
ffffffff840015a0:	0017e793          	or	a5,a5,1
ffffffff840015a4:	10f43c23          	sd	a5,280(s0)
ffffffff840015a8:	7be040ef          	jal	ffffffff84005d66 <scheduleTCB>
ffffffff840015ac:	470d                	li	a4,3
ffffffff840015ae:	00893683          	ld	a3,8(s2)
ffffffff840015b2:	01941793          	sll	a5,s0,0x19
ffffffff840015b6:	03d71613          	sll	a2,a4,0x3d
ffffffff840015ba:	83e5                	srl	a5,a5,0x19
ffffffff840015bc:	8fd1                	or	a5,a5,a2
ffffffff840015be:	f09c                	sd	a5,32(s1)
ffffffff840015c0:	8d71b423          	sd	s7,-1848(gp) # ffffffff8400ab78 <ksCurDomain>
ffffffff840015c4:	8cd1b023          	sd	a3,-1856(gp) # ffffffff8400ab70 <ksDomainTime>
ffffffff840015c8:	0204b423          	sd	zero,40(s1)
ffffffff840015cc:	0204b823          	sd	zero,48(s1)
ffffffff840015d0:	fc98                	sd	a4,56(s1)
ffffffff840015d2:	60aa                	ld	ra,136(sp)
ffffffff840015d4:	8522                	mv	a0,s0
ffffffff840015d6:	640a                	ld	s0,128(sp)
ffffffff840015d8:	74e6                	ld	s1,120(sp)
ffffffff840015da:	7946                	ld	s2,112(sp)
ffffffff840015dc:	79a6                	ld	s3,104(sp)
ffffffff840015de:	7a06                	ld	s4,96(sp)
ffffffff840015e0:	6ae6                	ld	s5,88(sp)
ffffffff840015e2:	6b46                	ld	s6,80(sp)
ffffffff840015e4:	6ba6                	ld	s7,72(sp)
ffffffff840015e6:	610d                	add	sp,sp,160
ffffffff840015e8:	8082                	ret
ffffffff840015ea:	4785                	li	a5,1
ffffffff840015ec:	17fa                	sll	a5,a5,0x3e
ffffffff840015ee:	078d                	add	a5,a5,3
ffffffff840015f0:	e33c                	sd	a5,64(a4)
ffffffff840015f2:	478d                	li	a5,3
ffffffff840015f4:	e720                	sd	s0,72(a4)
ffffffff840015f6:	04073823          	sd	zero,80(a4) # 1050 <KERNEL_OFFSET-0xfffffffeffffefb0>
ffffffff840015fa:	ef3c                	sd	a5,88(a4)
ffffffff840015fc:	bf69                	j	ffffffff84001596 <create_initial_thread+0xc2>
ffffffff840015fe:	4401                	li	s0,0
ffffffff84001600:	bfc9                	j	ffffffff840015d2 <create_initial_thread+0xfe>

ffffffff84001602 <create_idle_thread>:
ffffffff84001602:	0000a797          	auipc	a5,0xa
ffffffff84001606:	3fe78793          	add	a5,a5,1022 # ffffffff8400ba00 <ksIdleThreadTCB+0x200>
ffffffff8400160a:	1187b703          	ld	a4,280(a5)
ffffffff8400160e:	a8f1bc23          	sd	a5,-1384(gp) # ffffffff8400ad48 <ksIdleThread>
ffffffff84001612:	00002697          	auipc	a3,0x2
ffffffff84001616:	1ae68693          	add	a3,a3,430 # ffffffff840037c0 <idle_thread>
ffffffff8400161a:	9b41                	and	a4,a4,-16
ffffffff8400161c:	10d7b823          	sd	a3,272(a5)
ffffffff84001620:	12000693          	li	a3,288
ffffffff84001624:	00776713          	or	a4,a4,7
ffffffff84001628:	10d7b023          	sd	a3,256(a5)
ffffffff8400162c:	0001c697          	auipc	a3,0x1c
ffffffff84001630:	1d468693          	add	a3,a3,468 # ffffffff8401d800 <_breakpoint_stack_bottom>
ffffffff84001634:	10e7bc23          	sd	a4,280(a5)
ffffffff84001638:	e794                	sd	a3,8(a5)
ffffffff8400163a:	aa01b703          	ld	a4,-1376(gp) # ffffffff8400ad50 <ksCurThread>
ffffffff8400163e:	00e78363          	beq	a5,a4,ffffffff84001644 <create_idle_thread+0x42>
ffffffff84001642:	8082                	ret
ffffffff84001644:	a9018793          	add	a5,gp,-1392 # ffffffff8400ad40 <ksSchedulerAction>
ffffffff84001648:	6398                	ld	a4,0(a5)
ffffffff8400164a:	ff65                	bnez	a4,ffffffff84001642 <create_idle_thread+0x40>
ffffffff8400164c:	4705                	li	a4,1
ffffffff8400164e:	e398                	sd	a4,0(a5)
ffffffff84001650:	8082                	ret

ffffffff84001652 <configureIdleThread>:
ffffffff84001652:	11853783          	ld	a5,280(a0)
ffffffff84001656:	00002717          	auipc	a4,0x2
ffffffff8400165a:	16a70713          	add	a4,a4,362 # ffffffff840037c0 <idle_thread>
ffffffff8400165e:	10e53823          	sd	a4,272(a0)
ffffffff84001662:	9bc1                	and	a5,a5,-16
ffffffff84001664:	12000713          	li	a4,288
ffffffff84001668:	0077e793          	or	a5,a5,7
ffffffff8400166c:	10e53023          	sd	a4,256(a0)
ffffffff84001670:	0001c717          	auipc	a4,0x1c
ffffffff84001674:	19070713          	add	a4,a4,400 # ffffffff8401d800 <_breakpoint_stack_bottom>
ffffffff84001678:	10f53c23          	sd	a5,280(a0)
ffffffff8400167c:	e518                	sd	a4,8(a0)
ffffffff8400167e:	aa01b783          	ld	a5,-1376(gp) # ffffffff8400ad50 <ksCurThread>
ffffffff84001682:	00f50363          	beq	a0,a5,ffffffff84001688 <configureIdleThread+0x36>
ffffffff84001686:	8082                	ret
ffffffff84001688:	a9018793          	add	a5,gp,-1392 # ffffffff8400ad40 <ksSchedulerAction>
ffffffff8400168c:	6398                	ld	a4,0(a5)
ffffffff8400168e:	ff65                	bnez	a4,ffffffff84001686 <configureIdleThread+0x34>
ffffffff84001690:	4705                	li	a4,1
ffffffff84001692:	e398                	sd	a4,0(a5)
ffffffff84001694:	8082                	ret

ffffffff84001696 <init_kernel>:
ffffffff84001696:	7169                	add	sp,sp,-304
ffffffff84001698:	f222                	sd	s0,288(sp)
ffffffff8400169a:	ee26                	sd	s1,280(sp)
ffffffff8400169c:	ea4a                	sd	s2,272(sp)
ffffffff8400169e:	e64e                	sd	s3,264(sp)
ffffffff840016a0:	e252                	sd	s4,256(sp)
ffffffff840016a2:	e836                	sd	a3,16(sp)
ffffffff840016a4:	8a3a                	mv	s4,a4
ffffffff840016a6:	02079413          	sll	s0,a5,0x20
ffffffff840016aa:	f606                	sd	ra,296(sp)
ffffffff840016ac:	fdd6                	sd	s5,248(sp)
ffffffff840016ae:	f9da                	sd	s6,240(sp)
ffffffff840016b0:	f5de                	sd	s7,232(sp)
ffffffff840016b2:	f1e2                	sd	s8,224(sp)
ffffffff840016b4:	ede6                	sd	s9,216(sp)
ffffffff840016b6:	e9ea                	sd	s10,208(sp)
ffffffff840016b8:	e5ee                	sd	s11,200(sp)
ffffffff840016ba:	84aa                	mv	s1,a0
ffffffff840016bc:	89ae                	mv	s3,a1
ffffffff840016be:	8932                	mv	s2,a2
ffffffff840016c0:	d39fe0ef          	jal	ffffffff840003f8 <map_kernel_window>
ffffffff840016c4:	4685                	li	a3,1
ffffffff840016c6:	1682                	sll	a3,a3,0x20
ffffffff840016c8:	00020797          	auipc	a5,0x20
ffffffff840016cc:	93878793          	add	a5,a5,-1736 # ffffffff84021000 <kernel_root_pageTable>
ffffffff840016d0:	577d                	li	a4,-1
ffffffff840016d2:	97b6                	add	a5,a5,a3
ffffffff840016d4:	83b1                	srl	a5,a5,0xc
ffffffff840016d6:	01475693          	srl	a3,a4,0x14
ffffffff840016da:	8ff5                	and	a5,a5,a3
ffffffff840016dc:	177e                	sll	a4,a4,0x3f
ffffffff840016de:	9001                	srl	s0,s0,0x20
ffffffff840016e0:	8fd9                	or	a5,a5,a4
ffffffff840016e2:	18079073          	csrw	satp,a5
ffffffff840016e6:	12000073          	sfence.vma
ffffffff840016ea:	00002797          	auipc	a5,0x2
ffffffff840016ee:	91678793          	add	a5,a5,-1770 # ffffffff84003000 <ki_boot_end>
ffffffff840016f2:	10579073          	csrw	stvec,a5
ffffffff840016f6:	c0202637          	lui	a2,0xc0202
ffffffff840016fa:	4705                	li	a4,1
ffffffff840016fc:	10060613          	add	a2,a2,256 # ffffffffc0202100 <ki_end+0x3c1e0100>
ffffffff84001700:	4505                	li	a0,1
ffffffff84001702:	03600593          	li	a1,54
ffffffff84001706:	00575793          	srl	a5,a4,0x5
ffffffff8400170a:	078a                	sll	a5,a5,0x2
ffffffff8400170c:	97b2                	add	a5,a5,a2
ffffffff8400170e:	4394                	lw	a3,0(a5)
ffffffff84001710:	01f77813          	and	a6,a4,31
ffffffff84001714:	01051833          	sll	a6,a0,a6
ffffffff84001718:	fff84813          	not	a6,a6
ffffffff8400171c:	00d87833          	and	a6,a6,a3
ffffffff84001720:	2801                	sext.w	a6,a6
ffffffff84001722:	0107a023          	sw	a6,0(a5)
ffffffff84001726:	0705                	add	a4,a4,1
ffffffff84001728:	fcb71fe3          	bne	a4,a1,ffffffff84001706 <init_kernel+0x70>
ffffffff8400172c:	c04027b7          	lui	a5,0xc0402
ffffffff84001730:	0007a023          	sw	zero,0(a5) # ffffffffc0402000 <ki_end+0x3c3e0000>
ffffffff84001734:	22000793          	li	a5,544
ffffffff84001738:	1047a7f3          	csrrs	a5,sie,a5
ffffffff8400173c:	c000c7b7          	lui	a5,0xc000c
ffffffff84001740:	ff87b503          	ld	a0,-8(a5) # ffffffffc000bff8 <ki_end+0x3bfe9ff8>
ffffffff84001744:	4581                	li	a1,0
ffffffff84001746:	4601                	li	a2,0
ffffffff84001748:	7d050513          	add	a0,a0,2000
ffffffff8400174c:	4881                	li	a7,0
ffffffff8400174e:	00000073          	ecall
ffffffff84001752:	6799                	lui	a5,0x6
ffffffff84001754:	1007b073          	csrc	sstatus,a5
ffffffff84001758:	1801b423          	sd	zero,392(gp) # ffffffff8400b438 <active_irq>
ffffffff8400175c:	4705                	li	a4,1
ffffffff8400175e:	c0201637          	lui	a2,0xc0201
ffffffff84001762:	c04025b7          	lui	a1,0xc0402
ffffffff84001766:	03600693          	li	a3,54
ffffffff8400176a:	00575793          	srl	a5,a4,0x5
ffffffff8400176e:	078a                	sll	a5,a5,0x2
ffffffff84001770:	97b2                	add	a5,a5,a2
ffffffff84001772:	0007a803          	lw	a6,0(a5) # 6000 <KERNEL_OFFSET-0xfffffffeffffa000>
ffffffff84001776:	01f77793          	and	a5,a4,31
ffffffff8400177a:	1802                	sll	a6,a6,0x20
ffffffff8400177c:	02085813          	srl	a6,a6,0x20
ffffffff84001780:	00f85833          	srl	a6,a6,a5
ffffffff84001784:	00187813          	and	a6,a6,1
ffffffff84001788:	00080663          	beqz	a6,ffffffff84001794 <init_kernel+0xfe>
ffffffff8400178c:	0007079b          	sext.w	a5,a4
ffffffff84001790:	41c8                	lw	a0,4(a1)
ffffffff84001792:	c1dc                	sw	a5,4(a1)
ffffffff84001794:	0705                	add	a4,a4,1
ffffffff84001796:	fcd71ae3          	bne	a4,a3,ffffffff8400176a <init_kernel+0xd4>
ffffffff8400179a:	c0200737          	lui	a4,0xc0200
ffffffff8400179e:	00470793          	add	a5,a4,4 # ffffffffc0200004 <ki_end+0x3c1de004>
ffffffff840017a2:	4689                	li	a3,2
ffffffff840017a4:	0dc70713          	add	a4,a4,220
ffffffff840017a8:	c394                	sw	a3,0(a5)
ffffffff840017aa:	0791                	add	a5,a5,4
ffffffff840017ac:	fee79ee3          	bne	a5,a4,ffffffff840017a8 <init_kernel+0x112>
ffffffff840017b0:	cc19                	beqz	s0,ffffffff840017ce <init_kernel+0x138>
ffffffff840017b2:	01440733          	add	a4,s0,s4
ffffffff840017b6:	8aba                	mv	s5,a4
ffffffff840017b8:	0a876463          	bltu	a4,s0,ffffffff84001860 <init_kernel+0x1ca>
ffffffff840017bc:	07f00793          	li	a5,127
ffffffff840017c0:	07fe                	sll	a5,a5,0x1f
ffffffff840017c2:	08f77f63          	bgeu	a4,a5,ffffffff84001860 <init_kernel+0x1ca>
ffffffff840017c6:	01040c13          	add	s8,s0,16
ffffffff840017ca:	8dd2                	mv	s11,s4
ffffffff840017cc:	a021                	j	ffffffff840017d4 <init_kernel+0x13e>
ffffffff840017ce:	4a81                	li	s5,0
ffffffff840017d0:	4d81                	li	s11,0
ffffffff840017d2:	4c01                	li	s8,0
ffffffff840017d4:	8562                	mv	a0,s8
ffffffff840017d6:	da1fe0ef          	jal	ffffffff84000576 <calculate_extra_bi_size_bits>
ffffffff840017da:	41298cb3          	sub	s9,s3,s2
ffffffff840017de:	6b89                	lui	s7,0x2
ffffffff840017e0:	4b05                	li	s6,1
ffffffff840017e2:	fefff7b7          	lui	a5,0xfefff
ffffffff840017e6:	9be6                	add	s7,s7,s9
ffffffff840017e8:	00ab1b33          	sll	s6,s6,a0
ffffffff840017ec:	07ba                	sll	a5,a5,0xe
ffffffff840017ee:	9b5e                	add	s6,s6,s7
ffffffff840017f0:	83e9                	srl	a5,a5,0x1a
ffffffff840017f2:	0767e763          	bltu	a5,s6,ffffffff84001860 <init_kernel+0x1ca>
ffffffff840017f6:	412487b3          	sub	a5,s1,s2
ffffffff840017fa:	ec3e                	sd	a5,24(sp)
ffffffff840017fc:	f53e                	sd	a5,168(sp)
ffffffff840017fe:	ff0217b7          	lui	a5,0xff021
ffffffff84001802:	00000d17          	auipc	s10,0x0
ffffffff84001806:	636d0d13          	add	s10,s10,1590 # ffffffff84001e38 <ndks_boot>
ffffffff8400180a:	07ba                	sll	a5,a5,0xe
ffffffff8400180c:	fc100693          	li	a3,-63
ffffffff84001810:	5afd3823          	sd	a5,1456(s10)
ffffffff84001814:	1682                	sll	a3,a3,0x20
ffffffff84001816:	00020797          	auipc	a5,0x20
ffffffff8400181a:	7ea78793          	add	a5,a5,2026 # ffffffff84022000 <ki_end>
ffffffff8400181e:	97b6                	add	a5,a5,a3
ffffffff84001820:	f95a                	sd	s6,176(sp)
ffffffff84001822:	5afd3c23          	sd	a5,1464(s10)
ffffffff84001826:	020d9f63          	bnez	s11,ffffffff84001864 <init_kernel+0x1ce>
ffffffff8400182a:	48c1                	li	a7,16
ffffffff8400182c:	4609                	li	a2,2
ffffffff8400182e:	5dfd                	li	s11,-1
ffffffff84001830:	026d9593          	sll	a1,s11,0x26
ffffffff84001834:	00001697          	auipc	a3,0x1
ffffffff84001838:	bb468693          	add	a3,a3,-1100 # ffffffff840023e8 <res_reg>
ffffffff8400183c:	772a                	ld	a4,168(sp)
ffffffff8400183e:	77ca                	ld	a5,176(sp)
ffffffff84001840:	98b6                	add	a7,a7,a3
ffffffff84001842:	94ae                	add	s1,s1,a1
ffffffff84001844:	99ae                	add	s3,s3,a1
ffffffff84001846:	882a                	mv	a6,a0
ffffffff84001848:	00000597          	auipc	a1,0x0
ffffffff8400184c:	5e058593          	add	a1,a1,1504 # ffffffff84001e28 <avail_p_regs>
ffffffff84001850:	4505                	li	a0,1
ffffffff84001852:	0098b023          	sd	s1,0(a7)
ffffffff84001856:	0138b423          	sd	s3,8(a7)
ffffffff8400185a:	ef7fe0ef          	jal	ffffffff84000750 <init_freemem>
ffffffff8400185e:	e105                	bnez	a0,ffffffff8400187e <init_kernel+0x1e8>
ffffffff84001860:	3d6020ef          	jal	ffffffff84003c36 <halt>
ffffffff84001864:	57fd                	li	a5,-1
ffffffff84001866:	179a                	sll	a5,a5,0x26
ffffffff84001868:	9dbe                	add	s11,s11,a5
ffffffff8400186a:	00fa8733          	add	a4,s5,a5
ffffffff8400186e:	5dbd3023          	sd	s11,1472(s10)
ffffffff84001872:	5ced3423          	sd	a4,1480(s10)
ffffffff84001876:	02000893          	li	a7,32
ffffffff8400187a:	460d                	li	a2,3
ffffffff8400187c:	bf4d                	j	ffffffff8400182e <init_kernel+0x198>
ffffffff8400187e:	458d3703          	ld	a4,1112(s10)
ffffffff84001882:	01addd93          	srl	s11,s11,0x1a
ffffffff84001886:	4581                	li	a1,0
ffffffff84001888:	00175793          	srl	a5,a4,0x1
ffffffff8400188c:	01b7fdb3          	and	s11,a5,s11
ffffffff84001890:	0ab537b7          	lui	a5,0xab53
ffffffff84001894:	178e                	sll	a5,a5,0x23
ffffffff84001896:	00fdedb3          	or	s11,s11,a5
ffffffff8400189a:	05b73023          	sd	s11,64(a4)
ffffffff8400189e:	04070793          	add	a5,a4,64
ffffffff840018a2:	470d                	li	a4,3
ffffffff840018a4:	ef98                	sd	a4,24(a5)
ffffffff840018a6:	0007b423          	sd	zero,8(a5) # ab53008 <KERNEL_OFFSET-0xfffffffef54acff8>
ffffffff840018aa:	0007b823          	sd	zero,16(a5)
ffffffff840018ae:	856e                	mv	a0,s11
ffffffff840018b0:	f56e                	sd	s11,168(sp)
ffffffff840018b2:	f902                	sd	zero,176(sp)
ffffffff840018b4:	611030ef          	jal	ffffffff840056c4 <cap_get_capPtr>
ffffffff840018b8:	57f5                	li	a5,-3
ffffffff840018ba:	17f6                	sll	a5,a5,0x3d
ffffffff840018bc:	470d                	li	a4,3
ffffffff840018be:	c0202837          	lui	a6,0xc0202
ffffffff840018c2:	16f53023          	sd	a5,352(a0)
ffffffff840018c6:	16053423          	sd	zero,360(a0)
ffffffff840018ca:	16053823          	sd	zero,368(a0)
ffffffff840018ce:	16e53c23          	sd	a4,376(a0)
ffffffff840018d2:	00009617          	auipc	a2,0x9
ffffffff840018d6:	2b660613          	add	a2,a2,694 # ffffffff8400ab88 <intStateIRQTable+0x8>
ffffffff840018da:	4685                	li	a3,1
ffffffff840018dc:	03600513          	li	a0,54
ffffffff840018e0:	10080813          	add	a6,a6,256 # ffffffffc0202100 <ki_end+0x3c1e0100>
ffffffff840018e4:	4885                	li	a7,1
ffffffff840018e6:	00063023          	sd	zero,0(a2)
ffffffff840018ea:	1ea69f63          	bne	a3,a0,ffffffff84001ae8 <init_kernel+0x452>
ffffffff840018ee:	02000793          	li	a5,32
ffffffff840018f2:	1047b773          	csrrc	a4,sie,a5
ffffffff840018f6:	4709                	li	a4,2
ffffffff840018f8:	a8e1b023          	sd	a4,-1408(gp) # ffffffff8400ad30 <intStateIRQTable+0x1b0>
ffffffff840018fc:	1047a7f3          	csrrs	a5,sie,a5
ffffffff84001900:	75ca                	ld	a1,176(sp)
ffffffff84001902:	752a                	ld	a0,168(sp)
ffffffff84001904:	5c1030ef          	jal	ffffffff840056c4 <cap_get_capPtr>
ffffffff84001908:	479d                	li	a5,7
ffffffff8400190a:	17f2                	sll	a5,a5,0x3c
ffffffff8400190c:	e15c                	sd	a5,128(a0)
ffffffff8400190e:	478d                	li	a5,3
ffffffff84001910:	08053423          	sd	zero,136(a0)
ffffffff84001914:	08053823          	sd	zero,144(a0)
ffffffff84001918:	ed5c                	sd	a5,152(a0)
ffffffff8400191a:	86e2                	mv	a3,s8
ffffffff8400191c:	8666                	mv	a2,s9
ffffffff8400191e:	4585                	li	a1,1
ffffffff84001920:	4501                	li	a0,0
ffffffff84001922:	cf9fe0ef          	jal	ffffffff8400061a <populate_bi_frame>
ffffffff84001926:	c81d                	beqz	s0,ffffffff8400195c <init_kernel+0x2c6>
ffffffff84001928:	480d3683          	ld	a3,1152(s10)
ffffffff8400192c:	4705                	li	a4,1
ffffffff8400192e:	57fd                	li	a5,-1
ffffffff84001930:	171a                	sll	a4,a4,0x26
ffffffff84001932:	179a                	sll	a5,a5,0x26
ffffffff84001934:	0741                	add	a4,a4,16
ffffffff84001936:	01040613          	add	a2,s0,16
ffffffff8400193a:	97d2                	add	a5,a5,s4
ffffffff8400193c:	9736                	add	a4,a4,a3
ffffffff8400193e:	4599                	li	a1,6
ffffffff84001940:	e28c                	sd	a1,0(a3)
ffffffff84001942:	e690                	sd	a2,8(a3)
ffffffff84001944:	943e                	add	s0,s0,a5
ffffffff84001946:	41470733          	sub	a4,a4,s4
ffffffff8400194a:	0007c603          	lbu	a2,0(a5)
ffffffff8400194e:	00e786b3          	add	a3,a5,a4
ffffffff84001952:	0785                	add	a5,a5,1
ffffffff84001954:	00c68023          	sb	a2,0(a3)
ffffffff84001958:	fe8799e3          	bne	a5,s0,ffffffff8400194a <init_kernel+0x2b4>
ffffffff8400195c:	6662                	ld	a2,24(sp)
ffffffff8400195e:	86da                	mv	a3,s6
ffffffff84001960:	856e                	mv	a0,s11
ffffffff84001962:	4581                	li	a1,0
ffffffff84001964:	f06e                	sd	s11,32(sp)
ffffffff84001966:	f402                	sd	zero,40(sp)
ffffffff84001968:	e4eff0ef          	jal	ffffffff84000fb6 <create_it_address_space>
ffffffff8400196c:	f82a                	sd	a0,48(sp)
ffffffff8400196e:	fc2e                	sd	a1,56(sp)
ffffffff84001970:	03b55793          	srl	a5,a0,0x3b
ffffffff84001974:	862a                	mv	a2,a0
ffffffff84001976:	86ae                	mv	a3,a1
ffffffff84001978:	ee0784e3          	beqz	a5,ffffffff84001860 <init_kernel+0x1ca>
ffffffff8400197c:	6a05                	lui	s4,0x1
ffffffff8400197e:	7502                	ld	a0,32(sp)
ffffffff84001980:	75a2                	ld	a1,40(sp)
ffffffff84001982:	9a66                	add	s4,s4,s9
ffffffff84001984:	8752                	mv	a4,s4
ffffffff84001986:	ba4ff0ef          	jal	ffffffff84000d2a <create_bi_frame_cap>
ffffffff8400198a:	020c0f63          	beqz	s8,ffffffff840019c8 <init_kernel+0x332>
ffffffff8400198e:	480d3783          	ld	a5,1152(s10)
ffffffff84001992:	4505                	li	a0,1
ffffffff84001994:	151a                	sll	a0,a0,0x26
ffffffff84001996:	953e                	add	a0,a0,a5
ffffffff84001998:	76c2                	ld	a3,48(sp)
ffffffff8400199a:	7762                	ld	a4,56(sp)
ffffffff8400199c:	7582                	ld	a1,32(sp)
ffffffff8400199e:	7622                	ld	a2,40(sp)
ffffffff840019a0:	41750533          	sub	a0,a0,s7
ffffffff840019a4:	00fc0833          	add	a6,s8,a5
ffffffff840019a8:	e02a                	sd	a0,0(sp)
ffffffff840019aa:	4885                	li	a7,1
ffffffff840019ac:	1128                	add	a0,sp,168
ffffffff840019ae:	e93e                	sd	a5,144(sp)
ffffffff840019b0:	ed42                	sd	a6,152(sp)
ffffffff840019b2:	cfcff0ef          	jal	ffffffff84000eae <create_frames_of_region>
ffffffff840019b6:	77ea                	ld	a5,184(sp)
ffffffff840019b8:	ea0784e3          	beqz	a5,ffffffff84001860 <init_kernel+0x1ca>
ffffffff840019bc:	448d3783          	ld	a5,1096(s10)
ffffffff840019c0:	772a                	ld	a4,168(sp)
ffffffff840019c2:	ffb8                	sd	a4,120(a5)
ffffffff840019c4:	774a                	ld	a4,176(sp)
ffffffff840019c6:	e3d8                	sd	a4,128(a5)
ffffffff840019c8:	7642                	ld	a2,48(sp)
ffffffff840019ca:	76e2                	ld	a3,56(sp)
ffffffff840019cc:	7502                	ld	a0,32(sp)
ffffffff840019ce:	75a2                	ld	a1,40(sp)
ffffffff840019d0:	8766                	mv	a4,s9
ffffffff840019d2:	c5aff0ef          	jal	ffffffff84000e2c <create_ipcbuf_frame_cap>
ffffffff840019d6:	e0aa                	sd	a0,64(sp)
ffffffff840019d8:	e4ae                	sd	a1,72(sp)
ffffffff840019da:	03b55793          	srl	a5,a0,0x3b
ffffffff840019de:	e80781e3          	beqz	a5,ffffffff84001860 <init_kernel+0x1ca>
ffffffff840019e2:	76c2                	ld	a3,48(sp)
ffffffff840019e4:	7762                	ld	a4,56(sp)
ffffffff840019e6:	7582                	ld	a1,32(sp)
ffffffff840019e8:	7622                	ld	a2,40(sp)
ffffffff840019ea:	87a6                	mv	a5,s1
ffffffff840019ec:	e04a                	sd	s2,0(sp)
ffffffff840019ee:	4885                	li	a7,1
ffffffff840019f0:	884e                	mv	a6,s3
ffffffff840019f2:	0908                	add	a0,sp,144
ffffffff840019f4:	cbaff0ef          	jal	ffffffff84000eae <create_frames_of_region>
ffffffff840019f8:	778a                	ld	a5,160(sp)
ffffffff840019fa:	e60783e3          	beqz	a5,ffffffff84001860 <init_kernel+0x1ca>
ffffffff840019fe:	448d3403          	ld	s0,1096(s10)
ffffffff84001a02:	67ca                	ld	a5,144(sp)
ffffffff84001a04:	468d3483          	ld	s1,1128(s10)
ffffffff84001a08:	4581                	li	a1,0
ffffffff84001a0a:	e43c                	sd	a5,72(s0)
ffffffff84001a0c:	67ea                	ld	a5,152(sp)
ffffffff84001a0e:	04e6                	sll	s1,s1,0x19
ffffffff84001a10:	80ed                	srl	s1,s1,0x1b
ffffffff84001a12:	e83c                	sd	a5,80(s0)
ffffffff84001a14:	47b5                	li	a5,13
ffffffff84001a16:	17ee                	sll	a5,a5,0x3b
ffffffff84001a18:	856e                	mv	a0,s11
ffffffff84001a1a:	8cdd                	or	s1,s1,a5
ffffffff84001a1c:	4a9030ef          	jal	ffffffff840056c4 <cap_get_capPtr>
ffffffff84001a20:	472d                	li	a4,11
ffffffff84001a22:	7942                	ld	s2,48(sp)
ffffffff84001a24:	79e2                	ld	s3,56(sp)
ffffffff84001a26:	468d                	li	a3,3
ffffffff84001a28:	176e                	sll	a4,a4,0x3b
ffffffff84001a2a:	ed74                	sd	a3,216(a0)
ffffffff84001a2c:	f158                	sd	a4,160(a0)
ffffffff84001a2e:	fd54                	sd	a3,184(a0)
ffffffff84001a30:	e164                	sd	s1,192(a0)
ffffffff84001a32:	4581                	li	a1,0
ffffffff84001a34:	0c053423          	sd	zero,200(a0)
ffffffff84001a38:	0c053823          	sd	zero,208(a0)
ffffffff84001a3c:	0a053423          	sd	zero,168(a0)
ffffffff84001a40:	0a053823          	sd	zero,176(a0)
ffffffff84001a44:	8526                	mv	a0,s1
ffffffff84001a46:	e14a                	sd	s2,128(sp)
ffffffff84001a48:	e54e                	sd	s3,136(sp)
ffffffff84001a4a:	47b030ef          	jal	ffffffff840056c4 <cap_get_capPtr>
ffffffff84001a4e:	84aa                	mv	s1,a0
ffffffff84001a50:	85ce                	mv	a1,s3
ffffffff84001a52:	854a                	mv	a0,s2
ffffffff84001a54:	471030ef          	jal	ffffffff840056c4 <cap_get_capPtr>
ffffffff84001a58:	87aa                	mv	a5,a0
ffffffff84001a5a:	e49c                	sd	a5,8(s1)
ffffffff84001a5c:	0000a517          	auipc	a0,0xa
ffffffff84001a60:	fa450513          	add	a0,a0,-92 # ffffffff8400ba00 <ksIdleThreadTCB+0x200>
ffffffff84001a64:	a9818913          	add	s2,gp,-1384 # ffffffff8400ad48 <ksIdleThread>
ffffffff84001a68:	d891b423          	sd	s1,-632(gp) # ffffffff8400b038 <riscvKSASIDTable>
ffffffff84001a6c:	00a93023          	sd	a0,0(s2)
ffffffff84001a70:	be3ff0ef          	jal	ffffffff84001652 <configureIdleThread>
ffffffff84001a74:	67a6                	ld	a5,72(sp)
ffffffff84001a76:	6886                	ld	a7,64(sp)
ffffffff84001a78:	7642                	ld	a2,48(sp)
ffffffff84001a7a:	76e2                	ld	a3,56(sp)
ffffffff84001a7c:	7502                	ld	a0,32(sp)
ffffffff84001a7e:	75a2                	ld	a1,40(sp)
ffffffff84001a80:	6742                	ld	a4,16(sp)
ffffffff84001a82:	e03e                	sd	a5,0(sp)
ffffffff84001a84:	8866                	mv	a6,s9
ffffffff84001a86:	87d2                	mv	a5,s4
ffffffff84001a88:	a4dff0ef          	jal	ffffffff840014d4 <create_initial_thread>
ffffffff84001a8c:	87aa                	mv	a5,a0
ffffffff84001a8e:	dc0509e3          	beqz	a0,ffffffff84001860 <init_kernel+0x1ca>
ffffffff84001a92:	00093703          	ld	a4,0(s2)
ffffffff84001a96:	7502                	ld	a0,32(sp)
ffffffff84001a98:	75a2                	ld	a1,40(sp)
ffffffff84001a9a:	a8f1b823          	sd	a5,-1392(gp) # ffffffff8400ad40 <ksSchedulerAction>
ffffffff84001a9e:	aae1b023          	sd	a4,-1376(gp) # ffffffff8400ad50 <ksCurThread>
ffffffff84001aa2:	923ff0ef          	jal	ffffffff840013c4 <create_untypeds>
ffffffff84001aa6:	da050de3          	beqz	a0,ffffffff84001860 <init_kernel+0x1ca>
ffffffff84001aaa:	450d3783          	ld	a5,1104(s10)
ffffffff84001aae:	02043c23          	sd	zero,56(s0)
ffffffff84001ab2:	04043023          	sd	zero,64(s0)
ffffffff84001ab6:	f41c                	sd	a5,40(s0)
ffffffff84001ab8:	000807b7          	lui	a5,0x80
ffffffff84001abc:	f81c                	sd	a5,48(s0)
ffffffff84001abe:	4785                	li	a5,1
ffffffff84001ac0:	d2f1b423          	sd	a5,-728(gp) # ffffffff8400afd8 <ksNumCPUs>
ffffffff84001ac4:	458050ef          	jal	ffffffff84006f1c <schedule>
ffffffff84001ac8:	7412                	ld	s0,288(sp)
ffffffff84001aca:	70b2                	ld	ra,296(sp)
ffffffff84001acc:	64f2                	ld	s1,280(sp)
ffffffff84001ace:	6952                	ld	s2,272(sp)
ffffffff84001ad0:	69b2                	ld	s3,264(sp)
ffffffff84001ad2:	6a12                	ld	s4,256(sp)
ffffffff84001ad4:	7aee                	ld	s5,248(sp)
ffffffff84001ad6:	7b4e                	ld	s6,240(sp)
ffffffff84001ad8:	7bae                	ld	s7,232(sp)
ffffffff84001ada:	7c0e                	ld	s8,224(sp)
ffffffff84001adc:	6cee                	ld	s9,216(sp)
ffffffff84001ade:	6d4e                	ld	s10,208(sp)
ffffffff84001ae0:	6dae                	ld	s11,200(sp)
ffffffff84001ae2:	6155                	add	sp,sp,304
ffffffff84001ae4:	7ab0406f          	j	ffffffff84006a8e <activateThread>
ffffffff84001ae8:	0056d713          	srl	a4,a3,0x5
ffffffff84001aec:	070a                	sll	a4,a4,0x2
ffffffff84001aee:	9742                	add	a4,a4,a6
ffffffff84001af0:	430c                	lw	a1,0(a4)
ffffffff84001af2:	01f6f793          	and	a5,a3,31
ffffffff84001af6:	00f897b3          	sll	a5,a7,a5
ffffffff84001afa:	fff7c793          	not	a5,a5
ffffffff84001afe:	8fed                	and	a5,a5,a1
ffffffff84001b00:	2781                	sext.w	a5,a5
ffffffff84001b02:	c31c                	sw	a5,0(a4)
ffffffff84001b04:	0685                	add	a3,a3,1
ffffffff84001b06:	0621                	add	a2,a2,8
ffffffff84001b08:	bbf9                	j	ffffffff840018e6 <init_kernel+0x250>

Disassembly of section .text:

ffffffff84003000 <ki_boot_end>:
ffffffff84003000:	140292f3          	csrrw	t0,sscratch,t0
ffffffff84003004:	0012b023          	sd	ra,0(t0)
ffffffff84003008:	0022b423          	sd	sp,8(t0)
ffffffff8400300c:	0032b823          	sd	gp,16(t0)
ffffffff84003010:	0042bc23          	sd	tp,24(t0)
ffffffff84003014:	0262b423          	sd	t1,40(t0)
ffffffff84003018:	0272b823          	sd	t2,48(t0)
ffffffff8400301c:	0282bc23          	sd	s0,56(t0)
ffffffff84003020:	0492b023          	sd	s1,64(t0)
ffffffff84003024:	04a2b423          	sd	a0,72(t0)
ffffffff84003028:	04b2b823          	sd	a1,80(t0)
ffffffff8400302c:	04c2bc23          	sd	a2,88(t0)
ffffffff84003030:	06d2b023          	sd	a3,96(t0)
ffffffff84003034:	06e2b423          	sd	a4,104(t0)
ffffffff84003038:	06f2b823          	sd	a5,112(t0)
ffffffff8400303c:	0702bc23          	sd	a6,120(t0)
ffffffff84003040:	0912b023          	sd	a7,128(t0)
ffffffff84003044:	0922b423          	sd	s2,136(t0)
ffffffff84003048:	0932b823          	sd	s3,144(t0)
ffffffff8400304c:	0942bc23          	sd	s4,152(t0)
ffffffff84003050:	0b52b023          	sd	s5,160(t0)
ffffffff84003054:	0b62b423          	sd	s6,168(t0)
ffffffff84003058:	0b72b823          	sd	s7,176(t0)
ffffffff8400305c:	0b82bc23          	sd	s8,184(t0)
ffffffff84003060:	0d92b023          	sd	s9,192(t0)
ffffffff84003064:	0da2b423          	sd	s10,200(t0)
ffffffff84003068:	0db2b823          	sd	s11,208(t0)
ffffffff8400306c:	0dc2bc23          	sd	t3,216(t0)
ffffffff84003070:	0fd2b023          	sd	t4,224(t0)
ffffffff84003074:	0fe2b423          	sd	t5,232(t0)
ffffffff84003078:	0ff2b823          	sd	t6,240(t0)
ffffffff8400307c:	140020f3          	csrr	ra,sscratch
ffffffff84003080:	0212b023          	sd	ra,32(t0)
ffffffff84003084:	100020f3          	csrr	ra,sstatus
ffffffff84003088:	1012b023          	sd	ra,256(t0)
ffffffff8400308c:	14202473          	csrr	s0,scause
ffffffff84003090:	0e82bc23          	sd	s0,248(t0)
ffffffff84003094:	00008197          	auipc	gp,0x8
ffffffff84003098:	21c18193          	add	gp,gp,540 # ffffffff8400b2b0 <__global_pointer$>
ffffffff8400309c:	0001a117          	auipc	sp,0x1a
ffffffff840030a0:	76410113          	add	sp,sp,1892 # ffffffff8401d800 <_breakpoint_stack_bottom>
ffffffff840030a4:	141020f3          	csrr	ra,sepc
ffffffff840030a8:	1012b423          	sd	ra,264(t0)
ffffffff840030ac:	02044963          	bltz	s0,ffffffff840030de <interrupt>
ffffffff840030b0:	4a21                	li	s4,8
ffffffff840030b2:	03441263          	bne	s0,s4,ffffffff840030d6 <exception>

ffffffff840030b6 <handle_syscall>:
ffffffff840030b6:	0091                	add	ra,ra,4
ffffffff840030b8:	1012b823          	sd	ra,272(t0)
ffffffff840030bc:	5e7d                	li	t3,-1
ffffffff840030be:	01c89463          	bne	a7,t3,ffffffff840030c6 <handle_syscall+0x10>
ffffffff840030c2:	43e0006f          	j	ffffffff84003500 <c_handle_fastpath_call>
ffffffff840030c6:	5e79                	li	t3,-2
ffffffff840030c8:	01c89463          	bne	a7,t3,ffffffff840030d0 <handle_syscall+0x1a>
ffffffff840030cc:	1340006f          	j	ffffffff84003200 <c_handle_fastpath_reply_recv>
ffffffff840030d0:	8646                	mv	a2,a7
ffffffff840030d2:	0ee0006f          	j	ffffffff840031c0 <c_handle_syscall>

ffffffff840030d6 <exception>:
ffffffff840030d6:	1012b823          	sd	ra,272(t0)
ffffffff840030da:	0ba0006f          	j	ffffffff84003194 <c_handle_exception>

ffffffff840030de <interrupt>:
ffffffff840030de:	1012b823          	sd	ra,272(t0)
ffffffff840030e2:	0a60006f          	j	ffffffff84003188 <c_handle_interrupt>

ffffffff840030e6 <restore_user_context>:
ffffffff840030e6:	aa01b783          	ld	a5,-1376(gp) # ffffffff8400ad50 <ksCurThread>
ffffffff840030ea:	82be                	mv	t0,a5
ffffffff840030ec:	0002b083          	ld	ra,0(t0)
ffffffff840030f0:	0082b103          	ld	sp,8(t0)
ffffffff840030f4:	0102b183          	ld	gp,16(t0)
ffffffff840030f8:	1802a02f          	sc.w	zero,zero,(t0)
ffffffff840030fc:	0302b383          	ld	t2,48(t0)
ffffffff84003100:	0382b403          	ld	s0,56(t0)
ffffffff84003104:	0402b483          	ld	s1,64(t0)
ffffffff84003108:	0482b503          	ld	a0,72(t0)
ffffffff8400310c:	0502b583          	ld	a1,80(t0)
ffffffff84003110:	0582b603          	ld	a2,88(t0)
ffffffff84003114:	0602b683          	ld	a3,96(t0)
ffffffff84003118:	0682b703          	ld	a4,104(t0)
ffffffff8400311c:	0702b783          	ld	a5,112(t0)
ffffffff84003120:	0782b803          	ld	a6,120(t0)
ffffffff84003124:	0802b883          	ld	a7,128(t0)
ffffffff84003128:	0882b903          	ld	s2,136(t0)
ffffffff8400312c:	0902b983          	ld	s3,144(t0)
ffffffff84003130:	0982ba03          	ld	s4,152(t0)
ffffffff84003134:	0a02ba83          	ld	s5,160(t0)
ffffffff84003138:	0a82bb03          	ld	s6,168(t0)
ffffffff8400313c:	0b02bb83          	ld	s7,176(t0)
ffffffff84003140:	0b82bc03          	ld	s8,184(t0)
ffffffff84003144:	0c02bc83          	ld	s9,192(t0)
ffffffff84003148:	0c82bd03          	ld	s10,200(t0)
ffffffff8400314c:	0d02bd83          	ld	s11,208(t0)
ffffffff84003150:	0d82be03          	ld	t3,216(t0)
ffffffff84003154:	0e02be83          	ld	t4,224(t0)
ffffffff84003158:	0e82bf03          	ld	t5,232(t0)
ffffffff8400315c:	0f02bf83          	ld	t6,240(t0)
ffffffff84003160:	0182b303          	ld	t1,24(t0)
ffffffff84003164:	00030233          	add	tp,t1,zero
ffffffff84003168:	1102b303          	ld	t1,272(t0)
ffffffff8400316c:	14131073          	csrw	sepc,t1
ffffffff84003170:	14029073          	csrw	sscratch,t0
ffffffff84003174:	1002b303          	ld	t1,256(t0)
ffffffff84003178:	10031073          	csrw	sstatus,t1
ffffffff8400317c:	0282b303          	ld	t1,40(t0)
ffffffff84003180:	0202b283          	ld	t0,32(t0)
ffffffff84003184:	10200073          	sret

ffffffff84003188 <c_handle_interrupt>:
ffffffff84003188:	1141                	add	sp,sp,-16
ffffffff8400318a:	e406                	sd	ra,8(sp)
ffffffff8400318c:	4df040ef          	jal	ffffffff84007e6a <handleInterruptEntry>
ffffffff84003190:	f57ff0ef          	jal	ffffffff840030e6 <restore_user_context>

ffffffff84003194 <c_handle_exception>:
ffffffff84003194:	1141                	add	sp,sp,-16
ffffffff84003196:	e406                	sd	ra,8(sp)
ffffffff84003198:	14202573          	csrr	a0,scause
ffffffff8400319c:	47bd                	li	a5,15
ffffffff8400319e:	00a7e963          	bltu	a5,a0,ffffffff840031b0 <c_handle_exception+0x1c>
ffffffff840031a2:	67ad                	lui	a5,0xb
ffffffff840031a4:	0a278793          	add	a5,a5,162 # b0a2 <KERNEL_OFFSET-0xfffffffeffff4f5e>
ffffffff840031a8:	00a7d7b3          	srl	a5,a5,a0
ffffffff840031ac:	8b85                	and	a5,a5,1
ffffffff840031ae:	e791                	bnez	a5,ffffffff840031ba <c_handle_exception+0x26>
ffffffff840031b0:	4581                	li	a1,0
ffffffff840031b2:	6de050ef          	jal	ffffffff84008890 <handleUserLevelFault>
ffffffff840031b6:	f31ff0ef          	jal	ffffffff840030e6 <restore_user_context>
ffffffff840031ba:	724050ef          	jal	ffffffff840088de <handleVMFaultEvent>
ffffffff840031be:	bfe5                	j	ffffffff840031b6 <c_handle_exception+0x22>

ffffffff840031c0 <c_handle_syscall>:
ffffffff840031c0:	1141                	add	sp,sp,-16
ffffffff840031c2:	8532                	mv	a0,a2
ffffffff840031c4:	e406                	sd	ra,8(sp)
ffffffff840031c6:	5de070ef          	jal	ffffffff8400a7a4 <slowpath>
ffffffff840031ca:	0000                	unimp
ffffffff840031cc:	0000                	unimp
ffffffff840031ce:	0000                	unimp
ffffffff840031d0:	0000                	unimp
ffffffff840031d2:	0000                	unimp
ffffffff840031d4:	0000                	unimp
ffffffff840031d6:	0000                	unimp
ffffffff840031d8:	0000                	unimp
ffffffff840031da:	0000                	unimp
ffffffff840031dc:	0000                	unimp
ffffffff840031de:	0000                	unimp
ffffffff840031e0:	0000                	unimp
ffffffff840031e2:	0000                	unimp
ffffffff840031e4:	0000                	unimp
ffffffff840031e6:	0000                	unimp
ffffffff840031e8:	0000                	unimp
ffffffff840031ea:	0000                	unimp
ffffffff840031ec:	0000                	unimp
ffffffff840031ee:	0000                	unimp
ffffffff840031f0:	0000                	unimp
ffffffff840031f2:	0000                	unimp
ffffffff840031f4:	0000                	unimp
ffffffff840031f6:	0000                	unimp
ffffffff840031f8:	0000                	unimp
ffffffff840031fa:	0000                	unimp
ffffffff840031fc:	0000                	unimp
ffffffff840031fe:	0000                	unimp

ffffffff84003200 <c_handle_fastpath_reply_recv>:
ffffffff84003200:	7119                	add	sp,sp,-128
ffffffff84003202:	e0da                	sd	s6,64(sp)
ffffffff84003204:	aa018b13          	add	s6,gp,-1376 # ffffffff8400ad50 <ksCurThread>
ffffffff84003208:	ecce                	sd	s3,88(sp)
ffffffff8400320a:	000b3983          	ld	s3,0(s6)
ffffffff8400320e:	fc86                	sd	ra,120(sp)
ffffffff84003210:	f8a2                	sd	s0,112(sp)
ffffffff84003212:	f4a6                	sd	s1,104(sp)
ffffffff84003214:	f0ca                	sd	s2,96(sp)
ffffffff84003216:	e8d2                	sd	s4,80(sp)
ffffffff84003218:	e4d6                	sd	s5,72(sp)
ffffffff8400321a:	fc5e                	sd	s7,56(sp)
ffffffff8400321c:	f862                	sd	s8,48(sp)
ffffffff8400321e:	f466                	sd	s9,40(sp)
ffffffff84003220:	f06a                	sd	s10,32(sp)
ffffffff84003222:	ec6e                	sd	s11,24(sp)
ffffffff84003224:	1ff5f713          	and	a4,a1,511
ffffffff84003228:	4791                	li	a5,4
ffffffff8400322a:	1389b683          	ld	a3,312(s3)
ffffffff8400322e:	10e7ed63          	bltu	a5,a4,ffffffff84003348 <c_handle_fastpath_reply_recv+0x148>
ffffffff84003232:	8abd                	and	a3,a3,15
ffffffff84003234:	10069a63          	bnez	a3,ffffffff84003348 <c_handle_fastpath_reply_recv+0x148>
ffffffff84003238:	c009fb93          	and	s7,s3,-1024
ffffffff8400323c:	000bb403          	ld	s0,0(s7) # 2000 <KERNEL_OFFSET-0xfffffffeffffe000>
ffffffff84003240:	47a9                	li	a5,10
ffffffff84003242:	008bb883          	ld	a7,8(s7)
ffffffff84003246:	03b45713          	srl	a4,s0,0x3b
ffffffff8400324a:	8a2e                	mv	s4,a1
ffffffff8400324c:	894e                	mv	s2,s3
ffffffff8400324e:	0ef71d63          	bne	a4,a5,ffffffff84003348 <c_handle_fastpath_reply_recv+0x148>
ffffffff84003252:	03545613          	srl	a2,s0,0x35
ffffffff84003256:	02f45813          	srl	a6,s0,0x2f
ffffffff8400325a:	03f67593          	and	a1,a2,63
ffffffff8400325e:	03f87813          	and	a6,a6,63
ffffffff84003262:	00d51733          	sll	a4,a0,a3
ffffffff84003266:	862e                	mv	a2,a1
ffffffff84003268:	c981                	beqz	a1,ffffffff84003278 <c_handle_fastpath_reply_recv+0x78>
ffffffff8400326a:	04000793          	li	a5,64
ffffffff8400326e:	9f8d                	subw	a5,a5,a1
ffffffff84003270:	00f757b3          	srl	a5,a4,a5
ffffffff84003274:	0d179a63          	bne	a5,a7,ffffffff84003348 <c_handle_fastpath_reply_recv+0x148>
ffffffff84003278:	00c71733          	sll	a4,a4,a2
ffffffff8400327c:	04000613          	li	a2,64
ffffffff84003280:	0406                	sll	s0,s0,0x1
ffffffff84003282:	4106063b          	subw	a2,a2,a6
ffffffff84003286:	02645793          	srl	a5,s0,0x26
ffffffff8400328a:	00c75733          	srl	a4,a4,a2
ffffffff8400328e:	fc000637          	lui	a2,0xfc000
ffffffff84003292:	8265                	srl	a2,a2,0x19
ffffffff84003294:	8b85                	and	a5,a5,1
ffffffff84003296:	0716                	sll	a4,a4,0x5
ffffffff84003298:	8c71                	and	s0,s0,a2
ffffffff8400329a:	c781                	beqz	a5,ffffffff840032a2 <c_handle_fastpath_reply_recv+0xa2>
ffffffff8400329c:	57fd                	li	a5,-1
ffffffff8400329e:	179e                	sll	a5,a5,0x27
ffffffff840032a0:	8c5d                	or	s0,s0,a5
ffffffff840032a2:	010587b3          	add	a5,a1,a6
ffffffff840032a6:	9722                	add	a4,a4,s0
ffffffff840032a8:	96be                	add	a3,a3,a5
ffffffff840032aa:	03f00793          	li	a5,63
ffffffff840032ae:	6300                	ld	s0,0(a4)
ffffffff840032b0:	00873883          	ld	a7,8(a4)
ffffffff840032b4:	20d7f363          	bgeu	a5,a3,ffffffff840034ba <c_handle_fastpath_reply_recv+0x2ba>
ffffffff840032b8:	04000793          	li	a5,64
ffffffff840032bc:	08f69663          	bne	a3,a5,ffffffff84003348 <c_handle_fastpath_reply_recv+0x148>
ffffffff840032c0:	03b45793          	srl	a5,s0,0x3b
ffffffff840032c4:	4711                	li	a4,4
ffffffff840032c6:	08e79163          	bne	a5,a4,ffffffff84003348 <c_handle_fastpath_reply_recv+0x148>
ffffffff840032ca:	03845793          	srl	a5,s0,0x38
ffffffff840032ce:	8b85                	and	a5,a5,1
ffffffff840032d0:	cfa5                	beqz	a5,ffffffff84003348 <c_handle_fastpath_reply_recv+0x148>
ffffffff840032d2:	1309b783          	ld	a5,304(s3)
ffffffff840032d6:	1e079863          	bnez	a5,ffffffff840034c6 <c_handle_fastpath_reply_recv+0x2c6>
ffffffff840032da:	577d                	li	a4,-1
ffffffff840032dc:	02645793          	srl	a5,s0,0x26
ffffffff840032e0:	01975493          	srl	s1,a4,0x19
ffffffff840032e4:	8b85                	and	a5,a5,1
ffffffff840032e6:	8ce1                	and	s1,s1,s0
ffffffff840032e8:	c399                	beqz	a5,ffffffff840032ee <c_handle_fastpath_reply_recv+0xee>
ffffffff840032ea:	171e                	sll	a4,a4,0x27
ffffffff840032ec:	8cd9                	or	s1,s1,a4
ffffffff840032ee:	0004bd03          	ld	s10,0(s1)
ffffffff840032f2:	4785                	li	a5,1
ffffffff840032f4:	003d7713          	and	a4,s10,3
ffffffff840032f8:	04f70863          	beq	a4,a5,ffffffff84003348 <c_handle_fastpath_reply_recv+0x148>
ffffffff840032fc:	060bb703          	ld	a4,96(s7)
ffffffff84003300:	46a1                	li	a3,8
ffffffff84003302:	060b8d93          	add	s11,s7,96
ffffffff84003306:	936d                	srl	a4,a4,0x3b
ffffffff84003308:	008dbc03          	ld	s8,8(s11)
ffffffff8400330c:	02d71e63          	bne	a4,a3,ffffffff84003348 <c_handle_fastpath_reply_recv+0x148>
ffffffff84003310:	138c3703          	ld	a4,312(s8)
ffffffff84003314:	8b3d                	and	a4,a4,15
ffffffff84003316:	eb0d                	bnez	a4,ffffffff84003348 <c_handle_fastpath_reply_recv+0x148>
ffffffff84003318:	c00c7693          	and	a3,s8,-1024
ffffffff8400331c:	0286ba83          	ld	s5,40(a3)
ffffffff84003320:	577d                	li	a4,-1
ffffffff84003322:	179a                	sll	a5,a5,0x26
ffffffff84003324:	009adc93          	srl	s9,s5,0x9
ffffffff84003328:	01975613          	srl	a2,a4,0x19
ffffffff8400332c:	00fcf7b3          	and	a5,s9,a5
ffffffff84003330:	7294                	ld	a3,32(a3)
ffffffff84003332:	00ccfcb3          	and	s9,s9,a2
ffffffff84003336:	c781                	beqz	a5,ffffffff8400333e <c_handle_fastpath_reply_recv+0x13e>
ffffffff84003338:	171e                	sll	a4,a4,0x27
ffffffff8400333a:	00ececb3          	or	s9,s9,a4
ffffffff8400333e:	03b6d793          	srl	a5,a3,0x3b
ffffffff84003342:	470d                	li	a4,3
ffffffff84003344:	00e78563          	beq	a5,a4,ffffffff8400334e <c_handle_fastpath_reply_recv+0x14e>
ffffffff84003348:	5579                	li	a0,-2
ffffffff8400334a:	45a070ef          	jal	ffffffff8400a7a4 <slowpath>
ffffffff8400334e:	929d                	srl	a3,a3,0x27
ffffffff84003350:	8a85                	and	a3,a3,1
ffffffff84003352:	dafd                	beqz	a3,ffffffff84003348 <c_handle_fastpath_reply_recv+0x148>
ffffffff84003354:	168c3583          	ld	a1,360(s8)
ffffffff84003358:	8c81b783          	ld	a5,-1848(gp) # ffffffff8400ab78 <ksCurDomain>
ffffffff8400335c:	853e                	mv	a0,a5
ffffffff8400335e:	e43e                	sd	a5,8(sp)
ffffffff84003360:	030ada93          	srl	s5,s5,0x30
ffffffff84003364:	79a000ef          	jal	ffffffff84003afe <isHighestPrio>
ffffffff84003368:	d165                	beqz	a0,ffffffff84003348 <c_handle_fastpath_reply_recv+0x148>
ffffffff8400336a:	158c3703          	ld	a4,344(s8)
ffffffff8400336e:	67a2                	ld	a5,8(sp)
ffffffff84003370:	fce79ce3          	bne	a5,a4,ffffffff84003348 <c_handle_fastpath_reply_recv+0x148>
ffffffff84003374:	1209b783          	ld	a5,288(s3)
ffffffff84003378:	9059                	srl	s0,s0,0x36
ffffffff8400337a:	0034e713          	or	a4,s1,3
ffffffff8400337e:	9bdd                	and	a5,a5,-9
ffffffff84003380:	8821                	and	s0,s0,8
ffffffff84003382:	8c5d                	or	s0,s0,a5
ffffffff84003384:	10e9bc23          	sd	a4,280(s3)
ffffffff84003388:	026d5793          	srl	a5,s10,0x26
ffffffff8400338c:	f8000737          	lui	a4,0xf8000
ffffffff84003390:	8365                	srl	a4,a4,0x19
ffffffff84003392:	1289b023          	sd	s0,288(s3)
ffffffff84003396:	8b85                	and	a5,a5,1
ffffffff84003398:	00ed7d33          	and	s10,s10,a4
ffffffff8400339c:	0029e713          	or	a4,s3,2
ffffffff840033a0:	12078963          	beqz	a5,ffffffff840034d2 <c_handle_fastpath_reply_recv+0x2d2>
ffffffff840033a4:	57fd                	li	a5,-1
ffffffff840033a6:	179e                	sll	a5,a5,0x27
ffffffff840033a8:	00fd6d33          	or	s10,s10,a5
ffffffff840033ac:	193d3c23          	sd	s3,408(s10)
ffffffff840033b0:	1ba9b023          	sd	s10,416(s3)
ffffffff840033b4:	1809bc23          	sd	zero,408(s3)
ffffffff840033b8:	010db783          	ld	a5,16(s11)
ffffffff840033bc:	e098                	sd	a4,0(s1)
ffffffff840033be:	470d                	li	a4,3
ffffffff840033c0:	ef98                	sd	a4,24(a5)
ffffffff840033c2:	060bb023          	sd	zero,96(s7)
ffffffff840033c6:	07fa7793          	and	a5,s4,127
ffffffff840033ca:	000db423          	sd	zero,8(s11)
ffffffff840033ce:	000db823          	sd	zero,16(s11)
ffffffff840033d2:	000dbc23          	sd	zero,24(s11)
ffffffff840033d6:	cf89                	beqz	a5,ffffffff840033f0 <c_handle_fastpath_reply_recv+0x1f0>
ffffffff840033d8:	078e                	sll	a5,a5,0x3
ffffffff840033da:	058c0713          	add	a4,s8,88
ffffffff840033de:	97ce                	add	a5,a5,s3
ffffffff840033e0:	05893683          	ld	a3,88(s2)
ffffffff840033e4:	0921                	add	s2,s2,8
ffffffff840033e6:	0721                	add	a4,a4,8 # fffffffff8000008 <ki_end+0x73fde008>
ffffffff840033e8:	fed73c23          	sd	a3,-8(a4)
ffffffff840033ec:	ff279ae3          	bne	a5,s2,ffffffff840033e0 <c_handle_fastpath_reply_recv+0x1e0>
ffffffff840033f0:	4685                	li	a3,1
ffffffff840033f2:	02669793          	sll	a5,a3,0x26
ffffffff840033f6:	577d                	li	a4,-1
ffffffff840033f8:	97e6                	add	a5,a5,s9
ffffffff840033fa:	01475613          	srl	a2,a4,0x14
ffffffff840033fe:	83b1                	srl	a5,a5,0xc
ffffffff84003400:	8ff1                	and	a5,a5,a2
ffffffff84003402:	1ab2                	sll	s5,s5,0x2c
ffffffff84003404:	0157e7b3          	or	a5,a5,s5
ffffffff84003408:	177e                	sll	a4,a4,0x3f
ffffffff8400340a:	10dc3c23          	sd	a3,280(s8)
ffffffff8400340e:	8fd9                	or	a5,a5,a4
ffffffff84003410:	18079073          	csrw	satp,a5
ffffffff84003414:	12000073          	sfence.vma
ffffffff84003418:	75fd                	lui	a1,0xfffff
ffffffff8400341a:	1ff58593          	add	a1,a1,511 # fffffffffffff1ff <ki_end+0x7bfdd1ff>
ffffffff8400341e:	018b3023          	sd	s8,0(s6)
ffffffff84003422:	4501                	li	a0,0
ffffffff84003424:	00ba75b3          	and	a1,s4,a1
ffffffff84003428:	82e2                	mv	t0,s8
ffffffff8400342a:	0002b083          	ld	ra,0(t0)
ffffffff8400342e:	0082b103          	ld	sp,8(t0)
ffffffff84003432:	0102b183          	ld	gp,16(t0)
ffffffff84003436:	0302b383          	ld	t2,48(t0)
ffffffff8400343a:	0382b403          	ld	s0,56(t0)
ffffffff8400343e:	0402b483          	ld	s1,64(t0)
ffffffff84003442:	0582b603          	ld	a2,88(t0)
ffffffff84003446:	0602b683          	ld	a3,96(t0)
ffffffff8400344a:	0682b703          	ld	a4,104(t0)
ffffffff8400344e:	0702b783          	ld	a5,112(t0)
ffffffff84003452:	0782b803          	ld	a6,120(t0)
ffffffff84003456:	0802b883          	ld	a7,128(t0)
ffffffff8400345a:	0882b903          	ld	s2,136(t0)
ffffffff8400345e:	0902b983          	ld	s3,144(t0)
ffffffff84003462:	0982ba03          	ld	s4,152(t0)
ffffffff84003466:	0a02ba83          	ld	s5,160(t0)
ffffffff8400346a:	0a82bb03          	ld	s6,168(t0)
ffffffff8400346e:	0b02bb83          	ld	s7,176(t0)
ffffffff84003472:	0b82bc03          	ld	s8,184(t0)
ffffffff84003476:	0c02bc83          	ld	s9,192(t0)
ffffffff8400347a:	0c82bd03          	ld	s10,200(t0)
ffffffff8400347e:	0d02bd83          	ld	s11,208(t0)
ffffffff84003482:	0d82be03          	ld	t3,216(t0)
ffffffff84003486:	0e02be83          	ld	t4,224(t0)
ffffffff8400348a:	0e82bf03          	ld	t5,232(t0)
ffffffff8400348e:	0f02bf83          	ld	t6,240(t0)
ffffffff84003492:	0182b303          	ld	t1,24(t0)
ffffffff84003496:	00030233          	add	tp,t1,zero
ffffffff8400349a:	1102b303          	ld	t1,272(t0)
ffffffff8400349e:	14131073          	csrw	sepc,t1
ffffffff840034a2:	14029073          	csrw	sscratch,t0
ffffffff840034a6:	1002b303          	ld	t1,256(t0)
ffffffff840034aa:	10031073          	csrw	sstatus,t1
ffffffff840034ae:	0282b303          	ld	t1,40(t0)
ffffffff840034b2:	0202b283          	ld	t0,32(t0)
ffffffff840034b6:	10200073          	sret
ffffffff840034ba:	03b45793          	srl	a5,s0,0x3b
ffffffff840034be:	4729                	li	a4,10
ffffffff840034c0:	e0e792e3          	bne	a5,a4,ffffffff840032c4 <c_handle_fastpath_reply_recv+0xc4>
ffffffff840034c4:	b379                	j	ffffffff84003252 <c_handle_fastpath_reply_recv+0x52>
ffffffff840034c6:	639c                	ld	a5,0(a5)
ffffffff840034c8:	4709                	li	a4,2
ffffffff840034ca:	8b8d                	and	a5,a5,3
ffffffff840034cc:	e0e797e3          	bne	a5,a4,ffffffff840032da <c_handle_fastpath_reply_recv+0xda>
ffffffff840034d0:	bda5                	j	ffffffff84003348 <c_handle_fastpath_reply_recv+0x148>
ffffffff840034d2:	ec0d1de3          	bnez	s10,ffffffff840033ac <c_handle_fastpath_reply_recv+0x1ac>
ffffffff840034d6:	1a09b023          	sd	zero,416(s3)
ffffffff840034da:	1809bc23          	sd	zero,408(s3)
ffffffff840034de:	0134b423          	sd	s3,8(s1)
ffffffff840034e2:	bdd9                	j	ffffffff840033b8 <c_handle_fastpath_reply_recv+0x1b8>
ffffffff840034e4:	00000013          	nop
ffffffff840034e8:	00000013          	nop
ffffffff840034ec:	00000013          	nop
ffffffff840034f0:	00000013          	nop
ffffffff840034f4:	00000013          	nop
ffffffff840034f8:	00000013          	nop
ffffffff840034fc:	00000013          	nop

ffffffff84003500 <c_handle_fastpath_call>:
ffffffff84003500:	7119                	add	sp,sp,-128
ffffffff84003502:	e8d2                	sd	s4,80(sp)
ffffffff84003504:	aa018a13          	add	s4,gp,-1376 # ffffffff8400ad50 <ksCurThread>
ffffffff84003508:	e4d6                	sd	s5,72(sp)
ffffffff8400350a:	000a3a83          	ld	s5,0(s4) # 1000 <KERNEL_OFFSET-0xfffffffefffff000>
ffffffff8400350e:	fc86                	sd	ra,120(sp)
ffffffff84003510:	f8a2                	sd	s0,112(sp)
ffffffff84003512:	f4a6                	sd	s1,104(sp)
ffffffff84003514:	f0ca                	sd	s2,96(sp)
ffffffff84003516:	ecce                	sd	s3,88(sp)
ffffffff84003518:	e0da                	sd	s6,64(sp)
ffffffff8400351a:	fc5e                	sd	s7,56(sp)
ffffffff8400351c:	f862                	sd	s8,48(sp)
ffffffff8400351e:	f466                	sd	s9,40(sp)
ffffffff84003520:	f06a                	sd	s10,32(sp)
ffffffff84003522:	ec6e                	sd	s11,24(sp)
ffffffff84003524:	1ff5f713          	and	a4,a1,511
ffffffff84003528:	4791                	li	a5,4
ffffffff8400352a:	138ab683          	ld	a3,312(s5) # 200138 <KERNEL_OFFSET-0xfffffffeffdffec8>
ffffffff8400352e:	0ee7ee63          	bltu	a5,a4,ffffffff8400362a <c_handle_fastpath_call+0x12a>
ffffffff84003532:	8abd                	and	a3,a3,15
ffffffff84003534:	eafd                	bnez	a3,ffffffff8400362a <c_handle_fastpath_call+0x12a>
ffffffff84003536:	c00afb13          	and	s6,s5,-1024
ffffffff8400353a:	000b3483          	ld	s1,0(s6)
ffffffff8400353e:	47a9                	li	a5,10
ffffffff84003540:	008b3b83          	ld	s7,8(s6)
ffffffff84003544:	03b4d713          	srl	a4,s1,0x3b
ffffffff84003548:	89ae                	mv	s3,a1
ffffffff8400354a:	8456                	mv	s0,s5
ffffffff8400354c:	0cf71f63          	bne	a4,a5,ffffffff8400362a <c_handle_fastpath_call+0x12a>
ffffffff84003550:	0354d613          	srl	a2,s1,0x35
ffffffff84003554:	02f4d813          	srl	a6,s1,0x2f
ffffffff84003558:	03f67593          	and	a1,a2,63
ffffffff8400355c:	03f87813          	and	a6,a6,63
ffffffff84003560:	00d517b3          	sll	a5,a0,a3
ffffffff84003564:	862e                	mv	a2,a1
ffffffff84003566:	c981                	beqz	a1,ffffffff84003576 <c_handle_fastpath_call+0x76>
ffffffff84003568:	04000713          	li	a4,64
ffffffff8400356c:	9f0d                	subw	a4,a4,a1
ffffffff8400356e:	00e7d733          	srl	a4,a5,a4
ffffffff84003572:	0b771c63          	bne	a4,s7,ffffffff8400362a <c_handle_fastpath_call+0x12a>
ffffffff84003576:	00c797b3          	sll	a5,a5,a2
ffffffff8400357a:	04000613          	li	a2,64
ffffffff8400357e:	0486                	sll	s1,s1,0x1
ffffffff84003580:	4106063b          	subw	a2,a2,a6
ffffffff84003584:	0264d713          	srl	a4,s1,0x26
ffffffff84003588:	00c7d7b3          	srl	a5,a5,a2
ffffffff8400358c:	fc000637          	lui	a2,0xfc000
ffffffff84003590:	8265                	srl	a2,a2,0x19
ffffffff84003592:	8b05                	and	a4,a4,1
ffffffff84003594:	0796                	sll	a5,a5,0x5
ffffffff84003596:	8cf1                	and	s1,s1,a2
ffffffff84003598:	c701                	beqz	a4,ffffffff840035a0 <c_handle_fastpath_call+0xa0>
ffffffff8400359a:	577d                	li	a4,-1
ffffffff8400359c:	171e                	sll	a4,a4,0x27
ffffffff8400359e:	8cd9                	or	s1,s1,a4
ffffffff840035a0:	01058733          	add	a4,a1,a6
ffffffff840035a4:	97a6                	add	a5,a5,s1
ffffffff840035a6:	96ba                	add	a3,a3,a4
ffffffff840035a8:	03f00713          	li	a4,63
ffffffff840035ac:	6384                	ld	s1,0(a5)
ffffffff840035ae:	0087bb83          	ld	s7,8(a5)
ffffffff840035b2:	1cd77863          	bgeu	a4,a3,ffffffff84003782 <c_handle_fastpath_call+0x282>
ffffffff840035b6:	04000793          	li	a5,64
ffffffff840035ba:	06f69863          	bne	a3,a5,ffffffff8400362a <c_handle_fastpath_call+0x12a>
ffffffff840035be:	03b4d793          	srl	a5,s1,0x3b
ffffffff840035c2:	4711                	li	a4,4
ffffffff840035c4:	06e79363          	bne	a5,a4,ffffffff8400362a <c_handle_fastpath_call+0x12a>
ffffffff840035c8:	0374d793          	srl	a5,s1,0x37
ffffffff840035cc:	8b85                	and	a5,a5,1
ffffffff840035ce:	cfb1                	beqz	a5,ffffffff8400362a <c_handle_fastpath_call+0x12a>
ffffffff840035d0:	577d                	li	a4,-1
ffffffff840035d2:	0264d793          	srl	a5,s1,0x26
ffffffff840035d6:	01975913          	srl	s2,a4,0x19
ffffffff840035da:	8b85                	and	a5,a5,1
ffffffff840035dc:	0124f933          	and	s2,s1,s2
ffffffff840035e0:	c781                	beqz	a5,ffffffff840035e8 <c_handle_fastpath_call+0xe8>
ffffffff840035e2:	171e                	sll	a4,a4,0x27
ffffffff840035e4:	00e96933          	or	s2,s2,a4
ffffffff840035e8:	00093783          	ld	a5,0(s2)
ffffffff840035ec:	4709                	li	a4,2
ffffffff840035ee:	00893283          	ld	t0,8(s2)
ffffffff840035f2:	8b8d                	and	a5,a5,3
ffffffff840035f4:	02e79b63          	bne	a5,a4,ffffffff8400362a <c_handle_fastpath_call+0x12a>
ffffffff840035f8:	c002fd13          	and	s10,t0,-1024
ffffffff840035fc:	028d3c83          	ld	s9,40(s10)
ffffffff84003600:	57fd                	li	a5,-1
ffffffff84003602:	0197d613          	srl	a2,a5,0x19
ffffffff84003606:	009cdc13          	srl	s8,s9,0x9
ffffffff8400360a:	026c5713          	srl	a4,s8,0x26
ffffffff8400360e:	8b05                	and	a4,a4,1
ffffffff84003610:	020d3683          	ld	a3,32(s10)
ffffffff84003614:	00cc7c33          	and	s8,s8,a2
ffffffff84003618:	c701                	beqz	a4,ffffffff84003620 <c_handle_fastpath_call+0x120>
ffffffff8400361a:	179e                	sll	a5,a5,0x27
ffffffff8400361c:	00fc6c33          	or	s8,s8,a5
ffffffff84003620:	03b6d793          	srl	a5,a3,0x3b
ffffffff84003624:	470d                	li	a4,3
ffffffff84003626:	00e78563          	beq	a5,a4,ffffffff84003630 <c_handle_fastpath_call+0x130>
ffffffff8400362a:	557d                	li	a0,-1
ffffffff8400362c:	178070ef          	jal	ffffffff8400a7a4 <slowpath>
ffffffff84003630:	929d                	srl	a3,a3,0x27
ffffffff84003632:	8a85                	and	a3,a3,1
ffffffff84003634:	dafd                	beqz	a3,ffffffff8400362a <c_handle_fastpath_call+0x12a>
ffffffff84003636:	1682b583          	ld	a1,360(t0)
ffffffff8400363a:	168ab783          	ld	a5,360(s5)
ffffffff8400363e:	030cdc93          	srl	s9,s9,0x30
ffffffff84003642:	8c81bd83          	ld	s11,-1848(gp) # ffffffff8400ab78 <ksCurDomain>
ffffffff84003646:	14f5e463          	bltu	a1,a5,ffffffff8400378e <c_handle_fastpath_call+0x28e>
ffffffff8400364a:	0394d793          	srl	a5,s1,0x39
ffffffff8400364e:	8b85                	and	a5,a5,1
ffffffff84003650:	14078763          	beqz	a5,ffffffff8400379e <c_handle_fastpath_call+0x29e>
ffffffff84003654:	1582b783          	ld	a5,344(t0)
ffffffff84003658:	fcfd99e3          	bne	s11,a5,ffffffff8400362a <c_handle_fastpath_call+0x12a>
ffffffff8400365c:	1982b783          	ld	a5,408(t0)
ffffffff84003660:	00f93423          	sd	a5,8(s2)
ffffffff84003664:	14079263          	bnez	a5,ffffffff840037a8 <c_handle_fastpath_call+0x2a8>
ffffffff84003668:	00093023          	sd	zero,0(s2)
ffffffff8400366c:	1202b783          	ld	a5,288(t0)
ffffffff84003670:	4715                	li	a4,5
ffffffff84003672:	10eabc23          	sd	a4,280(s5)
ffffffff84003676:	8389                	srl	a5,a5,0x2
ffffffff84003678:	4705                	li	a4,1
ffffffff8400367a:	177a                	sll	a4,a4,0x3e
ffffffff8400367c:	8b89                	and	a5,a5,2
ffffffff8400367e:	8fd9                	or	a5,a5,a4
ffffffff84003680:	040b0b13          	add	s6,s6,64
ffffffff84003684:	060d0713          	add	a4,s10,96
ffffffff84003688:	06fd3023          	sd	a5,96(s10)
ffffffff8400368c:	075d3423          	sd	s5,104(s10)
ffffffff84003690:	076d3823          	sd	s6,112(s10)
ffffffff84003694:	00376713          	or	a4,a4,3
ffffffff84003698:	07f9f793          	and	a5,s3,127
ffffffff8400369c:	00eb3c23          	sd	a4,24(s6)
ffffffff840036a0:	cf89                	beqz	a5,ffffffff840036ba <c_handle_fastpath_call+0x1ba>
ffffffff840036a2:	00379713          	sll	a4,a5,0x3
ffffffff840036a6:	9756                	add	a4,a4,s5
ffffffff840036a8:	05828793          	add	a5,t0,88
ffffffff840036ac:	6c34                	ld	a3,88(s0)
ffffffff840036ae:	0421                	add	s0,s0,8
ffffffff840036b0:	07a1                	add	a5,a5,8
ffffffff840036b2:	fed7bc23          	sd	a3,-8(a5)
ffffffff840036b6:	fe871be3          	bne	a4,s0,ffffffff840036ac <c_handle_fastpath_call+0x1ac>
ffffffff840036ba:	4685                	li	a3,1
ffffffff840036bc:	02669793          	sll	a5,a3,0x26
ffffffff840036c0:	577d                	li	a4,-1
ffffffff840036c2:	97e2                	add	a5,a5,s8
ffffffff840036c4:	01475613          	srl	a2,a4,0x14
ffffffff840036c8:	83b1                	srl	a5,a5,0xc
ffffffff840036ca:	8ff1                	and	a5,a5,a2
ffffffff840036cc:	1cb2                	sll	s9,s9,0x2c
ffffffff840036ce:	0197e7b3          	or	a5,a5,s9
ffffffff840036d2:	177e                	sll	a4,a4,0x3f
ffffffff840036d4:	10d2bc23          	sd	a3,280(t0)
ffffffff840036d8:	8fd9                	or	a5,a5,a4
ffffffff840036da:	18079073          	csrw	satp,a5
ffffffff840036de:	12000073          	sfence.vma
ffffffff840036e2:	75fd                	lui	a1,0xfffff
ffffffff840036e4:	1ff58593          	add	a1,a1,511 # fffffffffffff1ff <ki_end+0x7bfdd1ff>
ffffffff840036e8:	005a3023          	sd	t0,0(s4)
ffffffff840036ec:	855e                	mv	a0,s7
ffffffff840036ee:	00b9f5b3          	and	a1,s3,a1
ffffffff840036f2:	0002b083          	ld	ra,0(t0)
ffffffff840036f6:	0082b103          	ld	sp,8(t0)
ffffffff840036fa:	0102b183          	ld	gp,16(t0)
ffffffff840036fe:	0302b383          	ld	t2,48(t0)
ffffffff84003702:	0382b403          	ld	s0,56(t0)
ffffffff84003706:	0402b483          	ld	s1,64(t0)
ffffffff8400370a:	0582b603          	ld	a2,88(t0)
ffffffff8400370e:	0602b683          	ld	a3,96(t0)
ffffffff84003712:	0682b703          	ld	a4,104(t0)
ffffffff84003716:	0702b783          	ld	a5,112(t0)
ffffffff8400371a:	0782b803          	ld	a6,120(t0)
ffffffff8400371e:	0802b883          	ld	a7,128(t0)
ffffffff84003722:	0882b903          	ld	s2,136(t0)
ffffffff84003726:	0902b983          	ld	s3,144(t0)
ffffffff8400372a:	0982ba03          	ld	s4,152(t0)
ffffffff8400372e:	0a02ba83          	ld	s5,160(t0)
ffffffff84003732:	0a82bb03          	ld	s6,168(t0)
ffffffff84003736:	0b02bb83          	ld	s7,176(t0)
ffffffff8400373a:	0b82bc03          	ld	s8,184(t0)
ffffffff8400373e:	0c02bc83          	ld	s9,192(t0)
ffffffff84003742:	0c82bd03          	ld	s10,200(t0)
ffffffff84003746:	0d02bd83          	ld	s11,208(t0)
ffffffff8400374a:	0d82be03          	ld	t3,216(t0)
ffffffff8400374e:	0e02be83          	ld	t4,224(t0)
ffffffff84003752:	0e82bf03          	ld	t5,232(t0)
ffffffff84003756:	0f02bf83          	ld	t6,240(t0)
ffffffff8400375a:	0182b303          	ld	t1,24(t0)
ffffffff8400375e:	00030233          	add	tp,t1,zero
ffffffff84003762:	1102b303          	ld	t1,272(t0)
ffffffff84003766:	14131073          	csrw	sepc,t1
ffffffff8400376a:	14029073          	csrw	sscratch,t0
ffffffff8400376e:	1002b303          	ld	t1,256(t0)
ffffffff84003772:	10031073          	csrw	sstatus,t1
ffffffff84003776:	0282b303          	ld	t1,40(t0)
ffffffff8400377a:	0202b283          	ld	t0,32(t0)
ffffffff8400377e:	10200073          	sret
ffffffff84003782:	03b4d793          	srl	a5,s1,0x3b
ffffffff84003786:	4729                	li	a4,10
ffffffff84003788:	e2e79de3          	bne	a5,a4,ffffffff840035c2 <c_handle_fastpath_call+0xc2>
ffffffff8400378c:	b3d1                	j	ffffffff84003550 <c_handle_fastpath_call+0x50>
ffffffff8400378e:	856e                	mv	a0,s11
ffffffff84003790:	e416                	sd	t0,8(sp)
ffffffff84003792:	36c000ef          	jal	ffffffff84003afe <isHighestPrio>
ffffffff84003796:	62a2                	ld	t0,8(sp)
ffffffff84003798:	ea0519e3          	bnez	a0,ffffffff8400364a <c_handle_fastpath_call+0x14a>
ffffffff8400379c:	b579                	j	ffffffff8400362a <c_handle_fastpath_call+0x12a>
ffffffff8400379e:	90e9                	srl	s1,s1,0x3a
ffffffff840037a0:	47a5                	li	a5,9
ffffffff840037a2:	eaf489e3          	beq	s1,a5,ffffffff84003654 <c_handle_fastpath_call+0x154>
ffffffff840037a6:	b551                	j	ffffffff8400362a <c_handle_fastpath_call+0x12a>
ffffffff840037a8:	1a07b023          	sd	zero,416(a5)
ffffffff840037ac:	b5c1                	j	ffffffff8400366c <c_handle_fastpath_call+0x16c>
ffffffff840037ae:	0000                	unimp
ffffffff840037b0:	0000                	unimp
ffffffff840037b2:	0000                	unimp
ffffffff840037b4:	0000                	unimp
ffffffff840037b6:	0000                	unimp
ffffffff840037b8:	0000                	unimp
ffffffff840037ba:	0000                	unimp
ffffffff840037bc:	0000                	unimp
ffffffff840037be:	0000                	unimp

ffffffff840037c0 <idle_thread>:
ffffffff840037c0:	10500073          	wfi
ffffffff840037c4:	bff5                	j	ffffffff840037c0 <idle_thread>

ffffffff840037c6 <pte_next>:
ffffffff840037c6:	00b035b3          	snez	a1,a1
ffffffff840037ca:	0c800793          	li	a5,200
ffffffff840037ce:	02f587b3          	mul	a5,a1,a5
ffffffff840037d2:	fff00737          	lui	a4,0xfff00
ffffffff840037d6:	8329                	srl	a4,a4,0xa
ffffffff840037d8:	8109                	srl	a0,a0,0x2
ffffffff840037da:	8d79                	and	a0,a0,a4
ffffffff840037dc:	00259713          	sll	a4,a1,0x2
ffffffff840037e0:	0586                	sll	a1,a1,0x1
ffffffff840037e2:	8d5d                	or	a0,a0,a5
ffffffff840037e4:	8d59                	or	a0,a0,a4
ffffffff840037e6:	8d4d                	or	a0,a0,a1
ffffffff840037e8:	02156513          	or	a0,a0,33
ffffffff840037ec:	8082                	ret

ffffffff840037ee <findVSpaceForASID>:
ffffffff840037ee:	00955713          	srl	a4,a0,0x9
ffffffff840037f2:	070e                	sll	a4,a4,0x3
ffffffff840037f4:	d8818793          	add	a5,gp,-632 # ffffffff8400b038 <riscvKSASIDTable>
ffffffff840037f8:	97ba                	add	a5,a5,a4
ffffffff840037fa:	639c                	ld	a5,0(a5)
ffffffff840037fc:	1141                	add	sp,sp,-16
ffffffff840037fe:	cb91                	beqz	a5,ffffffff84003812 <findVSpaceForASID+0x24>
ffffffff84003800:	1ff57513          	and	a0,a0,511
ffffffff84003804:	050e                	sll	a0,a0,0x3
ffffffff84003806:	97aa                	add	a5,a5,a0
ffffffff84003808:	638c                	ld	a1,0(a5)
ffffffff8400380a:	c581                	beqz	a1,ffffffff84003812 <findVSpaceForASID+0x24>
ffffffff8400380c:	4501                	li	a0,0
ffffffff8400380e:	0141                	add	sp,sp,16
ffffffff84003810:	8082                	ret
ffffffff84003812:	d601bc23          	sd	zero,-648(gp) # ffffffff8400b028 <current_lookup_fault>
ffffffff84003816:	d801b023          	sd	zero,-640(gp) # ffffffff8400b030 <current_lookup_fault+0x8>
ffffffff8400381a:	4509                	li	a0,2
ffffffff8400381c:	4581                	li	a1,0
ffffffff8400381e:	0141                	add	sp,sp,16
ffffffff84003820:	8082                	ret

ffffffff84003822 <emptySlot>:
ffffffff84003822:	611c                	ld	a5,0(a0)
ffffffff84003824:	1141                	add	sp,sp,-16
ffffffff84003826:	e02e                	sd	a1,0(sp)
ffffffff84003828:	e432                	sd	a2,8(sp)
ffffffff8400382a:	93ed                	srl	a5,a5,0x3b
ffffffff8400382c:	cba1                	beqz	a5,ffffffff8400387c <emptySlot+0x5a>
ffffffff8400382e:	6d18                	ld	a4,24(a0)
ffffffff84003830:	f80007b7          	lui	a5,0xf8000
ffffffff84003834:	83e5                	srl	a5,a5,0x19
ffffffff84003836:	02675693          	srl	a3,a4,0x26
ffffffff8400383a:	8a85                	and	a3,a3,1
ffffffff8400383c:	6910                	ld	a2,16(a0)
ffffffff8400383e:	8ff9                	and	a5,a5,a4
ffffffff84003840:	c6b5                	beqz	a3,ffffffff840038ac <emptySlot+0x8a>
ffffffff84003842:	ca01                	beqz	a2,ffffffff84003852 <emptySlot+0x30>
ffffffff84003844:	6e14                	ld	a3,24(a2)
ffffffff84003846:	55fd                	li	a1,-1
ffffffff84003848:	159e                	sll	a1,a1,0x27
ffffffff8400384a:	058d                	add	a1,a1,3
ffffffff8400384c:	8eed                	and	a3,a3,a1
ffffffff8400384e:	8edd                	or	a3,a3,a5
ffffffff84003850:	ee14                	sd	a3,24(a2)
ffffffff84003852:	56fd                	li	a3,-1
ffffffff84003854:	169e                	sll	a3,a3,0x27
ffffffff84003856:	8fd5                	or	a5,a5,a3
ffffffff84003858:	6f94                	ld	a3,24(a5)
ffffffff8400385a:	8b05                	and	a4,a4,1
ffffffff8400385c:	eb90                	sd	a2,16(a5)
ffffffff8400385e:	8f55                	or	a4,a4,a3
ffffffff84003860:	ef98                	sd	a4,24(a5)
ffffffff84003862:	6782                	ld	a5,0(sp)
ffffffff84003864:	00053023          	sd	zero,0(a0)
ffffffff84003868:	00053423          	sd	zero,8(a0)
ffffffff8400386c:	00053823          	sd	zero,16(a0)
ffffffff84003870:	00053c23          	sd	zero,24(a0)
ffffffff84003874:	93ed                	srl	a5,a5,0x3b
ffffffff84003876:	4741                	li	a4,16
ffffffff84003878:	00e78463          	beq	a5,a4,ffffffff84003880 <emptySlot+0x5e>
ffffffff8400387c:	0141                	add	sp,sp,16
ffffffff8400387e:	8082                	ret
ffffffff84003880:	66a2                	ld	a3,8(sp)
ffffffff84003882:	00007717          	auipc	a4,0x7
ffffffff84003886:	2fe70713          	add	a4,a4,766 # ffffffff8400ab80 <intStateIRQTable>
ffffffff8400388a:	03600613          	li	a2,54
ffffffff8400388e:	03469793          	sll	a5,a3,0x34
ffffffff84003892:	0317d593          	srl	a1,a5,0x31
ffffffff84003896:	972e                	add	a4,a4,a1
ffffffff84003898:	93d1                	srl	a5,a5,0x34
ffffffff8400389a:	00073023          	sd	zero,0(a4)
ffffffff8400389e:	02c79163          	bne	a5,a2,ffffffff840038c0 <emptySlot+0x9e>
ffffffff840038a2:	02000793          	li	a5,32
ffffffff840038a6:	1047b7f3          	csrrc	a5,sie,a5
ffffffff840038aa:	bfc9                	j	ffffffff8400387c <emptySlot+0x5a>
ffffffff840038ac:	ca01                	beqz	a2,ffffffff840038bc <emptySlot+0x9a>
ffffffff840038ae:	6e14                	ld	a3,24(a2)
ffffffff840038b0:	55fd                	li	a1,-1
ffffffff840038b2:	159e                	sll	a1,a1,0x27
ffffffff840038b4:	058d                	add	a1,a1,3
ffffffff840038b6:	8eed                	and	a3,a3,a1
ffffffff840038b8:	8edd                	or	a3,a3,a5
ffffffff840038ba:	ee14                	sd	a3,24(a2)
ffffffff840038bc:	d3dd                	beqz	a5,ffffffff84003862 <emptySlot+0x40>
ffffffff840038be:	bf69                	j	ffffffff84003858 <emptySlot+0x36>
ffffffff840038c0:	8395                	srl	a5,a5,0x5
ffffffff840038c2:	c0202737          	lui	a4,0xc0202
ffffffff840038c6:	10070713          	add	a4,a4,256 # ffffffffc0202100 <ki_end+0x3c1e0100>
ffffffff840038ca:	078a                	sll	a5,a5,0x2
ffffffff840038cc:	97ba                	add	a5,a5,a4
ffffffff840038ce:	4390                	lw	a2,0(a5)
ffffffff840038d0:	8afd                	and	a3,a3,31
ffffffff840038d2:	4705                	li	a4,1
ffffffff840038d4:	00d71733          	sll	a4,a4,a3
ffffffff840038d8:	fff74713          	not	a4,a4
ffffffff840038dc:	8f71                	and	a4,a4,a2
ffffffff840038de:	2701                	sext.w	a4,a4
ffffffff840038e0:	c398                	sw	a4,0(a5)
ffffffff840038e2:	bf69                	j	ffffffff8400387c <emptySlot+0x5a>

ffffffff840038e4 <setMRs_lookup_failure>:
ffffffff840038e4:	00367793          	and	a5,a2,3
ffffffff840038e8:	480d                	li	a6,3
ffffffff840038ea:	1141                	add	sp,sp,-16
ffffffff840038ec:	832a                	mv	t1,a0
ffffffff840038ee:	00178e13          	add	t3,a5,1 # fffffffff8000001 <ki_end+0x73fde001>
ffffffff840038f2:	02e87a63          	bgeu	a6,a4,ffffffff84003926 <setMRs_lookup_failure+0x42>
ffffffff840038f6:	18058c63          	beqz	a1,ffffffff84003a8e <setMRs_lookup_failure+0x1aa>
ffffffff840038fa:	0017081b          	addw	a6,a4,1
ffffffff840038fe:	02081513          	sll	a0,a6,0x20
ffffffff84003902:	01d55893          	srl	a7,a0,0x1d
ffffffff84003906:	98ae                	add	a7,a7,a1
ffffffff84003908:	0008051b          	sext.w	a0,a6
ffffffff8400390c:	01c8b023          	sd	t3,0(a7)
ffffffff84003910:	4889                	li	a7,2
ffffffff84003912:	03178c63          	beq	a5,a7,ffffffff8400394a <setMRs_lookup_failure+0x66>
ffffffff84003916:	480d                	li	a6,3
ffffffff84003918:	0b078363          	beq	a5,a6,ffffffff840039be <setMRs_lookup_failure+0xda>
ffffffff8400391c:	4685                	li	a3,1
ffffffff8400391e:	06d78c63          	beq	a5,a3,ffffffff84003996 <setMRs_lookup_failure+0xb2>
ffffffff84003922:	0141                	add	sp,sp,16
ffffffff84003924:	8082                	ret
ffffffff84003926:	02071813          	sll	a6,a4,0x20
ffffffff8400392a:	02085813          	srl	a6,a6,0x20
ffffffff8400392e:	89018513          	add	a0,gp,-1904 # ffffffff8400ab40 <msgRegisters>
ffffffff84003932:	9542                	add	a0,a0,a6
ffffffff84003934:	00054803          	lbu	a6,0(a0)
ffffffff84003938:	4889                	li	a7,2
ffffffff8400393a:	0017051b          	addw	a0,a4,1
ffffffff8400393e:	080e                	sll	a6,a6,0x3
ffffffff84003940:	981a                	add	a6,a6,t1
ffffffff84003942:	01c83023          	sd	t3,0(a6)
ffffffff84003946:	fd1798e3          	bne	a5,a7,ffffffff84003916 <setMRs_lookup_failure+0x32>
ffffffff8400394a:	0017081b          	addw	a6,a4,1
ffffffff8400394e:	00265513          	srl	a0,a2,0x2
ffffffff84003952:	0027069b          	addw	a3,a4,2
ffffffff84003956:	8225                	srl	a2,a2,0x9
ffffffff84003958:	00080e1b          	sext.w	t3,a6
ffffffff8400395c:	488d                	li	a7,3
ffffffff8400395e:	07f57513          	and	a0,a0,127
ffffffff84003962:	00068e9b          	sext.w	t4,a3
ffffffff84003966:	07f67613          	and	a2,a2,127
ffffffff8400396a:	0fc8f463          	bgeu	a7,t3,ffffffff84003a52 <setMRs_lookup_failure+0x16e>
ffffffff8400396e:	12058263          	beqz	a1,ffffffff84003a92 <setMRs_lookup_failure+0x1ae>
ffffffff84003972:	02069793          	sll	a5,a3,0x20
ffffffff84003976:	01d7d693          	srl	a3,a5,0x1d
ffffffff8400397a:	96ae                	add	a3,a3,a1
ffffffff8400397c:	e288                	sd	a0,0(a3)
ffffffff8400397e:	11d8fc63          	bgeu	a7,t4,ffffffff84003a96 <setMRs_lookup_failure+0x1b2>
ffffffff84003982:	0037051b          	addw	a0,a4,3
ffffffff84003986:	02051713          	sll	a4,a0,0x20
ffffffff8400398a:	01d75793          	srl	a5,a4,0x1d
ffffffff8400398e:	97ae                	add	a5,a5,a1
ffffffff84003990:	e390                	sd	a2,0(a5)
ffffffff84003992:	0141                	add	sp,sp,16
ffffffff84003994:	8082                	ret
ffffffff84003996:	0017079b          	addw	a5,a4,1
ffffffff8400399a:	8209                	srl	a2,a2,0x2
ffffffff8400399c:	0007869b          	sext.w	a3,a5
ffffffff840039a0:	07f67613          	and	a2,a2,127
ffffffff840039a4:	0cd87863          	bgeu	a6,a3,ffffffff84003a74 <setMRs_lookup_failure+0x190>
ffffffff840039a8:	c5e1                	beqz	a1,ffffffff84003a70 <setMRs_lookup_failure+0x18c>
ffffffff840039aa:	0027051b          	addw	a0,a4,2
ffffffff840039ae:	02051713          	sll	a4,a0,0x20
ffffffff840039b2:	01d75793          	srl	a5,a4,0x1d
ffffffff840039b6:	97ae                	add	a5,a5,a1
ffffffff840039b8:	e390                	sd	a2,0(a5)
ffffffff840039ba:	0141                	add	sp,sp,16
ffffffff840039bc:	8082                	ret
ffffffff840039be:	00170e1b          	addw	t3,a4,1
ffffffff840039c2:	00965513          	srl	a0,a2,0x9
ffffffff840039c6:	0027081b          	addw	a6,a4,2
ffffffff840039ca:	000e0e9b          	sext.w	t4,t3
ffffffff840039ce:	07f57513          	and	a0,a0,127
ffffffff840039d2:	00080f1b          	sext.w	t5,a6
ffffffff840039d6:	05d7f263          	bgeu	a5,t4,ffffffff84003a1a <setMRs_lookup_failure+0x136>
ffffffff840039da:	8209                	srl	a2,a2,0x2
ffffffff840039dc:	07f67613          	and	a2,a2,127
ffffffff840039e0:	c1f1                	beqz	a1,ffffffff84003aa4 <setMRs_lookup_failure+0x1c0>
ffffffff840039e2:	02081893          	sll	a7,a6,0x20
ffffffff840039e6:	01d8d813          	srl	a6,a7,0x1d
ffffffff840039ea:	982e                	add	a6,a6,a1
ffffffff840039ec:	00a83023          	sd	a0,0(a6)
ffffffff840039f0:	0fe7fd63          	bgeu	a5,t5,ffffffff84003aea <setMRs_lookup_failure+0x206>
ffffffff840039f4:	0037051b          	addw	a0,a4,3
ffffffff840039f8:	02051893          	sll	a7,a0,0x20
ffffffff840039fc:	01d8d813          	srl	a6,a7,0x1d
ffffffff84003a00:	982e                	add	a6,a6,a1
ffffffff84003a02:	00d83023          	sd	a3,0(a6)
ffffffff84003a06:	02a7ec63          	bltu	a5,a0,ffffffff84003a3e <setMRs_lookup_failure+0x15a>
ffffffff84003a0a:	47ad                	li	a5,11
ffffffff84003a0c:	078e                	sll	a5,a5,0x3
ffffffff84003a0e:	00f30533          	add	a0,t1,a5
ffffffff84003a12:	e110                	sd	a2,0(a0)
ffffffff84003a14:	0047051b          	addw	a0,a4,4
ffffffff84003a18:	b729                	j	ffffffff84003922 <setMRs_lookup_failure+0x3e>
ffffffff84003a1a:	1e02                	sll	t3,t3,0x20
ffffffff84003a1c:	89018e93          	add	t4,gp,-1904 # ffffffff8400ab40 <msgRegisters>
ffffffff84003a20:	020e5e13          	srl	t3,t3,0x20
ffffffff84003a24:	9e76                	add	t3,t3,t4
ffffffff84003a26:	000e4783          	lbu	a5,0(t3) # 1000 <KERNEL_OFFSET-0xfffffffefffff000>
ffffffff84003a2a:	078e                	sll	a5,a5,0x3
ffffffff84003a2c:	979a                	add	a5,a5,t1
ffffffff84003a2e:	e388                	sd	a0,0(a5)
ffffffff84003a30:	09171863          	bne	a4,a7,ffffffff84003ac0 <setMRs_lookup_failure+0x1dc>
ffffffff84003a34:	cd95                	beqz	a1,ffffffff84003a70 <setMRs_lookup_failure+0x18c>
ffffffff84003a36:	8209                	srl	a2,a2,0x2
ffffffff84003a38:	f594                	sd	a3,40(a1)
ffffffff84003a3a:	07f67613          	and	a2,a2,127
ffffffff84003a3e:	0047051b          	addw	a0,a4,4
ffffffff84003a42:	02051713          	sll	a4,a0,0x20
ffffffff84003a46:	01d75793          	srl	a5,a4,0x1d
ffffffff84003a4a:	97ae                	add	a5,a5,a1
ffffffff84003a4c:	e390                	sd	a2,0(a5)
ffffffff84003a4e:	0141                	add	sp,sp,16
ffffffff84003a50:	8082                	ret
ffffffff84003a52:	1802                	sll	a6,a6,0x20
ffffffff84003a54:	89018893          	add	a7,gp,-1904 # ffffffff8400ab40 <msgRegisters>
ffffffff84003a58:	02085813          	srl	a6,a6,0x20
ffffffff84003a5c:	9846                	add	a6,a6,a7
ffffffff84003a5e:	00084803          	lbu	a6,0(a6)
ffffffff84003a62:	080e                	sll	a6,a6,0x3
ffffffff84003a64:	981a                	add	a6,a6,t1
ffffffff84003a66:	00a83023          	sd	a0,0(a6)
ffffffff84003a6a:	04f71563          	bne	a4,a5,ffffffff84003ab4 <setMRs_lookup_failure+0x1d0>
ffffffff84003a6e:	f991                	bnez	a1,ffffffff84003982 <setMRs_lookup_failure+0x9e>
ffffffff84003a70:	4511                	li	a0,4
ffffffff84003a72:	bd45                	j	ffffffff84003922 <setMRs_lookup_failure+0x3e>
ffffffff84003a74:	1782                	sll	a5,a5,0x20
ffffffff84003a76:	9381                	srl	a5,a5,0x20
ffffffff84003a78:	89018693          	add	a3,gp,-1904 # ffffffff8400ab40 <msgRegisters>
ffffffff84003a7c:	97b6                	add	a5,a5,a3
ffffffff84003a7e:	0007c783          	lbu	a5,0(a5)
ffffffff84003a82:	0027051b          	addw	a0,a4,2
ffffffff84003a86:	078e                	sll	a5,a5,0x3
ffffffff84003a88:	979a                	add	a5,a5,t1
ffffffff84003a8a:	e390                	sd	a2,0(a5)
ffffffff84003a8c:	bd59                	j	ffffffff84003922 <setMRs_lookup_failure+0x3e>
ffffffff84003a8e:	4511                	li	a0,4
ffffffff84003a90:	b541                	j	ffffffff84003910 <setMRs_lookup_failure+0x2c>
ffffffff84003a92:	fdd8efe3          	bltu	a7,t4,ffffffff84003a70 <setMRs_lookup_failure+0x18c>
ffffffff84003a96:	47ad                	li	a5,11
ffffffff84003a98:	078e                	sll	a5,a5,0x3
ffffffff84003a9a:	979a                	add	a5,a5,t1
ffffffff84003a9c:	e390                	sd	a2,0(a5)
ffffffff84003a9e:	0037051b          	addw	a0,a4,3
ffffffff84003aa2:	b541                	j	ffffffff84003922 <setMRs_lookup_failure+0x3e>
ffffffff84003aa4:	05e7f363          	bgeu	a5,t5,ffffffff84003aea <setMRs_lookup_failure+0x206>
ffffffff84003aa8:	0037069b          	addw	a3,a4,3
ffffffff84003aac:	f4d7ffe3          	bgeu	a5,a3,ffffffff84003a0a <setMRs_lookup_failure+0x126>
ffffffff84003ab0:	4511                	li	a0,4
ffffffff84003ab2:	bd85                	j	ffffffff84003922 <setMRs_lookup_failure+0x3e>
ffffffff84003ab4:	1682                	sll	a3,a3,0x20
ffffffff84003ab6:	9281                	srl	a3,a3,0x20
ffffffff84003ab8:	98b6                	add	a7,a7,a3
ffffffff84003aba:	0008c783          	lbu	a5,0(a7)
ffffffff84003abe:	bfe9                	j	ffffffff84003a98 <setMRs_lookup_failure+0x1b4>
ffffffff84003ac0:	1802                	sll	a6,a6,0x20
ffffffff84003ac2:	02085813          	srl	a6,a6,0x20
ffffffff84003ac6:	9876                	add	a6,a6,t4
ffffffff84003ac8:	00084783          	lbu	a5,0(a6)
ffffffff84003acc:	0037051b          	addw	a0,a4,3
ffffffff84003ad0:	8209                	srl	a2,a2,0x2
ffffffff84003ad2:	078e                	sll	a5,a5,0x3
ffffffff84003ad4:	979a                	add	a5,a5,t1
ffffffff84003ad6:	e394                	sd	a3,0(a5)
ffffffff84003ad8:	0005069b          	sext.w	a3,a0
ffffffff84003adc:	4791                	li	a5,4
ffffffff84003ade:	07f67613          	and	a2,a2,127
ffffffff84003ae2:	00f69863          	bne	a3,a5,ffffffff84003af2 <setMRs_lookup_failure+0x20e>
ffffffff84003ae6:	fda1                	bnez	a1,ffffffff84003a3e <setMRs_lookup_failure+0x15a>
ffffffff84003ae8:	b761                	j	ffffffff84003a70 <setMRs_lookup_failure+0x18c>
ffffffff84003aea:	04d33c23          	sd	a3,88(t1)
ffffffff84003aee:	47b1                	li	a5,12
ffffffff84003af0:	bf31                	j	ffffffff84003a0c <setMRs_lookup_failure+0x128>
ffffffff84003af2:	1502                	sll	a0,a0,0x20
ffffffff84003af4:	9101                	srl	a0,a0,0x20
ffffffff84003af6:	9eaa                	add	t4,t4,a0
ffffffff84003af8:	000ec783          	lbu	a5,0(t4)
ffffffff84003afc:	bf01                	j	ffffffff84003a0c <setMRs_lookup_failure+0x128>

ffffffff84003afe <isHighestPrio>:
ffffffff84003afe:	00351713          	sll	a4,a0,0x3
ffffffff84003b02:	ca818793          	add	a5,gp,-856 # ffffffff8400af58 <ksReadyQueuesL1Bitmap>
ffffffff84003b06:	97ba                	add	a5,a5,a4
ffffffff84003b08:	639c                	ld	a5,0(a5)
ffffffff84003b0a:	12078463          	beqz	a5,ffffffff84003c32 <isHighestPrio+0x134>
ffffffff84003b0e:	4805                	li	a6,1
ffffffff84003b10:	1802                	sll	a6,a6,0x20
ffffffff84003b12:	0107b733          	sltu	a4,a5,a6
ffffffff84003b16:	00174713          	xor	a4,a4,1
ffffffff84003b1a:	0057171b          	sllw	a4,a4,0x5
ffffffff84003b1e:	00e7d7b3          	srl	a5,a5,a4
ffffffff84003b22:	6641                	lui	a2,0x10
ffffffff84003b24:	00c7beb3          	sltu	t4,a5,a2
ffffffff84003b28:	001ece93          	xor	t4,t4,1
ffffffff84003b2c:	004e9e9b          	sllw	t4,t4,0x4
ffffffff84003b30:	01d7d7b3          	srl	a5,a5,t4
ffffffff84003b34:	1007be13          	sltiu	t3,a5,256
ffffffff84003b38:	001e4e13          	xor	t3,t3,1
ffffffff84003b3c:	003e1e1b          	sllw	t3,t3,0x3
ffffffff84003b40:	01c7d7b3          	srl	a5,a5,t3
ffffffff84003b44:	0107b313          	sltiu	t1,a5,16
ffffffff84003b48:	00134313          	xor	t1,t1,1
ffffffff84003b4c:	0023131b          	sllw	t1,t1,0x2
ffffffff84003b50:	0067d7b3          	srl	a5,a5,t1
ffffffff84003b54:	04000693          	li	a3,64
ffffffff84003b58:	0047b893          	sltiu	a7,a5,4
ffffffff84003b5c:	40e6873b          	subw	a4,a3,a4
ffffffff84003b60:	0018c893          	xor	a7,a7,1
ffffffff84003b64:	0018989b          	sllw	a7,a7,0x1
ffffffff84003b68:	41d7073b          	subw	a4,a4,t4
ffffffff84003b6c:	0117d7b3          	srl	a5,a5,a7
ffffffff84003b70:	41c7073b          	subw	a4,a4,t3
ffffffff84003b74:	4067073b          	subw	a4,a4,t1
ffffffff84003b78:	0027b313          	sltiu	t1,a5,2
ffffffff84003b7c:	00134313          	xor	t1,t1,1
ffffffff84003b80:	4117073b          	subw	a4,a4,a7
ffffffff84003b84:	4067073b          	subw	a4,a4,t1
ffffffff84003b88:	0067d7b3          	srl	a5,a5,t1
ffffffff84003b8c:	40f707bb          	subw	a5,a4,a5
ffffffff84003b90:	fc478713          	add	a4,a5,-60
ffffffff84003b94:	050a                	sll	a0,a0,0x2
ffffffff84003b96:	953a                	add	a0,a0,a4
ffffffff84003b98:	050e                	sll	a0,a0,0x3
ffffffff84003b9a:	aa818713          	add	a4,gp,-1368 # ffffffff8400ad58 <ksReadyQueuesL2Bitmap>
ffffffff84003b9e:	972a                	add	a4,a4,a0
ffffffff84003ba0:	6318                	ld	a4,0(a4)
ffffffff84003ba2:	03f00893          	li	a7,63
ffffffff84003ba6:	40f887b3          	sub	a5,a7,a5
ffffffff84003baa:	01073533          	sltu	a0,a4,a6
ffffffff84003bae:	00154513          	xor	a0,a0,1
ffffffff84003bb2:	0055151b          	sllw	a0,a0,0x5
ffffffff84003bb6:	00a75733          	srl	a4,a4,a0
ffffffff84003bba:	00c73633          	sltu	a2,a4,a2
ffffffff84003bbe:	00164613          	xor	a2,a2,1
ffffffff84003bc2:	0046161b          	sllw	a2,a2,0x4
ffffffff84003bc6:	00c75733          	srl	a4,a4,a2
ffffffff84003bca:	10073e13          	sltiu	t3,a4,256
ffffffff84003bce:	001e4e13          	xor	t3,t3,1
ffffffff84003bd2:	003e1e1b          	sllw	t3,t3,0x3
ffffffff84003bd6:	01c75733          	srl	a4,a4,t3
ffffffff84003bda:	01073313          	sltiu	t1,a4,16
ffffffff84003bde:	00134313          	xor	t1,t1,1
ffffffff84003be2:	0023131b          	sllw	t1,t1,0x2
ffffffff84003be6:	00675733          	srl	a4,a4,t1
ffffffff84003bea:	00473813          	sltiu	a6,a4,4
ffffffff84003bee:	9e89                	subw	a3,a3,a0
ffffffff84003bf0:	00184513          	xor	a0,a6,1
ffffffff84003bf4:	0015151b          	sllw	a0,a0,0x1
ffffffff84003bf8:	9e91                	subw	a3,a3,a2
ffffffff84003bfa:	00a75733          	srl	a4,a4,a0
ffffffff84003bfe:	41c686bb          	subw	a3,a3,t3
ffffffff84003c02:	406686bb          	subw	a3,a3,t1
ffffffff84003c06:	00273613          	sltiu	a2,a4,2
ffffffff84003c0a:	00164613          	xor	a2,a2,1
ffffffff84003c0e:	9e89                	subw	a3,a3,a0
ffffffff84003c10:	9e91                	subw	a3,a3,a2
ffffffff84003c12:	00c75733          	srl	a4,a4,a2
ffffffff84003c16:	40e6873b          	subw	a4,a3,a4
ffffffff84003c1a:	40e888b3          	sub	a7,a7,a4
ffffffff84003c1e:	079a                	sll	a5,a5,0x6
ffffffff84003c20:	00f8e8b3          	or	a7,a7,a5
ffffffff84003c24:	0115b533          	sltu	a0,a1,a7
ffffffff84003c28:	00154513          	xor	a0,a0,1
ffffffff84003c2c:	1502                	sll	a0,a0,0x20
ffffffff84003c2e:	9101                	srl	a0,a0,0x20
ffffffff84003c30:	8082                	ret
ffffffff84003c32:	4505                	li	a0,1
ffffffff84003c34:	8082                	ret

ffffffff84003c36 <halt>:
ffffffff84003c36:	4501                	li	a0,0
ffffffff84003c38:	4581                	li	a1,0
ffffffff84003c3a:	4601                	li	a2,0
ffffffff84003c3c:	48a1                	li	a7,8
ffffffff84003c3e:	00000073          	ecall

ffffffff84003c42 <Arch_handleFaultReply>:
ffffffff84003c42:	4795                	li	a5,5
ffffffff84003c44:	00f61463          	bne	a2,a5,ffffffff84003c4c <Arch_handleFaultReply+0xa>
ffffffff84003c48:	4505                	li	a0,1
ffffffff84003c4a:	8082                	ret
ffffffff84003c4c:	1141                	add	sp,sp,-16
ffffffff84003c4e:	e406                	sd	ra,8(sp)
ffffffff84003c50:	fe7ff0ef          	jal	ffffffff84003c36 <halt>

ffffffff84003c54 <Arch_setMRs_fault>:
ffffffff84003c54:	4795                	li	a5,5
ffffffff84003c56:	02f69363          	bne	a3,a5,ffffffff84003c7c <Arch_setMRs_fault+0x28>
ffffffff84003c5a:	13853783          	ld	a5,312(a0)
ffffffff84003c5e:	10853603          	ld	a2,264(a0)
ffffffff84003c62:	14053683          	ld	a3,320(a0)
ffffffff84003c66:	0137d713          	srl	a4,a5,0x13
ffffffff84003c6a:	8b05                	and	a4,a4,1
ffffffff84003c6c:	01b7d79b          	srlw	a5,a5,0x1b
ffffffff84003c70:	edb0                	sd	a2,88(a1)
ffffffff84003c72:	f1b4                	sd	a3,96(a1)
ffffffff84003c74:	f5b8                	sd	a4,104(a1)
ffffffff84003c76:	f9bc                	sd	a5,112(a1)
ffffffff84003c78:	4511                	li	a0,4
ffffffff84003c7a:	8082                	ret
ffffffff84003c7c:	1141                	add	sp,sp,-16
ffffffff84003c7e:	e406                	sd	ra,8(sp)
ffffffff84003c80:	fb7ff0ef          	jal	ffffffff84003c36 <halt>

ffffffff84003c84 <setMRs_fault>:
ffffffff84003c84:	13853703          	ld	a4,312(a0)
ffffffff84003c88:	4809                	li	a6,2
ffffffff84003c8a:	87aa                	mv	a5,a0
ffffffff84003c8c:	00f77693          	and	a3,a4,15
ffffffff84003c90:	852e                	mv	a0,a1
ffffffff84003c92:	85b2                	mv	a1,a2
ffffffff84003c94:	09068263          	beq	a3,a6,ffffffff84003d18 <setMRs_fault+0x94>
ffffffff84003c98:	460d                	li	a2,3
ffffffff84003c9a:	06c68263          	beq	a3,a2,ffffffff84003cfe <setMRs_fault+0x7a>
ffffffff84003c9e:	1141                	add	sp,sp,-16
ffffffff84003ca0:	e406                	sd	ra,8(sp)
ffffffff84003ca2:	4605                	li	a2,1
ffffffff84003ca4:	02c68763          	beq	a3,a2,ffffffff84003cd2 <setMRs_fault+0x4e>
ffffffff84003ca8:	4615                	li	a2,5
ffffffff84003caa:	0ac69b63          	bne	a3,a2,ffffffff84003d60 <setMRs_fault+0xdc>
ffffffff84003cae:	1087b583          	ld	a1,264(a5)
ffffffff84003cb2:	1407b603          	ld	a2,320(a5)
ffffffff84003cb6:	60a2                	ld	ra,8(sp)
ffffffff84003cb8:	01375693          	srl	a3,a4,0x13
ffffffff84003cbc:	0016f793          	and	a5,a3,1
ffffffff84003cc0:	01b7571b          	srlw	a4,a4,0x1b
ffffffff84003cc4:	ed2c                	sd	a1,88(a0)
ffffffff84003cc6:	f130                	sd	a2,96(a0)
ffffffff84003cc8:	f53c                	sd	a5,104(a0)
ffffffff84003cca:	f938                	sd	a4,112(a0)
ffffffff84003ccc:	4511                	li	a0,4
ffffffff84003cce:	0141                	add	sp,sp,16
ffffffff84003cd0:	8082                	ret
ffffffff84003cd2:	1087b883          	ld	a7,264(a5)
ffffffff84003cd6:	1407b803          	ld	a6,320(a5)
ffffffff84003cda:	1487b603          	ld	a2,328(a5)
ffffffff84003cde:	1507b683          	ld	a3,336(a5)
ffffffff84003ce2:	937d                	srl	a4,a4,0x3f
ffffffff84003ce4:	f538                	sd	a4,104(a0)
ffffffff84003ce6:	05153c23          	sd	a7,88(a0)
ffffffff84003cea:	07053023          	sd	a6,96(a0)
ffffffff84003cee:	470d                	li	a4,3
ffffffff84003cf0:	bf5ff0ef          	jal	ffffffff840038e4 <setMRs_lookup_failure>
ffffffff84003cf4:	60a2                	ld	ra,8(sp)
ffffffff84003cf6:	1502                	sll	a0,a0,0x20
ffffffff84003cf8:	9101                	srl	a0,a0,0x20
ffffffff84003cfa:	0141                	add	sp,sp,16
ffffffff84003cfc:	8082                	ret
ffffffff84003cfe:	6790                	ld	a2,8(a5)
ffffffff84003d00:	1087b583          	ld	a1,264(a5)
ffffffff84003d04:	02075793          	srl	a5,a4,0x20
ffffffff84003d08:	0047571b          	srlw	a4,a4,0x4
ffffffff84003d0c:	ed2c                	sd	a1,88(a0)
ffffffff84003d0e:	f130                	sd	a2,96(a0)
ffffffff84003d10:	f53c                	sd	a5,104(a0)
ffffffff84003d12:	f938                	sd	a4,112(a0)
ffffffff84003d14:	4511                	li	a0,4
ffffffff84003d16:	8082                	ret
ffffffff84003d18:	6390                	ld	a2,0(a5)
ffffffff84003d1a:	0087b803          	ld	a6,8(a5)
ffffffff84003d1e:	67b8                	ld	a4,72(a5)
ffffffff84003d20:	1087b683          	ld	a3,264(a5)
ffffffff84003d24:	07053023          	sd	a6,96(a0)
ffffffff84003d28:	f530                	sd	a2,104(a0)
ffffffff84003d2a:	ed34                	sd	a3,88(a0)
ffffffff84003d2c:	f938                	sd	a4,112(a0)
ffffffff84003d2e:	c59d                	beqz	a1,ffffffff84003d5c <setMRs_fault+0xd8>
ffffffff84003d30:	85818513          	add	a0,gp,-1960 # ffffffff8400ab08 <fault_messages>
ffffffff84003d34:	02858693          	add	a3,a1,40
ffffffff84003d38:	05858613          	add	a2,a1,88
ffffffff84003d3c:	00454703          	lbu	a4,4(a0)
ffffffff84003d40:	06a1                	add	a3,a3,8
ffffffff84003d42:	0505                	add	a0,a0,1
ffffffff84003d44:	070e                	sll	a4,a4,0x3
ffffffff84003d46:	973e                	add	a4,a4,a5
ffffffff84003d48:	6318                	ld	a4,0(a4)
ffffffff84003d4a:	fee6bc23          	sd	a4,-8(a3)
ffffffff84003d4e:	fed617e3          	bne	a2,a3,ffffffff84003d3c <setMRs_fault+0xb8>
ffffffff84003d52:	1407b783          	ld	a5,320(a5)
ffffffff84003d56:	452d                	li	a0,11
ffffffff84003d58:	edbc                	sd	a5,88(a1)
ffffffff84003d5a:	8082                	ret
ffffffff84003d5c:	4511                	li	a0,4
ffffffff84003d5e:	8082                	ret
ffffffff84003d60:	ed7ff0ef          	jal	ffffffff84003c36 <halt>

ffffffff84003d64 <Arch_activateIdleThread>:
ffffffff84003d64:	8082                	ret

ffffffff84003d66 <Arch_postModifyRegisters>:
ffffffff84003d66:	8082                	ret

ffffffff84003d68 <copyGlobalMappings>:
ffffffff84003d68:	6705                	lui	a4,0x1
ffffffff84003d6a:	80070713          	add	a4,a4,-2048 # 800 <KERNEL_OFFSET-0xfffffffefffff800>
ffffffff84003d6e:	0001e797          	auipc	a5,0x1e
ffffffff84003d72:	a9278793          	add	a5,a5,-1390 # ffffffff84021800 <kernel_root_pageTable+0x800>
ffffffff84003d76:	972a                	add	a4,a4,a0
ffffffff84003d78:	0001e617          	auipc	a2,0x1e
ffffffff84003d7c:	28860613          	add	a2,a2,648 # ffffffff84022000 <ki_end>
ffffffff84003d80:	6394                	ld	a3,0(a5)
ffffffff84003d82:	07a1                	add	a5,a5,8
ffffffff84003d84:	0721                	add	a4,a4,8
ffffffff84003d86:	fed73c23          	sd	a3,-8(a4)
ffffffff84003d8a:	fec79be3          	bne	a5,a2,ffffffff84003d80 <copyGlobalMappings+0x18>
ffffffff84003d8e:	8082                	ret

ffffffff84003d90 <lookupIPCBuffer>:
ffffffff84003d90:	c005f713          	and	a4,a1,-1024
ffffffff84003d94:	635c                	ld	a5,128(a4)
ffffffff84003d96:	4685                	li	a3,1
ffffffff84003d98:	03b7d613          	srl	a2,a5,0x3b
ffffffff84003d9c:	06d61163          	bne	a2,a3,ffffffff84003dfe <lookupIPCBuffer+0x6e>
ffffffff84003da0:	0367d693          	srl	a3,a5,0x36
ffffffff84003da4:	8a85                	and	a3,a3,1
ffffffff84003da6:	eea1                	bnez	a3,ffffffff84003dfe <lookupIPCBuffer+0x6e>
ffffffff84003da8:	0377d693          	srl	a3,a5,0x37
ffffffff84003dac:	8a8d                	and	a3,a3,3
ffffffff84003dae:	460d                	li	a2,3
ffffffff84003db0:	08070713          	add	a4,a4,128
ffffffff84003db4:	04c69163          	bne	a3,a2,ffffffff84003df6 <lookupIPCBuffer+0x66>
ffffffff84003db8:	6718                	ld	a4,8(a4)
ffffffff84003dba:	56fd                	li	a3,-1
ffffffff84003dbc:	0196d513          	srl	a0,a3,0x19
ffffffff84003dc0:	8325                	srl	a4,a4,0x9
ffffffff84003dc2:	02675613          	srl	a2,a4,0x26
ffffffff84003dc6:	8a05                	and	a2,a2,1
ffffffff84003dc8:	8f69                	and	a4,a4,a0
ffffffff84003dca:	c219                	beqz	a2,ffffffff84003dd0 <lookupIPCBuffer+0x40>
ffffffff84003dcc:	169e                	sll	a3,a3,0x27
ffffffff84003dce:	8f55                	or	a4,a4,a3
ffffffff84003dd0:	93e5                	srl	a5,a5,0x39
ffffffff84003dd2:	8b8d                	and	a5,a5,3
ffffffff84003dd4:	468d                	li	a3,3
ffffffff84003dd6:	02d78663          	beq	a5,a3,ffffffff84003e02 <lookupIPCBuffer+0x72>
ffffffff84003dda:	00379693          	sll	a3,a5,0x3
ffffffff84003dde:	97b6                	add	a5,a5,a3
ffffffff84003de0:	07b1                	add	a5,a5,12
ffffffff84003de2:	1805b683          	ld	a3,384(a1)
ffffffff84003de6:	557d                	li	a0,-1
ffffffff84003de8:	00f51533          	sll	a0,a0,a5
ffffffff84003dec:	fff54513          	not	a0,a0
ffffffff84003df0:	8d75                	and	a0,a0,a3
ffffffff84003df2:	953a                	add	a0,a0,a4
ffffffff84003df4:	8082                	ret
ffffffff84003df6:	e501                	bnez	a0,ffffffff84003dfe <lookupIPCBuffer+0x6e>
ffffffff84003df8:	4609                	li	a2,2
ffffffff84003dfa:	fac68fe3          	beq	a3,a2,ffffffff84003db8 <lookupIPCBuffer+0x28>
ffffffff84003dfe:	4501                	li	a0,0
ffffffff84003e00:	8082                	ret
ffffffff84003e02:	1141                	add	sp,sp,-16
ffffffff84003e04:	e406                	sd	ra,8(sp)
ffffffff84003e06:	e31ff0ef          	jal	ffffffff84003c36 <halt>

ffffffff84003e0a <handleFaultReply>:
ffffffff84003e0a:	69b4                	ld	a3,80(a1)
ffffffff84003e0c:	7179                	add	sp,sp,-48
ffffffff84003e0e:	f022                	sd	s0,32(sp)
ffffffff84003e10:	f406                	sd	ra,40(sp)
ffffffff84003e12:	ec26                	sd	s1,24(sp)
ffffffff84003e14:	e84a                	sd	s2,16(sp)
ffffffff84003e16:	e44e                	sd	s3,8(sp)
ffffffff84003e18:	e052                	sd	s4,0(sp)
ffffffff84003e1a:	07800793          	li	a5,120
ffffffff84003e1e:	07f6f713          	and	a4,a3,127
ffffffff84003e22:	842a                	mv	s0,a0
ffffffff84003e24:	02e7fd63          	bgeu	a5,a4,ffffffff84003e5e <handleFaultReply+0x54>
ffffffff84003e28:	13853783          	ld	a5,312(a0)
ffffffff84003e2c:	4709                	li	a4,2
ffffffff84003e2e:	00c6d993          	srl	s3,a3,0xc
ffffffff84003e32:	00f7f513          	and	a0,a5,15
ffffffff84003e36:	06e50663          	beq	a0,a4,ffffffff84003ea2 <handleFaultReply+0x98>
ffffffff84003e3a:	478d                	li	a5,3
ffffffff84003e3c:	06f50063          	beq	a0,a5,ffffffff84003e9c <handleFaultReply+0x92>
ffffffff84003e40:	4785                	li	a5,1
ffffffff84003e42:	00f50663          	beq	a0,a5,ffffffff84003e4e <handleFaultReply+0x44>
ffffffff84003e46:	4795                	li	a5,5
ffffffff84003e48:	0ef51063          	bne	a0,a5,ffffffff84003f28 <handleFaultReply+0x11e>
ffffffff84003e4c:	4505                	li	a0,1
ffffffff84003e4e:	70a2                	ld	ra,40(sp)
ffffffff84003e50:	7402                	ld	s0,32(sp)
ffffffff84003e52:	64e2                	ld	s1,24(sp)
ffffffff84003e54:	6942                	ld	s2,16(sp)
ffffffff84003e56:	69a2                	ld	s3,8(sp)
ffffffff84003e58:	6a02                	ld	s4,0(sp)
ffffffff84003e5a:	6145                	add	sp,sp,48
ffffffff84003e5c:	8082                	ret
ffffffff84003e5e:	13853783          	ld	a5,312(a0)
ffffffff84003e62:	4609                	li	a2,2
ffffffff84003e64:	00c6d993          	srl	s3,a3,0xc
ffffffff84003e68:	00f7f513          	and	a0,a5,15
ffffffff84003e6c:	0ac50163          	beq	a0,a2,ffffffff84003f0e <handleFaultReply+0x104>
ffffffff84003e70:	478d                	li	a5,3
ffffffff84003e72:	fcf517e3          	bne	a0,a5,ffffffff84003e40 <handleFaultReply+0x36>
ffffffff84003e76:	cb09                	beqz	a4,ffffffff84003e88 <handleFaultReply+0x7e>
ffffffff84003e78:	6db4                	ld	a3,88(a1)
ffffffff84003e7a:	4785                	li	a5,1
ffffffff84003e7c:	10d43423          	sd	a3,264(s0)
ffffffff84003e80:	00e7f463          	bgeu	a5,a4,ffffffff84003e88 <handleFaultReply+0x7e>
ffffffff84003e84:	71bc                	ld	a5,96(a1)
ffffffff84003e86:	e41c                	sd	a5,8(s0)
ffffffff84003e88:	0019b513          	seqz	a0,s3
ffffffff84003e8c:	70a2                	ld	ra,40(sp)
ffffffff84003e8e:	7402                	ld	s0,32(sp)
ffffffff84003e90:	64e2                	ld	s1,24(sp)
ffffffff84003e92:	6942                	ld	s2,16(sp)
ffffffff84003e94:	69a2                	ld	s3,8(sp)
ffffffff84003e96:	6a02                	ld	s4,0(sp)
ffffffff84003e98:	6145                	add	sp,sp,48
ffffffff84003e9a:	8082                	ret
ffffffff84003e9c:	07800713          	li	a4,120
ffffffff84003ea0:	bfe1                	j	ffffffff84003e78 <handleFaultReply+0x6e>
ffffffff84003ea2:	4811                	li	a6,4
ffffffff84003ea4:	44a9                	li	s1,10
ffffffff84003ea6:	85818913          	add	s2,gp,-1960 # ffffffff8400ab08 <fault_messages>
ffffffff84003eaa:	854a                	mv	a0,s2
ffffffff84003eac:	89018613          	add	a2,gp,-1904 # ffffffff8400ab40 <msgRegisters>
ffffffff84003eb0:	4681                	li	a3,0
ffffffff84003eb2:	00064703          	lbu	a4,0(a2)
ffffffff84003eb6:	00054783          	lbu	a5,0(a0)
ffffffff84003eba:	0685                	add	a3,a3,1
ffffffff84003ebc:	070e                	sll	a4,a4,0x3
ffffffff84003ebe:	972e                	add	a4,a4,a1
ffffffff84003ec0:	6318                	ld	a4,0(a4)
ffffffff84003ec2:	078e                	sll	a5,a5,0x3
ffffffff84003ec4:	97a2                	add	a5,a5,s0
ffffffff84003ec6:	e398                	sd	a4,0(a5)
ffffffff84003ec8:	0505                	add	a0,a0,1
ffffffff84003eca:	0605                	add	a2,a2,1
ffffffff84003ecc:	ff06e3e3          	bltu	a3,a6,ffffffff84003eb2 <handleFaultReply+0xa8>
ffffffff84003ed0:	4a05                	li	s4,1
ffffffff84003ed2:	00080363          	beqz	a6,ffffffff84003ed8 <handleFaultReply+0xce>
ffffffff84003ed6:	8a42                	mv	s4,a6
ffffffff84003ed8:	fa9a78e3          	bgeu	s4,s1,ffffffff84003e88 <handleFaultReply+0x7e>
ffffffff84003edc:	4501                	li	a0,0
ffffffff84003ede:	eb3ff0ef          	jal	ffffffff84003d90 <lookupIPCBuffer>
ffffffff84003ee2:	d15d                	beqz	a0,ffffffff84003e88 <handleFaultReply+0x7e>
ffffffff84003ee4:	003a1693          	sll	a3,s4,0x3
ffffffff84003ee8:	00349713          	sll	a4,s1,0x3
ffffffff84003eec:	96aa                	add	a3,a3,a0
ffffffff84003eee:	01490633          	add	a2,s2,s4
ffffffff84003ef2:	953a                	add	a0,a0,a4
ffffffff84003ef4:	00064783          	lbu	a5,0(a2)
ffffffff84003ef8:	6698                	ld	a4,8(a3)
ffffffff84003efa:	06a1                	add	a3,a3,8
ffffffff84003efc:	078e                	sll	a5,a5,0x3
ffffffff84003efe:	97a2                	add	a5,a5,s0
ffffffff84003f00:	e398                	sd	a4,0(a5)
ffffffff84003f02:	0605                	add	a2,a2,1
ffffffff84003f04:	fed518e3          	bne	a0,a3,ffffffff84003ef4 <handleFaultReply+0xea>
ffffffff84003f08:	0019b513          	seqz	a0,s3
ffffffff84003f0c:	b741                	j	ffffffff84003e8c <handleFaultReply+0x82>
ffffffff84003f0e:	df2d                	beqz	a4,ffffffff84003e88 <handleFaultReply+0x7e>
ffffffff84003f10:	47a9                	li	a5,10
ffffffff84003f12:	84ba                	mv	s1,a4
ffffffff84003f14:	00e7e863          	bltu	a5,a4,ffffffff84003f24 <handleFaultReply+0x11a>
ffffffff84003f18:	4791                	li	a5,4
ffffffff84003f1a:	8826                	mv	a6,s1
ffffffff84003f1c:	f897f5e3          	bgeu	a5,s1,ffffffff84003ea6 <handleFaultReply+0x9c>
ffffffff84003f20:	4811                	li	a6,4
ffffffff84003f22:	b751                	j	ffffffff84003ea6 <handleFaultReply+0x9c>
ffffffff84003f24:	44a9                	li	s1,10
ffffffff84003f26:	bfcd                	j	ffffffff84003f18 <handleFaultReply+0x10e>
ffffffff84003f28:	d0fff0ef          	jal	ffffffff84003c36 <halt>

ffffffff84003f2c <lookupPTSlot>:
ffffffff84003f2c:	01e5d793          	srl	a5,a1,0x1e
ffffffff84003f30:	1ff7f793          	and	a5,a5,511
ffffffff84003f34:	078e                	sll	a5,a5,0x3
ffffffff84003f36:	953e                	add	a0,a0,a5
ffffffff84003f38:	611c                	ld	a5,0(a0)
ffffffff84003f3a:	1141                	add	sp,sp,-16
ffffffff84003f3c:	0017f713          	and	a4,a5,1
ffffffff84003f40:	e701                	bnez	a4,ffffffff84003f48 <lookupPTSlot+0x1c>
ffffffff84003f42:	45f9                	li	a1,30
ffffffff84003f44:	0141                	add	sp,sp,16
ffffffff84003f46:	8082                	ret
ffffffff84003f48:	fff00337          	lui	t1,0xfff00
ffffffff84003f4c:	58fd                	li	a7,-1
ffffffff84003f4e:	882e                	mv	a6,a1
ffffffff84003f50:	4e31                	li	t3,12
ffffffff84003f52:	45f9                	li	a1,30
ffffffff84003f54:	00835313          	srl	t1,t1,0x8
ffffffff84003f58:	189a                	sll	a7,a7,0x26
ffffffff84003f5a:	0017d713          	srl	a4,a5,0x1
ffffffff84003f5e:	0027d613          	srl	a2,a5,0x2
ffffffff84003f62:	0037d693          	srl	a3,a5,0x3
ffffffff84003f66:	8f51                	or	a4,a4,a2
ffffffff84003f68:	8f55                	or	a4,a4,a3
ffffffff84003f6a:	8b05                	and	a4,a4,1
ffffffff84003f6c:	ff61                	bnez	a4,ffffffff84003f44 <lookupPTSlot+0x18>
ffffffff84003f6e:	078a                	sll	a5,a5,0x2
ffffffff84003f70:	0067f7b3          	and	a5,a5,t1
ffffffff84003f74:	97c6                	add	a5,a5,a7
ffffffff84003f76:	fdc587e3          	beq	a1,t3,ffffffff84003f44 <lookupPTSlot+0x18>
ffffffff84003f7a:	15dd                	add	a1,a1,-9
ffffffff84003f7c:	00b85533          	srl	a0,a6,a1
ffffffff84003f80:	1ff57513          	and	a0,a0,511
ffffffff84003f84:	050e                	sll	a0,a0,0x3
ffffffff84003f86:	953e                	add	a0,a0,a5
ffffffff84003f88:	611c                	ld	a5,0(a0)
ffffffff84003f8a:	0017f713          	and	a4,a5,1
ffffffff84003f8e:	f771                	bnez	a4,ffffffff84003f5a <lookupPTSlot+0x2e>
ffffffff84003f90:	0141                	add	sp,sp,16
ffffffff84003f92:	8082                	ret

ffffffff84003f94 <handleVMFault>:
ffffffff84003f94:	14302773          	csrr	a4,stval
ffffffff84003f98:	47bd                	li	a5,15
ffffffff84003f9a:	02b7e363          	bltu	a5,a1,ffffffff84003fc0 <handleVMFault+0x2c>
ffffffff84003f9e:	4785                	li	a5,1
ffffffff84003fa0:	00b795b3          	sll	a1,a5,a1
ffffffff84003fa4:	6789                	lui	a5,0x2
ffffffff84003fa6:	02078793          	add	a5,a5,32 # 2020 <KERNEL_OFFSET-0xfffffffeffffdfe0>
ffffffff84003faa:	8fed                	and	a5,a5,a1
ffffffff84003fac:	e79d                	bnez	a5,ffffffff84003fda <handleVMFault+0x46>
ffffffff84003fae:	6785                	lui	a5,0x1
ffffffff84003fb0:	0789                	add	a5,a5,2 # 1002 <KERNEL_OFFSET-0xfffffffeffffeffe>
ffffffff84003fb2:	8fed                	and	a5,a5,a1
ffffffff84003fb4:	ef85                	bnez	a5,ffffffff84003fec <handleVMFault+0x58>
ffffffff84003fb6:	67a1                	lui	a5,0x8
ffffffff84003fb8:	08078793          	add	a5,a5,128 # 8080 <KERNEL_OFFSET-0xfffffffeffff7f80>
ffffffff84003fbc:	8dfd                	and	a1,a1,a5
ffffffff84003fbe:	e589                	bnez	a1,ffffffff84003fc8 <handleVMFault+0x34>
ffffffff84003fc0:	1141                	add	sp,sp,-16
ffffffff84003fc2:	e406                	sd	ra,8(sp)
ffffffff84003fc4:	c73ff0ef          	jal	ffffffff84003c36 <halt>
ffffffff84003fc8:	380006b7          	lui	a3,0x38000
ffffffff84003fcc:	d6818793          	add	a5,gp,-664 # ffffffff8400b018 <current_fault>
ffffffff84003fd0:	0695                	add	a3,a3,5 # 38000005 <KERNEL_OFFSET-0xfffffffec7fffffb>
ffffffff84003fd2:	e394                	sd	a3,0(a5)
ffffffff84003fd4:	e798                	sd	a4,8(a5)
ffffffff84003fd6:	4505                	li	a0,1
ffffffff84003fd8:	8082                	ret
ffffffff84003fda:	280006b7          	lui	a3,0x28000
ffffffff84003fde:	d6818793          	add	a5,gp,-664 # ffffffff8400b018 <current_fault>
ffffffff84003fe2:	0695                	add	a3,a3,5 # 28000005 <KERNEL_OFFSET-0xfffffffed7fffffb>
ffffffff84003fe4:	e394                	sd	a3,0(a5)
ffffffff84003fe6:	e798                	sd	a4,8(a5)
ffffffff84003fe8:	4505                	li	a0,1
ffffffff84003fea:	8082                	ret
ffffffff84003fec:	080806b7          	lui	a3,0x8080
ffffffff84003ff0:	d6818793          	add	a5,gp,-664 # ffffffff8400b018 <current_fault>
ffffffff84003ff4:	0695                	add	a3,a3,5 # 8080005 <KERNEL_OFFSET-0xfffffffef7f7fffb>
ffffffff84003ff6:	e394                	sd	a3,0(a5)
ffffffff84003ff8:	e798                	sd	a4,8(a5)
ffffffff84003ffa:	4505                	li	a0,1
ffffffff84003ffc:	8082                	ret

ffffffff84003ffe <unmapPageTable>:
ffffffff84003ffe:	7179                	add	sp,sp,-48
ffffffff84004000:	f022                	sd	s0,32(sp)
ffffffff84004002:	ec26                	sd	s1,24(sp)
ffffffff84004004:	f406                	sd	ra,40(sp)
ffffffff84004006:	842e                	mv	s0,a1
ffffffff84004008:	84b2                	mv	s1,a2
ffffffff8400400a:	fe4ff0ef          	jal	ffffffff840037ee <findVSpaceForASID>
ffffffff8400400e:	e02a                	sd	a0,0(sp)
ffffffff84004010:	e42e                	sd	a1,8(sp)
ffffffff84004012:	e51d                	bnez	a0,ffffffff84004040 <unmapPageTable+0x42>
ffffffff84004014:	08958863          	beq	a1,s1,ffffffff840040a4 <unmapPageTable+0xa6>
ffffffff84004018:	01e45793          	srl	a5,s0,0x1e
ffffffff8400401c:	1ff7f793          	and	a5,a5,511
ffffffff84004020:	078e                	sll	a5,a5,0x3
ffffffff84004022:	95be                	add	a1,a1,a5
ffffffff84004024:	619c                	ld	a5,0(a1)
ffffffff84004026:	0017f713          	and	a4,a5,1
ffffffff8400402a:	cb19                	beqz	a4,ffffffff84004040 <unmapPageTable+0x42>
ffffffff8400402c:	0027d693          	srl	a3,a5,0x2
ffffffff84004030:	0017d713          	srl	a4,a5,0x1
ffffffff84004034:	8f55                	or	a4,a4,a3
ffffffff84004036:	0037d693          	srl	a3,a5,0x3
ffffffff8400403a:	8f55                	or	a4,a4,a3
ffffffff8400403c:	8b05                	and	a4,a4,1
ffffffff8400403e:	c711                	beqz	a4,ffffffff8400404a <unmapPageTable+0x4c>
ffffffff84004040:	70a2                	ld	ra,40(sp)
ffffffff84004042:	7402                	ld	s0,32(sp)
ffffffff84004044:	64e2                	ld	s1,24(sp)
ffffffff84004046:	6145                	add	sp,sp,48
ffffffff84004048:	8082                	ret
ffffffff8400404a:	fff00637          	lui	a2,0xfff00
ffffffff8400404e:	078a                	sll	a5,a5,0x2
ffffffff84004050:	8221                	srl	a2,a2,0x8
ffffffff84004052:	56fd                	li	a3,-1
ffffffff84004054:	8ff1                	and	a5,a5,a2
ffffffff84004056:	169a                	sll	a3,a3,0x26
ffffffff84004058:	97b6                	add	a5,a5,a3
ffffffff8400405a:	02f48c63          	beq	s1,a5,ffffffff84004092 <unmapPageTable+0x94>
ffffffff8400405e:	8055                	srl	s0,s0,0x15
ffffffff84004060:	1ff47413          	and	s0,s0,511
ffffffff84004064:	040e                	sll	s0,s0,0x3
ffffffff84004066:	008785b3          	add	a1,a5,s0
ffffffff8400406a:	619c                	ld	a5,0(a1)
ffffffff8400406c:	0017f713          	and	a4,a5,1
ffffffff84004070:	db61                	beqz	a4,ffffffff84004040 <unmapPageTable+0x42>
ffffffff84004072:	0027d513          	srl	a0,a5,0x2
ffffffff84004076:	0017d713          	srl	a4,a5,0x1
ffffffff8400407a:	8f49                	or	a4,a4,a0
ffffffff8400407c:	0037d513          	srl	a0,a5,0x3
ffffffff84004080:	8f49                	or	a4,a4,a0
ffffffff84004082:	8b05                	and	a4,a4,1
ffffffff84004084:	ff55                	bnez	a4,ffffffff84004040 <unmapPageTable+0x42>
ffffffff84004086:	83a9                	srl	a5,a5,0xa
ffffffff84004088:	07b2                	sll	a5,a5,0xc
ffffffff8400408a:	8ff1                	and	a5,a5,a2
ffffffff8400408c:	97b6                	add	a5,a5,a3
ffffffff8400408e:	faf499e3          	bne	s1,a5,ffffffff84004040 <unmapPageTable+0x42>
ffffffff84004092:	0005b023          	sd	zero,0(a1)
ffffffff84004096:	12000073          	sfence.vma
ffffffff8400409a:	70a2                	ld	ra,40(sp)
ffffffff8400409c:	7402                	ld	s0,32(sp)
ffffffff8400409e:	64e2                	ld	s1,24(sp)
ffffffff840040a0:	6145                	add	sp,sp,48
ffffffff840040a2:	8082                	ret
ffffffff840040a4:	00003023          	sd	zero,0(zero) # 0 <KERNEL_OFFSET-0xffffffff00000000>
ffffffff840040a8:	9002                	ebreak

ffffffff840040aa <unmapPage>:
ffffffff840040aa:	7139                	add	sp,sp,-64
ffffffff840040ac:	f822                	sd	s0,48(sp)
ffffffff840040ae:	842a                	mv	s0,a0
ffffffff840040b0:	852e                	mv	a0,a1
ffffffff840040b2:	f426                	sd	s1,40(sp)
ffffffff840040b4:	f04a                	sd	s2,32(sp)
ffffffff840040b6:	fc06                	sd	ra,56(sp)
ffffffff840040b8:	8932                	mv	s2,a2
ffffffff840040ba:	84b6                	mv	s1,a3
ffffffff840040bc:	f32ff0ef          	jal	ffffffff840037ee <findVSpaceForASID>
ffffffff840040c0:	e02a                	sd	a0,0(sp)
ffffffff840040c2:	e42e                	sd	a1,8(sp)
ffffffff840040c4:	c519                	beqz	a0,ffffffff840040d2 <unmapPage+0x28>
ffffffff840040c6:	70e2                	ld	ra,56(sp)
ffffffff840040c8:	7442                	ld	s0,48(sp)
ffffffff840040ca:	74a2                	ld	s1,40(sp)
ffffffff840040cc:	7902                	ld	s2,32(sp)
ffffffff840040ce:	6121                	add	sp,sp,64
ffffffff840040d0:	8082                	ret
ffffffff840040d2:	852e                	mv	a0,a1
ffffffff840040d4:	85ca                	mv	a1,s2
ffffffff840040d6:	e57ff0ef          	jal	ffffffff84003f2c <lookupPTSlot>
ffffffff840040da:	e82a                	sd	a0,16(sp)
ffffffff840040dc:	ec2e                	sd	a1,24(sp)
ffffffff840040de:	4789                	li	a5,2
ffffffff840040e0:	0487e563          	bltu	a5,s0,ffffffff8400412a <unmapPage+0x80>
ffffffff840040e4:	00341793          	sll	a5,s0,0x3
ffffffff840040e8:	97a2                	add	a5,a5,s0
ffffffff840040ea:	07b1                	add	a5,a5,12
ffffffff840040ec:	fcf59de3          	bne	a1,a5,ffffffff840040c6 <unmapPage+0x1c>
ffffffff840040f0:	611c                	ld	a5,0(a0)
ffffffff840040f2:	0017f713          	and	a4,a5,1
ffffffff840040f6:	db61                	beqz	a4,ffffffff840040c6 <unmapPage+0x1c>
ffffffff840040f8:	0027d693          	srl	a3,a5,0x2
ffffffff840040fc:	0017d713          	srl	a4,a5,0x1
ffffffff84004100:	8f55                	or	a4,a4,a3
ffffffff84004102:	0037d693          	srl	a3,a5,0x3
ffffffff84004106:	8f55                	or	a4,a4,a3
ffffffff84004108:	8b05                	and	a4,a4,1
ffffffff8400410a:	df55                	beqz	a4,ffffffff840040c6 <unmapPage+0x1c>
ffffffff8400410c:	fff00737          	lui	a4,0xfff00
ffffffff84004110:	8321                	srl	a4,a4,0x8
ffffffff84004112:	078a                	sll	a5,a5,0x2
ffffffff84004114:	8ff9                	and	a5,a5,a4
ffffffff84004116:	4705                	li	a4,1
ffffffff84004118:	171a                	sll	a4,a4,0x26
ffffffff8400411a:	94ba                	add	s1,s1,a4
ffffffff8400411c:	fa9795e3          	bne	a5,s1,ffffffff840040c6 <unmapPage+0x1c>
ffffffff84004120:	00053023          	sd	zero,0(a0)
ffffffff84004124:	12000073          	sfence.vma
ffffffff84004128:	bf79                	j	ffffffff840040c6 <unmapPage+0x1c>
ffffffff8400412a:	b0dff0ef          	jal	ffffffff84003c36 <halt>

ffffffff8400412e <setVMRoot>:
ffffffff8400412e:	c0057513          	and	a0,a0,-1024
ffffffff84004132:	711c                	ld	a5,32(a0)
ffffffff84004134:	470d                	li	a4,3
ffffffff84004136:	7508                	ld	a0,40(a0)
ffffffff84004138:	93ed                	srl	a5,a5,0x3b
ffffffff8400413a:	02e78563          	beq	a5,a4,ffffffff84004164 <setVMRoot+0x36>
ffffffff8400413e:	4685                	li	a3,1
ffffffff84004140:	1682                	sll	a3,a3,0x20
ffffffff84004142:	0001d797          	auipc	a5,0x1d
ffffffff84004146:	ebe78793          	add	a5,a5,-322 # ffffffff84021000 <kernel_root_pageTable>
ffffffff8400414a:	577d                	li	a4,-1
ffffffff8400414c:	97b6                	add	a5,a5,a3
ffffffff8400414e:	83b1                	srl	a5,a5,0xc
ffffffff84004150:	01475693          	srl	a3,a4,0x14
ffffffff84004154:	8ff5                	and	a5,a5,a3
ffffffff84004156:	177e                	sll	a4,a4,0x3f
ffffffff84004158:	8fd9                	or	a5,a5,a4
ffffffff8400415a:	18079073          	csrw	satp,a5
ffffffff8400415e:	12000073          	sfence.vma
ffffffff84004162:	8082                	ret
ffffffff84004164:	7179                	add	sp,sp,-48
ffffffff84004166:	f022                	sd	s0,32(sp)
ffffffff84004168:	00955413          	srl	s0,a0,0x9
ffffffff8400416c:	02645713          	srl	a4,s0,0x26
ffffffff84004170:	57fd                	li	a5,-1
ffffffff84004172:	0197d693          	srl	a3,a5,0x19
ffffffff84004176:	f406                	sd	ra,40(sp)
ffffffff84004178:	ec26                	sd	s1,24(sp)
ffffffff8400417a:	8b05                	and	a4,a4,1
ffffffff8400417c:	8c75                	and	s0,s0,a3
ffffffff8400417e:	c319                	beqz	a4,ffffffff84004184 <setVMRoot+0x56>
ffffffff84004180:	179e                	sll	a5,a5,0x27
ffffffff84004182:	8c5d                	or	s0,s0,a5
ffffffff84004184:	03055493          	srl	s1,a0,0x30
ffffffff84004188:	8526                	mv	a0,s1
ffffffff8400418a:	e64ff0ef          	jal	ffffffff840037ee <findVSpaceForASID>
ffffffff8400418e:	e02a                	sd	a0,0(sp)
ffffffff84004190:	e42e                	sd	a1,8(sp)
ffffffff84004192:	577d                	li	a4,-1
ffffffff84004194:	e905                	bnez	a0,ffffffff840041c4 <setVMRoot+0x96>
ffffffff84004196:	02859763          	bne	a1,s0,ffffffff840041c4 <setVMRoot+0x96>
ffffffff8400419a:	4785                	li	a5,1
ffffffff8400419c:	179a                	sll	a5,a5,0x26
ffffffff8400419e:	97a2                	add	a5,a5,s0
ffffffff840041a0:	01475693          	srl	a3,a4,0x14
ffffffff840041a4:	83b1                	srl	a5,a5,0xc
ffffffff840041a6:	8ff5                	and	a5,a5,a3
ffffffff840041a8:	02c49513          	sll	a0,s1,0x2c
ffffffff840041ac:	8fc9                	or	a5,a5,a0
ffffffff840041ae:	177e                	sll	a4,a4,0x3f
ffffffff840041b0:	8fd9                	or	a5,a5,a4
ffffffff840041b2:	18079073          	csrw	satp,a5
ffffffff840041b6:	12000073          	sfence.vma
ffffffff840041ba:	70a2                	ld	ra,40(sp)
ffffffff840041bc:	7402                	ld	s0,32(sp)
ffffffff840041be:	64e2                	ld	s1,24(sp)
ffffffff840041c0:	6145                	add	sp,sp,48
ffffffff840041c2:	8082                	ret
ffffffff840041c4:	4685                	li	a3,1
ffffffff840041c6:	1682                	sll	a3,a3,0x20
ffffffff840041c8:	0001d797          	auipc	a5,0x1d
ffffffff840041cc:	e3878793          	add	a5,a5,-456 # ffffffff84021000 <kernel_root_pageTable>
ffffffff840041d0:	97b6                	add	a5,a5,a3
ffffffff840041d2:	83b1                	srl	a5,a5,0xc
ffffffff840041d4:	01475693          	srl	a3,a4,0x14
ffffffff840041d8:	8ff5                	and	a5,a5,a3
ffffffff840041da:	177e                	sll	a4,a4,0x3f
ffffffff840041dc:	8fd9                	or	a5,a5,a4
ffffffff840041de:	18079073          	csrw	satp,a5
ffffffff840041e2:	12000073          	sfence.vma
ffffffff840041e6:	bfd1                	j	ffffffff840041ba <setVMRoot+0x8c>

ffffffff840041e8 <Arch_switchToThread>:
ffffffff840041e8:	b799                	j	ffffffff8400412e <setVMRoot>

ffffffff840041ea <Arch_switchToIdleThread>:
ffffffff840041ea:	a981b503          	ld	a0,-1384(gp) # ffffffff8400ad48 <ksIdleThread>
ffffffff840041ee:	b781                	j	ffffffff8400412e <setVMRoot>

ffffffff840041f0 <deleteASIDPool>:
ffffffff840041f0:	8125                	srl	a0,a0,0x9
ffffffff840041f2:	050e                	sll	a0,a0,0x3
ffffffff840041f4:	d8818793          	add	a5,gp,-632 # ffffffff8400b038 <riscvKSASIDTable>
ffffffff840041f8:	97aa                	add	a5,a5,a0
ffffffff840041fa:	6398                	ld	a4,0(a5)
ffffffff840041fc:	00b70363          	beq	a4,a1,ffffffff84004202 <deleteASIDPool+0x12>
ffffffff84004200:	8082                	ret
ffffffff84004202:	aa01b503          	ld	a0,-1376(gp) # ffffffff8400ad50 <ksCurThread>
ffffffff84004206:	0007b023          	sd	zero,0(a5)
ffffffff8400420a:	b715                	j	ffffffff8400412e <setVMRoot>

ffffffff8400420c <deleteASID>:
ffffffff8400420c:	00955713          	srl	a4,a0,0x9
ffffffff84004210:	070e                	sll	a4,a4,0x3
ffffffff84004212:	d8818793          	add	a5,gp,-632 # ffffffff8400b038 <riscvKSASIDTable>
ffffffff84004216:	97ba                	add	a5,a5,a4
ffffffff84004218:	639c                	ld	a5,0(a5)
ffffffff8400421a:	cb81                	beqz	a5,ffffffff8400422a <deleteASID+0x1e>
ffffffff8400421c:	1ff57713          	and	a4,a0,511
ffffffff84004220:	070e                	sll	a4,a4,0x3
ffffffff84004222:	97ba                	add	a5,a5,a4
ffffffff84004224:	6398                	ld	a4,0(a5)
ffffffff84004226:	00b70363          	beq	a4,a1,ffffffff8400422c <deleteASID+0x20>
ffffffff8400422a:	8082                	ret
ffffffff8400422c:	12a00073          	sfence.vma	zero,a0
ffffffff84004230:	aa01b503          	ld	a0,-1376(gp) # ffffffff8400ad50 <ksCurThread>
ffffffff84004234:	0007b023          	sd	zero,0(a5)
ffffffff84004238:	bddd                	j	ffffffff8400412e <setVMRoot>

ffffffff8400423a <isValidVTableRoot>:
ffffffff8400423a:	03b55713          	srl	a4,a0,0x3b
ffffffff8400423e:	478d                	li	a5,3
ffffffff84004240:	911d                	srl	a0,a0,0x27
ffffffff84004242:	1141                	add	sp,sp,-16
ffffffff84004244:	8905                	and	a0,a0,1
ffffffff84004246:	00f70363          	beq	a4,a5,ffffffff8400424c <isValidVTableRoot+0x12>
ffffffff8400424a:	4501                	li	a0,0
ffffffff8400424c:	0141                	add	sp,sp,16
ffffffff8400424e:	8082                	ret

ffffffff84004250 <checkValidIPCBuffer>:
ffffffff84004250:	03b5d713          	srl	a4,a1,0x3b
ffffffff84004254:	4785                	li	a5,1
ffffffff84004256:	1141                	add	sp,sp,-16
ffffffff84004258:	00f71b63          	bne	a4,a5,ffffffff8400426e <checkValidIPCBuffer+0x1e>
ffffffff8400425c:	91d9                	srl	a1,a1,0x36
ffffffff8400425e:	8985                	and	a1,a1,1
ffffffff84004260:	e599                	bnez	a1,ffffffff8400426e <checkValidIPCBuffer+0x1e>
ffffffff84004262:	3ff57513          	and	a0,a0,1023
ffffffff84004266:	4795                	li	a5,5
ffffffff84004268:	e501                	bnez	a0,ffffffff84004270 <checkValidIPCBuffer+0x20>
ffffffff8400426a:	0141                	add	sp,sp,16
ffffffff8400426c:	8082                	ret
ffffffff8400426e:	478d                	li	a5,3
ffffffff84004270:	d6f1b023          	sd	a5,-672(gp) # ffffffff8400b010 <current_syscall_error+0x30>
ffffffff84004274:	450d                	li	a0,3
ffffffff84004276:	bfd5                	j	ffffffff8400426a <checkValidIPCBuffer+0x1a>

ffffffff84004278 <maskVMRights>:
ffffffff84004278:	4709                	li	a4,2
ffffffff8400427a:	87aa                	mv	a5,a0
ffffffff8400427c:	00e50e63          	beq	a0,a4,ffffffff84004298 <maskVMRights+0x20>
ffffffff84004280:	470d                	li	a4,3
ffffffff84004282:	4505                	li	a0,1
ffffffff84004284:	00e79963          	bne	a5,a4,ffffffff84004296 <maskVMRights+0x1e>
ffffffff84004288:	0015d793          	srl	a5,a1,0x1
ffffffff8400428c:	8b85                	and	a5,a5,1
ffffffff8400428e:	c781                	beqz	a5,ffffffff84004296 <maskVMRights+0x1e>
ffffffff84004290:	8985                	and	a1,a1,1
ffffffff84004292:	00258513          	add	a0,a1,2
ffffffff84004296:	8082                	ret
ffffffff84004298:	8185                	srl	a1,a1,0x1
ffffffff8400429a:	8985                	and	a1,a1,1
ffffffff8400429c:	00158513          	add	a0,a1,1
ffffffff840042a0:	8082                	ret

ffffffff840042a2 <performPageTableInvocationMap>:
ffffffff840042a2:	1141                	add	sp,sp,-16
ffffffff840042a4:	e208                	sd	a0,0(a2)
ffffffff840042a6:	e60c                	sd	a1,8(a2)
ffffffff840042a8:	e02a                	sd	a0,0(sp)
ffffffff840042aa:	e42e                	sd	a1,8(sp)
ffffffff840042ac:	e314                	sd	a3,0(a4)
ffffffff840042ae:	12000073          	sfence.vma
ffffffff840042b2:	4501                	li	a0,0
ffffffff840042b4:	0141                	add	sp,sp,16
ffffffff840042b6:	8082                	ret

ffffffff840042b8 <performPageTableInvocationUnmap>:
ffffffff840042b8:	7179                	add	sp,sp,-48
ffffffff840042ba:	02755793          	srl	a5,a0,0x27
ffffffff840042be:	e84a                	sd	s2,16(sp)
ffffffff840042c0:	f406                	sd	ra,40(sp)
ffffffff840042c2:	f022                	sd	s0,32(sp)
ffffffff840042c4:	ec26                	sd	s1,24(sp)
ffffffff840042c6:	8b85                	and	a5,a5,1
ffffffff840042c8:	8932                	mv	s2,a2
ffffffff840042ca:	c7b9                	beqz	a5,ffffffff84004318 <performPageTableInvocationUnmap+0x60>
ffffffff840042cc:	0095d793          	srl	a5,a1,0x9
ffffffff840042d0:	56fd                	li	a3,-1
ffffffff840042d2:	0267d613          	srl	a2,a5,0x26
ffffffff840042d6:	872a                	mv	a4,a0
ffffffff840042d8:	8a05                	and	a2,a2,1
ffffffff840042da:	0196d513          	srl	a0,a3,0x19
ffffffff840042de:	00a7f4b3          	and	s1,a5,a0
ffffffff840042e2:	c219                	beqz	a2,ffffffff840042e8 <performPageTableInvocationUnmap+0x30>
ffffffff840042e4:	169e                	sll	a3,a3,0x27
ffffffff840042e6:	8cd5                	or	s1,s1,a3
ffffffff840042e8:	57fd                	li	a5,-1
ffffffff840042ea:	02675693          	srl	a3,a4,0x26
ffffffff840042ee:	0197d613          	srl	a2,a5,0x19
ffffffff840042f2:	8a85                	and	a3,a3,1
ffffffff840042f4:	0305d513          	srl	a0,a1,0x30
ffffffff840042f8:	8426                	mv	s0,s1
ffffffff840042fa:	00c775b3          	and	a1,a4,a2
ffffffff840042fe:	c299                	beqz	a3,ffffffff84004304 <performPageTableInvocationUnmap+0x4c>
ffffffff84004300:	179e                	sll	a5,a5,0x27
ffffffff84004302:	8ddd                	or	a1,a1,a5
ffffffff84004304:	8626                	mv	a2,s1
ffffffff84004306:	cf9ff0ef          	jal	ffffffff84003ffe <unmapPageTable>
ffffffff8400430a:	6785                	lui	a5,0x1
ffffffff8400430c:	97a6                	add	a5,a5,s1
ffffffff8400430e:	00043023          	sd	zero,0(s0)
ffffffff84004312:	0421                	add	s0,s0,8
ffffffff84004314:	fef41de3          	bne	s0,a5,ffffffff8400430e <performPageTableInvocationUnmap+0x56>
ffffffff84004318:	00093703          	ld	a4,0(s2)
ffffffff8400431c:	57fd                	li	a5,-1
ffffffff8400431e:	179e                	sll	a5,a5,0x27
ffffffff84004320:	70a2                	ld	ra,40(sp)
ffffffff84004322:	7402                	ld	s0,32(sp)
ffffffff84004324:	17fd                	add	a5,a5,-1 # fff <KERNEL_OFFSET-0xfffffffefffff001>
ffffffff84004326:	8ff9                	and	a5,a5,a4
ffffffff84004328:	00f93023          	sd	a5,0(s2)
ffffffff8400432c:	64e2                	ld	s1,24(sp)
ffffffff8400432e:	6942                	ld	s2,16(sp)
ffffffff84004330:	4501                	li	a0,0
ffffffff84004332:	6145                	add	sp,sp,48
ffffffff84004334:	8082                	ret

ffffffff84004336 <performPageInvocationMapPTE>:
ffffffff84004336:	1141                	add	sp,sp,-16
ffffffff84004338:	e208                	sd	a0,0(a2)
ffffffff8400433a:	e60c                	sd	a1,8(a2)
ffffffff8400433c:	e02a                	sd	a0,0(sp)
ffffffff8400433e:	e42e                	sd	a1,8(sp)
ffffffff84004340:	e314                	sd	a3,0(a4)
ffffffff84004342:	12000073          	sfence.vma
ffffffff84004346:	4501                	li	a0,0
ffffffff84004348:	0141                	add	sp,sp,16
ffffffff8400434a:	8082                	ret

ffffffff8400434c <performPageInvocationUnmap>:
ffffffff8400434c:	1101                	add	sp,sp,-32
ffffffff8400434e:	e822                	sd	s0,16(sp)
ffffffff84004350:	86ae                	mv	a3,a1
ffffffff84004352:	ec06                	sd	ra,24(sp)
ffffffff84004354:	91c1                	srl	a1,a1,0x30
ffffffff84004356:	8432                	mv	s0,a2
ffffffff84004358:	cd8d                	beqz	a1,ffffffff84004392 <performPageInvocationUnmap+0x46>
ffffffff8400435a:	02655713          	srl	a4,a0,0x26
ffffffff8400435e:	57fd                	li	a5,-1
ffffffff84004360:	862a                	mv	a2,a0
ffffffff84004362:	0197d813          	srl	a6,a5,0x19
ffffffff84004366:	9165                	srl	a0,a0,0x39
ffffffff84004368:	8b05                	and	a4,a4,1
ffffffff8400436a:	890d                	and	a0,a0,3
ffffffff8400436c:	01067633          	and	a2,a2,a6
ffffffff84004370:	c319                	beqz	a4,ffffffff84004376 <performPageInvocationUnmap+0x2a>
ffffffff84004372:	179e                	sll	a5,a5,0x27
ffffffff84004374:	8e5d                	or	a2,a2,a5
ffffffff84004376:	82a5                	srl	a3,a3,0x9
ffffffff84004378:	0266d713          	srl	a4,a3,0x26
ffffffff8400437c:	57fd                	li	a5,-1
ffffffff8400437e:	0197d813          	srl	a6,a5,0x19
ffffffff84004382:	8b05                	and	a4,a4,1
ffffffff84004384:	0106f6b3          	and	a3,a3,a6
ffffffff84004388:	c319                	beqz	a4,ffffffff8400438e <performPageInvocationUnmap+0x42>
ffffffff8400438a:	179e                	sll	a5,a5,0x27
ffffffff8400438c:	8edd                	or	a3,a3,a5
ffffffff8400438e:	d1dff0ef          	jal	ffffffff840040aa <unmapPage>
ffffffff84004392:	6418                	ld	a4,8(s0)
ffffffff84004394:	6014                	ld	a3,0(s0)
ffffffff84004396:	57fd                	li	a5,-1
ffffffff84004398:	0107d613          	srl	a2,a5,0x10
ffffffff8400439c:	179e                	sll	a5,a5,0x27
ffffffff8400439e:	8f71                	and	a4,a4,a2
ffffffff840043a0:	8ff5                	and	a5,a5,a3
ffffffff840043a2:	60e2                	ld	ra,24(sp)
ffffffff840043a4:	e01c                	sd	a5,0(s0)
ffffffff840043a6:	e418                	sd	a4,8(s0)
ffffffff840043a8:	6442                	ld	s0,16(sp)
ffffffff840043aa:	4501                	li	a0,0
ffffffff840043ac:	6105                	add	sp,sp,32
ffffffff840043ae:	8082                	ret

ffffffff840043b0 <getRestartPC>:
ffffffff840043b0:	10853503          	ld	a0,264(a0)
ffffffff840043b4:	8082                	ret

ffffffff840043b6 <setNextPC>:
ffffffff840043b6:	10b53823          	sd	a1,272(a0)
ffffffff840043ba:	8082                	ret

ffffffff840043bc <setIRQTrigger>:
ffffffff840043bc:	8082                	ret

ffffffff840043be <Arch_checkIRQ>:
ffffffff840043be:	157d                	add	a0,a0,-1
ffffffff840043c0:	03500793          	li	a5,53
ffffffff840043c4:	00a7e463          	bltu	a5,a0,ffffffff840043cc <Arch_checkIRQ+0xe>
ffffffff840043c8:	4501                	li	a0,0
ffffffff840043ca:	8082                	ret
ffffffff840043cc:	d3018793          	add	a5,gp,-720 # ffffffff8400afe0 <current_syscall_error>
ffffffff840043d0:	4711                	li	a4,4
ffffffff840043d2:	fb98                	sd	a4,48(a5)
ffffffff840043d4:	4705                	li	a4,1
ffffffff840043d6:	eb98                	sd	a4,16(a5)
ffffffff840043d8:	03600713          	li	a4,54
ffffffff840043dc:	ef98                	sd	a4,24(a5)
ffffffff840043de:	450d                	li	a0,3
ffffffff840043e0:	8082                	ret

ffffffff840043e2 <Arch_deriveCap>:
ffffffff840043e2:	03b65793          	srl	a5,a2,0x3b
ffffffff840043e6:	470d                	li	a4,3
ffffffff840043e8:	02e78963          	beq	a5,a4,ffffffff8400441a <Arch_deriveCap+0x38>
ffffffff840043ec:	00f77963          	bgeu	a4,a5,ffffffff840043fe <Arch_deriveCap+0x1c>
ffffffff840043f0:	17d5                	add	a5,a5,-11
ffffffff840043f2:	9bf5                	and	a5,a5,-3
ffffffff840043f4:	cf99                	beqz	a5,ffffffff84004412 <Arch_deriveCap+0x30>
ffffffff840043f6:	1101                	add	sp,sp,-32
ffffffff840043f8:	ec06                	sd	ra,24(sp)
ffffffff840043fa:	83dff0ef          	jal	ffffffff84003c36 <halt>
ffffffff840043fe:	4705                	li	a4,1
ffffffff84004400:	fee79be3          	bne	a5,a4,ffffffff840043f6 <Arch_deriveCap+0x14>
ffffffff84004404:	57fd                	li	a5,-1
ffffffff84004406:	02779713          	sll	a4,a5,0x27
ffffffff8400440a:	83c1                	srl	a5,a5,0x10
ffffffff8400440c:	8e79                	and	a2,a2,a4
ffffffff8400440e:	8efd                	and	a3,a3,a5
ffffffff84004410:	4781                	li	a5,0
ffffffff84004412:	e11c                	sd	a5,0(a0)
ffffffff84004414:	e510                	sd	a2,8(a0)
ffffffff84004416:	e914                	sd	a3,16(a0)
ffffffff84004418:	8082                	ret
ffffffff8400441a:	02765713          	srl	a4,a2,0x27
ffffffff8400441e:	8b05                	and	a4,a4,1
ffffffff84004420:	fb65                	bnez	a4,ffffffff84004410 <Arch_deriveCap+0x2e>
ffffffff84004422:	4681                	li	a3,0
ffffffff84004424:	4601                	li	a2,0
ffffffff84004426:	d6f1b023          	sd	a5,-672(gp) # ffffffff8400b010 <current_syscall_error+0x30>
ffffffff8400442a:	e11c                	sd	a5,0(a0)
ffffffff8400442c:	e510                	sd	a2,8(a0)
ffffffff8400442e:	e914                	sd	a3,16(a0)
ffffffff84004430:	8082                	ret

ffffffff84004432 <Arch_updateCapData>:
ffffffff84004432:	1101                	add	sp,sp,-32
ffffffff84004434:	8532                	mv	a0,a2
ffffffff84004436:	85b6                	mv	a1,a3
ffffffff84004438:	6105                	add	sp,sp,32
ffffffff8400443a:	8082                	ret

ffffffff8400443c <Arch_maskCapRights>:
ffffffff8400443c:	03b5d713          	srl	a4,a1,0x3b
ffffffff84004440:	4685                	li	a3,1
ffffffff84004442:	87ae                	mv	a5,a1
ffffffff84004444:	1101                	add	sp,sp,-32
ffffffff84004446:	85b2                	mv	a1,a2
ffffffff84004448:	00d70663          	beq	a4,a3,ffffffff84004454 <Arch_maskCapRights+0x18>
ffffffff8400444c:	e83e                	sd	a5,16(sp)
ffffffff8400444e:	6542                	ld	a0,16(sp)
ffffffff84004450:	6105                	add	sp,sp,32
ffffffff84004452:	8082                	ret
ffffffff84004454:	0377d693          	srl	a3,a5,0x37
ffffffff84004458:	8a8d                	and	a3,a3,3
ffffffff8400445a:	4609                	li	a2,2
ffffffff8400445c:	02c68763          	beq	a3,a2,ffffffff8400448a <Arch_maskCapRights+0x4e>
ffffffff84004460:	460d                	li	a2,3
ffffffff84004462:	175e                	sll	a4,a4,0x37
ffffffff84004464:	00c69a63          	bne	a3,a2,ffffffff84004478 <Arch_maskCapRights+0x3c>
ffffffff84004468:	00155693          	srl	a3,a0,0x1
ffffffff8400446c:	8a85                	and	a3,a3,1
ffffffff8400446e:	c689                	beqz	a3,ffffffff84004478 <Arch_maskCapRights+0x3c>
ffffffff84004470:	8905                	and	a0,a0,1
ffffffff84004472:	0509                	add	a0,a0,2
ffffffff84004474:	03751713          	sll	a4,a0,0x37
ffffffff84004478:	56f5                	li	a3,-3
ffffffff8400447a:	16de                	sll	a3,a3,0x37
ffffffff8400447c:	16fd                	add	a3,a3,-1
ffffffff8400447e:	8ff5                	and	a5,a5,a3
ffffffff84004480:	8fd9                	or	a5,a5,a4
ffffffff84004482:	e83e                	sd	a5,16(sp)
ffffffff84004484:	6542                	ld	a0,16(sp)
ffffffff84004486:	6105                	add	sp,sp,32
ffffffff84004488:	8082                	ret
ffffffff8400448a:	8105                	srl	a0,a0,0x1
ffffffff8400448c:	56f5                	li	a3,-3
ffffffff8400448e:	8905                	and	a0,a0,1
ffffffff84004490:	16de                	sll	a3,a3,0x37
ffffffff84004492:	0505                	add	a0,a0,1
ffffffff84004494:	16fd                	add	a3,a3,-1
ffffffff84004496:	03751713          	sll	a4,a0,0x37
ffffffff8400449a:	8ff5                	and	a5,a5,a3
ffffffff8400449c:	8fd9                	or	a5,a5,a4
ffffffff8400449e:	e83e                	sd	a5,16(sp)
ffffffff840044a0:	b7d5                	j	ffffffff84004484 <Arch_maskCapRights+0x48>

ffffffff840044a2 <Arch_finaliseCap>:
ffffffff840044a2:	715d                	add	sp,sp,-80
ffffffff840044a4:	e0a2                	sd	s0,64(sp)
ffffffff840044a6:	fc26                	sd	s1,56(sp)
ffffffff840044a8:	e486                	sd	ra,72(sp)
ffffffff840044aa:	f84a                	sd	s2,48(sp)
ffffffff840044ac:	e82e                	sd	a1,16(sp)
ffffffff840044ae:	ec32                	sd	a2,24(sp)
ffffffff840044b0:	03b5d793          	srl	a5,a1,0x3b
ffffffff840044b4:	470d                	li	a4,3
ffffffff840044b6:	84ae                	mv	s1,a1
ffffffff840044b8:	842a                	mv	s0,a0
ffffffff840044ba:	02e78763          	beq	a5,a4,ffffffff840044e8 <Arch_finaliseCap+0x46>
ffffffff840044be:	4735                	li	a4,13
ffffffff840044c0:	0ce78363          	beq	a5,a4,ffffffff84004586 <Arch_finaliseCap+0xe4>
ffffffff840044c4:	4705                	li	a4,1
ffffffff840044c6:	08e78063          	beq	a5,a4,ffffffff84004546 <Arch_finaliseCap+0xa4>
ffffffff840044ca:	60a6                	ld	ra,72(sp)
ffffffff840044cc:	00043023          	sd	zero,0(s0)
ffffffff840044d0:	00043423          	sd	zero,8(s0)
ffffffff840044d4:	00043823          	sd	zero,16(s0)
ffffffff840044d8:	00043c23          	sd	zero,24(s0)
ffffffff840044dc:	8522                	mv	a0,s0
ffffffff840044de:	6406                	ld	s0,64(sp)
ffffffff840044e0:	74e2                	ld	s1,56(sp)
ffffffff840044e2:	7942                	ld	s2,48(sp)
ffffffff840044e4:	6161                	add	sp,sp,80
ffffffff840044e6:	8082                	ret
ffffffff840044e8:	d2ed                	beqz	a3,ffffffff840044ca <Arch_finaliseCap+0x28>
ffffffff840044ea:	0275d793          	srl	a5,a1,0x27
ffffffff840044ee:	8b85                	and	a5,a5,1
ffffffff840044f0:	dfe9                	beqz	a5,ffffffff840044ca <Arch_finaliseCap+0x28>
ffffffff840044f2:	03065913          	srl	s2,a2,0x30
ffffffff840044f6:	854a                	mv	a0,s2
ffffffff840044f8:	e432                	sd	a2,8(sp)
ffffffff840044fa:	af4ff0ef          	jal	ffffffff840037ee <findVSpaceForASID>
ffffffff840044fe:	6622                	ld	a2,8(sp)
ffffffff84004500:	57fd                	li	a5,-1
ffffffff84004502:	0197d813          	srl	a6,a5,0x19
ffffffff84004506:	00965713          	srl	a4,a2,0x9
ffffffff8400450a:	02675693          	srl	a3,a4,0x26
ffffffff8400450e:	f02a                	sd	a0,32(sp)
ffffffff84004510:	f42e                	sd	a1,40(sp)
ffffffff84004512:	8a85                	and	a3,a3,1
ffffffff84004514:	01077733          	and	a4,a4,a6
ffffffff84004518:	c299                	beqz	a3,ffffffff8400451e <Arch_finaliseCap+0x7c>
ffffffff8400451a:	179e                	sll	a5,a5,0x27
ffffffff8400451c:	8f5d                	or	a4,a4,a5
ffffffff8400451e:	7782                	ld	a5,32(sp)
ffffffff84004520:	e781                	bnez	a5,ffffffff84004528 <Arch_finaliseCap+0x86>
ffffffff84004522:	77a2                	ld	a5,40(sp)
ffffffff84004524:	08e78f63          	beq	a5,a4,ffffffff840045c2 <Arch_finaliseCap+0x120>
ffffffff84004528:	57fd                	li	a5,-1
ffffffff8400452a:	0264d693          	srl	a3,s1,0x26
ffffffff8400452e:	0197d593          	srl	a1,a5,0x19
ffffffff84004532:	8a85                	and	a3,a3,1
ffffffff84004534:	8de5                	and	a1,a1,s1
ffffffff84004536:	c299                	beqz	a3,ffffffff8400453c <Arch_finaliseCap+0x9a>
ffffffff84004538:	179e                	sll	a5,a5,0x27
ffffffff8400453a:	8ddd                	or	a1,a1,a5
ffffffff8400453c:	863a                	mv	a2,a4
ffffffff8400453e:	854a                	mv	a0,s2
ffffffff84004540:	abfff0ef          	jal	ffffffff84003ffe <unmapPageTable>
ffffffff84004544:	b759                	j	ffffffff840044ca <Arch_finaliseCap+0x28>
ffffffff84004546:	03065593          	srl	a1,a2,0x30
ffffffff8400454a:	d1c1                	beqz	a1,ffffffff840044ca <Arch_finaliseCap+0x28>
ffffffff8400454c:	56fd                	li	a3,-1
ffffffff8400454e:	179a                	sll	a5,a5,0x26
ffffffff84004550:	0394d513          	srl	a0,s1,0x39
ffffffff84004554:	0196d713          	srl	a4,a3,0x19
ffffffff84004558:	8fe5                	and	a5,a5,s1
ffffffff8400455a:	890d                	and	a0,a0,3
ffffffff8400455c:	8f65                	and	a4,a4,s1
ffffffff8400455e:	c399                	beqz	a5,ffffffff84004564 <Arch_finaliseCap+0xc2>
ffffffff84004560:	169e                	sll	a3,a3,0x27
ffffffff84004562:	8f55                	or	a4,a4,a3
ffffffff84004564:	00965693          	srl	a3,a2,0x9
ffffffff84004568:	0266d613          	srl	a2,a3,0x26
ffffffff8400456c:	57fd                	li	a5,-1
ffffffff8400456e:	0197d813          	srl	a6,a5,0x19
ffffffff84004572:	8a05                	and	a2,a2,1
ffffffff84004574:	0106f6b3          	and	a3,a3,a6
ffffffff84004578:	c219                	beqz	a2,ffffffff8400457e <Arch_finaliseCap+0xdc>
ffffffff8400457a:	179e                	sll	a5,a5,0x27
ffffffff8400457c:	8edd                	or	a3,a3,a5
ffffffff8400457e:	863a                	mv	a2,a4
ffffffff84004580:	b2bff0ef          	jal	ffffffff840040aa <unmapPage>
ffffffff84004584:	b799                	j	ffffffff840044ca <Arch_finaliseCap+0x28>
ffffffff84004586:	d2b1                	beqz	a3,ffffffff840044ca <Arch_finaliseCap+0x28>
ffffffff84004588:	00259793          	sll	a5,a1,0x2
ffffffff8400458c:	0267d713          	srl	a4,a5,0x26
ffffffff84004590:	f80006b7          	lui	a3,0xf8000
ffffffff84004594:	82e5                	srl	a3,a3,0x19
ffffffff84004596:	8b05                	and	a4,a4,1
ffffffff84004598:	8ff5                	and	a5,a5,a3
ffffffff8400459a:	c701                	beqz	a4,ffffffff840045a2 <Arch_finaliseCap+0x100>
ffffffff8400459c:	577d                	li	a4,-1
ffffffff8400459e:	171e                	sll	a4,a4,0x27
ffffffff840045a0:	8fd9                	or	a5,a5,a4
ffffffff840045a2:	90c5                	srl	s1,s1,0x31
ffffffff840045a4:	3f84f493          	and	s1,s1,1016
ffffffff840045a8:	d8818713          	add	a4,gp,-632 # ffffffff8400b038 <riscvKSASIDTable>
ffffffff840045ac:	9726                	add	a4,a4,s1
ffffffff840045ae:	6314                	ld	a3,0(a4)
ffffffff840045b0:	f0f69de3          	bne	a3,a5,ffffffff840044ca <Arch_finaliseCap+0x28>
ffffffff840045b4:	aa01b503          	ld	a0,-1376(gp) # ffffffff8400ad50 <ksCurThread>
ffffffff840045b8:	00073023          	sd	zero,0(a4) # fffffffffff00000 <ki_end+0x7bede000>
ffffffff840045bc:	b73ff0ef          	jal	ffffffff8400412e <setVMRoot>
ffffffff840045c0:	b729                	j	ffffffff840044ca <Arch_finaliseCap+0x28>
ffffffff840045c2:	03965793          	srl	a5,a2,0x39
ffffffff840045c6:	078e                	sll	a5,a5,0x3
ffffffff840045c8:	d8818693          	add	a3,gp,-632 # ffffffff8400b038 <riscvKSASIDTable>
ffffffff840045cc:	97b6                	add	a5,a5,a3
ffffffff840045ce:	639c                	ld	a5,0(a5)
ffffffff840045d0:	ee078de3          	beqz	a5,ffffffff840044ca <Arch_finaliseCap+0x28>
ffffffff840045d4:	1ff97693          	and	a3,s2,511
ffffffff840045d8:	068e                	sll	a3,a3,0x3
ffffffff840045da:	97b6                	add	a5,a5,a3
ffffffff840045dc:	6394                	ld	a3,0(a5)
ffffffff840045de:	eed716e3          	bne	a4,a3,ffffffff840044ca <Arch_finaliseCap+0x28>
ffffffff840045e2:	13200073          	sfence.vma	zero,s2
ffffffff840045e6:	aa01b503          	ld	a0,-1376(gp) # ffffffff8400ad50 <ksCurThread>
ffffffff840045ea:	0007b023          	sd	zero,0(a5)
ffffffff840045ee:	b41ff0ef          	jal	ffffffff8400412e <setVMRoot>
ffffffff840045f2:	bde1                	j	ffffffff840044ca <Arch_finaliseCap+0x28>

ffffffff840045f4 <Arch_sameRegionAs>:
ffffffff840045f4:	03b55793          	srl	a5,a0,0x3b
ffffffff840045f8:	472d                	li	a4,11
ffffffff840045fa:	0ee78863          	beq	a5,a4,ffffffff840046ea <Arch_sameRegionAs+0xf6>
ffffffff840045fe:	882a                	mv	a6,a0
ffffffff84004600:	00f76d63          	bltu	a4,a5,ffffffff8400461a <Arch_sameRegionAs+0x26>
ffffffff84004604:	4705                	li	a4,1
ffffffff84004606:	06e78163          	beq	a5,a4,ffffffff84004668 <Arch_sameRegionAs+0x74>
ffffffff8400460a:	450d                	li	a0,3
ffffffff8400460c:	04a79c63          	bne	a5,a0,ffffffff84004664 <Arch_sameRegionAs+0x70>
ffffffff84004610:	926d                	srl	a2,a2,0x3b
ffffffff84004612:	4501                	li	a0,0
ffffffff84004614:	0ef60163          	beq	a2,a5,ffffffff840046f6 <Arch_sameRegionAs+0x102>
ffffffff84004618:	8082                	ret
ffffffff8400461a:	4735                	li	a4,13
ffffffff8400461c:	04e79463          	bne	a5,a4,ffffffff84004664 <Arch_sameRegionAs+0x70>
ffffffff84004620:	03b65713          	srl	a4,a2,0x3b
ffffffff84004624:	4501                	li	a0,0
ffffffff84004626:	fef719e3          	bne	a4,a5,ffffffff84004618 <Arch_sameRegionAs+0x24>
ffffffff8400462a:	00281513          	sll	a0,a6,0x2
ffffffff8400462e:	02655793          	srl	a5,a0,0x26
ffffffff84004632:	f8000737          	lui	a4,0xf8000
ffffffff84004636:	8365                	srl	a4,a4,0x19
ffffffff84004638:	8b85                	and	a5,a5,1
ffffffff8400463a:	8d79                	and	a0,a0,a4
ffffffff8400463c:	c781                	beqz	a5,ffffffff84004644 <Arch_sameRegionAs+0x50>
ffffffff8400463e:	57fd                	li	a5,-1
ffffffff84004640:	179e                	sll	a5,a5,0x27
ffffffff84004642:	8d5d                	or	a0,a0,a5
ffffffff84004644:	060a                	sll	a2,a2,0x2
ffffffff84004646:	02665793          	srl	a5,a2,0x26
ffffffff8400464a:	f8000737          	lui	a4,0xf8000
ffffffff8400464e:	8365                	srl	a4,a4,0x19
ffffffff84004650:	8b85                	and	a5,a5,1
ffffffff84004652:	8e79                	and	a2,a2,a4
ffffffff84004654:	c781                	beqz	a5,ffffffff8400465c <Arch_sameRegionAs+0x68>
ffffffff84004656:	57fd                	li	a5,-1
ffffffff84004658:	179e                	sll	a5,a5,0x27
ffffffff8400465a:	8e5d                	or	a2,a2,a5
ffffffff8400465c:	8e09                	sub	a2,a2,a0
ffffffff8400465e:	00163513          	seqz	a0,a2
ffffffff84004662:	8082                	ret
ffffffff84004664:	4501                	li	a0,0
ffffffff84004666:	8082                	ret
ffffffff84004668:	03b65713          	srl	a4,a2,0x3b
ffffffff8400466c:	4501                	li	a0,0
ffffffff8400466e:	faf715e3          	bne	a4,a5,ffffffff84004618 <Arch_sameRegionAs+0x24>
ffffffff84004672:	81a5                	srl	a1,a1,0x9
ffffffff84004674:	57fd                	li	a5,-1
ffffffff84004676:	171a                	sll	a4,a4,0x26
ffffffff84004678:	0197d513          	srl	a0,a5,0x19
ffffffff8400467c:	8f6d                	and	a4,a4,a1
ffffffff8400467e:	8de9                	and	a1,a1,a0
ffffffff84004680:	c319                	beqz	a4,ffffffff84004686 <Arch_sameRegionAs+0x92>
ffffffff84004682:	179e                	sll	a5,a5,0x27
ffffffff84004684:	8ddd                	or	a1,a1,a5
ffffffff84004686:	82a5                	srl	a3,a3,0x9
ffffffff84004688:	0266d713          	srl	a4,a3,0x26
ffffffff8400468c:	57fd                	li	a5,-1
ffffffff8400468e:	0197d513          	srl	a0,a5,0x19
ffffffff84004692:	8b05                	and	a4,a4,1
ffffffff84004694:	8ee9                	and	a3,a3,a0
ffffffff84004696:	c319                	beqz	a4,ffffffff8400469c <Arch_sameRegionAs+0xa8>
ffffffff84004698:	179e                	sll	a5,a5,0x27
ffffffff8400469a:	8edd                	or	a3,a3,a5
ffffffff8400469c:	03985513          	srl	a0,a6,0x39
ffffffff840046a0:	00357713          	and	a4,a0,3
ffffffff840046a4:	478d                	li	a5,3
ffffffff840046a6:	08f70163          	beq	a4,a5,ffffffff84004728 <Arch_sameRegionAs+0x134>
ffffffff840046aa:	9265                	srl	a2,a2,0x39
ffffffff840046ac:	8a0d                	and	a2,a2,3
ffffffff840046ae:	06f60d63          	beq	a2,a5,ffffffff84004728 <Arch_sameRegionAs+0x134>
ffffffff840046b2:	4501                	li	a0,0
ffffffff840046b4:	f6b6e2e3          	bltu	a3,a1,ffffffff84004618 <Arch_sameRegionAs+0x24>
ffffffff840046b8:	00361793          	sll	a5,a2,0x3
ffffffff840046bc:	00371813          	sll	a6,a4,0x3
ffffffff840046c0:	97b2                	add	a5,a5,a2
ffffffff840046c2:	00e80633          	add	a2,a6,a4
ffffffff840046c6:	07b1                	add	a5,a5,12
ffffffff840046c8:	4705                	li	a4,1
ffffffff840046ca:	0631                	add	a2,a2,12 # fffffffffff0000c <ki_end+0x7bede00c>
ffffffff840046cc:	00f717b3          	sll	a5,a4,a5
ffffffff840046d0:	00c71733          	sll	a4,a4,a2
ffffffff840046d4:	17fd                	add	a5,a5,-1
ffffffff840046d6:	177d                	add	a4,a4,-1 # fffffffff7ffffff <ki_end+0x73fddfff>
ffffffff840046d8:	97b6                	add	a5,a5,a3
ffffffff840046da:	972e                	add	a4,a4,a1
ffffffff840046dc:	00d7b6b3          	sltu	a3,a5,a3
ffffffff840046e0:	f2f76ce3          	bltu	a4,a5,ffffffff84004618 <Arch_sameRegionAs+0x24>
ffffffff840046e4:	0016c513          	xor	a0,a3,1
ffffffff840046e8:	8082                	ret
ffffffff840046ea:	03b65513          	srl	a0,a2,0x3b
ffffffff840046ee:	1555                	add	a0,a0,-11
ffffffff840046f0:	00153513          	seqz	a0,a0
ffffffff840046f4:	8082                	ret
ffffffff840046f6:	81a5                	srl	a1,a1,0x9
ffffffff840046f8:	57fd                	li	a5,-1
ffffffff840046fa:	171a                	sll	a4,a4,0x26
ffffffff840046fc:	0197d613          	srl	a2,a5,0x19
ffffffff84004700:	8f6d                	and	a4,a4,a1
ffffffff84004702:	8df1                	and	a1,a1,a2
ffffffff84004704:	c319                	beqz	a4,ffffffff8400470a <Arch_sameRegionAs+0x116>
ffffffff84004706:	179e                	sll	a5,a5,0x27
ffffffff84004708:	8ddd                	or	a1,a1,a5
ffffffff8400470a:	82a5                	srl	a3,a3,0x9
ffffffff8400470c:	0266d713          	srl	a4,a3,0x26
ffffffff84004710:	57fd                	li	a5,-1
ffffffff84004712:	0197d613          	srl	a2,a5,0x19
ffffffff84004716:	8b05                	and	a4,a4,1
ffffffff84004718:	8ef1                	and	a3,a3,a2
ffffffff8400471a:	c319                	beqz	a4,ffffffff84004720 <Arch_sameRegionAs+0x12c>
ffffffff8400471c:	179e                	sll	a5,a5,0x27
ffffffff8400471e:	8edd                	or	a3,a3,a5
ffffffff84004720:	8e8d                	sub	a3,a3,a1
ffffffff84004722:	0016b513          	seqz	a0,a3
ffffffff84004726:	8082                	ret
ffffffff84004728:	7179                	add	sp,sp,-48
ffffffff8400472a:	f406                	sd	ra,40(sp)
ffffffff8400472c:	d0aff0ef          	jal	ffffffff84003c36 <halt>

ffffffff84004730 <Arch_sameObjectAs>:
ffffffff84004730:	1101                	add	sp,sp,-32
ffffffff84004732:	87aa                	mv	a5,a0
ffffffff84004734:	e82a                	sd	a0,16(sp)
ffffffff84004736:	03b55713          	srl	a4,a0,0x3b
ffffffff8400473a:	ec2e                	sd	a1,24(sp)
ffffffff8400473c:	e032                	sd	a2,0(sp)
ffffffff8400473e:	e436                	sd	a3,8(sp)
ffffffff84004740:	4505                	li	a0,1
ffffffff84004742:	00a70863          	beq	a4,a0,ffffffff84004752 <Arch_sameObjectAs+0x22>
ffffffff84004746:	6602                	ld	a2,0(sp)
ffffffff84004748:	66a2                	ld	a3,8(sp)
ffffffff8400474a:	6542                	ld	a0,16(sp)
ffffffff8400474c:	65e2                	ld	a1,24(sp)
ffffffff8400474e:	6105                	add	sp,sp,32
ffffffff84004750:	b555                	j	ffffffff840045f4 <Arch_sameRegionAs>
ffffffff84004752:	03b65513          	srl	a0,a2,0x3b
ffffffff84004756:	fee518e3          	bne	a0,a4,ffffffff84004746 <Arch_sameObjectAs+0x16>
ffffffff8400475a:	81a5                	srl	a1,a1,0x9
ffffffff8400475c:	151a                	sll	a0,a0,0x26
ffffffff8400475e:	587d                	li	a6,-1
ffffffff84004760:	01985713          	srl	a4,a6,0x19
ffffffff84004764:	82a5                	srl	a3,a3,0x9
ffffffff84004766:	00a5f8b3          	and	a7,a1,a0
ffffffff8400476a:	8df9                	and	a1,a1,a4
ffffffff8400476c:	8d75                	and	a0,a0,a3
ffffffff8400476e:	8f75                	and	a4,a4,a3
ffffffff84004770:	02088a63          	beqz	a7,ffffffff840047a4 <Arch_sameObjectAs+0x74>
ffffffff84004774:	181e                	sll	a6,a6,0x27
ffffffff84004776:	0105e5b3          	or	a1,a1,a6
ffffffff8400477a:	01076733          	or	a4,a4,a6
ffffffff8400477e:	c501                	beqz	a0,ffffffff84004786 <Arch_sameObjectAs+0x56>
ffffffff84004780:	4501                	li	a0,0
ffffffff84004782:	00b70463          	beq	a4,a1,ffffffff8400478a <Arch_sameObjectAs+0x5a>
ffffffff84004786:	6105                	add	sp,sp,32
ffffffff84004788:	8082                	ret
ffffffff8400478a:	03965713          	srl	a4,a2,0x39
ffffffff8400478e:	0397d693          	srl	a3,a5,0x39
ffffffff84004792:	fed71ae3          	bne	a4,a3,ffffffff84004786 <Arch_sameObjectAs+0x56>
ffffffff84004796:	8fb1                	xor	a5,a5,a2
ffffffff84004798:	93d9                	srl	a5,a5,0x36
ffffffff8400479a:	fff7c793          	not	a5,a5
ffffffff8400479e:	0017f513          	and	a0,a5,1
ffffffff840047a2:	b7d5                	j	ffffffff84004786 <Arch_sameObjectAs+0x56>
ffffffff840047a4:	dd71                	beqz	a0,ffffffff84004780 <Arch_sameObjectAs+0x50>
ffffffff840047a6:	4501                	li	a0,0
ffffffff840047a8:	bff9                	j	ffffffff84004786 <Arch_sameObjectAs+0x56>

ffffffff840047aa <Arch_getObjectSize>:
ffffffff840047aa:	156d                	add	a0,a0,-5
ffffffff840047ac:	478d                	li	a5,3
ffffffff840047ae:	00a7ea63          	bltu	a5,a0,ffffffff840047c2 <Arch_getObjectSize+0x18>
ffffffff840047b2:	050e                	sll	a0,a0,0x3
ffffffff840047b4:	00006797          	auipc	a5,0x6
ffffffff840047b8:	2fc78793          	add	a5,a5,764 # ffffffff8400aab0 <_sdata>
ffffffff840047bc:	97aa                	add	a5,a5,a0
ffffffff840047be:	6388                	ld	a0,0(a5)
ffffffff840047c0:	8082                	ret
ffffffff840047c2:	1141                	add	sp,sp,-16
ffffffff840047c4:	e406                	sd	ra,8(sp)
ffffffff840047c6:	c70ff0ef          	jal	ffffffff84003c36 <halt>

ffffffff840047ca <Arch_createObject>:
ffffffff840047ca:	479d                	li	a5,7
ffffffff840047cc:	04f50163          	beq	a0,a5,ffffffff8400480e <Arch_createObject+0x44>
ffffffff840047d0:	02a7e463          	bltu	a5,a0,ffffffff840047f8 <Arch_createObject+0x2e>
ffffffff840047d4:	4795                	li	a5,5
ffffffff840047d6:	04f50863          	beq	a0,a5,ffffffff84004826 <Arch_createObject+0x5c>
ffffffff840047da:	4799                	li	a5,6
ffffffff840047dc:	06f51163          	bne	a0,a5,ffffffff8400483e <Arch_createObject+0x74>
ffffffff840047e0:	8a85                	and	a3,a3,1
ffffffff840047e2:	47cd                	li	a5,19
ffffffff840047e4:	03669513          	sll	a0,a3,0x36
ffffffff840047e8:	17de                	sll	a5,a5,0x37
ffffffff840047ea:	8d5d                	or	a0,a0,a5
ffffffff840047ec:	fe0007b7          	lui	a5,0xfe000
ffffffff840047f0:	83c1                	srl	a5,a5,0x10
ffffffff840047f2:	05a6                	sll	a1,a1,0x9
ffffffff840047f4:	8dfd                	and	a1,a1,a5
ffffffff840047f6:	8082                	ret
ffffffff840047f8:	47a1                	li	a5,8
ffffffff840047fa:	04f51263          	bne	a0,a5,ffffffff8400483e <Arch_createObject+0x74>
ffffffff840047fe:	fe0007b7          	lui	a5,0xfe000
ffffffff84004802:	83c1                	srl	a5,a5,0x10
ffffffff84004804:	05a6                	sll	a1,a1,0x9
ffffffff84004806:	450d                	li	a0,3
ffffffff84004808:	8dfd                	and	a1,a1,a5
ffffffff8400480a:	156e                	sll	a0,a0,0x3b
ffffffff8400480c:	8082                	ret
ffffffff8400480e:	8a85                	and	a3,a3,1
ffffffff84004810:	47dd                	li	a5,23
ffffffff84004812:	03669513          	sll	a0,a3,0x36
ffffffff84004816:	17de                	sll	a5,a5,0x37
ffffffff84004818:	8d5d                	or	a0,a0,a5
ffffffff8400481a:	fe0007b7          	lui	a5,0xfe000
ffffffff8400481e:	83c1                	srl	a5,a5,0x10
ffffffff84004820:	05a6                	sll	a1,a1,0x9
ffffffff84004822:	8dfd                	and	a1,a1,a5
ffffffff84004824:	8082                	ret
ffffffff84004826:	8a85                	and	a3,a3,1
ffffffff84004828:	47ed                	li	a5,27
ffffffff8400482a:	03669513          	sll	a0,a3,0x36
ffffffff8400482e:	17de                	sll	a5,a5,0x37
ffffffff84004830:	8d5d                	or	a0,a0,a5
ffffffff84004832:	fe0007b7          	lui	a5,0xfe000
ffffffff84004836:	83c1                	srl	a5,a5,0x10
ffffffff84004838:	05a6                	sll	a1,a1,0x9
ffffffff8400483a:	8dfd                	and	a1,a1,a5
ffffffff8400483c:	8082                	ret
ffffffff8400483e:	1101                	add	sp,sp,-32
ffffffff84004840:	ec06                	sd	ra,24(sp)
ffffffff84004842:	bf4ff0ef          	jal	ffffffff84003c36 <halt>

ffffffff84004846 <Arch_prepareThreadDelete>:
ffffffff84004846:	8082                	ret

ffffffff84004848 <Arch_isFrameType>:
ffffffff84004848:	156d                	add	a0,a0,-5
ffffffff8400484a:	00353513          	sltiu	a0,a0,3
ffffffff8400484e:	8082                	ret

ffffffff84004850 <Arch_decodeTransfer>:
ffffffff84004850:	4501                	li	a0,0
ffffffff84004852:	8082                	ret

ffffffff84004854 <Arch_performTransfer>:
ffffffff84004854:	4501                	li	a0,0
ffffffff84004856:	8082                	ret

ffffffff84004858 <resolveAddressBits>:
ffffffff84004858:	1101                	add	sp,sp,-32
ffffffff8400485a:	87ae                	mv	a5,a1
ffffffff8400485c:	e02e                	sd	a1,0(sp)
ffffffff8400485e:	03b5d813          	srl	a6,a1,0x3b
ffffffff84004862:	ec22                	sd	s0,24(sp)
ffffffff84004864:	e432                	sd	a2,8(sp)
ffffffff84004866:	45a9                	li	a1,10
ffffffff84004868:	0ab81d63          	bne	a6,a1,ffffffff84004922 <resolveAddressBits+0xca>
ffffffff8400486c:	8e3a                	mv	t3,a4
ffffffff8400486e:	5ffd                	li	t6,-1
ffffffff84004870:	0357d813          	srl	a6,a5,0x35
ffffffff84004874:	00179393          	sll	t2,a5,0x1
ffffffff84004878:	93bd                	srl	a5,a5,0x2f
ffffffff8400487a:	03f87813          	and	a6,a6,63
ffffffff8400487e:	0263d593          	srl	a1,t2,0x26
ffffffff84004882:	03f7f793          	and	a5,a5,63
ffffffff84004886:	0015f293          	and	t0,a1,1
ffffffff8400488a:	00f80333          	add	t1,a6,a5
ffffffff8400488e:	000e059b          	sext.w	a1,t3
ffffffff84004892:	410e08bb          	subw	a7,t3,a6
ffffffff84004896:	010f9eb3          	sll	t4,t6,a6
ffffffff8400489a:	00ff9f33          	sll	t5,t6,a5
ffffffff8400489e:	406585bb          	subw	a1,a1,t1
ffffffff840048a2:	ffff4f13          	not	t5,t5
ffffffff840048a6:	0116d8b3          	srl	a7,a3,a7
ffffffff840048aa:	fffece93          	not	t4,t4
ffffffff840048ae:	00b6d5b3          	srl	a1,a3,a1
ffffffff840048b2:	027f9413          	sll	s0,t6,0x27
ffffffff840048b6:	01e5f5b3          	and	a1,a1,t5
ffffffff840048ba:	01d8f8b3          	and	a7,a7,t4
ffffffff840048be:	030e6a63          	bltu	t3,a6,ffffffff840048f2 <resolveAddressBits+0x9a>
ffffffff840048c2:	03161863          	bne	a2,a7,ffffffff840048f2 <resolveAddressBits+0x9a>
ffffffff840048c6:	066e6163          	bltu	t3,t1,ffffffff84004928 <resolveAddressBits+0xd0>
ffffffff840048ca:	fc000637          	lui	a2,0xfc000
ffffffff840048ce:	8265                	srl	a2,a2,0x19
ffffffff840048d0:	00c3f7b3          	and	a5,t2,a2
ffffffff840048d4:	0596                	sll	a1,a1,0x5
ffffffff840048d6:	00028363          	beqz	t0,ffffffff840048dc <resolveAddressBits+0x84>
ffffffff840048da:	8fc1                	or	a5,a5,s0
ffffffff840048dc:	95be                	add	a1,a1,a5
ffffffff840048de:	046e1d63          	bne	t3,t1,ffffffff84004938 <resolveAddressBits+0xe0>
ffffffff840048e2:	4781                	li	a5,0
ffffffff840048e4:	4701                	li	a4,0
ffffffff840048e6:	6462                	ld	s0,24(sp)
ffffffff840048e8:	e11c                	sd	a5,0(a0)
ffffffff840048ea:	e50c                	sd	a1,8(a0)
ffffffff840048ec:	e918                	sd	a4,16(a0)
ffffffff840048ee:	6105                	add	sp,sp,32
ffffffff840048f0:	8082                	ret
ffffffff840048f2:	67c1                	lui	a5,0x10
ffffffff840048f4:	009e1313          	sll	t1,t3,0x9
ffffffff840048f8:	17fd                	add	a5,a5,-1 # ffff <KERNEL_OFFSET-0xfffffffeffff0001>
ffffffff840048fa:	00f37333          	and	t1,t1,a5
ffffffff840048fe:	080a                	sll	a6,a6,0x2
ffffffff84004900:	01036333          	or	t1,t1,a6
ffffffff84004904:	00336313          	or	t1,t1,3
ffffffff84004908:	d7818793          	add	a5,gp,-648 # ffffffff8400b028 <current_lookup_fault>
ffffffff8400490c:	6462                	ld	s0,24(sp)
ffffffff8400490e:	0067b023          	sd	t1,0(a5)
ffffffff84004912:	e790                	sd	a2,8(a5)
ffffffff84004914:	4581                	li	a1,0
ffffffff84004916:	4789                	li	a5,2
ffffffff84004918:	e11c                	sd	a5,0(a0)
ffffffff8400491a:	e50c                	sd	a1,8(a0)
ffffffff8400491c:	e918                	sd	a4,16(a0)
ffffffff8400491e:	6105                	add	sp,sp,32
ffffffff84004920:	8082                	ret
ffffffff84004922:	4301                	li	t1,0
ffffffff84004924:	4601                	li	a2,0
ffffffff84004926:	b7cd                	j	ffffffff84004908 <resolveAddressBits+0xb0>
ffffffff84004928:	0326                	sll	t1,t1,0x9
ffffffff8400492a:	0e0a                	sll	t3,t3,0x2
ffffffff8400492c:	01c36333          	or	t1,t1,t3
ffffffff84004930:	00236313          	or	t1,t1,2
ffffffff84004934:	4601                	li	a2,0
ffffffff84004936:	bfc9                	j	ffffffff84004908 <resolveAddressBits+0xb0>
ffffffff84004938:	619c                	ld	a5,0(a1)
ffffffff8400493a:	4829                	li	a6,10
ffffffff8400493c:	6590                	ld	a2,8(a1)
ffffffff8400493e:	03b7d893          	srl	a7,a5,0x3b
ffffffff84004942:	406e0e33          	sub	t3,t3,t1
ffffffff84004946:	f30885e3          	beq	a7,a6,ffffffff84004870 <resolveAddressBits+0x18>
ffffffff8400494a:	8772                	mv	a4,t3
ffffffff8400494c:	4781                	li	a5,0
ffffffff8400494e:	bf61                	j	ffffffff840048e6 <resolveAddressBits+0x8e>

ffffffff84004950 <lookupSlot>:
ffffffff84004950:	c0057513          	and	a0,a0,-1024
ffffffff84004954:	6510                	ld	a2,8(a0)
ffffffff84004956:	86ae                	mv	a3,a1
ffffffff84004958:	610c                	ld	a1,0(a0)
ffffffff8400495a:	715d                	add	sp,sp,-80
ffffffff8400495c:	1028                	add	a0,sp,40
ffffffff8400495e:	04000713          	li	a4,64
ffffffff84004962:	e486                	sd	ra,72(sp)
ffffffff84004964:	ef5ff0ef          	jal	ffffffff84004858 <resolveAddressBits>
ffffffff84004968:	60a6                	ld	ra,72(sp)
ffffffff8400496a:	7522                	ld	a0,40(sp)
ffffffff8400496c:	75c2                	ld	a1,48(sp)
ffffffff8400496e:	6161                	add	sp,sp,80
ffffffff84004970:	8082                	ret

ffffffff84004972 <lookupSlotForCNodeOp>:
ffffffff84004972:	715d                	add	sp,sp,-80
ffffffff84004974:	e0a2                	sd	s0,64(sp)
ffffffff84004976:	e486                	sd	ra,72(sp)
ffffffff84004978:	03b5d813          	srl	a6,a1,0x3b
ffffffff8400497c:	48a9                	li	a7,10
ffffffff8400497e:	842a                	mv	s0,a0
ffffffff84004980:	03181463          	bne	a6,a7,ffffffff840049a8 <lookupSlotForCNodeOp+0x36>
ffffffff84004984:	fff70793          	add	a5,a4,-1
ffffffff84004988:	03f00513          	li	a0,63
ffffffff8400498c:	02f56d63          	bltu	a0,a5,ffffffff840049c6 <lookupSlotForCNodeOp+0x54>
ffffffff84004990:	1028                	add	a0,sp,40
ffffffff84004992:	ec7ff0ef          	jal	ffffffff84004858 <resolveAddressBits>
ffffffff84004996:	77a2                	ld	a5,40(sp)
ffffffff84004998:	7562                	ld	a0,56(sp)
ffffffff8400499a:	e3a1                	bnez	a5,ffffffff840049da <lookupSlotForCNodeOp+0x68>
ffffffff8400499c:	e529                	bnez	a0,ffffffff840049e6 <lookupSlotForCNodeOp+0x74>
ffffffff8400499e:	60a6                	ld	ra,72(sp)
ffffffff840049a0:	6406                	ld	s0,64(sp)
ffffffff840049a2:	75c2                	ld	a1,48(sp)
ffffffff840049a4:	6161                	add	sp,sp,80
ffffffff840049a6:	8082                	ret
ffffffff840049a8:	d3018793          	add	a5,gp,-720 # ffffffff8400afe0 <current_syscall_error>
ffffffff840049ac:	4719                	li	a4,6
ffffffff840049ae:	fb98                	sd	a4,48(a5)
ffffffff840049b0:	f788                	sd	a0,40(a5)
ffffffff840049b2:	d601bc23          	sd	zero,-648(gp) # ffffffff8400b028 <current_lookup_fault>
ffffffff840049b6:	d801b023          	sd	zero,-640(gp) # ffffffff8400b030 <current_lookup_fault+0x8>
ffffffff840049ba:	60a6                	ld	ra,72(sp)
ffffffff840049bc:	6406                	ld	s0,64(sp)
ffffffff840049be:	450d                	li	a0,3
ffffffff840049c0:	4581                	li	a1,0
ffffffff840049c2:	6161                	add	sp,sp,80
ffffffff840049c4:	8082                	ret
ffffffff840049c6:	d3018793          	add	a5,gp,-720 # ffffffff8400afe0 <current_syscall_error>
ffffffff840049ca:	4711                	li	a4,4
ffffffff840049cc:	fb98                	sd	a4,48(a5)
ffffffff840049ce:	4705                	li	a4,1
ffffffff840049d0:	eb98                	sd	a4,16(a5)
ffffffff840049d2:	04000713          	li	a4,64
ffffffff840049d6:	ef98                	sd	a4,24(a5)
ffffffff840049d8:	b7cd                	j	ffffffff840049ba <lookupSlotForCNodeOp+0x48>
ffffffff840049da:	d3018793          	add	a5,gp,-720 # ffffffff8400afe0 <current_syscall_error>
ffffffff840049de:	4719                	li	a4,6
ffffffff840049e0:	fb98                	sd	a4,48(a5)
ffffffff840049e2:	f780                	sd	s0,40(a5)
ffffffff840049e4:	bfd9                	j	ffffffff840049ba <lookupSlotForCNodeOp+0x48>
ffffffff840049e6:	00251793          	sll	a5,a0,0x2
ffffffff840049ea:	1fc7f793          	and	a5,a5,508
ffffffff840049ee:	d3018713          	add	a4,gp,-720 # ffffffff8400afe0 <current_syscall_error>
ffffffff840049f2:	0027e793          	or	a5,a5,2
ffffffff840049f6:	4699                	li	a3,6
ffffffff840049f8:	fb14                	sd	a3,48(a4)
ffffffff840049fa:	f700                	sd	s0,40(a4)
ffffffff840049fc:	d6f1bc23          	sd	a5,-648(gp) # ffffffff8400b028 <current_lookup_fault>
ffffffff84004a00:	d801b023          	sd	zero,-640(gp) # ffffffff8400b030 <current_lookup_fault+0x8>
ffffffff84004a04:	bf5d                	j	ffffffff840049ba <lookupSlotForCNodeOp+0x48>

ffffffff84004a06 <lookupSourceSlot>:
ffffffff84004a06:	1101                	add	sp,sp,-32
ffffffff84004a08:	87ae                	mv	a5,a1
ffffffff84004a0a:	8736                	mv	a4,a3
ffffffff84004a0c:	85aa                	mv	a1,a0
ffffffff84004a0e:	86b2                	mv	a3,a2
ffffffff84004a10:	863e                	mv	a2,a5
ffffffff84004a12:	4505                	li	a0,1
ffffffff84004a14:	6105                	add	sp,sp,32
ffffffff84004a16:	bfb1                	j	ffffffff84004972 <lookupSlotForCNodeOp>

ffffffff84004a18 <lookupTargetSlot>:
ffffffff84004a18:	1101                	add	sp,sp,-32
ffffffff84004a1a:	87ae                	mv	a5,a1
ffffffff84004a1c:	8736                	mv	a4,a3
ffffffff84004a1e:	85aa                	mv	a1,a0
ffffffff84004a20:	86b2                	mv	a3,a2
ffffffff84004a22:	863e                	mv	a2,a5
ffffffff84004a24:	4501                	li	a0,0
ffffffff84004a26:	6105                	add	sp,sp,32
ffffffff84004a28:	b7a9                	j	ffffffff84004972 <lookupSlotForCNodeOp>

ffffffff84004a2a <lookupPivotSlot>:
ffffffff84004a2a:	7139                	add	sp,sp,-64
ffffffff84004a2c:	87ae                	mv	a5,a1
ffffffff84004a2e:	8736                	mv	a4,a3
ffffffff84004a30:	85aa                	mv	a1,a0
ffffffff84004a32:	86b2                	mv	a3,a2
ffffffff84004a34:	863e                	mv	a2,a5
ffffffff84004a36:	4505                	li	a0,1
ffffffff84004a38:	6121                	add	sp,sp,64
ffffffff84004a3a:	bf25                	j	ffffffff84004972 <lookupSlotForCNodeOp>

ffffffff84004a3c <lookupCap>:
ffffffff84004a3c:	c005f793          	and	a5,a1,-1024
ffffffff84004a40:	638c                	ld	a1,0(a5)
ffffffff84004a42:	679c                	ld	a5,8(a5)
ffffffff84004a44:	7139                	add	sp,sp,-64
ffffffff84004a46:	f822                	sd	s0,48(sp)
ffffffff84004a48:	86b2                	mv	a3,a2
ffffffff84004a4a:	04000713          	li	a4,64
ffffffff84004a4e:	863e                	mv	a2,a5
ffffffff84004a50:	842a                	mv	s0,a0
ffffffff84004a52:	0828                	add	a0,sp,24
ffffffff84004a54:	e83e                	sd	a5,16(sp)
ffffffff84004a56:	fc06                	sd	ra,56(sp)
ffffffff84004a58:	e42e                	sd	a1,8(sp)
ffffffff84004a5a:	dffff0ef          	jal	ffffffff84004858 <resolveAddressBits>
ffffffff84004a5e:	67e2                	ld	a5,24(sp)
ffffffff84004a60:	7702                	ld	a4,32(sp)
ffffffff84004a62:	eb99                	bnez	a5,ffffffff84004a78 <lookupCap+0x3c>
ffffffff84004a64:	6314                	ld	a3,0(a4)
ffffffff84004a66:	6718                	ld	a4,8(a4)
ffffffff84004a68:	70e2                	ld	ra,56(sp)
ffffffff84004a6a:	e01c                	sd	a5,0(s0)
ffffffff84004a6c:	e414                	sd	a3,8(s0)
ffffffff84004a6e:	e818                	sd	a4,16(s0)
ffffffff84004a70:	8522                	mv	a0,s0
ffffffff84004a72:	7442                	ld	s0,48(sp)
ffffffff84004a74:	6121                	add	sp,sp,64
ffffffff84004a76:	8082                	ret
ffffffff84004a78:	4681                	li	a3,0
ffffffff84004a7a:	4701                	li	a4,0
ffffffff84004a7c:	70e2                	ld	ra,56(sp)
ffffffff84004a7e:	e01c                	sd	a5,0(s0)
ffffffff84004a80:	e414                	sd	a3,8(s0)
ffffffff84004a82:	e818                	sd	a4,16(s0)
ffffffff84004a84:	8522                	mv	a0,s0
ffffffff84004a86:	7442                	ld	s0,48(sp)
ffffffff84004a88:	6121                	add	sp,sp,64
ffffffff84004a8a:	8082                	ret

ffffffff84004a8c <lookupCapAndSlot>:
ffffffff84004a8c:	c005f793          	and	a5,a1,-1024
ffffffff84004a90:	638c                	ld	a1,0(a5)
ffffffff84004a92:	679c                	ld	a5,8(a5)
ffffffff84004a94:	7139                	add	sp,sp,-64
ffffffff84004a96:	f822                	sd	s0,48(sp)
ffffffff84004a98:	86b2                	mv	a3,a2
ffffffff84004a9a:	04000713          	li	a4,64
ffffffff84004a9e:	863e                	mv	a2,a5
ffffffff84004aa0:	842a                	mv	s0,a0
ffffffff84004aa2:	0828                	add	a0,sp,24
ffffffff84004aa4:	e83e                	sd	a5,16(sp)
ffffffff84004aa6:	fc06                	sd	ra,56(sp)
ffffffff84004aa8:	e42e                	sd	a1,8(sp)
ffffffff84004aaa:	dafff0ef          	jal	ffffffff84004858 <resolveAddressBits>
ffffffff84004aae:	6762                	ld	a4,24(sp)
ffffffff84004ab0:	7782                	ld	a5,32(sp)
ffffffff84004ab2:	ef01                	bnez	a4,ffffffff84004aca <lookupCapAndSlot+0x3e>
ffffffff84004ab4:	6390                	ld	a2,0(a5)
ffffffff84004ab6:	6794                	ld	a3,8(a5)
ffffffff84004ab8:	70e2                	ld	ra,56(sp)
ffffffff84004aba:	e018                	sd	a4,0(s0)
ffffffff84004abc:	e410                	sd	a2,8(s0)
ffffffff84004abe:	e814                	sd	a3,16(s0)
ffffffff84004ac0:	ec1c                	sd	a5,24(s0)
ffffffff84004ac2:	8522                	mv	a0,s0
ffffffff84004ac4:	7442                	ld	s0,48(sp)
ffffffff84004ac6:	6121                	add	sp,sp,64
ffffffff84004ac8:	8082                	ret
ffffffff84004aca:	4601                	li	a2,0
ffffffff84004acc:	4681                	li	a3,0
ffffffff84004ace:	4781                	li	a5,0
ffffffff84004ad0:	b7e5                	j	ffffffff84004ab8 <lookupCapAndSlot+0x2c>

ffffffff84004ad2 <doFaultTransfer>:
ffffffff84004ad2:	1101                	add	sp,sp,-32
ffffffff84004ad4:	e822                	sd	s0,16(sp)
ffffffff84004ad6:	e426                	sd	s1,8(sp)
ffffffff84004ad8:	8432                	mv	s0,a2
ffffffff84004ada:	84ae                	mv	s1,a1
ffffffff84004adc:	e04a                	sd	s2,0(sp)
ffffffff84004ade:	85a2                	mv	a1,s0
ffffffff84004ae0:	892a                	mv	s2,a0
ffffffff84004ae2:	8636                	mv	a2,a3
ffffffff84004ae4:	8526                	mv	a0,s1
ffffffff84004ae6:	ec06                	sd	ra,24(sp)
ffffffff84004ae8:	99cff0ef          	jal	ffffffff84003c84 <setMRs_fault>
ffffffff84004aec:	1384b783          	ld	a5,312(s1)
ffffffff84004af0:	673d                	lui	a4,0xf
ffffffff84004af2:	07f57513          	and	a0,a0,127
ffffffff84004af6:	07b2                	sll	a5,a5,0xc
ffffffff84004af8:	8ff9                	and	a5,a5,a4
ffffffff84004afa:	8fc9                	or	a5,a5,a0
ffffffff84004afc:	05243423          	sd	s2,72(s0)
ffffffff84004b00:	60e2                	ld	ra,24(sp)
ffffffff84004b02:	e83c                	sd	a5,80(s0)
ffffffff84004b04:	6442                	ld	s0,16(sp)
ffffffff84004b06:	64a2                	ld	s1,8(sp)
ffffffff84004b08:	6902                	ld	s2,0(sp)
ffffffff84004b0a:	6105                	add	sp,sp,32
ffffffff84004b0c:	8082                	ret

ffffffff84004b0e <doNBRecvFailedTransfer>:
ffffffff84004b0e:	04053423          	sd	zero,72(a0)
ffffffff84004b12:	8082                	ret

ffffffff84004b14 <switchToIdleThread>:
ffffffff84004b14:	1141                	add	sp,sp,-16
ffffffff84004b16:	e022                	sd	s0,0(sp)
ffffffff84004b18:	a9818413          	add	s0,gp,-1384 # ffffffff8400ad48 <ksIdleThread>
ffffffff84004b1c:	6008                	ld	a0,0(s0)
ffffffff84004b1e:	e406                	sd	ra,8(sp)
ffffffff84004b20:	e0eff0ef          	jal	ffffffff8400412e <setVMRoot>
ffffffff84004b24:	601c                	ld	a5,0(s0)
ffffffff84004b26:	60a2                	ld	ra,8(sp)
ffffffff84004b28:	6402                	ld	s0,0(sp)
ffffffff84004b2a:	aaf1b023          	sd	a5,-1376(gp) # ffffffff8400ad50 <ksCurThread>
ffffffff84004b2e:	0141                	add	sp,sp,16
ffffffff84004b30:	8082                	ret

ffffffff84004b32 <setMCPriority>:
ffffffff84004b32:	16b53023          	sd	a1,352(a0)
ffffffff84004b36:	8082                	ret

ffffffff84004b38 <preemptionPoint>:
ffffffff84004b38:	a8818713          	add	a4,gp,-1400 # ffffffff8400ad38 <ksWorkUnitsCompleted>
ffffffff84004b3c:	631c                	ld	a5,0(a4)
ffffffff84004b3e:	06300693          	li	a3,99
ffffffff84004b42:	4501                	li	a0,0
ffffffff84004b44:	0785                	add	a5,a5,1
ffffffff84004b46:	00f6fa63          	bgeu	a3,a5,ffffffff84004b5a <preemptionPoint+0x22>
ffffffff84004b4a:	14402573          	csrr	a0,sip
ffffffff84004b4e:	22057513          	and	a0,a0,544
ffffffff84004b52:	00a03533          	snez	a0,a0
ffffffff84004b56:	050a                	sll	a0,a0,0x2
ffffffff84004b58:	4781                	li	a5,0
ffffffff84004b5a:	e31c                	sd	a5,0(a4)
ffffffff84004b5c:	8082                	ret

ffffffff84004b5e <invokeCNodeMove>:
ffffffff84004b5e:	6a18                	ld	a4,16(a2)
ffffffff84004b60:	6e1c                	ld	a5,24(a2)
ffffffff84004b62:	e288                	sd	a0,0(a3)
ffffffff84004b64:	e68c                	sd	a1,8(a3)
ffffffff84004b66:	00063023          	sd	zero,0(a2) # fffffffffc000000 <ki_end+0x77fde000>
ffffffff84004b6a:	00063423          	sd	zero,8(a2)
ffffffff84004b6e:	1141                	add	sp,sp,-16
ffffffff84004b70:	ea98                	sd	a4,16(a3)
ffffffff84004b72:	ee9c                	sd	a5,24(a3)
ffffffff84004b74:	e02a                	sd	a0,0(sp)
ffffffff84004b76:	e42e                	sd	a1,8(sp)
ffffffff84004b78:	00063823          	sd	zero,16(a2)
ffffffff84004b7c:	00063c23          	sd	zero,24(a2)
ffffffff84004b80:	cf01                	beqz	a4,ffffffff84004b98 <invokeCNodeMove+0x3a>
ffffffff84004b82:	6f10                	ld	a2,24(a4)
ffffffff84004b84:	55fd                	li	a1,-1
ffffffff84004b86:	159e                	sll	a1,a1,0x27
ffffffff84004b88:	058d                	add	a1,a1,3
ffffffff84004b8a:	8e6d                	and	a2,a2,a1
ffffffff84004b8c:	f80005b7          	lui	a1,0xf8000
ffffffff84004b90:	81e5                	srl	a1,a1,0x19
ffffffff84004b92:	8df5                	and	a1,a1,a3
ffffffff84004b94:	8e4d                	or	a2,a2,a1
ffffffff84004b96:	ef10                	sd	a2,24(a4)
ffffffff84004b98:	0267d713          	srl	a4,a5,0x26
ffffffff84004b9c:	f8000637          	lui	a2,0xf8000
ffffffff84004ba0:	8265                	srl	a2,a2,0x19
ffffffff84004ba2:	8b05                	and	a4,a4,1
ffffffff84004ba4:	8ff1                	and	a5,a5,a2
ffffffff84004ba6:	cb01                	beqz	a4,ffffffff84004bb6 <invokeCNodeMove+0x58>
ffffffff84004ba8:	577d                	li	a4,-1
ffffffff84004baa:	171e                	sll	a4,a4,0x27
ffffffff84004bac:	8fd9                	or	a5,a5,a4
ffffffff84004bae:	eb94                	sd	a3,16(a5)
ffffffff84004bb0:	4501                	li	a0,0
ffffffff84004bb2:	0141                	add	sp,sp,16
ffffffff84004bb4:	8082                	ret
ffffffff84004bb6:	dfed                	beqz	a5,ffffffff84004bb0 <invokeCNodeMove+0x52>
ffffffff84004bb8:	bfdd                	j	ffffffff84004bae <invokeCNodeMove+0x50>

ffffffff84004bba <cteInsert>:
ffffffff84004bba:	00063883          	ld	a7,0(a2) # fffffffff8000000 <ki_end+0x73fde000>
ffffffff84004bbe:	1141                	add	sp,sp,-16
ffffffff84004bc0:	03b55793          	srl	a5,a0,0x3b
ffffffff84004bc4:	882a                	mv	a6,a0
ffffffff84004bc6:	e02a                	sd	a0,0(sp)
ffffffff84004bc8:	e42e                	sd	a1,8(sp)
ffffffff84004bca:	0017f513          	and	a0,a5,1
ffffffff84004bce:	6e18                	ld	a4,24(a2)
ffffffff84004bd0:	00863e83          	ld	t4,8(a2)
ffffffff84004bd4:	03b8de13          	srl	t3,a7,0x3b
ffffffff84004bd8:	ed69                	bnez	a0,ffffffff84004cb2 <cteInsert+0xf8>
ffffffff84004bda:	4319                	li	t1,6
ffffffff84004bdc:	00678a63          	beq	a5,t1,ffffffff84004bf0 <cteInsert+0x36>
ffffffff84004be0:	06f36263          	bltu	t1,a5,ffffffff84004c44 <cteInsert+0x8a>
ffffffff84004be4:	4309                	li	t1,2
ffffffff84004be6:	06678863          	beq	a5,t1,ffffffff84004c56 <cteInsert+0x9c>
ffffffff84004bea:	4811                	li	a6,4
ffffffff84004bec:	0d079163          	bne	a5,a6,ffffffff84004cae <cteInsert+0xf4>
ffffffff84004bf0:	41d585b3          	sub	a1,a1,t4
ffffffff84004bf4:	00b03533          	snez	a0,a1
ffffffff84004bf8:	00151793          	sll	a5,a0,0x1
ffffffff84004bfc:	9b71                	and	a4,a4,-4
ffffffff84004bfe:	8f5d                	or	a4,a4,a5
ffffffff84004c00:	8f49                	or	a4,a4,a0
ffffffff84004c02:	6882                	ld	a7,0(sp)
ffffffff84004c04:	ea90                	sd	a2,16(a3)
ffffffff84004c06:	ee98                	sd	a4,24(a3)
ffffffff84004c08:	6e0c                	ld	a1,24(a2)
ffffffff84004c0a:	557d                	li	a0,-1
ffffffff84004c0c:	0116b023          	sd	a7,0(a3) # fffffffff8000000 <ki_end+0x73fde000>
ffffffff84004c10:	151e                	sll	a0,a0,0x27
ffffffff84004c12:	68a2                	ld	a7,8(sp)
ffffffff84004c14:	f80007b7          	lui	a5,0xf8000
ffffffff84004c18:	83e5                	srl	a5,a5,0x19
ffffffff84004c1a:	00350813          	add	a6,a0,3
ffffffff84004c1e:	0105f5b3          	and	a1,a1,a6
ffffffff84004c22:	00f6f833          	and	a6,a3,a5
ffffffff84004c26:	0105e5b3          	or	a1,a1,a6
ffffffff84004c2a:	0116b423          	sd	a7,8(a3)
ffffffff84004c2e:	02675813          	srl	a6,a4,0x26
ffffffff84004c32:	ee0c                	sd	a1,24(a2)
ffffffff84004c34:	00187613          	and	a2,a6,1
ffffffff84004c38:	8ff9                	and	a5,a5,a4
ffffffff84004c3a:	c259                	beqz	a2,ffffffff84004cc0 <cteInsert+0x106>
ffffffff84004c3c:	8fc9                	or	a5,a5,a0
ffffffff84004c3e:	eb94                	sd	a3,16(a5)
ffffffff84004c40:	0141                	add	sp,sp,16
ffffffff84004c42:	8082                	ret
ffffffff84004c44:	45c1                	li	a1,16
ffffffff84004c46:	06b79463          	bne	a5,a1,ffffffff84004cae <cteInsert+0xf4>
ffffffff84004c4a:	1e49                	add	t3,t3,-14
ffffffff84004c4c:	001e3513          	seqz	a0,t3
ffffffff84004c50:	00151793          	sll	a5,a0,0x1
ffffffff84004c54:	b765                	j	ffffffff84004bfc <cteInsert+0x42>
ffffffff84004c56:	00376713          	or	a4,a4,3
ffffffff84004c5a:	fafe14e3          	bne	t3,a5,ffffffff84004c02 <cteInsert+0x48>
ffffffff84004c5e:	4305                	li	t1,1
ffffffff84004c60:	131a                	sll	t1,t1,0x26
ffffffff84004c62:	557d                	li	a0,-1
ffffffff84004c64:	01955793          	srl	a5,a0,0x19
ffffffff84004c68:	0068fe33          	and	t3,a7,t1
ffffffff84004c6c:	00f8f8b3          	and	a7,a7,a5
ffffffff84004c70:	00f877b3          	and	a5,a6,a5
ffffffff84004c74:	00687833          	and	a6,a6,t1
ffffffff84004c78:	040e0663          	beqz	t3,ffffffff84004cc4 <cteInsert+0x10a>
ffffffff84004c7c:	151e                	sll	a0,a0,0x27
ffffffff84004c7e:	00a8e8b3          	or	a7,a7,a0
ffffffff84004c82:	8fc9                	or	a5,a5,a0
ffffffff84004c84:	f6080fe3          	beqz	a6,ffffffff84004c02 <cteInsert+0x48>
ffffffff84004c88:	f7179de3          	bne	a5,a7,ffffffff84004c02 <cteInsert+0x48>
ffffffff84004c8c:	03fef793          	and	a5,t4,63
ffffffff84004c90:	03f5f593          	and	a1,a1,63
ffffffff84004c94:	f6f597e3          	bne	a1,a5,ffffffff84004c02 <cteInsert+0x48>
ffffffff84004c98:	35f1                	addw	a1,a1,-4 # fffffffff7fffffc <ki_end+0x73fddffc>
ffffffff84004c9a:	1e9e                	sll	t4,t4,0x27
ffffffff84004c9c:	020007b7          	lui	a5,0x2000
ffffffff84004ca0:	00b797b3          	sll	a5,a5,a1
ffffffff84004ca4:	027ed593          	srl	a1,t4,0x27
ffffffff84004ca8:	8fcd                	or	a5,a5,a1
ffffffff84004caa:	e61c                	sd	a5,8(a2)
ffffffff84004cac:	bf99                	j	ffffffff84004c02 <cteInsert+0x48>
ffffffff84004cae:	4781                	li	a5,0
ffffffff84004cb0:	b7b1                	j	ffffffff84004bfc <cteInsert+0x42>
ffffffff84004cb2:	4509                	li	a0,2
ffffffff84004cb4:	9b71                	and	a4,a4,-4
ffffffff84004cb6:	f4ae16e3          	bne	t3,a0,ffffffff84004c02 <cteInsert+0x48>
ffffffff84004cba:	fbc782e3          	beq	a5,t3,ffffffff84004c5e <cteInsert+0xa4>
ffffffff84004cbe:	b791                	j	ffffffff84004c02 <cteInsert+0x48>
ffffffff84004cc0:	d3c1                	beqz	a5,ffffffff84004c40 <cteInsert+0x86>
ffffffff84004cc2:	bfb5                	j	ffffffff84004c3e <cteInsert+0x84>
ffffffff84004cc4:	f2081fe3          	bnez	a6,ffffffff84004c02 <cteInsert+0x48>
ffffffff84004cc8:	f3179de3          	bne	a5,a7,ffffffff84004c02 <cteInsert+0x48>
ffffffff84004ccc:	b7c1                	j	ffffffff84004c8c <cteInsert+0xd2>

ffffffff84004cce <invokeCNodeInsert>:
ffffffff84004cce:	1101                	add	sp,sp,-32
ffffffff84004cd0:	ec06                	sd	ra,24(sp)
ffffffff84004cd2:	ee9ff0ef          	jal	ffffffff84004bba <cteInsert>
ffffffff84004cd6:	60e2                	ld	ra,24(sp)
ffffffff84004cd8:	4501                	li	a0,0
ffffffff84004cda:	6105                	add	sp,sp,32
ffffffff84004cdc:	8082                	ret

ffffffff84004cde <cteMove>:
ffffffff84004cde:	6a18                	ld	a4,16(a2)
ffffffff84004ce0:	6e1c                	ld	a5,24(a2)
ffffffff84004ce2:	e288                	sd	a0,0(a3)
ffffffff84004ce4:	e68c                	sd	a1,8(a3)
ffffffff84004ce6:	00063023          	sd	zero,0(a2)
ffffffff84004cea:	00063423          	sd	zero,8(a2)
ffffffff84004cee:	1141                	add	sp,sp,-16
ffffffff84004cf0:	ea98                	sd	a4,16(a3)
ffffffff84004cf2:	ee9c                	sd	a5,24(a3)
ffffffff84004cf4:	e02a                	sd	a0,0(sp)
ffffffff84004cf6:	e42e                	sd	a1,8(sp)
ffffffff84004cf8:	00063823          	sd	zero,16(a2)
ffffffff84004cfc:	00063c23          	sd	zero,24(a2)
ffffffff84004d00:	cf01                	beqz	a4,ffffffff84004d18 <cteMove+0x3a>
ffffffff84004d02:	6f10                	ld	a2,24(a4)
ffffffff84004d04:	55fd                	li	a1,-1
ffffffff84004d06:	159e                	sll	a1,a1,0x27
ffffffff84004d08:	058d                	add	a1,a1,3
ffffffff84004d0a:	8e6d                	and	a2,a2,a1
ffffffff84004d0c:	f80005b7          	lui	a1,0xf8000
ffffffff84004d10:	81e5                	srl	a1,a1,0x19
ffffffff84004d12:	8df5                	and	a1,a1,a3
ffffffff84004d14:	8e4d                	or	a2,a2,a1
ffffffff84004d16:	ef10                	sd	a2,24(a4)
ffffffff84004d18:	0267d713          	srl	a4,a5,0x26
ffffffff84004d1c:	f8000637          	lui	a2,0xf8000
ffffffff84004d20:	8265                	srl	a2,a2,0x19
ffffffff84004d22:	8b05                	and	a4,a4,1
ffffffff84004d24:	8ff1                	and	a5,a5,a2
ffffffff84004d26:	c719                	beqz	a4,ffffffff84004d34 <cteMove+0x56>
ffffffff84004d28:	577d                	li	a4,-1
ffffffff84004d2a:	171e                	sll	a4,a4,0x27
ffffffff84004d2c:	8fd9                	or	a5,a5,a4
ffffffff84004d2e:	eb94                	sd	a3,16(a5)
ffffffff84004d30:	0141                	add	sp,sp,16
ffffffff84004d32:	8082                	ret
ffffffff84004d34:	dff5                	beqz	a5,ffffffff84004d30 <cteMove+0x52>
ffffffff84004d36:	bfe5                	j	ffffffff84004d2e <cteMove+0x50>

ffffffff84004d38 <invokeCNodeSaveCaller>:
ffffffff84004d38:	aa01b603          	ld	a2,-1376(gp) # ffffffff8400ad50 <ksCurThread>
ffffffff84004d3c:	c0067613          	and	a2,a2,-1024
ffffffff84004d40:	723c                	ld	a5,96(a2)
ffffffff84004d42:	1101                	add	sp,sp,-32
ffffffff84004d44:	ec06                	sd	ra,24(sp)
ffffffff84004d46:	e03e                	sd	a5,0(sp)
ffffffff84004d48:	03b7d713          	srl	a4,a5,0x3b
ffffffff84004d4c:	06060613          	add	a2,a2,96 # fffffffff8000060 <ki_end+0x73fde060>
ffffffff84004d50:	660c                	ld	a1,8(a2)
ffffffff84004d52:	c719                	beqz	a4,ffffffff84004d60 <invokeCNodeSaveCaller+0x28>
ffffffff84004d54:	46a1                	li	a3,8
ffffffff84004d56:	02d71163          	bne	a4,a3,ffffffff84004d78 <invokeCNodeSaveCaller+0x40>
ffffffff84004d5a:	0017f713          	and	a4,a5,1
ffffffff84004d5e:	c709                	beqz	a4,ffffffff84004d68 <invokeCNodeSaveCaller+0x30>
ffffffff84004d60:	60e2                	ld	ra,24(sp)
ffffffff84004d62:	4501                	li	a0,0
ffffffff84004d64:	6105                	add	sp,sp,32
ffffffff84004d66:	8082                	ret
ffffffff84004d68:	86aa                	mv	a3,a0
ffffffff84004d6a:	853e                	mv	a0,a5
ffffffff84004d6c:	f73ff0ef          	jal	ffffffff84004cde <cteMove>
ffffffff84004d70:	60e2                	ld	ra,24(sp)
ffffffff84004d72:	4501                	li	a0,0
ffffffff84004d74:	6105                	add	sp,sp,32
ffffffff84004d76:	8082                	ret
ffffffff84004d78:	ebffe0ef          	jal	ffffffff84003c36 <halt>

ffffffff84004d7c <cteSwap>:
ffffffff84004d7c:	e214                	sd	a3,0(a2)
ffffffff84004d7e:	e618                	sd	a4,8(a2)
ffffffff84004d80:	e388                	sd	a0,0(a5)
ffffffff84004d82:	e78c                	sd	a1,8(a5)
ffffffff84004d84:	01063803          	ld	a6,16(a2)
ffffffff84004d88:	1101                	add	sp,sp,-32
ffffffff84004d8a:	ec2e                	sd	a1,24(sp)
ffffffff84004d8c:	e82a                	sd	a0,16(sp)
ffffffff84004d8e:	e036                	sd	a3,0(sp)
ffffffff84004d90:	e43a                	sd	a4,8(sp)
ffffffff84004d92:	6e0c                	ld	a1,24(a2)
ffffffff84004d94:	00080f63          	beqz	a6,ffffffff84004db2 <cteSwap+0x36>
ffffffff84004d98:	01883703          	ld	a4,24(a6)
ffffffff84004d9c:	56fd                	li	a3,-1
ffffffff84004d9e:	169e                	sll	a3,a3,0x27
ffffffff84004da0:	068d                	add	a3,a3,3
ffffffff84004da2:	8f75                	and	a4,a4,a3
ffffffff84004da4:	f80006b7          	lui	a3,0xf8000
ffffffff84004da8:	82e5                	srl	a3,a3,0x19
ffffffff84004daa:	8efd                	and	a3,a3,a5
ffffffff84004dac:	8f55                	or	a4,a4,a3
ffffffff84004dae:	00e83c23          	sd	a4,24(a6)
ffffffff84004db2:	0265d693          	srl	a3,a1,0x26
ffffffff84004db6:	f8000737          	lui	a4,0xf8000
ffffffff84004dba:	8365                	srl	a4,a4,0x19
ffffffff84004dbc:	8a85                	and	a3,a3,1
ffffffff84004dbe:	8f6d                	and	a4,a4,a1
ffffffff84004dc0:	c6b1                	beqz	a3,ffffffff84004e0c <cteSwap+0x90>
ffffffff84004dc2:	56fd                	li	a3,-1
ffffffff84004dc4:	169e                	sll	a3,a3,0x27
ffffffff84004dc6:	8f55                	or	a4,a4,a3
ffffffff84004dc8:	eb1c                	sd	a5,16(a4)
ffffffff84004dca:	6b94                	ld	a3,16(a5)
ffffffff84004dcc:	6f98                	ld	a4,24(a5)
ffffffff84004dce:	ea14                	sd	a3,16(a2)
ffffffff84004dd0:	ee18                	sd	a4,24(a2)
ffffffff84004dd2:	0107b823          	sd	a6,16(a5) # 2000010 <KERNEL_OFFSET-0xfffffffefdfffff0>
ffffffff84004dd6:	ef8c                	sd	a1,24(a5)
ffffffff84004dd8:	ce81                	beqz	a3,ffffffff84004df0 <cteSwap+0x74>
ffffffff84004dda:	6e9c                	ld	a5,24(a3)
ffffffff84004ddc:	55fd                	li	a1,-1
ffffffff84004dde:	159e                	sll	a1,a1,0x27
ffffffff84004de0:	058d                	add	a1,a1,3 # fffffffff8000003 <ki_end+0x73fde003>
ffffffff84004de2:	8fed                	and	a5,a5,a1
ffffffff84004de4:	f80005b7          	lui	a1,0xf8000
ffffffff84004de8:	81e5                	srl	a1,a1,0x19
ffffffff84004dea:	8df1                	and	a1,a1,a2
ffffffff84004dec:	8fcd                	or	a5,a5,a1
ffffffff84004dee:	ee9c                	sd	a5,24(a3)
ffffffff84004df0:	02675793          	srl	a5,a4,0x26
ffffffff84004df4:	f80006b7          	lui	a3,0xf8000
ffffffff84004df8:	82e5                	srl	a3,a3,0x19
ffffffff84004dfa:	8b85                	and	a5,a5,1
ffffffff84004dfc:	8f75                	and	a4,a4,a3
ffffffff84004dfe:	cb89                	beqz	a5,ffffffff84004e10 <cteSwap+0x94>
ffffffff84004e00:	57fd                	li	a5,-1
ffffffff84004e02:	179e                	sll	a5,a5,0x27
ffffffff84004e04:	8f5d                	or	a4,a4,a5
ffffffff84004e06:	eb10                	sd	a2,16(a4)
ffffffff84004e08:	6105                	add	sp,sp,32
ffffffff84004e0a:	8082                	ret
ffffffff84004e0c:	df5d                	beqz	a4,ffffffff84004dca <cteSwap+0x4e>
ffffffff84004e0e:	bf6d                	j	ffffffff84004dc8 <cteSwap+0x4c>
ffffffff84004e10:	df65                	beqz	a4,ffffffff84004e08 <cteSwap+0x8c>
ffffffff84004e12:	bfd5                	j	ffffffff84004e06 <cteSwap+0x8a>

ffffffff84004e14 <invokeCNodeRotate>:
ffffffff84004e14:	7179                	add	sp,sp,-48
ffffffff84004e16:	f406                	sd	ra,40(sp)
ffffffff84004e18:	e82a                	sd	a0,16(sp)
ffffffff84004e1a:	ec2e                	sd	a1,24(sp)
ffffffff84004e1c:	e032                	sd	a2,0(sp)
ffffffff84004e1e:	e436                	sd	a3,8(sp)
ffffffff84004e20:	833a                	mv	t1,a4
ffffffff84004e22:	0d070563          	beq	a4,a6,ffffffff84004eec <invokeCNodeRotate+0xd8>
ffffffff84004e26:	6b98                	ld	a4,16(a5)
ffffffff84004e28:	88be                	mv	a7,a5
ffffffff84004e2a:	6f9c                	ld	a5,24(a5)
ffffffff84004e2c:	00c83023          	sd	a2,0(a6)
ffffffff84004e30:	00d83423          	sd	a3,8(a6)
ffffffff84004e34:	0008b023          	sd	zero,0(a7)
ffffffff84004e38:	0008b423          	sd	zero,8(a7)
ffffffff84004e3c:	00e83823          	sd	a4,16(a6)
ffffffff84004e40:	00f83c23          	sd	a5,24(a6)
ffffffff84004e44:	0008b823          	sd	zero,16(a7)
ffffffff84004e48:	0008bc23          	sd	zero,24(a7)
ffffffff84004e4c:	e359                	bnez	a4,ffffffff84004ed2 <invokeCNodeRotate+0xbe>
ffffffff84004e4e:	0267d713          	srl	a4,a5,0x26
ffffffff84004e52:	f80006b7          	lui	a3,0xf8000
ffffffff84004e56:	82e5                	srl	a3,a3,0x19
ffffffff84004e58:	8b05                	and	a4,a4,1
ffffffff84004e5a:	8ff5                	and	a5,a5,a3
ffffffff84004e5c:	c34d                	beqz	a4,ffffffff84004efe <invokeCNodeRotate+0xea>
ffffffff84004e5e:	577d                	li	a4,-1
ffffffff84004e60:	171e                	sll	a4,a4,0x27
ffffffff84004e62:	8fd9                	or	a5,a5,a4
ffffffff84004e64:	0107b823          	sd	a6,16(a5)
ffffffff84004e68:	66c2                	ld	a3,16(sp)
ffffffff84004e6a:	01033703          	ld	a4,16(t1) # fffffffffff00010 <ki_end+0x7bede010>
ffffffff84004e6e:	01833783          	ld	a5,24(t1)
ffffffff84004e72:	00d8b023          	sd	a3,0(a7)
ffffffff84004e76:	66e2                	ld	a3,24(sp)
ffffffff84004e78:	00d8b423          	sd	a3,8(a7)
ffffffff84004e7c:	00033023          	sd	zero,0(t1)
ffffffff84004e80:	00033423          	sd	zero,8(t1)
ffffffff84004e84:	00e8b823          	sd	a4,16(a7)
ffffffff84004e88:	00f8bc23          	sd	a5,24(a7)
ffffffff84004e8c:	00033823          	sd	zero,16(t1)
ffffffff84004e90:	00033c23          	sd	zero,24(t1)
ffffffff84004e94:	e315                	bnez	a4,ffffffff84004eb8 <invokeCNodeRotate+0xa4>
ffffffff84004e96:	0267d713          	srl	a4,a5,0x26
ffffffff84004e9a:	f80006b7          	lui	a3,0xf8000
ffffffff84004e9e:	82e5                	srl	a3,a3,0x19
ffffffff84004ea0:	8b05                	and	a4,a4,1
ffffffff84004ea2:	8ff5                	and	a5,a5,a3
ffffffff84004ea4:	cf39                	beqz	a4,ffffffff84004f02 <invokeCNodeRotate+0xee>
ffffffff84004ea6:	577d                	li	a4,-1
ffffffff84004ea8:	171e                	sll	a4,a4,0x27
ffffffff84004eaa:	8fd9                	or	a5,a5,a4
ffffffff84004eac:	0117b823          	sd	a7,16(a5)
ffffffff84004eb0:	70a2                	ld	ra,40(sp)
ffffffff84004eb2:	4501                	li	a0,0
ffffffff84004eb4:	6145                	add	sp,sp,48
ffffffff84004eb6:	8082                	ret
ffffffff84004eb8:	6f14                	ld	a3,24(a4)
ffffffff84004eba:	567d                	li	a2,-1
ffffffff84004ebc:	161e                	sll	a2,a2,0x27
ffffffff84004ebe:	060d                	add	a2,a2,3
ffffffff84004ec0:	8ef1                	and	a3,a3,a2
ffffffff84004ec2:	f8000637          	lui	a2,0xf8000
ffffffff84004ec6:	8265                	srl	a2,a2,0x19
ffffffff84004ec8:	00c8f633          	and	a2,a7,a2
ffffffff84004ecc:	8ed1                	or	a3,a3,a2
ffffffff84004ece:	ef14                	sd	a3,24(a4)
ffffffff84004ed0:	b7d9                	j	ffffffff84004e96 <invokeCNodeRotate+0x82>
ffffffff84004ed2:	6f14                	ld	a3,24(a4)
ffffffff84004ed4:	567d                	li	a2,-1
ffffffff84004ed6:	161e                	sll	a2,a2,0x27
ffffffff84004ed8:	060d                	add	a2,a2,3 # fffffffff8000003 <ki_end+0x73fde003>
ffffffff84004eda:	8ef1                	and	a3,a3,a2
ffffffff84004edc:	f8000637          	lui	a2,0xf8000
ffffffff84004ee0:	8265                	srl	a2,a2,0x19
ffffffff84004ee2:	00c87633          	and	a2,a6,a2
ffffffff84004ee6:	8ed1                	or	a3,a3,a2
ffffffff84004ee8:	ef14                	sd	a3,24(a4)
ffffffff84004eea:	b795                	j	ffffffff84004e4e <invokeCNodeRotate+0x3a>
ffffffff84004eec:	8736                	mv	a4,a3
ffffffff84004eee:	86b2                	mv	a3,a2
ffffffff84004ef0:	861a                	mv	a2,t1
ffffffff84004ef2:	e8bff0ef          	jal	ffffffff84004d7c <cteSwap>
ffffffff84004ef6:	70a2                	ld	ra,40(sp)
ffffffff84004ef8:	4501                	li	a0,0
ffffffff84004efa:	6145                	add	sp,sp,48
ffffffff84004efc:	8082                	ret
ffffffff84004efe:	d7ad                	beqz	a5,ffffffff84004e68 <invokeCNodeRotate+0x54>
ffffffff84004f00:	b795                	j	ffffffff84004e64 <invokeCNodeRotate+0x50>
ffffffff84004f02:	d7dd                	beqz	a5,ffffffff84004eb0 <invokeCNodeRotate+0x9c>
ffffffff84004f04:	b765                	j	ffffffff84004eac <invokeCNodeRotate+0x98>

ffffffff84004f06 <capSwapForDelete>:
ffffffff84004f06:	1101                	add	sp,sp,-32
ffffffff84004f08:	00b50a63          	beq	a0,a1,ffffffff84004f1c <capSwapForDelete+0x16>
ffffffff84004f0c:	862a                	mv	a2,a0
ffffffff84004f0e:	6194                	ld	a3,0(a1)
ffffffff84004f10:	6598                	ld	a4,8(a1)
ffffffff84004f12:	6108                	ld	a0,0(a0)
ffffffff84004f14:	87ae                	mv	a5,a1
ffffffff84004f16:	660c                	ld	a1,8(a2)
ffffffff84004f18:	6105                	add	sp,sp,32
ffffffff84004f1a:	b58d                	j	ffffffff84004d7c <cteSwap>
ffffffff84004f1c:	6105                	add	sp,sp,32
ffffffff84004f1e:	8082                	ret

ffffffff84004f20 <insertNewCap>:
ffffffff84004f20:	6d1c                	ld	a5,24(a0)
ffffffff84004f22:	f8000837          	lui	a6,0xf8000
ffffffff84004f26:	01985813          	srl	a6,a6,0x19
ffffffff84004f2a:	0267d713          	srl	a4,a5,0x26
ffffffff84004f2e:	8b05                	and	a4,a4,1
ffffffff84004f30:	0107f7b3          	and	a5,a5,a6
ffffffff84004f34:	1141                	add	sp,sp,-16
ffffffff84004f36:	0037e813          	or	a6,a5,3
ffffffff84004f3a:	c71d                	beqz	a4,ffffffff84004f68 <insertNewCap+0x48>
ffffffff84004f3c:	577d                	li	a4,-1
ffffffff84004f3e:	171e                	sll	a4,a4,0x27
ffffffff84004f40:	8fd9                	or	a5,a5,a4
ffffffff84004f42:	e190                	sd	a2,0(a1)
ffffffff84004f44:	e594                	sd	a3,8(a1)
ffffffff84004f46:	e988                	sd	a0,16(a1)
ffffffff84004f48:	0105bc23          	sd	a6,24(a1) # fffffffff8000018 <ki_end+0x73fde018>
ffffffff84004f4c:	eb8c                	sd	a1,16(a5)
ffffffff84004f4e:	6d1c                	ld	a5,24(a0)
ffffffff84004f50:	577d                	li	a4,-1
ffffffff84004f52:	171e                	sll	a4,a4,0x27
ffffffff84004f54:	070d                	add	a4,a4,3 # fffffffff8000003 <ki_end+0x73fde003>
ffffffff84004f56:	8ff9                	and	a5,a5,a4
ffffffff84004f58:	f8000737          	lui	a4,0xf8000
ffffffff84004f5c:	8365                	srl	a4,a4,0x19
ffffffff84004f5e:	8df9                	and	a1,a1,a4
ffffffff84004f60:	8fcd                	or	a5,a5,a1
ffffffff84004f62:	ed1c                	sd	a5,24(a0)
ffffffff84004f64:	0141                	add	sp,sp,16
ffffffff84004f66:	8082                	ret
ffffffff84004f68:	e190                	sd	a2,0(a1)
ffffffff84004f6a:	e594                	sd	a3,8(a1)
ffffffff84004f6c:	e988                	sd	a0,16(a1)
ffffffff84004f6e:	0105bc23          	sd	a6,24(a1)
ffffffff84004f72:	dff1                	beqz	a5,ffffffff84004f4e <insertNewCap+0x2e>
ffffffff84004f74:	bfe1                	j	ffffffff84004f4c <insertNewCap+0x2c>

ffffffff84004f76 <setupReplyMaster>:
ffffffff84004f76:	c0057713          	and	a4,a0,-1024
ffffffff84004f7a:	633c                	ld	a5,64(a4)
ffffffff84004f7c:	93ed                	srl	a5,a5,0x3b
ffffffff84004f7e:	eb91                	bnez	a5,ffffffff84004f92 <setupReplyMaster+0x1c>
ffffffff84004f80:	4785                	li	a5,1
ffffffff84004f82:	17fa                	sll	a5,a5,0x3e
ffffffff84004f84:	078d                	add	a5,a5,3
ffffffff84004f86:	e33c                	sd	a5,64(a4)
ffffffff84004f88:	478d                	li	a5,3
ffffffff84004f8a:	e728                	sd	a0,72(a4)
ffffffff84004f8c:	04073823          	sd	zero,80(a4) # fffffffff8000050 <ki_end+0x73fde050>
ffffffff84004f90:	ef3c                	sd	a5,88(a4)
ffffffff84004f92:	8082                	ret

ffffffff84004f94 <ensureEmptySlot>:
ffffffff84004f94:	6108                	ld	a0,0(a0)
ffffffff84004f96:	916d                	srl	a0,a0,0x3b
ffffffff84004f98:	e111                	bnez	a0,ffffffff84004f9c <ensureEmptySlot+0x8>
ffffffff84004f9a:	8082                	ret
ffffffff84004f9c:	47a1                	li	a5,8
ffffffff84004f9e:	d6f1b023          	sd	a5,-672(gp) # ffffffff8400b010 <current_syscall_error+0x30>
ffffffff84004fa2:	450d                	li	a0,3
ffffffff84004fa4:	8082                	ret

ffffffff84004fa6 <getReceiveSlots>:
ffffffff84004fa6:	c5b5                	beqz	a1,ffffffff84005012 <getReceiveSlots+0x6c>
ffffffff84004fa8:	87ae                	mv	a5,a1
ffffffff84004faa:	c0057513          	and	a0,a0,-1024
ffffffff84004fae:	610c                	ld	a1,0(a0)
ffffffff84004fb0:	6510                	ld	a2,8(a0)
ffffffff84004fb2:	3e87b683          	ld	a3,1000(a5)
ffffffff84004fb6:	715d                	add	sp,sp,-80
ffffffff84004fb8:	04000713          	li	a4,64
ffffffff84004fbc:	0828                	add	a0,sp,24
ffffffff84004fbe:	e0a2                	sd	s0,64(sp)
ffffffff84004fc0:	fc26                	sd	s1,56(sp)
ffffffff84004fc2:	3f07b403          	ld	s0,1008(a5)
ffffffff84004fc6:	3f87b483          	ld	s1,1016(a5)
ffffffff84004fca:	e486                	sd	ra,72(sp)
ffffffff84004fcc:	e42e                	sd	a1,8(sp)
ffffffff84004fce:	e832                	sd	a2,16(sp)
ffffffff84004fd0:	889ff0ef          	jal	ffffffff84004858 <resolveAddressBits>
ffffffff84004fd4:	6762                	ld	a4,24(sp)
ffffffff84004fd6:	7782                	ld	a5,32(sp)
ffffffff84004fd8:	e71d                	bnez	a4,ffffffff84005006 <getReceiveSlots+0x60>
ffffffff84004fda:	6790                	ld	a2,8(a5)
ffffffff84004fdc:	638c                	ld	a1,0(a5)
ffffffff84004fde:	8726                	mv	a4,s1
ffffffff84004fe0:	86a2                	mv	a3,s0
ffffffff84004fe2:	4501                	li	a0,0
ffffffff84004fe4:	e42e                	sd	a1,8(sp)
ffffffff84004fe6:	e832                	sd	a2,16(sp)
ffffffff84004fe8:	98bff0ef          	jal	ffffffff84004972 <lookupSlotForCNodeOp>
ffffffff84004fec:	87aa                	mv	a5,a0
ffffffff84004fee:	ec2a                	sd	a0,24(sp)
ffffffff84004ff0:	f02e                	sd	a1,32(sp)
ffffffff84004ff2:	852e                	mv	a0,a1
ffffffff84004ff4:	eb89                	bnez	a5,ffffffff84005006 <getReceiveSlots+0x60>
ffffffff84004ff6:	619c                	ld	a5,0(a1)
ffffffff84004ff8:	93ed                	srl	a5,a5,0x3b
ffffffff84004ffa:	e791                	bnez	a5,ffffffff84005006 <getReceiveSlots+0x60>
ffffffff84004ffc:	60a6                	ld	ra,72(sp)
ffffffff84004ffe:	6406                	ld	s0,64(sp)
ffffffff84005000:	74e2                	ld	s1,56(sp)
ffffffff84005002:	6161                	add	sp,sp,80
ffffffff84005004:	8082                	ret
ffffffff84005006:	60a6                	ld	ra,72(sp)
ffffffff84005008:	6406                	ld	s0,64(sp)
ffffffff8400500a:	74e2                	ld	s1,56(sp)
ffffffff8400500c:	4501                	li	a0,0
ffffffff8400500e:	6161                	add	sp,sp,80
ffffffff84005010:	8082                	ret
ffffffff84005012:	4501                	li	a0,0
ffffffff84005014:	8082                	ret

ffffffff84005016 <loadCapTransfer>:
ffffffff84005016:	3f05b683          	ld	a3,1008(a1)
ffffffff8400501a:	3f85b703          	ld	a4,1016(a1)
ffffffff8400501e:	3e85b603          	ld	a2,1000(a1)
ffffffff84005022:	e514                	sd	a3,8(a0)
ffffffff84005024:	e918                	sd	a4,16(a0)
ffffffff84005026:	e110                	sd	a2,0(a0)
ffffffff84005028:	8082                	ret

ffffffff8400502a <replyFromKernel_success_empty>:
ffffffff8400502a:	04053423          	sd	zero,72(a0)
ffffffff8400502e:	04053823          	sd	zero,80(a0)
ffffffff84005032:	8082                	ret

ffffffff84005034 <invokeIRQControl>:
ffffffff84005034:	00351793          	sll	a5,a0,0x3
ffffffff84005038:	00006717          	auipc	a4,0x6
ffffffff8400503c:	b4870713          	add	a4,a4,-1208 # ffffffff8400ab80 <intStateIRQTable>
ffffffff84005040:	973e                	add	a4,a4,a5
ffffffff84005042:	4785                	li	a5,1
ffffffff84005044:	e31c                	sd	a5,0(a4)
ffffffff84005046:	03600713          	li	a4,54
ffffffff8400504a:	06e51363          	bne	a0,a4,ffffffff840050b0 <invokeIRQControl+0x7c>
ffffffff8400504e:	02000793          	li	a5,32
ffffffff84005052:	1047a7f3          	csrrs	a5,sie,a5
ffffffff84005056:	6218                	ld	a4,0(a2)
ffffffff84005058:	6e1c                	ld	a5,24(a2)
ffffffff8400505a:	56fd                	li	a3,-1
ffffffff8400505c:	936d                	srl	a4,a4,0x3b
ffffffff8400505e:	1749                	add	a4,a4,-14
ffffffff84005060:	00173713          	seqz	a4,a4
ffffffff84005064:	00171813          	sll	a6,a4,0x1
ffffffff84005068:	9bf1                	and	a5,a5,-4
ffffffff8400506a:	0107e7b3          	or	a5,a5,a6
ffffffff8400506e:	1552                	sll	a0,a0,0x34
ffffffff84005070:	8fd9                	or	a5,a5,a4
ffffffff84005072:	9151                	srl	a0,a0,0x34
ffffffff84005074:	03f69713          	sll	a4,a3,0x3f
ffffffff84005078:	e588                	sd	a0,8(a1)
ffffffff8400507a:	ed9c                	sd	a5,24(a1)
ffffffff8400507c:	e198                	sd	a4,0(a1)
ffffffff8400507e:	e990                	sd	a2,16(a1)
ffffffff84005080:	6e18                	ld	a4,24(a2)
ffffffff84005082:	169e                	sll	a3,a3,0x27
ffffffff84005084:	f8000537          	lui	a0,0xf8000
ffffffff84005088:	8165                	srl	a0,a0,0x19
ffffffff8400508a:	00368813          	add	a6,a3,3 # fffffffff8000003 <ki_end+0x73fde003>
ffffffff8400508e:	01077733          	and	a4,a4,a6
ffffffff84005092:	00a5f833          	and	a6,a1,a0
ffffffff84005096:	01076733          	or	a4,a4,a6
ffffffff8400509a:	0267d813          	srl	a6,a5,0x26
ffffffff8400509e:	ee18                	sd	a4,24(a2)
ffffffff840050a0:	00187713          	and	a4,a6,1
ffffffff840050a4:	8fe9                	and	a5,a5,a0
ffffffff840050a6:	c715                	beqz	a4,ffffffff840050d2 <invokeIRQControl+0x9e>
ffffffff840050a8:	8fd5                	or	a5,a5,a3
ffffffff840050aa:	eb8c                	sd	a1,16(a5)
ffffffff840050ac:	4501                	li	a0,0
ffffffff840050ae:	8082                	ret
ffffffff840050b0:	00555713          	srl	a4,a0,0x5
ffffffff840050b4:	c02026b7          	lui	a3,0xc0202
ffffffff840050b8:	10068693          	add	a3,a3,256 # ffffffffc0202100 <ki_end+0x3c1e0100>
ffffffff840050bc:	070a                	sll	a4,a4,0x2
ffffffff840050be:	9736                	add	a4,a4,a3
ffffffff840050c0:	4314                	lw	a3,0(a4)
ffffffff840050c2:	01f57813          	and	a6,a0,31
ffffffff840050c6:	010797b3          	sll	a5,a5,a6
ffffffff840050ca:	8fd5                	or	a5,a5,a3
ffffffff840050cc:	2781                	sext.w	a5,a5
ffffffff840050ce:	c31c                	sw	a5,0(a4)
ffffffff840050d0:	b759                	j	ffffffff84005056 <invokeIRQControl+0x22>
ffffffff840050d2:	ffe1                	bnez	a5,ffffffff840050aa <invokeIRQControl+0x76>
ffffffff840050d4:	bfe1                	j	ffffffff840050ac <invokeIRQControl+0x78>

ffffffff840050d6 <invokeIRQHandler_AckIRQ>:
ffffffff840050d6:	2501                	sext.w	a0,a0
ffffffff840050d8:	c04027b7          	lui	a5,0xc0402
ffffffff840050dc:	c3c8                	sw	a0,4(a5)
ffffffff840050de:	8082                	ret

ffffffff840050e0 <deletedIRQHandler>:
ffffffff840050e0:	00351713          	sll	a4,a0,0x3
ffffffff840050e4:	00006797          	auipc	a5,0x6
ffffffff840050e8:	a9c78793          	add	a5,a5,-1380 # ffffffff8400ab80 <intStateIRQTable>
ffffffff840050ec:	97ba                	add	a5,a5,a4
ffffffff840050ee:	0007b023          	sd	zero,0(a5)
ffffffff840050f2:	03600793          	li	a5,54
ffffffff840050f6:	00f51763          	bne	a0,a5,ffffffff84005104 <deletedIRQHandler+0x24>
ffffffff840050fa:	02000793          	li	a5,32
ffffffff840050fe:	1047b7f3          	csrrc	a5,sie,a5
ffffffff84005102:	8082                	ret
ffffffff84005104:	00555713          	srl	a4,a0,0x5
ffffffff84005108:	c02027b7          	lui	a5,0xc0202
ffffffff8400510c:	10078793          	add	a5,a5,256 # ffffffffc0202100 <ki_end+0x3c1e0100>
ffffffff84005110:	070a                	sll	a4,a4,0x2
ffffffff84005112:	973e                	add	a4,a4,a5
ffffffff84005114:	4314                	lw	a3,0(a4)
ffffffff84005116:	897d                	and	a0,a0,31
ffffffff84005118:	4785                	li	a5,1
ffffffff8400511a:	00a797b3          	sll	a5,a5,a0
ffffffff8400511e:	fff7c793          	not	a5,a5
ffffffff84005122:	8ff5                	and	a5,a5,a3
ffffffff84005124:	2781                	sext.w	a5,a5
ffffffff84005126:	c31c                	sw	a5,0(a4)
ffffffff84005128:	8082                	ret

ffffffff8400512a <isIRQActive>:
ffffffff8400512a:	050e                	sll	a0,a0,0x3
ffffffff8400512c:	00006797          	auipc	a5,0x6
ffffffff84005130:	a5478793          	add	a5,a5,-1452 # ffffffff8400ab80 <intStateIRQTable>
ffffffff84005134:	97aa                	add	a5,a5,a0
ffffffff84005136:	6388                	ld	a0,0(a5)
ffffffff84005138:	00a03533          	snez	a0,a0
ffffffff8400513c:	8082                	ret

ffffffff8400513e <setIRQState>:
ffffffff8400513e:	00359713          	sll	a4,a1,0x3
ffffffff84005142:	00006797          	auipc	a5,0x6
ffffffff84005146:	a3e78793          	add	a5,a5,-1474 # ffffffff8400ab80 <intStateIRQTable>
ffffffff8400514a:	97ba                	add	a5,a5,a4
ffffffff8400514c:	e388                	sd	a0,0(a5)
ffffffff8400514e:	03600793          	li	a5,54
ffffffff84005152:	00f59b63          	bne	a1,a5,ffffffff84005168 <setIRQState+0x2a>
ffffffff84005156:	02000793          	li	a5,32
ffffffff8400515a:	e501                	bnez	a0,ffffffff84005162 <setIRQState+0x24>
ffffffff8400515c:	1047b7f3          	csrrc	a5,sie,a5
ffffffff84005160:	8082                	ret
ffffffff84005162:	1047a7f3          	csrrs	a5,sie,a5
ffffffff84005166:	8082                	ret
ffffffff84005168:	0055d793          	srl	a5,a1,0x5
ffffffff8400516c:	c0202737          	lui	a4,0xc0202
ffffffff84005170:	10070713          	add	a4,a4,256 # ffffffffc0202100 <ki_end+0x3c1e0100>
ffffffff84005174:	078a                	sll	a5,a5,0x2
ffffffff84005176:	97ba                	add	a5,a5,a4
ffffffff84005178:	4394                	lw	a3,0(a5)
ffffffff8400517a:	4705                	li	a4,1
ffffffff8400517c:	00b7173b          	sllw	a4,a4,a1
ffffffff84005180:	2681                	sext.w	a3,a3
ffffffff84005182:	00d76633          	or	a2,a4,a3
ffffffff84005186:	e509                	bnez	a0,ffffffff84005190 <setIRQState+0x52>
ffffffff84005188:	fff74713          	not	a4,a4
ffffffff8400518c:	00d77633          	and	a2,a4,a3
ffffffff84005190:	c390                	sw	a2,0(a5)
ffffffff84005192:	8082                	ret

ffffffff84005194 <completeSignal>:
ffffffff84005194:	cd81                	beqz	a1,ffffffff840051ac <completeSignal+0x18>
ffffffff84005196:	611c                	ld	a5,0(a0)
ffffffff84005198:	4709                	li	a4,2
ffffffff8400519a:	0037f693          	and	a3,a5,3
ffffffff8400519e:	00e69763          	bne	a3,a4,ffffffff840051ac <completeSignal+0x18>
ffffffff840051a2:	6918                	ld	a4,16(a0)
ffffffff840051a4:	9bf1                	and	a5,a5,-4
ffffffff840051a6:	e5b8                	sd	a4,72(a1)
ffffffff840051a8:	e11c                	sd	a5,0(a0)
ffffffff840051aa:	8082                	ret
ffffffff840051ac:	1141                	add	sp,sp,-16
ffffffff840051ae:	e406                	sd	ra,8(sp)
ffffffff840051b0:	a87fe0ef          	jal	ffffffff84003c36 <halt>

ffffffff840051b4 <unbindMaybeNotification>:
ffffffff840051b4:	6d1c                	ld	a5,24(a0)
ffffffff840051b6:	56fd                	li	a3,-1
ffffffff840051b8:	0196d713          	srl	a4,a3,0x19
ffffffff840051bc:	0267d613          	srl	a2,a5,0x26
ffffffff840051c0:	8a05                	and	a2,a2,1
ffffffff840051c2:	8f7d                	and	a4,a4,a5
ffffffff840051c4:	ca09                	beqz	a2,ffffffff840051d6 <unbindMaybeNotification+0x22>
ffffffff840051c6:	169e                	sll	a3,a3,0x27
ffffffff840051c8:	8f55                	or	a4,a4,a3
ffffffff840051ca:	939d                	srl	a5,a5,0x27
ffffffff840051cc:	179e                	sll	a5,a5,0x27
ffffffff840051ce:	ed1c                	sd	a5,24(a0)
ffffffff840051d0:	12073823          	sd	zero,304(a4)
ffffffff840051d4:	8082                	ret
ffffffff840051d6:	fb75                	bnez	a4,ffffffff840051ca <unbindMaybeNotification+0x16>
ffffffff840051d8:	8082                	ret

ffffffff840051da <unbindNotification>:
ffffffff840051da:	13053703          	ld	a4,304(a0) # fffffffff8000130 <ki_end+0x73fde130>
ffffffff840051de:	c719                	beqz	a4,ffffffff840051ec <unbindNotification+0x12>
ffffffff840051e0:	6f1c                	ld	a5,24(a4)
ffffffff840051e2:	939d                	srl	a5,a5,0x27
ffffffff840051e4:	179e                	sll	a5,a5,0x27
ffffffff840051e6:	ef1c                	sd	a5,24(a4)
ffffffff840051e8:	12053823          	sd	zero,304(a0)
ffffffff840051ec:	8082                	ret

ffffffff840051ee <bindNotification>:
ffffffff840051ee:	6d98                	ld	a4,24(a1)
ffffffff840051f0:	57fd                	li	a5,-1
ffffffff840051f2:	02779693          	sll	a3,a5,0x27
ffffffff840051f6:	83e5                	srl	a5,a5,0x19
ffffffff840051f8:	8f75                	and	a4,a4,a3
ffffffff840051fa:	8fe9                	and	a5,a5,a0
ffffffff840051fc:	8f5d                	or	a4,a4,a5
ffffffff840051fe:	ed98                	sd	a4,24(a1)
ffffffff84005200:	12b53823          	sd	a1,304(a0)
ffffffff84005204:	8082                	ret

ffffffff84005206 <getObjectSize>:
ffffffff84005206:	4711                	li	a4,4
ffffffff84005208:	87aa                	mv	a5,a0
ffffffff8400520a:	00a77f63          	bgeu	a4,a0,ffffffff84005228 <getObjectSize+0x22>
ffffffff8400520e:	ffb50793          	add	a5,a0,-5
ffffffff84005212:	470d                	li	a4,3
ffffffff84005214:	02f76c63          	bltu	a4,a5,ffffffff8400524c <getObjectSize+0x46>
ffffffff84005218:	00006717          	auipc	a4,0x6
ffffffff8400521c:	89870713          	add	a4,a4,-1896 # ffffffff8400aab0 <_sdata>
ffffffff84005220:	078e                	sll	a5,a5,0x3
ffffffff84005222:	97ba                	add	a5,a5,a4
ffffffff84005224:	6388                	ld	a0,0(a5)
ffffffff84005226:	8082                	ret
ffffffff84005228:	468d                	li	a3,3
ffffffff8400522a:	00d50f63          	beq	a0,a3,ffffffff84005248 <getObjectSize+0x42>
ffffffff8400522e:	00558513          	add	a0,a1,5
ffffffff84005232:	00e78a63          	beq	a5,a4,ffffffff84005246 <getObjectSize+0x40>
ffffffff84005236:	4705                	li	a4,1
ffffffff84005238:	4529                	li	a0,10
ffffffff8400523a:	00e78663          	beq	a5,a4,ffffffff84005246 <getObjectSize+0x40>
ffffffff8400523e:	4709                	li	a4,2
ffffffff84005240:	4511                	li	a0,4
ffffffff84005242:	00e79963          	bne	a5,a4,ffffffff84005254 <getObjectSize+0x4e>
ffffffff84005246:	8082                	ret
ffffffff84005248:	4515                	li	a0,5
ffffffff8400524a:	8082                	ret
ffffffff8400524c:	1141                	add	sp,sp,-16
ffffffff8400524e:	e406                	sd	ra,8(sp)
ffffffff84005250:	9e7fe0ef          	jal	ffffffff84003c36 <halt>
ffffffff84005254:	852e                	mv	a0,a1
ffffffff84005256:	8082                	ret

ffffffff84005258 <hasCancelSendRights>:
ffffffff84005258:	03b55693          	srl	a3,a0,0x3b
ffffffff8400525c:	4711                	li	a4,4
ffffffff8400525e:	1141                	add	sp,sp,-16
ffffffff84005260:	00e68563          	beq	a3,a4,ffffffff8400526a <hasCancelSendRights+0x12>
ffffffff84005264:	4501                	li	a0,0
ffffffff84005266:	0141                	add	sp,sp,16
ffffffff84005268:	8082                	ret
ffffffff8400526a:	470d                	li	a4,3
ffffffff8400526c:	175e                	sll	a4,a4,0x37
ffffffff8400526e:	00e576b3          	and	a3,a0,a4
ffffffff84005272:	87aa                	mv	a5,a0
ffffffff84005274:	4501                	li	a0,0
ffffffff84005276:	fee698e3          	bne	a3,a4,ffffffff84005266 <hasCancelSendRights+0xe>
ffffffff8400527a:	03a7d713          	srl	a4,a5,0x3a
ffffffff8400527e:	46a1                	li	a3,8
ffffffff84005280:	fed703e3          	beq	a4,a3,ffffffff84005266 <hasCancelSendRights+0xe>
ffffffff84005284:	93e5                	srl	a5,a5,0x39
ffffffff84005286:	fee78513          	add	a0,a5,-18
ffffffff8400528a:	bff1                	j	ffffffff84005266 <hasCancelSendRights+0xe>

ffffffff8400528c <updateCapData>:
ffffffff8400528c:	03b65793          	srl	a5,a2,0x3b
ffffffff84005290:	0017f713          	and	a4,a5,1
ffffffff84005294:	1101                	add	sp,sp,-32
ffffffff84005296:	eb11                	bnez	a4,ffffffff840052aa <updateCapData+0x1e>
ffffffff84005298:	4719                	li	a4,6
ffffffff8400529a:	00e78e63          	beq	a5,a4,ffffffff840052b6 <updateCapData+0x2a>
ffffffff8400529e:	4729                	li	a4,10
ffffffff840052a0:	02e78963          	beq	a5,a4,ffffffff840052d2 <updateCapData+0x46>
ffffffff840052a4:	4711                	li	a4,4
ffffffff840052a6:	00e78863          	beq	a5,a4,ffffffff840052b6 <updateCapData+0x2a>
ffffffff840052aa:	e832                	sd	a2,16(sp)
ffffffff840052ac:	ec36                	sd	a3,24(sp)
ffffffff840052ae:	6542                	ld	a0,16(sp)
ffffffff840052b0:	65e2                	ld	a1,24(sp)
ffffffff840052b2:	6105                	add	sp,sp,32
ffffffff840052b4:	8082                	ret
ffffffff840052b6:	8d55                	or	a0,a0,a3
ffffffff840052b8:	e519                	bnez	a0,ffffffff840052c6 <updateCapData+0x3a>
ffffffff840052ba:	e832                	sd	a2,16(sp)
ffffffff840052bc:	ec2e                	sd	a1,24(sp)
ffffffff840052be:	6542                	ld	a0,16(sp)
ffffffff840052c0:	65e2                	ld	a1,24(sp)
ffffffff840052c2:	6105                	add	sp,sp,32
ffffffff840052c4:	8082                	ret
ffffffff840052c6:	e802                	sd	zero,16(sp)
ffffffff840052c8:	ec02                	sd	zero,24(sp)
ffffffff840052ca:	6542                	ld	a0,16(sp)
ffffffff840052cc:	65e2                	ld	a1,24(sp)
ffffffff840052ce:	6105                	add	sp,sp,32
ffffffff840052d0:	8082                	ret
ffffffff840052d2:	02f65793          	srl	a5,a2,0x2f
ffffffff840052d6:	03f5f713          	and	a4,a1,63
ffffffff840052da:	03f7f793          	and	a5,a5,63
ffffffff840052de:	97ba                	add	a5,a5,a4
ffffffff840052e0:	04000693          	li	a3,64
ffffffff840052e4:	fef6e1e3          	bltu	a3,a5,ffffffff840052c6 <updateCapData+0x3a>
ffffffff840052e8:	fc100793          	li	a5,-63
ffffffff840052ec:	56fd                	li	a3,-1
ffffffff840052ee:	17d6                	sll	a5,a5,0x35
ffffffff840052f0:	00e696b3          	sll	a3,a3,a4
ffffffff840052f4:	17fd                	add	a5,a5,-1
ffffffff840052f6:	1756                	sll	a4,a4,0x35
ffffffff840052f8:	8ff1                	and	a5,a5,a2
ffffffff840052fa:	fff6c693          	not	a3,a3
ffffffff840052fe:	8199                	srl	a1,a1,0x6
ffffffff84005300:	8fd9                	or	a5,a5,a4
ffffffff84005302:	00b6f733          	and	a4,a3,a1
ffffffff84005306:	e83e                	sd	a5,16(sp)
ffffffff84005308:	ec3a                	sd	a4,24(sp)
ffffffff8400530a:	b755                	j	ffffffff840052ae <updateCapData+0x22>

ffffffff8400530c <maskCapRights>:
ffffffff8400530c:	03b5d793          	srl	a5,a1,0x3b
ffffffff84005310:	0017f893          	and	a7,a5,1
ffffffff84005314:	0c089c63          	bnez	a7,ffffffff840053ec <maskCapRights+0xe0>
ffffffff84005318:	7179                	add	sp,sp,-48
ffffffff8400531a:	8832                	mv	a6,a2
ffffffff8400531c:	f406                	sd	ra,40(sp)
ffffffff8400531e:	4651                	li	a2,20
ffffffff84005320:	02f66763          	bltu	a2,a5,ffffffff8400534e <maskCapRights+0x42>
ffffffff84005324:	4615                	li	a2,5
ffffffff84005326:	86ae                	mv	a3,a1
ffffffff84005328:	872a                	mv	a4,a0
ffffffff8400532a:	02f67463          	bgeu	a2,a5,ffffffff84005352 <maskCapRights+0x46>
ffffffff8400532e:	4505                	li	a0,1
ffffffff84005330:	001555b7          	lui	a1,0x155
ffffffff84005334:	00f51633          	sll	a2,a0,a5
ffffffff84005338:	40058593          	add	a1,a1,1024 # 155400 <KERNEL_OFFSET-0xfffffffeffeaac00>
ffffffff8400533c:	8e6d                	and	a2,a2,a1
ffffffff8400533e:	2781                	sext.w	a5,a5
ffffffff84005340:	ee59                	bnez	a2,ffffffff840053de <maskCapRights+0xd2>
ffffffff84005342:	4621                	li	a2,8
ffffffff84005344:	0ec78363          	beq	a5,a2,ffffffff8400542a <maskCapRights+0x11e>
ffffffff84005348:	4619                	li	a2,6
ffffffff8400534a:	0ac78363          	beq	a5,a2,ffffffff840053f0 <maskCapRights+0xe4>
ffffffff8400534e:	8e9fe0ef          	jal	ffffffff84003c36 <halt>
ffffffff84005352:	4591                	li	a1,4
ffffffff84005354:	06b79f63          	bne	a5,a1,ffffffff840053d2 <maskCapRights+0xc6>
ffffffff84005358:	557d                	li	a0,-1
ffffffff8400535a:	0376d793          	srl	a5,a3,0x37
ffffffff8400535e:	4605                	li	a2,1
ffffffff84005360:	8ff9                	and	a5,a5,a4
ffffffff84005362:	03751893          	sll	a7,a0,0x37
ffffffff84005366:	8ff1                	and	a5,a5,a2
ffffffff84005368:	00175593          	srl	a1,a4,0x1
ffffffff8400536c:	0386de13          	srl	t3,a3,0x38
ffffffff84005370:	18fd                	add	a7,a7,-1
ffffffff84005372:	0116f8b3          	and	a7,a3,a7
ffffffff84005376:	03851313          	sll	t1,a0,0x38
ffffffff8400537a:	01c5f5b3          	and	a1,a1,t3
ffffffff8400537e:	17de                	sll	a5,a5,0x37
ffffffff84005380:	0117e7b3          	or	a5,a5,a7
ffffffff84005384:	137d                	add	t1,t1,-1
ffffffff84005386:	8df1                	and	a1,a1,a2
ffffffff84005388:	00275893          	srl	a7,a4,0x2
ffffffff8400538c:	0396de13          	srl	t3,a3,0x39
ffffffff84005390:	0067f7b3          	and	a5,a5,t1
ffffffff84005394:	15e2                	sll	a1,a1,0x38
ffffffff84005396:	03951313          	sll	t1,a0,0x39
ffffffff8400539a:	01c8f8b3          	and	a7,a7,t3
ffffffff8400539e:	8fcd                	or	a5,a5,a1
ffffffff840053a0:	011678b3          	and	a7,a2,a7
ffffffff840053a4:	03a6d593          	srl	a1,a3,0x3a
ffffffff840053a8:	137d                	add	t1,t1,-1
ffffffff840053aa:	830d                	srl	a4,a4,0x3
ffffffff840053ac:	8f6d                	and	a4,a4,a1
ffffffff840053ae:	0067f7b3          	and	a5,a5,t1
ffffffff840053b2:	18e6                	sll	a7,a7,0x39
ffffffff840053b4:	156a                	sll	a0,a0,0x3a
ffffffff840053b6:	157d                	add	a0,a0,-1
ffffffff840053b8:	0117e7b3          	or	a5,a5,a7
ffffffff840053bc:	8e79                	and	a2,a2,a4
ffffffff840053be:	70a2                	ld	ra,40(sp)
ffffffff840053c0:	8fe9                	and	a5,a5,a0
ffffffff840053c2:	166a                	sll	a2,a2,0x3a
ffffffff840053c4:	8fd1                	or	a5,a5,a2
ffffffff840053c6:	e83e                	sd	a5,16(sp)
ffffffff840053c8:	ec42                	sd	a6,24(sp)
ffffffff840053ca:	6542                	ld	a0,16(sp)
ffffffff840053cc:	65e2                	ld	a1,24(sp)
ffffffff840053ce:	6145                	add	sp,sp,48
ffffffff840053d0:	8082                	ret
ffffffff840053d2:	f6c78ee3          	beq	a5,a2,ffffffff8400534e <maskCapRights+0x42>
ffffffff840053d6:	9bf5                	and	a5,a5,-3
ffffffff840053d8:	4705                	li	a4,1
ffffffff840053da:	f6e78ae3          	beq	a5,a4,ffffffff8400534e <maskCapRights+0x42>
ffffffff840053de:	70a2                	ld	ra,40(sp)
ffffffff840053e0:	e836                	sd	a3,16(sp)
ffffffff840053e2:	ec42                	sd	a6,24(sp)
ffffffff840053e4:	6542                	ld	a0,16(sp)
ffffffff840053e6:	65e2                	ld	a1,24(sp)
ffffffff840053e8:	6145                	add	sp,sp,48
ffffffff840053ea:	8082                	ret
ffffffff840053ec:	850ff06f          	j	ffffffff8400443c <Arch_maskCapRights>
ffffffff840053f0:	567d                	li	a2,-1
ffffffff840053f2:	0396d793          	srl	a5,a3,0x39
ffffffff840053f6:	8ff9                	and	a5,a5,a4
ffffffff840053f8:	03961593          	sll	a1,a2,0x39
ffffffff840053fc:	8fe9                	and	a5,a5,a0
ffffffff840053fe:	15fd                	add	a1,a1,-1
ffffffff84005400:	03a6d893          	srl	a7,a3,0x3a
ffffffff84005404:	8305                	srl	a4,a4,0x1
ffffffff84005406:	8eed                	and	a3,a3,a1
ffffffff84005408:	17e6                	sll	a5,a5,0x39
ffffffff8400540a:	166a                	sll	a2,a2,0x3a
ffffffff8400540c:	01177733          	and	a4,a4,a7
ffffffff84005410:	8fd5                	or	a5,a5,a3
ffffffff84005412:	167d                	add	a2,a2,-1 # fffffffff7ffffff <ki_end+0x73fddfff>
ffffffff84005414:	8d79                	and	a0,a0,a4
ffffffff84005416:	70a2                	ld	ra,40(sp)
ffffffff84005418:	156a                	sll	a0,a0,0x3a
ffffffff8400541a:	8ff1                	and	a5,a5,a2
ffffffff8400541c:	8fc9                	or	a5,a5,a0
ffffffff8400541e:	e83e                	sd	a5,16(sp)
ffffffff84005420:	ec42                	sd	a6,24(sp)
ffffffff84005422:	6542                	ld	a0,16(sp)
ffffffff84005424:	65e2                	ld	a1,24(sp)
ffffffff84005426:	6145                	add	sp,sp,48
ffffffff84005428:	8082                	ret
ffffffff8400542a:	00275793          	srl	a5,a4,0x2
ffffffff8400542e:	0016d713          	srl	a4,a3,0x1
ffffffff84005432:	8ff9                	and	a5,a5,a4
ffffffff84005434:	0786                	sll	a5,a5,0x1
ffffffff84005436:	70a2                	ld	ra,40(sp)
ffffffff84005438:	ffd6f593          	and	a1,a3,-3
ffffffff8400543c:	8b89                	and	a5,a5,2
ffffffff8400543e:	8fcd                	or	a5,a5,a1
ffffffff84005440:	e83e                	sd	a5,16(sp)
ffffffff84005442:	ec42                	sd	a6,24(sp)
ffffffff84005444:	6542                	ld	a0,16(sp)
ffffffff84005446:	65e2                	ld	a1,24(sp)
ffffffff84005448:	6145                	add	sp,sp,48
ffffffff8400544a:	8082                	ret

ffffffff8400544c <createObject>:
ffffffff8400544c:	4311                	li	t1,4
ffffffff8400544e:	02a36d63          	bltu	t1,a0,ffffffff84005488 <createObject+0x3c>
ffffffff84005452:	88b6                	mv	a7,a3
ffffffff84005454:	468d                	li	a3,3
ffffffff84005456:	1141                	add	sp,sp,-16
ffffffff84005458:	0ad50463          	beq	a0,a3,ffffffff84005500 <createObject+0xb4>
ffffffff8400545c:	8832                	mv	a6,a2
ffffffff8400545e:	04650f63          	beq	a0,t1,ffffffff840054bc <createObject+0x70>
ffffffff84005462:	4605                	li	a2,1
ffffffff84005464:	02c50463          	beq	a0,a2,ffffffff8400548c <createObject+0x40>
ffffffff84005468:	4689                	li	a3,2
ffffffff8400546a:	06d51963          	bne	a0,a3,ffffffff840054dc <createObject+0x90>
ffffffff8400546e:	01959793          	sll	a5,a1,0x19
ffffffff84005472:	04f00713          	li	a4,79
ffffffff84005476:	83e5                	srl	a5,a5,0x19
ffffffff84005478:	175e                	sll	a4,a4,0x37
ffffffff8400547a:	8fd9                	or	a5,a5,a4
ffffffff8400547c:	e03e                	sd	a5,0(sp)
ffffffff8400547e:	e402                	sd	zero,8(sp)
ffffffff84005480:	6502                	ld	a0,0(sp)
ffffffff84005482:	65a2                	ld	a1,8(sp)
ffffffff84005484:	0141                	add	sp,sp,16
ffffffff84005486:	8082                	ret
ffffffff84005488:	b42ff06f          	j	ffffffff840047ca <Arch_createObject>
ffffffff8400548c:	20058593          	add	a1,a1,512
ffffffff84005490:	01959793          	sll	a5,a1,0x19
ffffffff84005494:	02000713          	li	a4,32
ffffffff84005498:	10e5b023          	sd	a4,256(a1)
ffffffff8400549c:	83e5                	srl	a5,a5,0x19
ffffffff8400549e:	4715                	li	a4,5
ffffffff840054a0:	16f6                	sll	a3,a3,0x3d
ffffffff840054a2:	16e5b823          	sd	a4,368(a1)
ffffffff840054a6:	8fd5                	or	a5,a5,a3
ffffffff840054a8:	8c81b703          	ld	a4,-1848(gp) # ffffffff8400ab78 <ksCurDomain>
ffffffff840054ac:	e03e                	sd	a5,0(sp)
ffffffff840054ae:	e402                	sd	zero,8(sp)
ffffffff840054b0:	14e5bc23          	sd	a4,344(a1)
ffffffff840054b4:	6502                	ld	a0,0(sp)
ffffffff840054b6:	65a2                	ld	a1,8(sp)
ffffffff840054b8:	0141                	add	sp,sp,16
ffffffff840054ba:	8082                	ret
ffffffff840054bc:	03f67613          	and	a2,a2,63
ffffffff840054c0:	05e6                	sll	a1,a1,0x19
ffffffff840054c2:	81e9                	srl	a1,a1,0x1a
ffffffff840054c4:	02f61793          	sll	a5,a2,0x2f
ffffffff840054c8:	4715                	li	a4,5
ffffffff840054ca:	8fcd                	or	a5,a5,a1
ffffffff840054cc:	1772                	sll	a4,a4,0x3c
ffffffff840054ce:	8fd9                	or	a5,a5,a4
ffffffff840054d0:	e03e                	sd	a5,0(sp)
ffffffff840054d2:	e402                	sd	zero,8(sp)
ffffffff840054d4:	6502                	ld	a0,0(sp)
ffffffff840054d6:	65a2                	ld	a1,8(sp)
ffffffff840054d8:	0141                	add	sp,sp,16
ffffffff840054da:	8082                	ret
ffffffff840054dc:	01959793          	sll	a5,a1,0x19
ffffffff840054e0:	011036b3          	snez	a3,a7
ffffffff840054e4:	03c61713          	sll	a4,a2,0x3c
ffffffff840054e8:	83e5                	srl	a5,a5,0x19
ffffffff840054ea:	069a                	sll	a3,a3,0x6
ffffffff840054ec:	03f87613          	and	a2,a6,63
ffffffff840054f0:	8fd9                	or	a5,a5,a4
ffffffff840054f2:	8ed1                	or	a3,a3,a2
ffffffff840054f4:	e03e                	sd	a5,0(sp)
ffffffff840054f6:	e436                	sd	a3,8(sp)
ffffffff840054f8:	6502                	ld	a0,0(sp)
ffffffff840054fa:	65a2                	ld	a1,8(sp)
ffffffff840054fc:	0141                	add	sp,sp,16
ffffffff840054fe:	8082                	ret
ffffffff84005500:	01959793          	sll	a5,a1,0x19
ffffffff84005504:	476d                	li	a4,27
ffffffff84005506:	83e5                	srl	a5,a5,0x19
ffffffff84005508:	1766                	sll	a4,a4,0x39
ffffffff8400550a:	8fd9                	or	a5,a5,a4
ffffffff8400550c:	e03e                	sd	a5,0(sp)
ffffffff8400550e:	e402                	sd	zero,8(sp)
ffffffff84005510:	6502                	ld	a0,0(sp)
ffffffff84005512:	65a2                	ld	a1,8(sp)
ffffffff84005514:	0141                	add	sp,sp,16
ffffffff84005516:	8082                	ret

ffffffff84005518 <createNewObjects>:
ffffffff84005518:	7175                	add	sp,sp,-144
ffffffff8400551a:	e4de                	sd	s7,72(sp)
ffffffff8400551c:	8bb6                	mv	s7,a3
ffffffff8400551e:	e122                	sd	s0,128(sp)
ffffffff84005520:	fca6                	sd	s1,120(sp)
ffffffff84005522:	f86a                	sd	s10,48(sp)
ffffffff84005524:	8432                	mv	s0,a2
ffffffff84005526:	8d2e                	mv	s10,a1
ffffffff84005528:	84ba                	mv	s1,a4
ffffffff8400552a:	85c2                	mv	a1,a6
ffffffff8400552c:	0b96                	sll	s7,s7,0x5
ffffffff8400552e:	f8ca                	sd	s2,112(sp)
ffffffff84005530:	ecd6                	sd	s5,88(sp)
ffffffff84005532:	e8da                	sd	s6,80(sp)
ffffffff84005534:	e506                	sd	ra,136(sp)
ffffffff84005536:	f4ce                	sd	s3,104(sp)
ffffffff84005538:	f0d2                	sd	s4,96(sp)
ffffffff8400553a:	e0e2                	sd	s8,64(sp)
ffffffff8400553c:	fc66                	sd	s9,56(sp)
ffffffff8400553e:	f46e                	sd	s11,40(sp)
ffffffff84005540:	8942                	mv	s2,a6
ffffffff84005542:	e42a                	sd	a0,8(sp)
ffffffff84005544:	8abe                	mv	s5,a5
ffffffff84005546:	8b46                	mv	s6,a7
ffffffff84005548:	945e                	add	s0,s0,s7
ffffffff8400554a:	cbdff0ef          	jal	ffffffff84005206 <getObjectSize>
ffffffff8400554e:	c4b5                	beqz	s1,ffffffff840055ba <createNewObjects+0xa2>
ffffffff84005550:	5bfd                	li	s7,-1
ffffffff84005552:	1b9e                	sll	s7,s7,0x27
ffffffff84005554:	f8000737          	lui	a4,0xf8000
ffffffff84005558:	4c05                	li	s8,1
ffffffff8400555a:	0005099b          	sext.w	s3,a0
ffffffff8400555e:	4d81                	li	s11,0
ffffffff84005560:	01975a13          	srl	s4,a4,0x19
ffffffff84005564:	1c1a                	sll	s8,s8,0x26
ffffffff84005566:	003b8c93          	add	s9,s7,3
ffffffff8400556a:	6522                	ld	a0,8(sp)
ffffffff8400556c:	013d95b3          	sll	a1,s11,s3
ffffffff84005570:	86da                	mv	a3,s6
ffffffff84005572:	864a                	mv	a2,s2
ffffffff84005574:	95d6                	add	a1,a1,s5
ffffffff84005576:	ed7ff0ef          	jal	ffffffff8400544c <createObject>
ffffffff8400557a:	018d3303          	ld	t1,24(s10)
ffffffff8400557e:	018377b3          	and	a5,t1,s8
ffffffff84005582:	01437333          	and	t1,t1,s4
ffffffff84005586:	00336693          	or	a3,t1,3
ffffffff8400558a:	c7b9                	beqz	a5,ffffffff840055d8 <createNewObjects+0xc0>
ffffffff8400558c:	01736333          	or	t1,t1,s7
ffffffff84005590:	e008                	sd	a0,0(s0)
ffffffff84005592:	e40c                	sd	a1,8(s0)
ffffffff84005594:	01a43823          	sd	s10,16(s0)
ffffffff84005598:	ec14                	sd	a3,24(s0)
ffffffff8400559a:	00833823          	sd	s0,16(t1)
ffffffff8400559e:	018d3783          	ld	a5,24(s10)
ffffffff840055a2:	014476b3          	and	a3,s0,s4
ffffffff840055a6:	0d85                	add	s11,s11,1
ffffffff840055a8:	0197f7b3          	and	a5,a5,s9
ffffffff840055ac:	8fd5                	or	a5,a5,a3
ffffffff840055ae:	00fd3c23          	sd	a5,24(s10)
ffffffff840055b2:	02040413          	add	s0,s0,32
ffffffff840055b6:	fbb49ae3          	bne	s1,s11,ffffffff8400556a <createNewObjects+0x52>
ffffffff840055ba:	60aa                	ld	ra,136(sp)
ffffffff840055bc:	640a                	ld	s0,128(sp)
ffffffff840055be:	74e6                	ld	s1,120(sp)
ffffffff840055c0:	7946                	ld	s2,112(sp)
ffffffff840055c2:	79a6                	ld	s3,104(sp)
ffffffff840055c4:	7a06                	ld	s4,96(sp)
ffffffff840055c6:	6ae6                	ld	s5,88(sp)
ffffffff840055c8:	6b46                	ld	s6,80(sp)
ffffffff840055ca:	6ba6                	ld	s7,72(sp)
ffffffff840055cc:	6c06                	ld	s8,64(sp)
ffffffff840055ce:	7ce2                	ld	s9,56(sp)
ffffffff840055d0:	7d42                	ld	s10,48(sp)
ffffffff840055d2:	7da2                	ld	s11,40(sp)
ffffffff840055d4:	6149                	add	sp,sp,144
ffffffff840055d6:	8082                	ret
ffffffff840055d8:	00336793          	or	a5,t1,3
ffffffff840055dc:	e008                	sd	a0,0(s0)
ffffffff840055de:	e40c                	sd	a1,8(s0)
ffffffff840055e0:	01a43823          	sd	s10,16(s0)
ffffffff840055e4:	ec1c                	sd	a5,24(s0)
ffffffff840055e6:	fa030ce3          	beqz	t1,ffffffff8400559e <createNewObjects+0x86>
ffffffff840055ea:	bf45                	j	ffffffff8400559a <createNewObjects+0x82>

ffffffff840055ec <cap_get_capSizeBits>:
ffffffff840055ec:	1101                	add	sp,sp,-32
ffffffff840055ee:	03b55693          	srl	a3,a0,0x3b
ffffffff840055f2:	ec06                	sd	ra,24(sp)
ffffffff840055f4:	e42e                	sd	a1,8(sp)
ffffffff840055f6:	4751                	li	a4,20
ffffffff840055f8:	87aa                	mv	a5,a0
ffffffff840055fa:	8636                	mv	a2,a3
ffffffff840055fc:	02d76063          	bltu	a4,a3,ffffffff8400561c <cap_get_capSizeBits+0x30>
ffffffff84005600:	00006697          	auipc	a3,0x6
ffffffff84005604:	e4468693          	add	a3,a3,-444 # ffffffff8400b444 <platform_interrupt_t+0x4>
ffffffff84005608:	00261713          	sll	a4,a2,0x2
ffffffff8400560c:	9736                	add	a4,a4,a3
ffffffff8400560e:	4318                	lw	a4,0(a4)
ffffffff84005610:	9736                	add	a4,a4,a3
ffffffff84005612:	8702                	jr	a4
ffffffff84005614:	4501                	li	a0,0
ffffffff84005616:	60e2                	ld	ra,24(sp)
ffffffff84005618:	6105                	add	sp,sp,32
ffffffff8400561a:	8082                	ret
ffffffff8400561c:	7779                	lui	a4,0xffffe
ffffffff8400561e:	175d                	add	a4,a4,-9 # ffffffffffffdff7 <ki_end+0x7bfdbff7>
ffffffff84005620:	40c75733          	sra	a4,a4,a2
ffffffff84005624:	8b05                	and	a4,a4,1
ffffffff84005626:	cf39                	beqz	a4,ffffffff84005684 <cap_get_capSizeBits+0x98>
ffffffff84005628:	4705                	li	a4,1
ffffffff8400562a:	4501                	li	a0,0
ffffffff8400562c:	fee615e3          	bne	a2,a4,ffffffff84005616 <cap_get_capSizeBits+0x2a>
ffffffff84005630:	93e5                	srl	a5,a5,0x39
ffffffff84005632:	8b8d                	and	a5,a5,3
ffffffff84005634:	470d                	li	a4,3
ffffffff84005636:	04e78963          	beq	a5,a4,ffffffff84005688 <cap_get_capSizeBits+0x9c>
ffffffff8400563a:	00379513          	sll	a0,a5,0x3
ffffffff8400563e:	953e                	add	a0,a0,a5
ffffffff84005640:	0531                	add	a0,a0,12
ffffffff84005642:	bfd1                	j	ffffffff84005616 <cap_get_capSizeBits+0x2a>
ffffffff84005644:	6522                	ld	a0,8(sp)
ffffffff84005646:	60e2                	ld	ra,24(sp)
ffffffff84005648:	03f57513          	and	a0,a0,63
ffffffff8400564c:	6105                	add	sp,sp,32
ffffffff8400564e:	8082                	ret
ffffffff84005650:	60e2                	ld	ra,24(sp)
ffffffff84005652:	913d                	srl	a0,a0,0x2f
ffffffff84005654:	03f57513          	and	a0,a0,63
ffffffff84005658:	0515                	add	a0,a0,5
ffffffff8400565a:	6105                	add	sp,sp,32
ffffffff8400565c:	8082                	ret
ffffffff8400565e:	07f57713          	and	a4,a0,127
ffffffff84005662:	04000693          	li	a3,64
ffffffff84005666:	00d70963          	beq	a4,a3,ffffffff84005678 <cap_get_capSizeBits+0x8c>
ffffffff8400566a:	60e2                	ld	ra,24(sp)
ffffffff8400566c:	03f57793          	and	a5,a0,63
ffffffff84005670:	00578513          	add	a0,a5,5
ffffffff84005674:	6105                	add	sp,sp,32
ffffffff84005676:	8082                	ret
ffffffff84005678:	4529                	li	a0,10
ffffffff8400567a:	bf71                	j	ffffffff84005616 <cap_get_capSizeBits+0x2a>
ffffffff8400567c:	4515                	li	a0,5
ffffffff8400567e:	bf61                	j	ffffffff84005616 <cap_get_capSizeBits+0x2a>
ffffffff84005680:	4511                	li	a0,4
ffffffff84005682:	bf51                	j	ffffffff84005616 <cap_get_capSizeBits+0x2a>
ffffffff84005684:	4531                	li	a0,12
ffffffff84005686:	bf41                	j	ffffffff84005616 <cap_get_capSizeBits+0x2a>
ffffffff84005688:	daefe0ef          	jal	ffffffff84003c36 <halt>

ffffffff8400568c <cap_get_capIsPhysical>:
ffffffff8400568c:	03b55713          	srl	a4,a0,0x3b
ffffffff84005690:	4785                	li	a5,1
ffffffff84005692:	00041537          	lui	a0,0x41
ffffffff84005696:	00e797b3          	sll	a5,a5,a4
ffffffff8400569a:	45450513          	add	a0,a0,1108 # 41454 <KERNEL_OFFSET-0xfffffffefffbebac>
ffffffff8400569e:	8d7d                	and	a0,a0,a5
ffffffff840056a0:	1141                	add	sp,sp,-16
ffffffff840056a2:	ed11                	bnez	a0,ffffffff840056be <cap_get_capIsPhysical+0x32>
ffffffff840056a4:	001146b7          	lui	a3,0x114
ffffffff840056a8:	10068693          	add	a3,a3,256 # 114100 <KERNEL_OFFSET-0xfffffffeffeebf00>
ffffffff840056ac:	8ff5                	and	a5,a5,a3
ffffffff840056ae:	e791                	bnez	a5,ffffffff840056ba <cap_get_capIsPhysical+0x2e>
ffffffff840056b0:	6509                	lui	a0,0x2
ffffffff840056b2:	0529                	add	a0,a0,10 # 200a <KERNEL_OFFSET-0xfffffffeffffdff6>
ffffffff840056b4:	00e55533          	srl	a0,a0,a4
ffffffff840056b8:	8905                	and	a0,a0,1
ffffffff840056ba:	0141                	add	sp,sp,16
ffffffff840056bc:	8082                	ret
ffffffff840056be:	4505                	li	a0,1
ffffffff840056c0:	0141                	add	sp,sp,16
ffffffff840056c2:	8082                	ret

ffffffff840056c4 <cap_get_capPtr>:
ffffffff840056c4:	03b55693          	srl	a3,a0,0x3b
ffffffff840056c8:	47d1                	li	a5,20
ffffffff840056ca:	1141                	add	sp,sp,-16
ffffffff840056cc:	8736                	mv	a4,a3
ffffffff840056ce:	02d7eb63          	bltu	a5,a3,ffffffff84005704 <cap_get_capPtr+0x40>
ffffffff840056d2:	00006697          	auipc	a3,0x6
ffffffff840056d6:	dc668693          	add	a3,a3,-570 # ffffffff8400b498 <platform_interrupt_t+0x58>
ffffffff840056da:	00271793          	sll	a5,a4,0x2
ffffffff840056de:	97b6                	add	a5,a5,a3
ffffffff840056e0:	439c                	lw	a5,0(a5)
ffffffff840056e2:	97b6                	add	a5,a5,a3
ffffffff840056e4:	8782                	jr	a5
ffffffff840056e6:	4501                	li	a0,0
ffffffff840056e8:	0141                	add	sp,sp,16
ffffffff840056ea:	8082                	ret
ffffffff840056ec:	02655693          	srl	a3,a0,0x26
ffffffff840056f0:	577d                	li	a4,-1
ffffffff840056f2:	01975793          	srl	a5,a4,0x19
ffffffff840056f6:	8a85                	and	a3,a3,1
ffffffff840056f8:	8d7d                	and	a0,a0,a5
ffffffff840056fa:	d6fd                	beqz	a3,ffffffff840056e8 <cap_get_capPtr+0x24>
ffffffff840056fc:	171e                	sll	a4,a4,0x27
ffffffff840056fe:	8d59                	or	a0,a0,a4
ffffffff84005700:	0141                	add	sp,sp,16
ffffffff84005702:	8082                	ret
ffffffff84005704:	478d                	li	a5,3
ffffffff84005706:	08f70863          	beq	a4,a5,ffffffff84005796 <cap_get_capPtr+0xd2>
ffffffff8400570a:	47b5                	li	a5,13
ffffffff8400570c:	06f70b63          	beq	a4,a5,ffffffff84005782 <cap_get_capPtr+0xbe>
ffffffff84005710:	4785                	li	a5,1
ffffffff84005712:	4501                	li	a0,0
ffffffff84005714:	fcf71ae3          	bne	a4,a5,ffffffff840056e8 <cap_get_capPtr+0x24>
ffffffff84005718:	81a5                	srl	a1,a1,0x9
ffffffff8400571a:	57fd                	li	a5,-1
ffffffff8400571c:	171a                	sll	a4,a4,0x26
ffffffff8400571e:	0197d513          	srl	a0,a5,0x19
ffffffff84005722:	8f6d                	and	a4,a4,a1
ffffffff84005724:	8d6d                	and	a0,a0,a1
ffffffff84005726:	eb31                	bnez	a4,ffffffff8400577a <cap_get_capPtr+0xb6>
ffffffff84005728:	b7c1                	j	ffffffff840056e8 <cap_get_capPtr+0x24>
ffffffff8400572a:	07f57793          	and	a5,a0,127
ffffffff8400572e:	04000713          	li	a4,64
ffffffff84005732:	06e78c63          	beq	a5,a4,ffffffff840057aa <cap_get_capPtr+0xe6>
ffffffff84005736:	03f57513          	and	a0,a0,63
ffffffff8400573a:	0015079b          	addw	a5,a0,1
ffffffff8400573e:	557d                	li	a0,-1
ffffffff84005740:	00f51533          	sll	a0,a0,a5
ffffffff84005744:	8d6d                	and	a0,a0,a1
ffffffff84005746:	0141                	add	sp,sp,16
ffffffff84005748:	8082                	ret
ffffffff8400574a:	02655693          	srl	a3,a0,0x26
ffffffff8400574e:	577d                	li	a4,-1
ffffffff84005750:	01975793          	srl	a5,a4,0x19
ffffffff84005754:	8a85                	and	a3,a3,1
ffffffff84005756:	8d7d                	and	a0,a0,a5
ffffffff84005758:	c299                	beqz	a3,ffffffff8400575e <cap_get_capPtr+0x9a>
ffffffff8400575a:	171e                	sll	a4,a4,0x27
ffffffff8400575c:	8d59                	or	a0,a0,a4
ffffffff8400575e:	c0057513          	and	a0,a0,-1024
ffffffff84005762:	0141                	add	sp,sp,16
ffffffff84005764:	8082                	ret
ffffffff84005766:	0506                	sll	a0,a0,0x1
ffffffff84005768:	02655793          	srl	a5,a0,0x26
ffffffff8400576c:	fc000737          	lui	a4,0xfc000
ffffffff84005770:	8365                	srl	a4,a4,0x19
ffffffff84005772:	8b85                	and	a5,a5,1
ffffffff84005774:	8d79                	and	a0,a0,a4
ffffffff84005776:	dbad                	beqz	a5,ffffffff840056e8 <cap_get_capPtr+0x24>
ffffffff84005778:	57fd                	li	a5,-1
ffffffff8400577a:	179e                	sll	a5,a5,0x27
ffffffff8400577c:	8d5d                	or	a0,a0,a5
ffffffff8400577e:	0141                	add	sp,sp,16
ffffffff84005780:	8082                	ret
ffffffff84005782:	050a                	sll	a0,a0,0x2
ffffffff84005784:	02655713          	srl	a4,a0,0x26
ffffffff84005788:	f80007b7          	lui	a5,0xf8000
ffffffff8400578c:	83e5                	srl	a5,a5,0x19
ffffffff8400578e:	8b05                	and	a4,a4,1
ffffffff84005790:	8d7d                	and	a0,a0,a5
ffffffff84005792:	f37d                	bnez	a4,ffffffff84005778 <cap_get_capPtr+0xb4>
ffffffff84005794:	bf91                	j	ffffffff840056e8 <cap_get_capPtr+0x24>
ffffffff84005796:	81a5                	srl	a1,a1,0x9
ffffffff84005798:	57fd                	li	a5,-1
ffffffff8400579a:	0265d713          	srl	a4,a1,0x26
ffffffff8400579e:	0197d513          	srl	a0,a5,0x19
ffffffff840057a2:	8b05                	and	a4,a4,1
ffffffff840057a4:	8d6d                	and	a0,a0,a1
ffffffff840057a6:	fb71                	bnez	a4,ffffffff8400577a <cap_get_capPtr+0xb6>
ffffffff840057a8:	b781                	j	ffffffff840056e8 <cap_get_capPtr+0x24>
ffffffff840057aa:	5501                	li	a0,-32
ffffffff840057ac:	8d6d                	and	a0,a0,a1
ffffffff840057ae:	bf61                	j	ffffffff84005746 <cap_get_capPtr+0x82>

ffffffff840057b0 <sameRegionAs>:
ffffffff840057b0:	715d                	add	sp,sp,-80
ffffffff840057b2:	e486                	sd	ra,72(sp)
ffffffff840057b4:	e0a2                	sd	s0,64(sp)
ffffffff840057b6:	fc26                	sd	s1,56(sp)
ffffffff840057b8:	f84a                	sd	s2,48(sp)
ffffffff840057ba:	f44e                	sd	s3,40(sp)
ffffffff840057bc:	e82a                	sd	a0,16(sp)
ffffffff840057be:	ec2e                	sd	a1,24(sp)
ffffffff840057c0:	e032                	sd	a2,0(sp)
ffffffff840057c2:	e436                	sd	a3,8(sp)
ffffffff840057c4:	03b55713          	srl	a4,a0,0x3b
ffffffff840057c8:	47d1                	li	a5,20
ffffffff840057ca:	00e7ee63          	bltu	a5,a4,ffffffff840057e6 <sameRegionAs+0x36>
ffffffff840057ce:	00006817          	auipc	a6,0x6
ffffffff840057d2:	d1e80813          	add	a6,a6,-738 # ffffffff8400b4ec <platform_interrupt_t+0xac>
ffffffff840057d6:	00271793          	sll	a5,a4,0x2
ffffffff840057da:	97c2                	add	a5,a5,a6
ffffffff840057dc:	439c                	lw	a5,0(a5)
ffffffff840057de:	89aa                	mv	s3,a0
ffffffff840057e0:	84ae                	mv	s1,a1
ffffffff840057e2:	97c2                	add	a5,a5,a6
ffffffff840057e4:	8782                	jr	a5
ffffffff840057e6:	00177413          	and	s0,a4,1
ffffffff840057ea:	c805                	beqz	s0,ffffffff8400581a <sameRegionAs+0x6a>
ffffffff840057ec:	926d                	srl	a2,a2,0x3b
ffffffff840057ee:	00167413          	and	s0,a2,1
ffffffff840057f2:	c405                	beqz	s0,ffffffff8400581a <sameRegionAs+0x6a>
ffffffff840057f4:	6406                	ld	s0,64(sp)
ffffffff840057f6:	6602                	ld	a2,0(sp)
ffffffff840057f8:	66a2                	ld	a3,8(sp)
ffffffff840057fa:	6542                	ld	a0,16(sp)
ffffffff840057fc:	65e2                	ld	a1,24(sp)
ffffffff840057fe:	60a6                	ld	ra,72(sp)
ffffffff84005800:	74e2                	ld	s1,56(sp)
ffffffff84005802:	7942                	ld	s2,48(sp)
ffffffff84005804:	79a2                	ld	s3,40(sp)
ffffffff84005806:	6161                	add	sp,sp,80
ffffffff84005808:	dedfe06f          	j	ffffffff840045f4 <Arch_sameRegionAs>
ffffffff8400580c:	6502                	ld	a0,0(sp)
ffffffff8400580e:	65a2                	ld	a1,8(sp)
ffffffff84005810:	e7dff0ef          	jal	ffffffff8400568c <cap_get_capIsPhysical>
ffffffff84005814:	842a                	mv	s0,a0
ffffffff84005816:	14051563          	bnez	a0,ffffffff84005960 <sameRegionAs+0x1b0>
ffffffff8400581a:	60a6                	ld	ra,72(sp)
ffffffff8400581c:	8522                	mv	a0,s0
ffffffff8400581e:	6406                	ld	s0,64(sp)
ffffffff84005820:	74e2                	ld	s1,56(sp)
ffffffff84005822:	7942                	ld	s2,48(sp)
ffffffff84005824:	79a2                	ld	s3,40(sp)
ffffffff84005826:	6161                	add	sp,sp,80
ffffffff84005828:	8082                	ret
ffffffff8400582a:	03b65793          	srl	a5,a2,0x3b
ffffffff8400582e:	4711                	li	a4,4
ffffffff84005830:	4401                	li	s0,0
ffffffff84005832:	fee794e3          	bne	a5,a4,ffffffff8400581a <sameRegionAs+0x6a>
ffffffff84005836:	577d                	li	a4,-1
ffffffff84005838:	0269d693          	srl	a3,s3,0x26
ffffffff8400583c:	01975793          	srl	a5,a4,0x19
ffffffff84005840:	8a85                	and	a3,a3,1
ffffffff84005842:	00f9f7b3          	and	a5,s3,a5
ffffffff84005846:	c299                	beqz	a3,ffffffff8400584c <sameRegionAs+0x9c>
ffffffff84005848:	171e                	sll	a4,a4,0x27
ffffffff8400584a:	8fd9                	or	a5,a5,a4
ffffffff8400584c:	56fd                	li	a3,-1
ffffffff8400584e:	02665593          	srl	a1,a2,0x26
ffffffff84005852:	0196d713          	srl	a4,a3,0x19
ffffffff84005856:	8985                	and	a1,a1,1
ffffffff84005858:	8f71                	and	a4,a4,a2
ffffffff8400585a:	c199                	beqz	a1,ffffffff84005860 <sameRegionAs+0xb0>
ffffffff8400585c:	169e                	sll	a3,a3,0x27
ffffffff8400585e:	8f55                	or	a4,a4,a3
ffffffff84005860:	8f1d                	sub	a4,a4,a5
ffffffff84005862:	00173413          	seqz	s0,a4
ffffffff84005866:	bf55                	j	ffffffff8400581a <sameRegionAs+0x6a>
ffffffff84005868:	03b65793          	srl	a5,a2,0x3b
ffffffff8400586c:	4719                	li	a4,6
ffffffff8400586e:	4401                	li	s0,0
ffffffff84005870:	fae795e3          	bne	a5,a4,ffffffff8400581a <sameRegionAs+0x6a>
ffffffff84005874:	b7c9                	j	ffffffff84005836 <sameRegionAs+0x86>
ffffffff84005876:	926d                	srl	a2,a2,0x3b
ffffffff84005878:	47a1                	li	a5,8
ffffffff8400587a:	4401                	li	s0,0
ffffffff8400587c:	f8f61fe3          	bne	a2,a5,ffffffff8400581a <sameRegionAs+0x6a>
ffffffff84005880:	8d95                	sub	a1,a1,a3
ffffffff84005882:	0015b413          	seqz	s0,a1
ffffffff84005886:	bf51                	j	ffffffff8400581a <sameRegionAs+0x6a>
ffffffff84005888:	03b65793          	srl	a5,a2,0x3b
ffffffff8400588c:	4729                	li	a4,10
ffffffff8400588e:	4401                	li	s0,0
ffffffff84005890:	f8e795e3          	bne	a5,a4,ffffffff8400581a <sameRegionAs+0x6a>
ffffffff84005894:	4585                	li	a1,1
ffffffff84005896:	00151693          	sll	a3,a0,0x1
ffffffff8400589a:	159a                	sll	a1,a1,0x26
ffffffff8400589c:	fc0007b7          	lui	a5,0xfc000
ffffffff840058a0:	83e5                	srl	a5,a5,0x19
ffffffff840058a2:	00161713          	sll	a4,a2,0x1
ffffffff840058a6:	00b6f533          	and	a0,a3,a1
ffffffff840058aa:	00b77433          	and	s0,a4,a1
ffffffff840058ae:	8efd                	and	a3,a3,a5
ffffffff840058b0:	8ff9                	and	a5,a5,a4
ffffffff840058b2:	10050363          	beqz	a0,ffffffff840059b8 <sameRegionAs+0x208>
ffffffff840058b6:	577d                	li	a4,-1
ffffffff840058b8:	171e                	sll	a4,a4,0x27
ffffffff840058ba:	8ed9                	or	a3,a3,a4
ffffffff840058bc:	dc39                	beqz	s0,ffffffff8400581a <sameRegionAs+0x6a>
ffffffff840058be:	577d                	li	a4,-1
ffffffff840058c0:	171e                	sll	a4,a4,0x27
ffffffff840058c2:	8fd9                	or	a5,a5,a4
ffffffff840058c4:	4401                	li	s0,0
ffffffff840058c6:	f4f69ae3          	bne	a3,a5,ffffffff8400581a <sameRegionAs+0x6a>
ffffffff840058ca:	00c9c733          	xor	a4,s3,a2
ffffffff840058ce:	933d                	srl	a4,a4,0x2f
ffffffff840058d0:	03f77713          	and	a4,a4,63
ffffffff840058d4:	00173413          	seqz	s0,a4
ffffffff840058d8:	b789                	j	ffffffff8400581a <sameRegionAs+0x6a>
ffffffff840058da:	03b65793          	srl	a5,a2,0x3b
ffffffff840058de:	4731                	li	a4,12
ffffffff840058e0:	4401                	li	s0,0
ffffffff840058e2:	f2e79ce3          	bne	a5,a4,ffffffff8400581a <sameRegionAs+0x6a>
ffffffff840058e6:	02655713          	srl	a4,a0,0x26
ffffffff840058ea:	57fd                	li	a5,-1
ffffffff840058ec:	0197d693          	srl	a3,a5,0x19
ffffffff840058f0:	8b05                	and	a4,a4,1
ffffffff840058f2:	8d75                	and	a0,a0,a3
ffffffff840058f4:	c319                	beqz	a4,ffffffff840058fa <sameRegionAs+0x14a>
ffffffff840058f6:	179e                	sll	a5,a5,0x27
ffffffff840058f8:	8d5d                	or	a0,a0,a5
ffffffff840058fa:	57fd                	li	a5,-1
ffffffff840058fc:	02665693          	srl	a3,a2,0x26
ffffffff84005900:	0197d713          	srl	a4,a5,0x19
ffffffff84005904:	8a85                	and	a3,a3,1
ffffffff84005906:	8f71                	and	a4,a4,a2
ffffffff84005908:	c299                	beqz	a3,ffffffff8400590e <sameRegionAs+0x15e>
ffffffff8400590a:	179e                	sll	a5,a5,0x27
ffffffff8400590c:	8f5d                	or	a4,a4,a5
ffffffff8400590e:	8f09                	sub	a4,a4,a0
ffffffff84005910:	00173413          	seqz	s0,a4
ffffffff84005914:	b719                	j	ffffffff8400581a <sameRegionAs+0x6a>
ffffffff84005916:	03b65713          	srl	a4,a2,0x3b
ffffffff8400591a:	1749                	add	a4,a4,-14 # fffffffffbfffff2 <ki_end+0x77fddff2>
ffffffff8400591c:	9b75                	and	a4,a4,-3
ffffffff8400591e:	00173413          	seqz	s0,a4
ffffffff84005922:	60a6                	ld	ra,72(sp)
ffffffff84005924:	8522                	mv	a0,s0
ffffffff84005926:	6406                	ld	s0,64(sp)
ffffffff84005928:	74e2                	ld	s1,56(sp)
ffffffff8400592a:	7942                	ld	s2,48(sp)
ffffffff8400592c:	79a2                	ld	s3,40(sp)
ffffffff8400592e:	6161                	add	sp,sp,80
ffffffff84005930:	8082                	ret
ffffffff84005932:	926d                	srl	a2,a2,0x3b
ffffffff84005934:	47c1                	li	a5,16
ffffffff84005936:	4401                	li	s0,0
ffffffff84005938:	eef611e3          	bne	a2,a5,ffffffff8400581a <sameRegionAs+0x6a>
ffffffff8400593c:	8db5                	xor	a1,a1,a3
ffffffff8400593e:	15d2                	sll	a1,a1,0x34
ffffffff84005940:	0015b413          	seqz	s0,a1
ffffffff84005944:	bdd9                	j	ffffffff8400581a <sameRegionAs+0x6a>
ffffffff84005946:	03b65713          	srl	a4,a2,0x3b
ffffffff8400594a:	1731                	add	a4,a4,-20
ffffffff8400594c:	00173413          	seqz	s0,a4
ffffffff84005950:	60a6                	ld	ra,72(sp)
ffffffff84005952:	8522                	mv	a0,s0
ffffffff84005954:	6406                	ld	s0,64(sp)
ffffffff84005956:	74e2                	ld	s1,56(sp)
ffffffff84005958:	7942                	ld	s2,48(sp)
ffffffff8400595a:	79a2                	ld	s3,40(sp)
ffffffff8400595c:	6161                	add	sp,sp,80
ffffffff8400595e:	8082                	ret
ffffffff84005960:	57fd                	li	a5,-1
ffffffff84005962:	0269d713          	srl	a4,s3,0x26
ffffffff84005966:	0197d913          	srl	s2,a5,0x19
ffffffff8400596a:	8b05                	and	a4,a4,1
ffffffff8400596c:	0129f933          	and	s2,s3,s2
ffffffff84005970:	c701                	beqz	a4,ffffffff84005978 <sameRegionAs+0x1c8>
ffffffff84005972:	179e                	sll	a5,a5,0x27
ffffffff84005974:	00f96933          	or	s2,s2,a5
ffffffff84005978:	6502                	ld	a0,0(sp)
ffffffff8400597a:	65a2                	ld	a1,8(sp)
ffffffff8400597c:	4401                	li	s0,0
ffffffff8400597e:	d47ff0ef          	jal	ffffffff840056c4 <cap_get_capPtr>
ffffffff84005982:	89aa                	mv	s3,a0
ffffffff84005984:	e9256be3          	bltu	a0,s2,ffffffff8400581a <sameRegionAs+0x6a>
ffffffff84005988:	65a2                	ld	a1,8(sp)
ffffffff8400598a:	6502                	ld	a0,0(sp)
ffffffff8400598c:	c61ff0ef          	jal	ffffffff840055ec <cap_get_capSizeBits>
ffffffff84005990:	4785                	li	a5,1
ffffffff84005992:	009795b3          	sll	a1,a5,s1
ffffffff84005996:	fff98713          	add	a4,s3,-1
ffffffff8400599a:	00a797b3          	sll	a5,a5,a0
ffffffff8400599e:	15fd                	add	a1,a1,-1
ffffffff840059a0:	97ba                	add	a5,a5,a4
ffffffff840059a2:	95ca                	add	a1,a1,s2
ffffffff840059a4:	e6f5ebe3          	bltu	a1,a5,ffffffff8400581a <sameRegionAs+0x6a>
ffffffff840059a8:	0137b7b3          	sltu	a5,a5,s3
ffffffff840059ac:	0017c793          	xor	a5,a5,1
ffffffff840059b0:	02079413          	sll	s0,a5,0x20
ffffffff840059b4:	9001                	srl	s0,s0,0x20
ffffffff840059b6:	b595                	j	ffffffff8400581a <sameRegionAs+0x6a>
ffffffff840059b8:	f00413e3          	bnez	s0,ffffffff840058be <sameRegionAs+0x10e>
ffffffff840059bc:	b721                	j	ffffffff840058c4 <sameRegionAs+0x114>

ffffffff840059be <isMDBParentOf>:
ffffffff840059be:	1101                	add	sp,sp,-32
ffffffff840059c0:	e822                	sd	s0,16(sp)
ffffffff840059c2:	6d00                	ld	s0,24(a0)
ffffffff840059c4:	ec06                	sd	ra,24(sp)
ffffffff840059c6:	e426                	sd	s1,8(sp)
ffffffff840059c8:	8005                	srl	s0,s0,0x1
ffffffff840059ca:	e04a                	sd	s2,0(sp)
ffffffff840059cc:	8805                	and	s0,s0,1
ffffffff840059ce:	cc15                	beqz	s0,ffffffff84005a0a <isMDBParentOf+0x4c>
ffffffff840059d0:	84aa                	mv	s1,a0
ffffffff840059d2:	6190                	ld	a2,0(a1)
ffffffff840059d4:	6594                	ld	a3,8(a1)
ffffffff840059d6:	892e                	mv	s2,a1
ffffffff840059d8:	6108                	ld	a0,0(a0)
ffffffff840059da:	648c                	ld	a1,8(s1)
ffffffff840059dc:	dd5ff0ef          	jal	ffffffff840057b0 <sameRegionAs>
ffffffff840059e0:	cd05                	beqz	a0,ffffffff84005a18 <isMDBParentOf+0x5a>
ffffffff840059e2:	609c                	ld	a5,0(s1)
ffffffff840059e4:	4711                	li	a4,4
ffffffff840059e6:	93ed                	srl	a5,a5,0x3b
ffffffff840059e8:	00e78563          	beq	a5,a4,ffffffff840059f2 <isMDBParentOf+0x34>
ffffffff840059ec:	4719                	li	a4,6
ffffffff840059ee:	00e79e63          	bne	a5,a4,ffffffff84005a0a <isMDBParentOf+0x4c>
ffffffff840059f2:	649c                	ld	a5,8(s1)
ffffffff840059f4:	cb99                	beqz	a5,ffffffff84005a0a <isMDBParentOf+0x4c>
ffffffff840059f6:	00893703          	ld	a4,8(s2)
ffffffff840059fa:	4401                	li	s0,0
ffffffff840059fc:	00e79763          	bne	a5,a4,ffffffff84005a0a <isMDBParentOf+0x4c>
ffffffff84005a00:	01893403          	ld	s0,24(s2)
ffffffff84005a04:	fff44413          	not	s0,s0
ffffffff84005a08:	8805                	and	s0,s0,1
ffffffff84005a0a:	60e2                	ld	ra,24(sp)
ffffffff84005a0c:	8522                	mv	a0,s0
ffffffff84005a0e:	6442                	ld	s0,16(sp)
ffffffff84005a10:	64a2                	ld	s1,8(sp)
ffffffff84005a12:	6902                	ld	s2,0(sp)
ffffffff84005a14:	6105                	add	sp,sp,32
ffffffff84005a16:	8082                	ret
ffffffff84005a18:	4401                	li	s0,0
ffffffff84005a1a:	60e2                	ld	ra,24(sp)
ffffffff84005a1c:	8522                	mv	a0,s0
ffffffff84005a1e:	6442                	ld	s0,16(sp)
ffffffff84005a20:	64a2                	ld	s1,8(sp)
ffffffff84005a22:	6902                	ld	s2,0(sp)
ffffffff84005a24:	6105                	add	sp,sp,32
ffffffff84005a26:	8082                	ret

ffffffff84005a28 <ensureNoChildren>:
ffffffff84005a28:	6d0c                	ld	a1,24(a0)
ffffffff84005a2a:	f8000737          	lui	a4,0xf8000
ffffffff84005a2e:	8365                	srl	a4,a4,0x19
ffffffff84005a30:	0265d793          	srl	a5,a1,0x26
ffffffff84005a34:	8b85                	and	a5,a5,1
ffffffff84005a36:	8df9                	and	a1,a1,a4
ffffffff84005a38:	c795                	beqz	a5,ffffffff84005a64 <ensureNoChildren+0x3c>
ffffffff84005a3a:	57fd                	li	a5,-1
ffffffff84005a3c:	179e                	sll	a5,a5,0x27
ffffffff84005a3e:	8ddd                	or	a1,a1,a5
ffffffff84005a40:	1141                	add	sp,sp,-16
ffffffff84005a42:	e406                	sd	ra,8(sp)
ffffffff84005a44:	f7bff0ef          	jal	ffffffff840059be <isMDBParentOf>
ffffffff84005a48:	85aa                	mv	a1,a0
ffffffff84005a4a:	e509                	bnez	a0,ffffffff84005a54 <ensureNoChildren+0x2c>
ffffffff84005a4c:	60a2                	ld	ra,8(sp)
ffffffff84005a4e:	852e                	mv	a0,a1
ffffffff84005a50:	0141                	add	sp,sp,16
ffffffff84005a52:	8082                	ret
ffffffff84005a54:	60a2                	ld	ra,8(sp)
ffffffff84005a56:	47a5                	li	a5,9
ffffffff84005a58:	d6f1b023          	sd	a5,-672(gp) # ffffffff8400b010 <current_syscall_error+0x30>
ffffffff84005a5c:	458d                	li	a1,3
ffffffff84005a5e:	852e                	mv	a0,a1
ffffffff84005a60:	0141                	add	sp,sp,16
ffffffff84005a62:	8082                	ret
ffffffff84005a64:	fdf1                	bnez	a1,ffffffff84005a40 <ensureNoChildren+0x18>
ffffffff84005a66:	852e                	mv	a0,a1
ffffffff84005a68:	8082                	ret

ffffffff84005a6a <deriveCap>:
ffffffff84005a6a:	7139                	add	sp,sp,-64
ffffffff84005a6c:	03b65793          	srl	a5,a2,0x3b
ffffffff84005a70:	f822                	sd	s0,48(sp)
ffffffff84005a72:	ec4e                	sd	s3,24(sp)
ffffffff84005a74:	fc06                	sd	ra,56(sp)
ffffffff84005a76:	f426                	sd	s1,40(sp)
ffffffff84005a78:	f04a                	sd	s2,32(sp)
ffffffff84005a7a:	0017f993          	and	s3,a5,1
ffffffff84005a7e:	842a                	mv	s0,a0
ffffffff84005a80:	04099463          	bnez	s3,ffffffff84005ac8 <deriveCap+0x5e>
ffffffff84005a84:	84b6                	mv	s1,a3
ffffffff84005a86:	46a1                	li	a3,8
ffffffff84005a88:	04d78a63          	beq	a5,a3,ffffffff84005adc <deriveCap+0x72>
ffffffff84005a8c:	8932                	mv	s2,a2
ffffffff84005a8e:	02f6e763          	bltu	a3,a5,ffffffff84005abc <deriveCap+0x52>
ffffffff84005a92:	4689                	li	a3,2
ffffffff84005a94:	02d79763          	bne	a5,a3,ffffffff84005ac2 <deriveCap+0x58>
ffffffff84005a98:	852e                	mv	a0,a1
ffffffff84005a9a:	f8fff0ef          	jal	ffffffff84005a28 <ensureNoChildren>
ffffffff84005a9e:	87aa                	mv	a5,a0
ffffffff84005aa0:	c10d                	beqz	a0,ffffffff84005ac2 <deriveCap+0x58>
ffffffff84005aa2:	4481                	li	s1,0
ffffffff84005aa4:	01343423          	sd	s3,8(s0)
ffffffff84005aa8:	e804                	sd	s1,16(s0)
ffffffff84005aaa:	70e2                	ld	ra,56(sp)
ffffffff84005aac:	e01c                	sd	a5,0(s0)
ffffffff84005aae:	8522                	mv	a0,s0
ffffffff84005ab0:	7442                	ld	s0,48(sp)
ffffffff84005ab2:	74a2                	ld	s1,40(sp)
ffffffff84005ab4:	7902                	ld	s2,32(sp)
ffffffff84005ab6:	69e2                	ld	s3,24(sp)
ffffffff84005ab8:	6121                	add	sp,sp,64
ffffffff84005aba:	8082                	ret
ffffffff84005abc:	17c9                	add	a5,a5,-14 # fffffffffbfffff2 <ki_end+0x77fddff2>
ffffffff84005abe:	9bed                	and	a5,a5,-5
ffffffff84005ac0:	d3ed                	beqz	a5,ffffffff84005aa2 <deriveCap+0x38>
ffffffff84005ac2:	4781                	li	a5,0
ffffffff84005ac4:	89ca                	mv	s3,s2
ffffffff84005ac6:	bff9                	j	ffffffff84005aa4 <deriveCap+0x3a>
ffffffff84005ac8:	91bfe0ef          	jal	ffffffff840043e2 <Arch_deriveCap>
ffffffff84005acc:	70e2                	ld	ra,56(sp)
ffffffff84005ace:	8522                	mv	a0,s0
ffffffff84005ad0:	7442                	ld	s0,48(sp)
ffffffff84005ad2:	74a2                	ld	s1,40(sp)
ffffffff84005ad4:	7902                	ld	s2,32(sp)
ffffffff84005ad6:	69e2                	ld	s3,24(sp)
ffffffff84005ad8:	6121                	add	sp,sp,64
ffffffff84005ada:	8082                	ret
ffffffff84005adc:	4481                	li	s1,0
ffffffff84005ade:	4781                	li	a5,0
ffffffff84005ae0:	b7d1                	j	ffffffff84005aa4 <deriveCap+0x3a>

ffffffff84005ae2 <sameObjectAs>:
ffffffff84005ae2:	1101                	add	sp,sp,-32
ffffffff84005ae4:	e82a                	sd	a0,16(sp)
ffffffff84005ae6:	ec2e                	sd	a1,24(sp)
ffffffff84005ae8:	e032                	sd	a2,0(sp)
ffffffff84005aea:	e436                	sd	a3,8(sp)
ffffffff84005aec:	03b55793          	srl	a5,a0,0x3b
ffffffff84005af0:	4709                	li	a4,2
ffffffff84005af2:	02e78563          	beq	a5,a4,ffffffff84005b1c <sameObjectAs+0x3a>
ffffffff84005af6:	4839                	li	a6,14
ffffffff84005af8:	01078e63          	beq	a5,a6,ffffffff84005b14 <sameObjectAs+0x32>
ffffffff84005afc:	8b85                	and	a5,a5,1
ffffffff84005afe:	c789                	beqz	a5,ffffffff84005b08 <sameObjectAs+0x26>
ffffffff84005b00:	03b65713          	srl	a4,a2,0x3b
ffffffff84005b04:	8b05                	and	a4,a4,1
ffffffff84005b06:	ef11                	bnez	a4,ffffffff84005b22 <sameObjectAs+0x40>
ffffffff84005b08:	6602                	ld	a2,0(sp)
ffffffff84005b0a:	66a2                	ld	a3,8(sp)
ffffffff84005b0c:	6542                	ld	a0,16(sp)
ffffffff84005b0e:	65e2                	ld	a1,24(sp)
ffffffff84005b10:	6105                	add	sp,sp,32
ffffffff84005b12:	b979                	j	ffffffff840057b0 <sameRegionAs>
ffffffff84005b14:	926d                	srl	a2,a2,0x3b
ffffffff84005b16:	47c1                	li	a5,16
ffffffff84005b18:	fef618e3          	bne	a2,a5,ffffffff84005b08 <sameObjectAs+0x26>
ffffffff84005b1c:	4501                	li	a0,0
ffffffff84005b1e:	6105                	add	sp,sp,32
ffffffff84005b20:	8082                	ret
ffffffff84005b22:	6105                	add	sp,sp,32
ffffffff84005b24:	c0dfe06f          	j	ffffffff84004730 <Arch_sameObjectAs>

ffffffff84005b28 <isFinalCapability>:
ffffffff84005b28:	691c                	ld	a5,16(a0)
ffffffff84005b2a:	1101                	add	sp,sp,-32
ffffffff84005b2c:	e822                	sd	s0,16(sp)
ffffffff84005b2e:	e426                	sd	s1,8(sp)
ffffffff84005b30:	ec06                	sd	ra,24(sp)
ffffffff84005b32:	6d04                	ld	s1,24(a0)
ffffffff84005b34:	842a                	mv	s0,a0
ffffffff84005b36:	cb91                	beqz	a5,ffffffff84005b4a <isFinalCapability+0x22>
ffffffff84005b38:	6110                	ld	a2,0(a0)
ffffffff84005b3a:	6514                	ld	a3,8(a0)
ffffffff84005b3c:	678c                	ld	a1,8(a5)
ffffffff84005b3e:	6388                	ld	a0,0(a5)
ffffffff84005b40:	fa3ff0ef          	jal	ffffffff84005ae2 <sameObjectAs>
ffffffff84005b44:	87aa                	mv	a5,a0
ffffffff84005b46:	4501                	li	a0,0
ffffffff84005b48:	e785                	bnez	a5,ffffffff84005b70 <isFinalCapability+0x48>
ffffffff84005b4a:	0264d713          	srl	a4,s1,0x26
ffffffff84005b4e:	f80007b7          	lui	a5,0xf8000
ffffffff84005b52:	83e5                	srl	a5,a5,0x19
ffffffff84005b54:	8b05                	and	a4,a4,1
ffffffff84005b56:	8fe5                	and	a5,a5,s1
ffffffff84005b58:	c30d                	beqz	a4,ffffffff84005b7a <isFinalCapability+0x52>
ffffffff84005b5a:	577d                	li	a4,-1
ffffffff84005b5c:	171e                	sll	a4,a4,0x27
ffffffff84005b5e:	8fd9                	or	a5,a5,a4
ffffffff84005b60:	6390                	ld	a2,0(a5)
ffffffff84005b62:	6794                	ld	a3,8(a5)
ffffffff84005b64:	6008                	ld	a0,0(s0)
ffffffff84005b66:	640c                	ld	a1,8(s0)
ffffffff84005b68:	f7bff0ef          	jal	ffffffff84005ae2 <sameObjectAs>
ffffffff84005b6c:	00153513          	seqz	a0,a0
ffffffff84005b70:	60e2                	ld	ra,24(sp)
ffffffff84005b72:	6442                	ld	s0,16(sp)
ffffffff84005b74:	64a2                	ld	s1,8(sp)
ffffffff84005b76:	6105                	add	sp,sp,32
ffffffff84005b78:	8082                	ret
ffffffff84005b7a:	4505                	li	a0,1
ffffffff84005b7c:	dbf5                	beqz	a5,ffffffff84005b70 <isFinalCapability+0x48>
ffffffff84005b7e:	b7cd                	j	ffffffff84005b60 <isFinalCapability+0x38>

ffffffff84005b80 <slotCapLongRunningDelete>:
ffffffff84005b80:	1141                	add	sp,sp,-16
ffffffff84005b82:	e022                	sd	s0,0(sp)
ffffffff84005b84:	6100                	ld	s0,0(a0)
ffffffff84005b86:	e406                	sd	ra,8(sp)
ffffffff84005b88:	906d                	srl	s0,s0,0x3b
ffffffff84005b8a:	c819                	beqz	s0,ffffffff84005ba0 <slotCapLongRunningDelete+0x20>
ffffffff84005b8c:	f9dff0ef          	jal	ffffffff84005b28 <isFinalCapability>
ffffffff84005b90:	cd09                	beqz	a0,ffffffff84005baa <slotCapLongRunningDelete+0x2a>
ffffffff84005b92:	000417b7          	lui	a5,0x41
ffffffff84005b96:	40078793          	add	a5,a5,1024 # 41400 <KERNEL_OFFSET-0xfffffffefffbec00>
ffffffff84005b9a:	0087d433          	srl	s0,a5,s0
ffffffff84005b9e:	8805                	and	s0,s0,1
ffffffff84005ba0:	60a2                	ld	ra,8(sp)
ffffffff84005ba2:	8522                	mv	a0,s0
ffffffff84005ba4:	6402                	ld	s0,0(sp)
ffffffff84005ba6:	0141                	add	sp,sp,16
ffffffff84005ba8:	8082                	ret
ffffffff84005baa:	4401                	li	s0,0
ffffffff84005bac:	60a2                	ld	ra,8(sp)
ffffffff84005bae:	8522                	mv	a0,s0
ffffffff84005bb0:	6402                	ld	s0,0(sp)
ffffffff84005bb2:	0141                	add	sp,sp,16
ffffffff84005bb4:	8082                	ret

ffffffff84005bb6 <isCapRevocable>:
ffffffff84005bb6:	03b55793          	srl	a5,a0,0x3b
ffffffff84005bba:	0017f513          	and	a0,a5,1
ffffffff84005bbe:	1101                	add	sp,sp,-32
ffffffff84005bc0:	ed1d                	bnez	a0,ffffffff84005bfe <isCapRevocable+0x48>
ffffffff84005bc2:	4719                	li	a4,6
ffffffff84005bc4:	00e78a63          	beq	a5,a4,ffffffff84005bd8 <isCapRevocable+0x22>
ffffffff84005bc8:	00f76e63          	bltu	a4,a5,ffffffff84005be4 <isCapRevocable+0x2e>
ffffffff84005bcc:	4709                	li	a4,2
ffffffff84005bce:	02e78563          	beq	a5,a4,ffffffff84005bf8 <isCapRevocable+0x42>
ffffffff84005bd2:	4711                	li	a4,4
ffffffff84005bd4:	00e79663          	bne	a5,a4,ffffffff84005be0 <isCapRevocable+0x2a>
ffffffff84005bd8:	40d586b3          	sub	a3,a1,a3
ffffffff84005bdc:	00d03533          	snez	a0,a3
ffffffff84005be0:	6105                	add	sp,sp,32
ffffffff84005be2:	8082                	ret
ffffffff84005be4:	4741                	li	a4,16
ffffffff84005be6:	fee79de3          	bne	a5,a4,ffffffff84005be0 <isCapRevocable+0x2a>
ffffffff84005bea:	03b65513          	srl	a0,a2,0x3b
ffffffff84005bee:	1549                	add	a0,a0,-14
ffffffff84005bf0:	00153513          	seqz	a0,a0
ffffffff84005bf4:	6105                	add	sp,sp,32
ffffffff84005bf6:	8082                	ret
ffffffff84005bf8:	4505                	li	a0,1
ffffffff84005bfa:	6105                	add	sp,sp,32
ffffffff84005bfc:	8082                	ret
ffffffff84005bfe:	4501                	li	a0,0
ffffffff84005c00:	6105                	add	sp,sp,32
ffffffff84005c02:	8082                	ret

ffffffff84005c04 <tcbSchedEnqueue>:
ffffffff84005c04:	12053783          	ld	a5,288(a0)
ffffffff84005c08:	0017f713          	and	a4,a5,1
ffffffff84005c0c:	ef1d                	bnez	a4,ffffffff84005c4a <tcbSchedEnqueue+0x46>
ffffffff84005c0e:	15853803          	ld	a6,344(a0)
ffffffff84005c12:	16853883          	ld	a7,360(a0)
ffffffff84005c16:	00007697          	auipc	a3,0x7
ffffffff84005c1a:	bea68693          	add	a3,a3,-1046 # ffffffff8400c800 <ksReadyQueues>
ffffffff84005c1e:	00881713          	sll	a4,a6,0x8
ffffffff84005c22:	9746                	add	a4,a4,a7
ffffffff84005c24:	0712                	sll	a4,a4,0x4
ffffffff84005c26:	00e685b3          	add	a1,a3,a4
ffffffff84005c2a:	6590                	ld	a2,8(a1)
ffffffff84005c2c:	618c                	ld	a1,0(a1)
ffffffff84005c2e:	ce19                	beqz	a2,ffffffff84005c4c <tcbSchedEnqueue+0x48>
ffffffff84005c30:	18a5b823          	sd	a0,400(a1)
ffffffff84005c34:	18053823          	sd	zero,400(a0)
ffffffff84005c38:	18b53423          	sd	a1,392(a0)
ffffffff84005c3c:	9736                	add	a4,a4,a3
ffffffff84005c3e:	e308                	sd	a0,0(a4)
ffffffff84005c40:	e710                	sd	a2,8(a4)
ffffffff84005c42:	0017e793          	or	a5,a5,1
ffffffff84005c46:	12f53023          	sd	a5,288(a0)
ffffffff84005c4a:	8082                	ret
ffffffff84005c4c:	0068de13          	srl	t3,a7,0x6
ffffffff84005c50:	430d                	li	t1,3
ffffffff84005c52:	41c30333          	sub	t1,t1,t3
ffffffff84005c56:	00281613          	sll	a2,a6,0x2
ffffffff84005c5a:	961a                	add	a2,a2,t1
ffffffff84005c5c:	080e                	sll	a6,a6,0x3
ffffffff84005c5e:	ca818313          	add	t1,gp,-856 # ffffffff8400af58 <ksReadyQueuesL1Bitmap>
ffffffff84005c62:	9342                	add	t1,t1,a6
ffffffff84005c64:	060e                	sll	a2,a2,0x3
ffffffff84005c66:	aa818813          	add	a6,gp,-1368 # ffffffff8400ad58 <ksReadyQueuesL2Bitmap>
ffffffff84005c6a:	9832                	add	a6,a6,a2
ffffffff84005c6c:	00033e83          	ld	t4,0(t1)
ffffffff84005c70:	00083f03          	ld	t5,0(a6)
ffffffff84005c74:	4605                	li	a2,1
ffffffff84005c76:	01c61e33          	sll	t3,a2,t3
ffffffff84005c7a:	01161633          	sll	a2,a2,a7
ffffffff84005c7e:	01e66633          	or	a2,a2,t5
ffffffff84005c82:	01cee8b3          	or	a7,t4,t3
ffffffff84005c86:	00c83023          	sd	a2,0(a6)
ffffffff84005c8a:	01133023          	sd	a7,0(t1)
ffffffff84005c8e:	862a                	mv	a2,a0
ffffffff84005c90:	b755                	j	ffffffff84005c34 <tcbSchedEnqueue+0x30>

ffffffff84005c92 <rescheduleRequired>:
ffffffff84005c92:	1141                	add	sp,sp,-16
ffffffff84005c94:	e022                	sd	s0,0(sp)
ffffffff84005c96:	a9018413          	add	s0,gp,-1392 # ffffffff8400ad40 <ksSchedulerAction>
ffffffff84005c9a:	6008                	ld	a0,0(s0)
ffffffff84005c9c:	e406                	sd	ra,8(sp)
ffffffff84005c9e:	4785                	li	a5,1
ffffffff84005ca0:	00a7e863          	bltu	a5,a0,ffffffff84005cb0 <rescheduleRequired+0x1e>
ffffffff84005ca4:	4785                	li	a5,1
ffffffff84005ca6:	60a2                	ld	ra,8(sp)
ffffffff84005ca8:	e01c                	sd	a5,0(s0)
ffffffff84005caa:	6402                	ld	s0,0(sp)
ffffffff84005cac:	0141                	add	sp,sp,16
ffffffff84005cae:	8082                	ret
ffffffff84005cb0:	f55ff0ef          	jal	ffffffff84005c04 <tcbSchedEnqueue>
ffffffff84005cb4:	4785                	li	a5,1
ffffffff84005cb6:	60a2                	ld	ra,8(sp)
ffffffff84005cb8:	e01c                	sd	a5,0(s0)
ffffffff84005cba:	6402                	ld	s0,0(sp)
ffffffff84005cbc:	0141                	add	sp,sp,16
ffffffff84005cbe:	8082                	ret

ffffffff84005cc0 <possibleSwitchTo>:
ffffffff84005cc0:	15853703          	ld	a4,344(a0)
ffffffff84005cc4:	8c81b783          	ld	a5,-1848(gp) # ffffffff8400ab78 <ksCurDomain>
ffffffff84005cc8:	02f71563          	bne	a4,a5,ffffffff84005cf2 <possibleSwitchTo+0x32>
ffffffff84005ccc:	1101                	add	sp,sp,-32
ffffffff84005cce:	e426                	sd	s1,8(sp)
ffffffff84005cd0:	a9018493          	add	s1,gp,-1392 # ffffffff8400ad40 <ksSchedulerAction>
ffffffff84005cd4:	e822                	sd	s0,16(sp)
ffffffff84005cd6:	842a                	mv	s0,a0
ffffffff84005cd8:	6088                	ld	a0,0(s1)
ffffffff84005cda:	ec06                	sd	ra,24(sp)
ffffffff84005cdc:	cd01                	beqz	a0,ffffffff84005cf4 <possibleSwitchTo+0x34>
ffffffff84005cde:	4785                	li	a5,1
ffffffff84005ce0:	02a7e063          	bltu	a5,a0,ffffffff84005d00 <possibleSwitchTo+0x40>
ffffffff84005ce4:	8522                	mv	a0,s0
ffffffff84005ce6:	6442                	ld	s0,16(sp)
ffffffff84005ce8:	4785                	li	a5,1
ffffffff84005cea:	e09c                	sd	a5,0(s1)
ffffffff84005cec:	60e2                	ld	ra,24(sp)
ffffffff84005cee:	64a2                	ld	s1,8(sp)
ffffffff84005cf0:	6105                	add	sp,sp,32
ffffffff84005cf2:	bf09                	j	ffffffff84005c04 <tcbSchedEnqueue>
ffffffff84005cf4:	e080                	sd	s0,0(s1)
ffffffff84005cf6:	60e2                	ld	ra,24(sp)
ffffffff84005cf8:	6442                	ld	s0,16(sp)
ffffffff84005cfa:	64a2                	ld	s1,8(sp)
ffffffff84005cfc:	6105                	add	sp,sp,32
ffffffff84005cfe:	8082                	ret
ffffffff84005d00:	f05ff0ef          	jal	ffffffff84005c04 <tcbSchedEnqueue>
ffffffff84005d04:	b7c5                	j	ffffffff84005ce4 <possibleSwitchTo+0x24>

ffffffff84005d06 <cancelAllIPC>:
ffffffff84005d06:	611c                	ld	a5,0(a0)
ffffffff84005d08:	0037f713          	and	a4,a5,3
ffffffff84005d0c:	c721                	beqz	a4,ffffffff84005d54 <cancelAllIPC+0x4e>
ffffffff84005d0e:	1141                	add	sp,sp,-16
ffffffff84005d10:	e022                	sd	s0,0(sp)
ffffffff84005d12:	939d                	srl	a5,a5,0x27
ffffffff84005d14:	6500                	ld	s0,8(a0)
ffffffff84005d16:	e406                	sd	ra,8(sp)
ffffffff84005d18:	179e                	sll	a5,a5,0x27
ffffffff84005d1a:	00053423          	sd	zero,8(a0)
ffffffff84005d1e:	e11c                	sd	a5,0(a0)
ffffffff84005d20:	cc11                	beqz	s0,ffffffff84005d3c <cancelAllIPC+0x36>
ffffffff84005d22:	11843783          	ld	a5,280(s0)
ffffffff84005d26:	8522                	mv	a0,s0
ffffffff84005d28:	9bc1                	and	a5,a5,-16
ffffffff84005d2a:	0027e793          	or	a5,a5,2
ffffffff84005d2e:	10f43c23          	sd	a5,280(s0)
ffffffff84005d32:	ed3ff0ef          	jal	ffffffff84005c04 <tcbSchedEnqueue>
ffffffff84005d36:	19843403          	ld	s0,408(s0)
ffffffff84005d3a:	f465                	bnez	s0,ffffffff84005d22 <cancelAllIPC+0x1c>
ffffffff84005d3c:	a9018413          	add	s0,gp,-1392 # ffffffff8400ad40 <ksSchedulerAction>
ffffffff84005d40:	6008                	ld	a0,0(s0)
ffffffff84005d42:	4785                	li	a5,1
ffffffff84005d44:	00a7e963          	bltu	a5,a0,ffffffff84005d56 <cancelAllIPC+0x50>
ffffffff84005d48:	4785                	li	a5,1
ffffffff84005d4a:	60a2                	ld	ra,8(sp)
ffffffff84005d4c:	e01c                	sd	a5,0(s0)
ffffffff84005d4e:	6402                	ld	s0,0(sp)
ffffffff84005d50:	0141                	add	sp,sp,16
ffffffff84005d52:	8082                	ret
ffffffff84005d54:	8082                	ret
ffffffff84005d56:	eafff0ef          	jal	ffffffff84005c04 <tcbSchedEnqueue>
ffffffff84005d5a:	4785                	li	a5,1
ffffffff84005d5c:	60a2                	ld	ra,8(sp)
ffffffff84005d5e:	e01c                	sd	a5,0(s0)
ffffffff84005d60:	6402                	ld	s0,0(sp)
ffffffff84005d62:	0141                	add	sp,sp,16
ffffffff84005d64:	8082                	ret

ffffffff84005d66 <scheduleTCB>:
ffffffff84005d66:	aa01b783          	ld	a5,-1376(gp) # ffffffff8400ad50 <ksCurThread>
ffffffff84005d6a:	00a78363          	beq	a5,a0,ffffffff84005d70 <scheduleTCB+0xa>
ffffffff84005d6e:	8082                	ret
ffffffff84005d70:	a9018713          	add	a4,gp,-1392 # ffffffff8400ad40 <ksSchedulerAction>
ffffffff84005d74:	6314                	ld	a3,0(a4)
ffffffff84005d76:	fee5                	bnez	a3,ffffffff84005d6e <scheduleTCB+0x8>
ffffffff84005d78:	1187b783          	ld	a5,280(a5)
ffffffff84005d7c:	4685                	li	a3,1
ffffffff84005d7e:	8bbd                	and	a5,a5,15
ffffffff84005d80:	17fd                	add	a5,a5,-1
ffffffff84005d82:	fef6f6e3          	bgeu	a3,a5,ffffffff84005d6e <scheduleTCB+0x8>
ffffffff84005d86:	e314                	sd	a3,0(a4)
ffffffff84005d88:	8082                	ret

ffffffff84005d8a <Arch_decodeIRQControlInvocation>:
ffffffff84005d8a:	02500793          	li	a5,37
ffffffff84005d8e:	0af51263          	bne	a0,a5,ffffffff84005e32 <Arch_decodeIRQControlInvocation+0xa8>
ffffffff84005d92:	478d                	li	a5,3
ffffffff84005d94:	0ab7f463          	bgeu	a5,a1,ffffffff84005e3c <Arch_decodeIRQControlInvocation+0xb2>
ffffffff84005d98:	8981b783          	ld	a5,-1896(gp) # ffffffff8400ab48 <current_extra_caps>
ffffffff84005d9c:	c3c5                	beqz	a5,ffffffff84005e3c <Arch_decodeIRQControlInvocation+0xb2>
ffffffff84005d9e:	715d                	add	sp,sp,-80
ffffffff84005da0:	e0a2                	sd	s0,64(sp)
ffffffff84005da2:	aa01b403          	ld	s0,-1376(gp) # ffffffff8400ad50 <ksCurThread>
ffffffff84005da6:	f84a                	sd	s2,48(sp)
ffffffff84005da8:	05843903          	ld	s2,88(s0)
ffffffff84005dac:	fc26                	sd	s1,56(sp)
ffffffff84005dae:	e486                	sd	ra,72(sp)
ffffffff84005db0:	f44e                	sd	s3,40(sp)
ffffffff84005db2:	03500513          	li	a0,53
ffffffff84005db6:	fff90813          	add	a6,s2,-1
ffffffff84005dba:	84b2                	mv	s1,a2
ffffffff84005dbc:	7434                	ld	a3,104(s0)
ffffffff84005dbe:	7838                	ld	a4,112(s0)
ffffffff84005dc0:	638c                	ld	a1,0(a5)
ffffffff84005dc2:	6790                	ld	a2,8(a5)
ffffffff84005dc4:	09056163          	bltu	a0,a6,ffffffff84005e46 <Arch_decodeIRQControlInvocation+0xbc>
ffffffff84005dc8:	00391513          	sll	a0,s2,0x3
ffffffff84005dcc:	00005797          	auipc	a5,0x5
ffffffff84005dd0:	db478793          	add	a5,a5,-588 # ffffffff8400ab80 <intStateIRQTable>
ffffffff84005dd4:	97aa                	add	a5,a5,a0
ffffffff84005dd6:	639c                	ld	a5,0(a5)
ffffffff84005dd8:	e3b1                	bnez	a5,ffffffff84005e1c <Arch_decodeIRQControlInvocation+0x92>
ffffffff84005dda:	4501                	li	a0,0
ffffffff84005ddc:	e02e                	sd	a1,0(sp)
ffffffff84005dde:	e432                	sd	a2,8(sp)
ffffffff84005de0:	b93fe0ef          	jal	ffffffff84004972 <lookupSlotForCNodeOp>
ffffffff84005de4:	e82a                	sd	a0,16(sp)
ffffffff84005de6:	ec2e                	sd	a1,24(sp)
ffffffff84005de8:	89ae                	mv	s3,a1
ffffffff84005dea:	ed0d                	bnez	a0,ffffffff84005e24 <Arch_decodeIRQControlInvocation+0x9a>
ffffffff84005dec:	619c                	ld	a5,0(a1)
ffffffff84005dee:	93ed                	srl	a5,a5,0x3b
ffffffff84005df0:	e7b5                	bnez	a5,ffffffff84005e5c <Arch_decodeIRQControlInvocation+0xd2>
ffffffff84005df2:	11843783          	ld	a5,280(s0)
ffffffff84005df6:	8522                	mv	a0,s0
ffffffff84005df8:	9bc1                	and	a5,a5,-16
ffffffff84005dfa:	0027e793          	or	a5,a5,2
ffffffff84005dfe:	10f43c23          	sd	a5,280(s0)
ffffffff84005e02:	f65ff0ef          	jal	ffffffff84005d66 <scheduleTCB>
ffffffff84005e06:	6406                	ld	s0,64(sp)
ffffffff84005e08:	60a6                	ld	ra,72(sp)
ffffffff84005e0a:	8626                	mv	a2,s1
ffffffff84005e0c:	85ce                	mv	a1,s3
ffffffff84005e0e:	74e2                	ld	s1,56(sp)
ffffffff84005e10:	79a2                	ld	s3,40(sp)
ffffffff84005e12:	854a                	mv	a0,s2
ffffffff84005e14:	7942                	ld	s2,48(sp)
ffffffff84005e16:	6161                	add	sp,sp,80
ffffffff84005e18:	a1cff06f          	j	ffffffff84005034 <invokeIRQControl>
ffffffff84005e1c:	47a5                	li	a5,9
ffffffff84005e1e:	d6f1b023          	sd	a5,-672(gp) # ffffffff8400b010 <current_syscall_error+0x30>
ffffffff84005e22:	450d                	li	a0,3
ffffffff84005e24:	60a6                	ld	ra,72(sp)
ffffffff84005e26:	6406                	ld	s0,64(sp)
ffffffff84005e28:	74e2                	ld	s1,56(sp)
ffffffff84005e2a:	7942                	ld	s2,48(sp)
ffffffff84005e2c:	79a2                	ld	s3,40(sp)
ffffffff84005e2e:	6161                	add	sp,sp,80
ffffffff84005e30:	8082                	ret
ffffffff84005e32:	478d                	li	a5,3
ffffffff84005e34:	d6f1b023          	sd	a5,-672(gp) # ffffffff8400b010 <current_syscall_error+0x30>
ffffffff84005e38:	450d                	li	a0,3
ffffffff84005e3a:	8082                	ret
ffffffff84005e3c:	479d                	li	a5,7
ffffffff84005e3e:	d6f1b023          	sd	a5,-672(gp) # ffffffff8400b010 <current_syscall_error+0x30>
ffffffff84005e42:	450d                	li	a0,3
ffffffff84005e44:	8082                	ret
ffffffff84005e46:	d3018793          	add	a5,gp,-720 # ffffffff8400afe0 <current_syscall_error>
ffffffff84005e4a:	4711                	li	a4,4
ffffffff84005e4c:	fb98                	sd	a4,48(a5)
ffffffff84005e4e:	4705                	li	a4,1
ffffffff84005e50:	eb98                	sd	a4,16(a5)
ffffffff84005e52:	03600713          	li	a4,54
ffffffff84005e56:	ef98                	sd	a4,24(a5)
ffffffff84005e58:	450d                	li	a0,3
ffffffff84005e5a:	b7e9                	j	ffffffff84005e24 <Arch_decodeIRQControlInvocation+0x9a>
ffffffff84005e5c:	47a1                	li	a5,8
ffffffff84005e5e:	d6f1b023          	sd	a5,-672(gp) # ffffffff8400b010 <current_syscall_error+0x30>
ffffffff84005e62:	450d                	li	a0,3
ffffffff84005e64:	b7c1                	j	ffffffff84005e24 <Arch_decodeIRQControlInvocation+0x9a>

ffffffff84005e66 <decodeIRQControlInvocation>:
ffffffff84005e66:	4765                	li	a4,25
ffffffff84005e68:	0ae51763          	bne	a0,a4,ffffffff84005f16 <decodeIRQControlInvocation+0xb0>
ffffffff84005e6c:	4709                	li	a4,2
ffffffff84005e6e:	08b77f63          	bgeu	a4,a1,ffffffff84005f0c <decodeIRQControlInvocation+0xa6>
ffffffff84005e72:	8981b783          	ld	a5,-1896(gp) # ffffffff8400ab48 <current_extra_caps>
ffffffff84005e76:	cbd9                	beqz	a5,ffffffff84005f0c <decodeIRQControlInvocation+0xa6>
ffffffff84005e78:	715d                	add	sp,sp,-80
ffffffff84005e7a:	e0a2                	sd	s0,64(sp)
ffffffff84005e7c:	aa01b403          	ld	s0,-1376(gp) # ffffffff8400ad50 <ksCurThread>
ffffffff84005e80:	f84a                	sd	s2,48(sp)
ffffffff84005e82:	05843903          	ld	s2,88(s0)
ffffffff84005e86:	fc26                	sd	s1,56(sp)
ffffffff84005e88:	e486                	sd	ra,72(sp)
ffffffff84005e8a:	f44e                	sd	s3,40(sp)
ffffffff84005e8c:	03500513          	li	a0,53
ffffffff84005e90:	fff90813          	add	a6,s2,-1
ffffffff84005e94:	84b2                	mv	s1,a2
ffffffff84005e96:	7034                	ld	a3,96(s0)
ffffffff84005e98:	7438                	ld	a4,104(s0)
ffffffff84005e9a:	638c                	ld	a1,0(a5)
ffffffff84005e9c:	6790                	ld	a2,8(a5)
ffffffff84005e9e:	07056d63          	bltu	a0,a6,ffffffff84005f18 <decodeIRQControlInvocation+0xb2>
ffffffff84005ea2:	00391513          	sll	a0,s2,0x3
ffffffff84005ea6:	00005797          	auipc	a5,0x5
ffffffff84005eaa:	cda78793          	add	a5,a5,-806 # ffffffff8400ab80 <intStateIRQTable>
ffffffff84005eae:	97aa                	add	a5,a5,a0
ffffffff84005eb0:	639c                	ld	a5,0(a5)
ffffffff84005eb2:	e3b1                	bnez	a5,ffffffff84005ef6 <decodeIRQControlInvocation+0x90>
ffffffff84005eb4:	4501                	li	a0,0
ffffffff84005eb6:	e02e                	sd	a1,0(sp)
ffffffff84005eb8:	e432                	sd	a2,8(sp)
ffffffff84005eba:	ab9fe0ef          	jal	ffffffff84004972 <lookupSlotForCNodeOp>
ffffffff84005ebe:	e82a                	sd	a0,16(sp)
ffffffff84005ec0:	ec2e                	sd	a1,24(sp)
ffffffff84005ec2:	89ae                	mv	s3,a1
ffffffff84005ec4:	ed0d                	bnez	a0,ffffffff84005efe <decodeIRQControlInvocation+0x98>
ffffffff84005ec6:	619c                	ld	a5,0(a1)
ffffffff84005ec8:	93ed                	srl	a5,a5,0x3b
ffffffff84005eca:	e3b5                	bnez	a5,ffffffff84005f2e <decodeIRQControlInvocation+0xc8>
ffffffff84005ecc:	11843783          	ld	a5,280(s0)
ffffffff84005ed0:	8522                	mv	a0,s0
ffffffff84005ed2:	9bc1                	and	a5,a5,-16
ffffffff84005ed4:	0027e793          	or	a5,a5,2
ffffffff84005ed8:	10f43c23          	sd	a5,280(s0)
ffffffff84005edc:	e8bff0ef          	jal	ffffffff84005d66 <scheduleTCB>
ffffffff84005ee0:	6406                	ld	s0,64(sp)
ffffffff84005ee2:	60a6                	ld	ra,72(sp)
ffffffff84005ee4:	8626                	mv	a2,s1
ffffffff84005ee6:	85ce                	mv	a1,s3
ffffffff84005ee8:	74e2                	ld	s1,56(sp)
ffffffff84005eea:	79a2                	ld	s3,40(sp)
ffffffff84005eec:	854a                	mv	a0,s2
ffffffff84005eee:	7942                	ld	s2,48(sp)
ffffffff84005ef0:	6161                	add	sp,sp,80
ffffffff84005ef2:	942ff06f          	j	ffffffff84005034 <invokeIRQControl>
ffffffff84005ef6:	47a5                	li	a5,9
ffffffff84005ef8:	d6f1b023          	sd	a5,-672(gp) # ffffffff8400b010 <current_syscall_error+0x30>
ffffffff84005efc:	450d                	li	a0,3
ffffffff84005efe:	60a6                	ld	ra,72(sp)
ffffffff84005f00:	6406                	ld	s0,64(sp)
ffffffff84005f02:	74e2                	ld	s1,56(sp)
ffffffff84005f04:	7942                	ld	s2,48(sp)
ffffffff84005f06:	79a2                	ld	s3,40(sp)
ffffffff84005f08:	6161                	add	sp,sp,80
ffffffff84005f0a:	8082                	ret
ffffffff84005f0c:	479d                	li	a5,7
ffffffff84005f0e:	d6f1b023          	sd	a5,-672(gp) # ffffffff8400b010 <current_syscall_error+0x30>
ffffffff84005f12:	450d                	li	a0,3
ffffffff84005f14:	8082                	ret
ffffffff84005f16:	bd95                	j	ffffffff84005d8a <Arch_decodeIRQControlInvocation>
ffffffff84005f18:	d3018793          	add	a5,gp,-720 # ffffffff8400afe0 <current_syscall_error>
ffffffff84005f1c:	4711                	li	a4,4
ffffffff84005f1e:	fb98                	sd	a4,48(a5)
ffffffff84005f20:	4705                	li	a4,1
ffffffff84005f22:	eb98                	sd	a4,16(a5)
ffffffff84005f24:	03600713          	li	a4,54
ffffffff84005f28:	ef98                	sd	a4,24(a5)
ffffffff84005f2a:	450d                	li	a0,3
ffffffff84005f2c:	bfc9                	j	ffffffff84005efe <decodeIRQControlInvocation+0x98>
ffffffff84005f2e:	47a1                	li	a5,8
ffffffff84005f30:	d6f1b023          	sd	a5,-672(gp) # ffffffff8400b010 <current_syscall_error+0x30>
ffffffff84005f34:	450d                	li	a0,3
ffffffff84005f36:	b7e1                	j	ffffffff84005efe <decodeIRQControlInvocation+0x98>

ffffffff84005f38 <receiveSignal>:
ffffffff84005f38:	7139                	add	sp,sp,-64
ffffffff84005f3a:	57fd                	li	a5,-1
ffffffff84005f3c:	0265d713          	srl	a4,a1,0x26
ffffffff84005f40:	f822                	sd	s0,48(sp)
ffffffff84005f42:	0197d813          	srl	a6,a5,0x19
ffffffff84005f46:	fc06                	sd	ra,56(sp)
ffffffff84005f48:	f44a                	sd	s2,40(sp)
ffffffff84005f4a:	f04e                	sd	s3,32(sp)
ffffffff84005f4c:	e82e                	sd	a1,16(sp)
ffffffff84005f4e:	ec32                	sd	a2,24(sp)
ffffffff84005f50:	8b05                	and	a4,a4,1
ffffffff84005f52:	0105f433          	and	s0,a1,a6
ffffffff84005f56:	c319                	beqz	a4,ffffffff84005f5c <receiveSignal+0x24>
ffffffff84005f58:	179e                	sll	a5,a5,0x27
ffffffff84005f5a:	8c5d                	or	s0,s0,a5
ffffffff84005f5c:	00043903          	ld	s2,0(s0)
ffffffff84005f60:	00297793          	and	a5,s2,2
ffffffff84005f64:	00397713          	and	a4,s2,3
ffffffff84005f68:	c385                	beqz	a5,ffffffff84005f88 <receiveSignal+0x50>
ffffffff84005f6a:	4789                	li	a5,2
ffffffff84005f6c:	00f71863          	bne	a4,a5,ffffffff84005f7c <receiveSignal+0x44>
ffffffff84005f70:	681c                	ld	a5,16(s0)
ffffffff84005f72:	ffc97913          	and	s2,s2,-4
ffffffff84005f76:	e53c                	sd	a5,72(a0)
ffffffff84005f78:	01243023          	sd	s2,0(s0)
ffffffff84005f7c:	70e2                	ld	ra,56(sp)
ffffffff84005f7e:	7442                	ld	s0,48(sp)
ffffffff84005f80:	7922                	ld	s2,40(sp)
ffffffff84005f82:	7982                	ld	s3,32(sp)
ffffffff84005f84:	6121                	add	sp,sp,64
ffffffff84005f86:	8082                	ret
ffffffff84005f88:	ea89                	bnez	a3,ffffffff84005f9a <receiveSignal+0x62>
ffffffff84005f8a:	70e2                	ld	ra,56(sp)
ffffffff84005f8c:	7442                	ld	s0,48(sp)
ffffffff84005f8e:	04053423          	sd	zero,72(a0)
ffffffff84005f92:	7922                	ld	s2,40(sp)
ffffffff84005f94:	7982                	ld	s3,32(sp)
ffffffff84005f96:	6121                	add	sp,sp,64
ffffffff84005f98:	8082                	ret
ffffffff84005f9a:	11853783          	ld	a5,280(a0)
ffffffff84005f9e:	59fd                	li	s3,-1
ffffffff84005fa0:	e0000737          	lui	a4,0xe0000
ffffffff84005fa4:	199e                	sll	s3,s3,0x27
ffffffff84005fa6:	8365                	srl	a4,a4,0x19
ffffffff84005fa8:	8f61                	and	a4,a4,s0
ffffffff84005faa:	0137f7b3          	and	a5,a5,s3
ffffffff84005fae:	8fd9                	or	a5,a5,a4
ffffffff84005fb0:	0067e793          	or	a5,a5,6
ffffffff84005fb4:	10f53c23          	sd	a5,280(a0)
ffffffff84005fb8:	e42a                	sd	a0,8(sp)
ffffffff84005fba:	dadff0ef          	jal	ffffffff84005d66 <scheduleTCB>
ffffffff84005fbe:	6410                	ld	a2,8(s0)
ffffffff84005fc0:	4785                	li	a5,1
ffffffff84005fc2:	179a                	sll	a5,a5,0x26
ffffffff84005fc4:	01995713          	srl	a4,s2,0x19
ffffffff84005fc8:	00f676b3          	and	a3,a2,a5
ffffffff84005fcc:	6522                	ld	a0,8(sp)
ffffffff84005fce:	8ff9                	and	a5,a5,a4
ffffffff84005fd0:	ce85                	beqz	a3,ffffffff84006008 <receiveSignal+0xd0>
ffffffff84005fd2:	cbb9                	beqz	a5,ffffffff84006028 <receiveSignal+0xf0>
ffffffff84005fd4:	013766b3          	or	a3,a4,s3
ffffffff84005fd8:	18a6bc23          	sd	a0,408(a3)
ffffffff84005fdc:	02000737          	lui	a4,0x2000
ffffffff84005fe0:	1771                	add	a4,a4,-4 # 1fffffc <KERNEL_OFFSET-0xfffffffefe000004>
ffffffff84005fe2:	00e97733          	and	a4,s2,a4
ffffffff84005fe6:	01951793          	sll	a5,a0,0x19
ffffffff84005fea:	8fd9                	or	a5,a5,a4
ffffffff84005fec:	1ad53023          	sd	a3,416(a0)
ffffffff84005ff0:	18053c23          	sd	zero,408(a0)
ffffffff84005ff4:	0017e793          	or	a5,a5,1
ffffffff84005ff8:	70e2                	ld	ra,56(sp)
ffffffff84005ffa:	e410                	sd	a2,8(s0)
ffffffff84005ffc:	e01c                	sd	a5,0(s0)
ffffffff84005ffe:	7442                	ld	s0,48(sp)
ffffffff84006000:	7922                	ld	s2,40(sp)
ffffffff84006002:	7982                	ld	s3,32(sp)
ffffffff84006004:	6121                	add	sp,sp,64
ffffffff84006006:	8082                	ret
ffffffff84006008:	c399                	beqz	a5,ffffffff8400600e <receiveSignal+0xd6>
ffffffff8400600a:	01376733          	or	a4,a4,s3
ffffffff8400600e:	55fd                	li	a1,-1
ffffffff84006010:	0195d793          	srl	a5,a1,0x19
ffffffff84006014:	00f67833          	and	a6,a2,a5
ffffffff84006018:	86ba                	mv	a3,a4
ffffffff8400601a:	fa081fe3          	bnez	a6,ffffffff84005fd8 <receiveSignal+0xa0>
ffffffff8400601e:	159e                	sll	a1,a1,0x27
ffffffff84006020:	8fe9                	and	a5,a5,a0
ffffffff84006022:	8e6d                	and	a2,a2,a1
ffffffff84006024:	8e5d                	or	a2,a2,a5
ffffffff84006026:	bf5d                	j	ffffffff84005fdc <receiveSignal+0xa4>
ffffffff84006028:	86ba                	mv	a3,a4
ffffffff8400602a:	b77d                	j	ffffffff84005fd8 <receiveSignal+0xa0>

ffffffff8400602c <cancelBadgedSends>:
ffffffff8400602c:	611c                	ld	a5,0(a0)
ffffffff8400602e:	7139                	add	sp,sp,-64
ffffffff84006030:	fc06                	sd	ra,56(sp)
ffffffff84006032:	f822                	sd	s0,48(sp)
ffffffff84006034:	f426                	sd	s1,40(sp)
ffffffff84006036:	f04a                	sd	s2,32(sp)
ffffffff84006038:	ec4e                	sd	s3,24(sp)
ffffffff8400603a:	e852                	sd	s4,16(sp)
ffffffff8400603c:	e456                	sd	s5,8(sp)
ffffffff8400603e:	e05a                	sd	s6,0(sp)
ffffffff84006040:	4705                	li	a4,1
ffffffff84006042:	0037f693          	and	a3,a5,3
ffffffff84006046:	00e68663          	beq	a3,a4,ffffffff84006052 <cancelBadgedSends+0x26>
ffffffff8400604a:	8b85                	and	a5,a5,1
ffffffff8400604c:	cbad                	beqz	a5,ffffffff840060be <cancelBadgedSends+0x92>
ffffffff8400604e:	be9fd0ef          	jal	ffffffff84003c36 <halt>
ffffffff84006052:	6518                	ld	a4,8(a0)
ffffffff84006054:	169a                	sll	a3,a3,0x26
ffffffff84006056:	f8000637          	lui	a2,0xf8000
ffffffff8400605a:	8265                	srl	a2,a2,0x19
ffffffff8400605c:	8efd                	and	a3,a3,a5
ffffffff8400605e:	8a2a                	mv	s4,a0
ffffffff84006060:	89ae                	mv	s3,a1
ffffffff84006062:	843a                	mv	s0,a4
ffffffff84006064:	8e7d                	and	a2,a2,a5
ffffffff84006066:	c681                	beqz	a3,ffffffff8400606e <cancelBadgedSends+0x42>
ffffffff84006068:	56fd                	li	a3,-1
ffffffff8400606a:	169e                	sll	a3,a3,0x27
ffffffff8400606c:	8e55                	or	a2,a2,a3
ffffffff8400606e:	939d                	srl	a5,a5,0x27
ffffffff84006070:	02779913          	sll	s2,a5,0x27
ffffffff84006074:	012a3023          	sd	s2,0(s4)
ffffffff84006078:	8b32                	mv	s6,a2
ffffffff8400607a:	cf59                	beqz	a4,ffffffff84006118 <cancelBadgedSends+0xec>
ffffffff8400607c:	8aba                	mv	s5,a4
ffffffff8400607e:	12843783          	ld	a5,296(s0)
ffffffff84006082:	84a2                	mv	s1,s0
ffffffff84006084:	19843403          	ld	s0,408(s0)
ffffffff84006088:	04f98563          	beq	s3,a5,ffffffff840060d2 <cancelBadgedSends+0xa6>
ffffffff8400608c:	f86d                	bnez	s0,ffffffff8400607e <cancelBadgedSends+0x52>
ffffffff8400608e:	f80007b7          	lui	a5,0xf8000
ffffffff84006092:	83e5                	srl	a5,a5,0x19
ffffffff84006094:	00fb7b33          	and	s6,s6,a5
ffffffff84006098:	8756                	mv	a4,s5
ffffffff8400609a:	012b6933          	or	s2,s6,s2
ffffffff8400609e:	000a8463          	beqz	s5,ffffffff840060a6 <cancelBadgedSends+0x7a>
ffffffff840060a2:	00196913          	or	s2,s2,1
ffffffff840060a6:	a9018413          	add	s0,gp,-1392 # ffffffff8400ad40 <ksSchedulerAction>
ffffffff840060aa:	6008                	ld	a0,0(s0)
ffffffff840060ac:	00ea3423          	sd	a4,8(s4)
ffffffff840060b0:	012a3023          	sd	s2,0(s4)
ffffffff840060b4:	4785                	li	a5,1
ffffffff840060b6:	04a7ee63          	bltu	a5,a0,ffffffff84006112 <cancelBadgedSends+0xe6>
ffffffff840060ba:	4785                	li	a5,1
ffffffff840060bc:	e01c                	sd	a5,0(s0)
ffffffff840060be:	70e2                	ld	ra,56(sp)
ffffffff840060c0:	7442                	ld	s0,48(sp)
ffffffff840060c2:	74a2                	ld	s1,40(sp)
ffffffff840060c4:	7902                	ld	s2,32(sp)
ffffffff840060c6:	69e2                	ld	s3,24(sp)
ffffffff840060c8:	6a42                	ld	s4,16(sp)
ffffffff840060ca:	6aa2                	ld	s5,8(sp)
ffffffff840060cc:	6b02                	ld	s6,0(sp)
ffffffff840060ce:	6121                	add	sp,sp,64
ffffffff840060d0:	8082                	ret
ffffffff840060d2:	1184b783          	ld	a5,280(s1)
ffffffff840060d6:	8526                	mv	a0,s1
ffffffff840060d8:	9bc1                	and	a5,a5,-16
ffffffff840060da:	0027e793          	or	a5,a5,2
ffffffff840060de:	10f4bc23          	sd	a5,280(s1)
ffffffff840060e2:	c85ff0ef          	jal	ffffffff84005d66 <scheduleTCB>
ffffffff840060e6:	8526                	mv	a0,s1
ffffffff840060e8:	b1dff0ef          	jal	ffffffff84005c04 <tcbSchedEnqueue>
ffffffff840060ec:	1a04b783          	ld	a5,416(s1)
ffffffff840060f0:	cb91                	beqz	a5,ffffffff84006104 <cancelBadgedSends+0xd8>
ffffffff840060f2:	1984b703          	ld	a4,408(s1)
ffffffff840060f6:	18e7bc23          	sd	a4,408(a5) # fffffffff8000198 <ki_end+0x73fde198>
ffffffff840060fa:	cb09                	beqz	a4,ffffffff8400610c <cancelBadgedSends+0xe0>
ffffffff840060fc:	1af73023          	sd	a5,416(a4)
ffffffff84006100:	fc3d                	bnez	s0,ffffffff8400607e <cancelBadgedSends+0x52>
ffffffff84006102:	b771                	j	ffffffff8400608e <cancelBadgedSends+0x62>
ffffffff84006104:	1984ba83          	ld	s5,408(s1)
ffffffff84006108:	8756                	mv	a4,s5
ffffffff8400610a:	fb6d                	bnez	a4,ffffffff840060fc <cancelBadgedSends+0xd0>
ffffffff8400610c:	8b3e                	mv	s6,a5
ffffffff8400610e:	f825                	bnez	s0,ffffffff8400607e <cancelBadgedSends+0x52>
ffffffff84006110:	bfbd                	j	ffffffff8400608e <cancelBadgedSends+0x62>
ffffffff84006112:	af3ff0ef          	jal	ffffffff84005c04 <tcbSchedEnqueue>
ffffffff84006116:	b755                	j	ffffffff840060ba <cancelBadgedSends+0x8e>
ffffffff84006118:	f80007b7          	lui	a5,0xf8000
ffffffff8400611c:	83e5                	srl	a5,a5,0x19
ffffffff8400611e:	8e7d                	and	a2,a2,a5
ffffffff84006120:	01266933          	or	s2,a2,s2
ffffffff84006124:	b749                	j	ffffffff840060a6 <cancelBadgedSends+0x7a>

ffffffff84006126 <invokeCNodeCancelBadgedSends>:
ffffffff84006126:	c19d                	beqz	a1,ffffffff8400614c <invokeCNodeCancelBadgedSends+0x26>
ffffffff84006128:	02655713          	srl	a4,a0,0x26
ffffffff8400612c:	1101                	add	sp,sp,-32
ffffffff8400612e:	57fd                	li	a5,-1
ffffffff84006130:	0197d693          	srl	a3,a5,0x19
ffffffff84006134:	ec06                	sd	ra,24(sp)
ffffffff84006136:	8b05                	and	a4,a4,1
ffffffff84006138:	8d75                	and	a0,a0,a3
ffffffff8400613a:	c319                	beqz	a4,ffffffff84006140 <invokeCNodeCancelBadgedSends+0x1a>
ffffffff8400613c:	179e                	sll	a5,a5,0x27
ffffffff8400613e:	8d5d                	or	a0,a0,a5
ffffffff84006140:	eedff0ef          	jal	ffffffff8400602c <cancelBadgedSends>
ffffffff84006144:	60e2                	ld	ra,24(sp)
ffffffff84006146:	4501                	li	a0,0
ffffffff84006148:	6105                	add	sp,sp,32
ffffffff8400614a:	8082                	ret
ffffffff8400614c:	4501                	li	a0,0
ffffffff8400614e:	8082                	ret

ffffffff84006150 <cancelSignal>:
ffffffff84006150:	6594                	ld	a3,8(a1)
ffffffff84006152:	57fd                	li	a5,-1
ffffffff84006154:	0197d713          	srl	a4,a5,0x19
ffffffff84006158:	0266d613          	srl	a2,a3,0x26
ffffffff8400615c:	8a05                	and	a2,a2,1
ffffffff8400615e:	8f75                	and	a4,a4,a3
ffffffff84006160:	c219                	beqz	a2,ffffffff84006166 <cancelSignal+0x16>
ffffffff84006162:	179e                	sll	a5,a5,0x27
ffffffff84006164:	8f5d                	or	a4,a4,a5
ffffffff84006166:	619c                	ld	a5,0(a1)
ffffffff84006168:	0197d613          	srl	a2,a5,0x19
ffffffff8400616c:	0007d663          	bgez	a5,ffffffff84006178 <cancelSignal+0x28>
ffffffff84006170:	587d                	li	a6,-1
ffffffff84006172:	181e                	sll	a6,a6,0x27
ffffffff84006174:	01066633          	or	a2,a2,a6
ffffffff84006178:	1a053883          	ld	a7,416(a0)
ffffffff8400617c:	19853803          	ld	a6,408(a0)
ffffffff84006180:	04088263          	beqz	a7,ffffffff840061c4 <cancelSignal+0x74>
ffffffff84006184:	1908bc23          	sd	a6,408(a7)
ffffffff84006188:	833a                	mv	t1,a4
ffffffff8400618a:	04080163          	beqz	a6,ffffffff840061cc <cancelSignal+0x7c>
ffffffff8400618e:	1b183023          	sd	a7,416(a6)
ffffffff84006192:	587d                	li	a6,-1
ffffffff84006194:	02781893          	sll	a7,a6,0x27
ffffffff84006198:	179e                	sll	a5,a5,0x27
ffffffff8400619a:	01985813          	srl	a6,a6,0x19
ffffffff8400619e:	0116f6b3          	and	a3,a3,a7
ffffffff840061a2:	01077733          	and	a4,a4,a6
ffffffff840061a6:	939d                	srl	a5,a5,0x27
ffffffff840061a8:	0666                	sll	a2,a2,0x19
ffffffff840061aa:	8ed9                	or	a3,a3,a4
ffffffff840061ac:	8fd1                	or	a5,a5,a2
ffffffff840061ae:	02030163          	beqz	t1,ffffffff840061d0 <cancelSignal+0x80>
ffffffff840061b2:	11853703          	ld	a4,280(a0)
ffffffff840061b6:	e19c                	sd	a5,0(a1)
ffffffff840061b8:	e594                	sd	a3,8(a1)
ffffffff840061ba:	ff077793          	and	a5,a4,-16
ffffffff840061be:	10f53c23          	sd	a5,280(a0)
ffffffff840061c2:	b655                	j	ffffffff84005d66 <scheduleTCB>
ffffffff840061c4:	8742                	mv	a4,a6
ffffffff840061c6:	8342                	mv	t1,a6
ffffffff840061c8:	fc0813e3          	bnez	a6,ffffffff8400618e <cancelSignal+0x3e>
ffffffff840061cc:	8646                	mv	a2,a7
ffffffff840061ce:	b7d1                	j	ffffffff84006192 <cancelSignal+0x42>
ffffffff840061d0:	11853703          	ld	a4,280(a0)
ffffffff840061d4:	9bf1                	and	a5,a5,-4
ffffffff840061d6:	e19c                	sd	a5,0(a1)
ffffffff840061d8:	e594                	sd	a3,8(a1)
ffffffff840061da:	ff077793          	and	a5,a4,-16
ffffffff840061de:	10f53c23          	sd	a5,280(a0)
ffffffff840061e2:	b651                	j	ffffffff84005d66 <scheduleTCB>

ffffffff840061e4 <decodeRISCVMMUInvocation>:
ffffffff840061e4:	7155                	add	sp,sp,-208
ffffffff840061e6:	e1a2                	sd	s0,192(sp)
ffffffff840061e8:	fd26                	sd	s1,184(sp)
ffffffff840061ea:	e83a                	sd	a4,16(sp)
ffffffff840061ec:	84ba                	mv	s1,a4
ffffffff840061ee:	03b75413          	srl	s0,a4,0x3b
ffffffff840061f2:	e586                	sd	ra,200(sp)
ffffffff840061f4:	f94a                	sd	s2,176(sp)
ffffffff840061f6:	f54e                	sd	s3,168(sp)
ffffffff840061f8:	f152                	sd	s4,160(sp)
ffffffff840061fa:	ed56                	sd	s5,152(sp)
ffffffff840061fc:	e95a                	sd	s6,144(sp)
ffffffff840061fe:	e55e                	sd	s7,136(sp)
ffffffff84006200:	e162                	sd	s8,128(sp)
ffffffff84006202:	fce6                	sd	s9,120(sp)
ffffffff84006204:	f8ea                	sd	s10,112(sp)
ffffffff84006206:	f4ee                	sd	s11,104(sp)
ffffffff84006208:	ec3e                	sd	a5,24(sp)
ffffffff8400620a:	472d                	li	a4,11
ffffffff8400620c:	2ae40063          	beq	s0,a4,ffffffff840064ac <decodeRISCVMMUInvocation+0x2c8>
ffffffff84006210:	12876e63          	bltu	a4,s0,ffffffff8400634c <decodeRISCVMMUInvocation+0x168>
ffffffff84006214:	4905                	li	s2,1
ffffffff84006216:	89b6                	mv	s3,a3
ffffffff84006218:	25240763          	beq	s0,s2,ffffffff84006466 <decodeRISCVMMUInvocation+0x282>
ffffffff8400621c:	470d                	li	a4,3
ffffffff8400621e:	78e41863          	bne	s0,a4,ffffffff840069ae <decodeRISCVMMUInvocation+0x7ca>
ffffffff84006222:	8a3e                	mv	s4,a5
ffffffff84006224:	e4be                	sd	a5,72(sp)
ffffffff84006226:	e0a6                	sd	s1,64(sp)
ffffffff84006228:	47fd                	li	a5,31
ffffffff8400622a:	3af50163          	beq	a0,a5,ffffffff840065cc <decodeRISCVMMUInvocation+0x3e8>
ffffffff8400622e:	47f9                	li	a5,30
ffffffff84006230:	6cf51963          	bne	a0,a5,ffffffff84006902 <decodeRISCVMMUInvocation+0x71e>
ffffffff84006234:	6ab97a63          	bgeu	s2,a1,ffffffff840068e8 <decodeRISCVMMUInvocation+0x704>
ffffffff84006238:	8981b703          	ld	a4,-1896(gp) # ffffffff8400ab48 <current_extra_caps>
ffffffff8400623c:	6a070663          	beqz	a4,ffffffff840068e8 <decodeRISCVMMUInvocation+0x704>
ffffffff84006240:	0274d793          	srl	a5,s1,0x27
ffffffff84006244:	8b85                	and	a5,a5,1
ffffffff84006246:	6c079d63          	bnez	a5,ffffffff84006920 <decodeRISCVMMUInvocation+0x73c>
ffffffff8400624a:	631c                	ld	a5,0(a4)
ffffffff8400624c:	aa01bc83          	ld	s9,-1376(gp) # ffffffff8400ad50 <ksCurThread>
ffffffff84006250:	058cba83          	ld	s5,88(s9)
ffffffff84006254:	03b7d693          	srl	a3,a5,0x3b
ffffffff84006258:	00873c03          	ld	s8,8(a4)
ffffffff8400625c:	68869b63          	bne	a3,s0,ffffffff840068f2 <decodeRISCVMMUInvocation+0x70e>
ffffffff84006260:	939d                	srl	a5,a5,0x27
ffffffff84006262:	8b85                	and	a5,a5,1
ffffffff84006264:	68078763          	beqz	a5,ffffffff840068f2 <decodeRISCVMMUInvocation+0x70e>
ffffffff84006268:	009c5913          	srl	s2,s8,0x9
ffffffff8400626c:	02695713          	srl	a4,s2,0x26
ffffffff84006270:	57fd                	li	a5,-1
ffffffff84006272:	0197d693          	srl	a3,a5,0x19
ffffffff84006276:	8b05                	and	a4,a4,1
ffffffff84006278:	00d97933          	and	s2,s2,a3
ffffffff8400627c:	c701                	beqz	a4,ffffffff84006284 <decodeRISCVMMUInvocation+0xa0>
ffffffff8400627e:	179e                	sll	a5,a5,0x27
ffffffff84006280:	00f96933          	or	s2,s2,a5
ffffffff84006284:	fefff7b7          	lui	a5,0xfefff
ffffffff84006288:	07ba                	sll	a5,a5,0xe
ffffffff8400628a:	83e9                	srl	a5,a5,0x1a
ffffffff8400628c:	030c5513          	srl	a0,s8,0x30
ffffffff84006290:	6b57e763          	bltu	a5,s5,ffffffff8400693e <decodeRISCVMMUInvocation+0x75a>
ffffffff84006294:	d5afd0ef          	jal	ffffffff840037ee <findVSpaceForASID>
ffffffff84006298:	e8aa                	sd	a0,80(sp)
ffffffff8400629a:	ecae                	sd	a1,88(sp)
ffffffff8400629c:	6a051863          	bnez	a0,ffffffff8400694c <decodeRISCVMMUInvocation+0x768>
ffffffff840062a0:	64b91963          	bne	s2,a1,ffffffff840068f2 <decodeRISCVMMUInvocation+0x70e>
ffffffff840062a4:	854a                	mv	a0,s2
ffffffff840062a6:	85d6                	mv	a1,s5
ffffffff840062a8:	c85fd0ef          	jal	ffffffff84003f2c <lookupPTSlot>
ffffffff840062ac:	f82a                	sd	a0,48(sp)
ffffffff840062ae:	fc2e                	sd	a1,56(sp)
ffffffff840062b0:	47b1                	li	a5,12
ffffffff840062b2:	8d2a                	mv	s10,a0
ffffffff840062b4:	892e                	mv	s2,a1
ffffffff840062b6:	5cf58c63          	beq	a1,a5,ffffffff8400688e <decodeRISCVMMUInvocation+0x6aa>
ffffffff840062ba:	00053b83          	ld	s7,0(a0)
ffffffff840062be:	001bfb93          	and	s7,s7,1
ffffffff840062c2:	5c0b9663          	bnez	s7,ffffffff8400688e <decodeRISCVMMUInvocation+0x6aa>
ffffffff840062c6:	009a5b13          	srl	s6,s4,0x9
ffffffff840062ca:	026b5713          	srl	a4,s6,0x26
ffffffff840062ce:	57fd                	li	a5,-1
ffffffff840062d0:	0197d693          	srl	a3,a5,0x19
ffffffff840062d4:	8b05                	and	a4,a4,1
ffffffff840062d6:	00db7b33          	and	s6,s6,a3
ffffffff840062da:	c701                	beqz	a4,ffffffff840062e2 <decodeRISCVMMUInvocation+0xfe>
ffffffff840062dc:	179e                	sll	a5,a5,0x27
ffffffff840062de:	00fb6b33          	or	s6,s6,a5
ffffffff840062e2:	118cb783          	ld	a5,280(s9)
ffffffff840062e6:	5dfd                	li	s11,-1
ffffffff840062e8:	010dd693          	srl	a3,s11,0x10
ffffffff840062ec:	9bc1                	and	a5,a5,-16
ffffffff840062ee:	0027e793          	or	a5,a5,2
ffffffff840062f2:	030d9713          	sll	a4,s11,0x30
ffffffff840062f6:	10fcbc23          	sd	a5,280(s9)
ffffffff840062fa:	8566                	mv	a0,s9
ffffffff840062fc:	00da7433          	and	s0,s4,a3
ffffffff84006300:	00ec7c33          	and	s8,s8,a4
ffffffff84006304:	a63ff0ef          	jal	ffffffff84005d66 <scheduleTCB>
ffffffff84006308:	4605                	li	a2,1
ffffffff8400630a:	012617b3          	sll	a5,a2,s2
ffffffff8400630e:	028d9693          	sll	a3,s11,0x28
ffffffff84006312:	40f007b3          	neg	a5,a5
ffffffff84006316:	8ee5                	and	a3,a3,s1
ffffffff84006318:	02661713          	sll	a4,a2,0x26
ffffffff8400631c:	0157f7b3          	and	a5,a5,s5
ffffffff84006320:	975a                	add	a4,a4,s6
ffffffff84006322:	8fd5                	or	a5,a5,a3
ffffffff84006324:	fff006b7          	lui	a3,0xfff00
ffffffff84006328:	161e                	sll	a2,a2,0x27
ffffffff8400632a:	82a9                	srl	a3,a3,0xa
ffffffff8400632c:	8309                	srl	a4,a4,0x2
ffffffff8400632e:	01846433          	or	s0,s0,s8
ffffffff84006332:	8fd1                	or	a5,a5,a2
ffffffff84006334:	8f75                	and	a4,a4,a3
ffffffff84006336:	00f9b023          	sd	a5,0(s3)
ffffffff8400633a:	0089b423          	sd	s0,8(s3)
ffffffff8400633e:	00176713          	or	a4,a4,1
ffffffff84006342:	00ed3023          	sd	a4,0(s10)
ffffffff84006346:	12000073          	sfence.vma
ffffffff8400634a:	a289                	j	ffffffff8400648c <decodeRISCVMMUInvocation+0x2a8>
ffffffff8400634c:	47b5                	li	a5,13
ffffffff8400634e:	66f41063          	bne	s0,a5,ffffffff840069ae <decodeRISCVMMUInvocation+0x7ca>
ffffffff84006352:	02400793          	li	a5,36
ffffffff84006356:	26f51663          	bne	a0,a5,ffffffff840065c2 <decodeRISCVMMUInvocation+0x3de>
ffffffff8400635a:	8981b983          	ld	s3,-1896(gp) # ffffffff8400ab48 <current_extra_caps>
ffffffff8400635e:	52098363          	beqz	s3,ffffffff84006884 <decodeRISCVMMUInvocation+0x6a0>
ffffffff84006362:	0009ba03          	ld	s4,0(s3)
ffffffff84006366:	478d                	li	a5,3
ffffffff84006368:	03ba5713          	srl	a4,s4,0x3b
ffffffff8400636c:	50f71463          	bne	a4,a5,ffffffff84006874 <decodeRISCVMMUInvocation+0x690>
ffffffff84006370:	027a5793          	srl	a5,s4,0x27
ffffffff84006374:	8b85                	and	a5,a5,1
ffffffff84006376:	4e079f63          	bnez	a5,ffffffff84006874 <decodeRISCVMMUInvocation+0x690>
ffffffff8400637a:	02b4d593          	srl	a1,s1,0x2b
ffffffff8400637e:	15c2                	sll	a1,a1,0x30
ffffffff84006380:	91c1                	srl	a1,a1,0x30
ffffffff84006382:	0095d613          	srl	a2,a1,0x9
ffffffff84006386:	060e                	sll	a2,a2,0x3
ffffffff84006388:	d8818693          	add	a3,gp,-632 # ffffffff8400b038 <riscvKSASIDTable>
ffffffff8400638c:	96b2                	add	a3,a3,a2
ffffffff8400638e:	0006b903          	ld	s2,0(a3) # fffffffffff00000 <ki_end+0x7bede000>
ffffffff84006392:	56090c63          	beqz	s2,ffffffff8400690a <decodeRISCVMMUInvocation+0x726>
ffffffff84006396:	048a                	sll	s1,s1,0x2
ffffffff84006398:	0264d693          	srl	a3,s1,0x26
ffffffff8400639c:	f8000637          	lui	a2,0xf8000
ffffffff840063a0:	8265                	srl	a2,a2,0x19
ffffffff840063a2:	8a85                	and	a3,a3,1
ffffffff840063a4:	8cf1                	and	s1,s1,a2
ffffffff840063a6:	c681                	beqz	a3,ffffffff840063ae <decodeRISCVMMUInvocation+0x1ca>
ffffffff840063a8:	56fd                	li	a3,-1
ffffffff840063aa:	169e                	sll	a3,a3,0x27
ffffffff840063ac:	8cd5                	or	s1,s1,a3
ffffffff840063ae:	4e991563          	bne	s2,s1,ffffffff84006898 <decodeRISCVMMUInvocation+0x6b4>
ffffffff840063b2:	874a                	mv	a4,s2
ffffffff840063b4:	e581                	bnez	a1,ffffffff840063bc <decodeRISCVMMUInvocation+0x1d8>
ffffffff840063b6:	00890713          	add	a4,s2,8
ffffffff840063ba:	4785                	li	a5,1
ffffffff840063bc:	20000613          	li	a2,512
ffffffff840063c0:	a029                	j	ffffffff840063ca <decodeRISCVMMUInvocation+0x1e6>
ffffffff840063c2:	0785                	add	a5,a5,1 # fffffffffefff001 <ki_end+0x7afdd001>
ffffffff840063c4:	0721                	add	a4,a4,8
ffffffff840063c6:	50c78c63          	beq	a5,a2,ffffffff840068de <decodeRISCVMMUInvocation+0x6fa>
ffffffff840063ca:	6314                	ld	a3,0(a4)
ffffffff840063cc:	fafd                	bnez	a3,ffffffff840063c2 <decodeRISCVMMUInvocation+0x1de>
ffffffff840063ce:	aa01b503          	ld	a0,-1376(gp) # ffffffff8400ad50 <ksCurThread>
ffffffff840063d2:	11853703          	ld	a4,280(a0)
ffffffff840063d6:	00b78433          	add	s0,a5,a1
ffffffff840063da:	ff077793          	and	a5,a4,-16
ffffffff840063de:	0027e793          	or	a5,a5,2
ffffffff840063e2:	10f53c23          	sd	a5,280(a0)
ffffffff840063e6:	981ff0ef          	jal	ffffffff84005d66 <scheduleTCB>
ffffffff840063ea:	0089b783          	ld	a5,8(s3)
ffffffff840063ee:	577d                	li	a4,-1
ffffffff840063f0:	01975613          	srl	a2,a4,0x19
ffffffff840063f4:	0097d513          	srl	a0,a5,0x9
ffffffff840063f8:	02655693          	srl	a3,a0,0x26
ffffffff840063fc:	8a85                	and	a3,a3,1
ffffffff840063fe:	8d71                	and	a0,a0,a2
ffffffff84006400:	c299                	beqz	a3,ffffffff84006406 <decodeRISCVMMUInvocation+0x222>
ffffffff84006402:	171e                	sll	a4,a4,0x27
ffffffff84006404:	8d59                	or	a0,a0,a4
ffffffff84006406:	577d                	li	a4,-1
ffffffff84006408:	02871613          	sll	a2,a4,0x28
ffffffff8400640c:	01075693          	srl	a3,a4,0x10
ffffffff84006410:	00ca7733          	and	a4,s4,a2
ffffffff84006414:	4605                	li	a2,1
ffffffff84006416:	8ff5                	and	a5,a5,a3
ffffffff84006418:	161e                	sll	a2,a2,0x27
ffffffff8400641a:	03041693          	sll	a3,s0,0x30
ffffffff8400641e:	8f51                	or	a4,a4,a2
ffffffff84006420:	8fd5                	or	a5,a5,a3
ffffffff84006422:	0001b617          	auipc	a2,0x1b
ffffffff84006426:	bde60613          	add	a2,a2,-1058 # ffffffff84021000 <kernel_root_pageTable>
ffffffff8400642a:	00f9b423          	sd	a5,8(s3)
ffffffff8400642e:	00e9b023          	sd	a4,0(s3)
ffffffff84006432:	0001b797          	auipc	a5,0x1b
ffffffff84006436:	3ce78793          	add	a5,a5,974 # ffffffff84021800 <kernel_root_pageTable+0x800>
ffffffff8400643a:	0001c597          	auipc	a1,0x1c
ffffffff8400643e:	bc658593          	add	a1,a1,-1082 # ffffffff84022000 <ki_end>
ffffffff84006442:	40c50633          	sub	a2,a0,a2
ffffffff84006446:	6394                	ld	a3,0(a5)
ffffffff84006448:	00f60733          	add	a4,a2,a5
ffffffff8400644c:	07a1                	add	a5,a5,8
ffffffff8400644e:	e314                	sd	a3,0(a4)
ffffffff84006450:	fef59be3          	bne	a1,a5,ffffffff84006446 <decodeRISCVMMUInvocation+0x262>
ffffffff84006454:	1ff47793          	and	a5,s0,511
ffffffff84006458:	00379713          	sll	a4,a5,0x3
ffffffff8400645c:	00e907b3          	add	a5,s2,a4
ffffffff84006460:	e388                	sd	a0,0(a5)
ffffffff84006462:	4b81                	li	s7,0
ffffffff84006464:	a025                	j	ffffffff8400648c <decodeRISCVMMUInvocation+0x2a8>
ffffffff84006466:	f826                	sd	s1,48(sp)
ffffffff84006468:	fc3e                	sd	a5,56(sp)
ffffffff8400646a:	02100713          	li	a4,33
ffffffff8400646e:	893e                	mv	s2,a5
ffffffff84006470:	3ce50463          	beq	a0,a4,ffffffff84006838 <decodeRISCVMMUInvocation+0x654>
ffffffff84006474:	02200713          	li	a4,34
ffffffff84006478:	1ce50963          	beq	a0,a4,ffffffff8400664a <decodeRISCVMMUInvocation+0x466>
ffffffff8400647c:	02000713          	li	a4,32
ffffffff84006480:	22e50563          	beq	a0,a4,ffffffff840066aa <decodeRISCVMMUInvocation+0x4c6>
ffffffff84006484:	478d                	li	a5,3
ffffffff84006486:	d6f1b023          	sd	a5,-672(gp) # ffffffff8400b010 <current_syscall_error+0x30>
ffffffff8400648a:	4b8d                	li	s7,3
ffffffff8400648c:	60ae                	ld	ra,200(sp)
ffffffff8400648e:	640e                	ld	s0,192(sp)
ffffffff84006490:	74ea                	ld	s1,184(sp)
ffffffff84006492:	794a                	ld	s2,176(sp)
ffffffff84006494:	79aa                	ld	s3,168(sp)
ffffffff84006496:	7a0a                	ld	s4,160(sp)
ffffffff84006498:	6aea                	ld	s5,152(sp)
ffffffff8400649a:	6b4a                	ld	s6,144(sp)
ffffffff8400649c:	6c0a                	ld	s8,128(sp)
ffffffff8400649e:	7ce6                	ld	s9,120(sp)
ffffffff840064a0:	7d46                	ld	s10,112(sp)
ffffffff840064a2:	7da6                	ld	s11,104(sp)
ffffffff840064a4:	855e                	mv	a0,s7
ffffffff840064a6:	6baa                	ld	s7,136(sp)
ffffffff840064a8:	6169                	add	sp,sp,208
ffffffff840064aa:	8082                	ret
ffffffff840064ac:	02300793          	li	a5,35
ffffffff840064b0:	10f51963          	bne	a0,a5,ffffffff840065c2 <decodeRISCVMMUInvocation+0x3de>
ffffffff840064b4:	4785                	li	a5,1
ffffffff840064b6:	3cb7f763          	bgeu	a5,a1,ffffffff84006884 <decodeRISCVMMUInvocation+0x6a0>
ffffffff840064ba:	89818793          	add	a5,gp,-1896 # ffffffff8400ab48 <current_extra_caps>
ffffffff840064be:	0007b903          	ld	s2,0(a5)
ffffffff840064c2:	3c090163          	beqz	s2,ffffffff84006884 <decodeRISCVMMUInvocation+0x6a0>
ffffffff840064c6:	679c                	ld	a5,8(a5)
ffffffff840064c8:	3a078e63          	beqz	a5,ffffffff84006884 <decodeRISCVMMUInvocation+0x6a0>
ffffffff840064cc:	aa01b983          	ld	s3,-1376(gp) # ffffffff8400ad50 <ksCurThread>
ffffffff840064d0:	d8818a93          	add	s5,gp,-632 # ffffffff8400b038 <riscvKSASIDTable>
ffffffff840064d4:	0007bc03          	ld	s8,0(a5)
ffffffff840064d8:	0087bb03          	ld	s6,8(a5)
ffffffff840064dc:	0589bc83          	ld	s9,88(s3)
ffffffff840064e0:	0609bd03          	ld	s10,96(s3)
ffffffff840064e4:	00093483          	ld	s1,0(s2)
ffffffff840064e8:	00893a03          	ld	s4,8(s2)
ffffffff840064ec:	87d6                	mv	a5,s5
ffffffff840064ee:	4401                	li	s0,0
ffffffff840064f0:	08000813          	li	a6,128
ffffffff840064f4:	a029                	j	ffffffff840064fe <decodeRISCVMMUInvocation+0x31a>
ffffffff840064f6:	0405                	add	s0,s0,1
ffffffff840064f8:	07a1                	add	a5,a5,8
ffffffff840064fa:	3f040263          	beq	s0,a6,ffffffff840068de <decodeRISCVMMUInvocation+0x6fa>
ffffffff840064fe:	6388                	ld	a0,0(a5)
ffffffff84006500:	f97d                	bnez	a0,ffffffff840064f6 <decodeRISCVMMUInvocation+0x312>
ffffffff84006502:	03b4d793          	srl	a5,s1,0x3b
ffffffff84006506:	4509                	li	a0,2
ffffffff84006508:	36a79663          	bne	a5,a0,ffffffff84006874 <decodeRISCVMMUInvocation+0x690>
ffffffff8400650c:	03fa7513          	and	a0,s4,63
ffffffff84006510:	47b1                	li	a5,12
ffffffff84006512:	36f51163          	bne	a0,a5,ffffffff84006874 <decodeRISCVMMUInvocation+0x690>
ffffffff84006516:	006a5793          	srl	a5,s4,0x6
ffffffff8400651a:	8b85                	and	a5,a5,1
ffffffff8400651c:	34079c63          	bnez	a5,ffffffff84006874 <decodeRISCVMMUInvocation+0x690>
ffffffff84006520:	854a                	mv	a0,s2
ffffffff84006522:	d06ff0ef          	jal	ffffffff84005a28 <ensureNoChildren>
ffffffff84006526:	8baa                	mv	s7,a0
ffffffff84006528:	f135                	bnez	a0,ffffffff8400648c <decodeRISCVMMUInvocation+0x2a8>
ffffffff8400652a:	0264d713          	srl	a4,s1,0x26
ffffffff8400652e:	57fd                	li	a5,-1
ffffffff84006530:	0197d693          	srl	a3,a5,0x19
ffffffff84006534:	8b05                	and	a4,a4,1
ffffffff84006536:	8cf5                	and	s1,s1,a3
ffffffff84006538:	c319                	beqz	a4,ffffffff8400653e <decodeRISCVMMUInvocation+0x35a>
ffffffff8400653a:	179e                	sll	a5,a5,0x27
ffffffff8400653c:	8cdd                	or	s1,s1,a5
ffffffff8400653e:	865a                	mv	a2,s6
ffffffff84006540:	876a                	mv	a4,s10
ffffffff84006542:	86e6                	mv	a3,s9
ffffffff84006544:	85e2                	mv	a1,s8
ffffffff84006546:	4501                	li	a0,0
ffffffff84006548:	ecda                	sd	s6,88(sp)
ffffffff8400654a:	e8e2                	sd	s8,80(sp)
ffffffff8400654c:	c26fe0ef          	jal	ffffffff84004972 <lookupSlotForCNodeOp>
ffffffff84006550:	f02a                	sd	a0,32(sp)
ffffffff84006552:	f42e                	sd	a1,40(sp)
ffffffff84006554:	8baa                	mv	s7,a0
ffffffff84006556:	8b2e                	mv	s6,a1
ffffffff84006558:	f915                	bnez	a0,ffffffff8400648c <decodeRISCVMMUInvocation+0x2a8>
ffffffff8400655a:	619c                	ld	a5,0(a1)
ffffffff8400655c:	93ed                	srl	a5,a5,0x3b
ffffffff8400655e:	38079063          	bnez	a5,ffffffff840068de <decodeRISCVMMUInvocation+0x6fa>
ffffffff84006562:	1189b783          	ld	a5,280(s3)
ffffffff84006566:	854e                	mv	a0,s3
ffffffff84006568:	9bc1                	and	a5,a5,-16
ffffffff8400656a:	0027e793          	or	a5,a5,2
ffffffff8400656e:	10f9bc23          	sd	a5,280(s3)
ffffffff84006572:	ff4ff0ef          	jal	ffffffff84005d66 <scheduleTCB>
ffffffff84006576:	027a1793          	sll	a5,s4,0x27
ffffffff8400657a:	4705                	li	a4,1
ffffffff8400657c:	1706                	sll	a4,a4,0x21
ffffffff8400657e:	939d                	srl	a5,a5,0x27
ffffffff84006580:	8fd9                	or	a5,a5,a4
ffffffff84006582:	6705                	lui	a4,0x1
ffffffff84006584:	00f93423          	sd	a5,8(s2)
ffffffff84006588:	9726                	add	a4,a4,s1
ffffffff8400658a:	87a6                	mv	a5,s1
ffffffff8400658c:	0007b023          	sd	zero,0(a5)
ffffffff84006590:	07a1                	add	a5,a5,8
ffffffff84006592:	fef71de3          	bne	a4,a5,ffffffff8400658c <decodeRISCVMMUInvocation+0x3a8>
ffffffff84006596:	01949513          	sll	a0,s1,0x19
ffffffff8400659a:	03441793          	sll	a5,s0,0x34
ffffffff8400659e:	816d                	srl	a0,a0,0x1b
ffffffff840065a0:	8d5d                	or	a0,a0,a5
ffffffff840065a2:	47b5                	li	a5,13
ffffffff840065a4:	17ee                	sll	a5,a5,0x3b
ffffffff840065a6:	8d5d                	or	a0,a0,a5
ffffffff840065a8:	86da                	mv	a3,s6
ffffffff840065aa:	864a                	mv	a2,s2
ffffffff840065ac:	4581                	li	a1,0
ffffffff840065ae:	e8aa                	sd	a0,80(sp)
ffffffff840065b0:	ec82                	sd	zero,88(sp)
ffffffff840065b2:	040e                	sll	s0,s0,0x3
ffffffff840065b4:	e06fe0ef          	jal	ffffffff84004bba <cteInsert>
ffffffff840065b8:	008a87b3          	add	a5,s5,s0
ffffffff840065bc:	e384                	sd	s1,0(a5)
ffffffff840065be:	4b81                	li	s7,0
ffffffff840065c0:	b5f1                	j	ffffffff8400648c <decodeRISCVMMUInvocation+0x2a8>
ffffffff840065c2:	478d                	li	a5,3
ffffffff840065c4:	d6f1b023          	sd	a5,-672(gp) # ffffffff8400b010 <current_syscall_error+0x30>
ffffffff840065c8:	4b8d                	li	s7,3
ffffffff840065ca:	b5c9                	j	ffffffff8400648c <decodeRISCVMMUInvocation+0x2a8>
ffffffff840065cc:	8536                	mv	a0,a3
ffffffff840065ce:	d5aff0ef          	jal	ffffffff84005b28 <isFinalCapability>
ffffffff840065d2:	36050163          	beqz	a0,ffffffff84006934 <decodeRISCVMMUInvocation+0x750>
ffffffff840065d6:	0274d793          	srl	a5,s1,0x27
ffffffff840065da:	8b85                	and	a5,a5,1
ffffffff840065dc:	cb8d                	beqz	a5,ffffffff8400660e <decodeRISCVMMUInvocation+0x42a>
ffffffff840065de:	030a5513          	srl	a0,s4,0x30
ffffffff840065e2:	a0cfd0ef          	jal	ffffffff840037ee <findVSpaceForASID>
ffffffff840065e6:	009a5a13          	srl	s4,s4,0x9
ffffffff840065ea:	57fd                	li	a5,-1
ffffffff840065ec:	191a                	sll	s2,s2,0x26
ffffffff840065ee:	0197d713          	srl	a4,a5,0x19
ffffffff840065f2:	012a7933          	and	s2,s4,s2
ffffffff840065f6:	e8aa                	sd	a0,80(sp)
ffffffff840065f8:	ecae                	sd	a1,88(sp)
ffffffff840065fa:	00ea7a33          	and	s4,s4,a4
ffffffff840065fe:	00090563          	beqz	s2,ffffffff84006608 <decodeRISCVMMUInvocation+0x424>
ffffffff84006602:	179e                	sll	a5,a5,0x27
ffffffff84006604:	00fa6a33          	or	s4,s4,a5
ffffffff84006608:	67c6                	ld	a5,80(sp)
ffffffff8400660a:	32078263          	beqz	a5,ffffffff8400692e <decodeRISCVMMUInvocation+0x74a>
ffffffff8400660e:	aa01b503          	ld	a0,-1376(gp) # ffffffff8400ad50 <ksCurThread>
ffffffff84006612:	11853783          	ld	a5,280(a0)
ffffffff84006616:	9bc1                	and	a5,a5,-16
ffffffff84006618:	0027e793          	or	a5,a5,2
ffffffff8400661c:	10f53c23          	sd	a5,280(a0)
ffffffff84006620:	f46ff0ef          	jal	ffffffff84005d66 <scheduleTCB>
ffffffff84006624:	640e                	ld	s0,192(sp)
ffffffff84006626:	6506                	ld	a0,64(sp)
ffffffff84006628:	65a6                	ld	a1,72(sp)
ffffffff8400662a:	60ae                	ld	ra,200(sp)
ffffffff8400662c:	74ea                	ld	s1,184(sp)
ffffffff8400662e:	794a                	ld	s2,176(sp)
ffffffff84006630:	7a0a                	ld	s4,160(sp)
ffffffff84006632:	6aea                	ld	s5,152(sp)
ffffffff84006634:	6b4a                	ld	s6,144(sp)
ffffffff84006636:	6baa                	ld	s7,136(sp)
ffffffff84006638:	6c0a                	ld	s8,128(sp)
ffffffff8400663a:	7ce6                	ld	s9,120(sp)
ffffffff8400663c:	7d46                	ld	s10,112(sp)
ffffffff8400663e:	7da6                	ld	s11,104(sp)
ffffffff84006640:	864e                	mv	a2,s3
ffffffff84006642:	79aa                	ld	s3,168(sp)
ffffffff84006644:	6169                	add	sp,sp,208
ffffffff84006646:	c73fd06f          	j	ffffffff840042b8 <performPageTableInvocationUnmap>
ffffffff8400664a:	aa018493          	add	s1,gp,-1376 # ffffffff8400ad50 <ksCurThread>
ffffffff8400664e:	6088                	ld	a0,0(s1)
ffffffff84006650:	e442                	sd	a6,8(sp)
ffffffff84006652:	11853703          	ld	a4,280(a0)
ffffffff84006656:	9b41                	and	a4,a4,-16
ffffffff84006658:	00276713          	or	a4,a4,2
ffffffff8400665c:	10e53c23          	sd	a4,280(a0)
ffffffff84006660:	f06ff0ef          	jal	ffffffff84005d66 <scheduleTCB>
ffffffff84006664:	00995793          	srl	a5,s2,0x9
ffffffff84006668:	56fd                	li	a3,-1
ffffffff8400666a:	02641713          	sll	a4,s0,0x26
ffffffff8400666e:	0196d613          	srl	a2,a3,0x19
ffffffff84006672:	8f7d                	and	a4,a4,a5
ffffffff84006674:	6822                	ld	a6,8(sp)
ffffffff84006676:	8ff1                	and	a5,a5,a2
ffffffff84006678:	c319                	beqz	a4,ffffffff8400667e <decodeRISCVMMUInvocation+0x49a>
ffffffff8400667a:	169e                	sll	a3,a3,0x27
ffffffff8400667c:	8fd5                	or	a5,a5,a3
ffffffff8400667e:	6088                	ld	a0,0(s1)
ffffffff84006680:	00080a63          	beqz	a6,ffffffff84006694 <decodeRISCVMMUInvocation+0x4b0>
ffffffff84006684:	4705                	li	a4,1
ffffffff84006686:	02671693          	sll	a3,a4,0x26
ffffffff8400668a:	97b6                	add	a5,a5,a3
ffffffff8400668c:	04053423          	sd	zero,72(a0)
ffffffff84006690:	ed3c                	sd	a5,88(a0)
ffffffff84006692:	e938                	sd	a4,80(a0)
ffffffff84006694:	11853783          	ld	a5,280(a0)
ffffffff84006698:	4b81                	li	s7,0
ffffffff8400669a:	9bc1                	and	a5,a5,-16
ffffffff8400669c:	0017e793          	or	a5,a5,1
ffffffff840066a0:	10f53c23          	sd	a5,280(a0)
ffffffff840066a4:	ec2ff0ef          	jal	ffffffff84005d66 <scheduleTCB>
ffffffff840066a8:	b3d5                	j	ffffffff8400648c <decodeRISCVMMUInvocation+0x2a8>
ffffffff840066aa:	4789                	li	a5,2
ffffffff840066ac:	1cb7fc63          	bgeu	a5,a1,ffffffff84006884 <decodeRISCVMMUInvocation+0x6a0>
ffffffff840066b0:	8981b703          	ld	a4,-1896(gp) # ffffffff8400ab48 <current_extra_caps>
ffffffff840066b4:	1c070863          	beqz	a4,ffffffff84006884 <decodeRISCVMMUInvocation+0x6a0>
ffffffff840066b8:	631c                	ld	a5,0(a4)
ffffffff840066ba:	aa01ba83          	ld	s5,-1376(gp) # ffffffff8400ad50 <ksCurThread>
ffffffff840066be:	468d                	li	a3,3
ffffffff840066c0:	03b7d613          	srl	a2,a5,0x3b
ffffffff840066c4:	058abd03          	ld	s10,88(s5)
ffffffff840066c8:	060abb03          	ld	s6,96(s5)
ffffffff840066cc:	068aba03          	ld	s4,104(s5)
ffffffff840066d0:	00873d83          	ld	s11,8(a4) # 1008 <KERNEL_OFFSET-0xfffffffeffffeff8>
ffffffff840066d4:	1ad61063          	bne	a2,a3,ffffffff84006874 <decodeRISCVMMUInvocation+0x690>
ffffffff840066d8:	939d                	srl	a5,a5,0x27
ffffffff840066da:	8b85                	and	a5,a5,1
ffffffff840066dc:	18078c63          	beqz	a5,ffffffff84006874 <decodeRISCVMMUInvocation+0x690>
ffffffff840066e0:	009dd793          	srl	a5,s11,0x9
ffffffff840066e4:	577d                	li	a4,-1
ffffffff840066e6:	0267d613          	srl	a2,a5,0x26
ffffffff840066ea:	01975693          	srl	a3,a4,0x19
ffffffff840066ee:	8a05                	and	a2,a2,1
ffffffff840066f0:	00d7fcb3          	and	s9,a5,a3
ffffffff840066f4:	c601                	beqz	a2,ffffffff840066fc <decodeRISCVMMUInvocation+0x518>
ffffffff840066f6:	171e                	sll	a4,a4,0x27
ffffffff840066f8:	00ececb3          	or	s9,s9,a4
ffffffff840066fc:	030ddc13          	srl	s8,s11,0x30
ffffffff84006700:	8562                	mv	a0,s8
ffffffff84006702:	8ecfd0ef          	jal	ffffffff840037ee <findVSpaceForASID>
ffffffff84006706:	e8aa                	sd	a0,80(sp)
ffffffff84006708:	ecae                	sd	a1,88(sp)
ffffffff8400670a:	26051963          	bnez	a0,ffffffff8400697c <decodeRISCVMMUInvocation+0x798>
ffffffff8400670e:	16bc9363          	bne	s9,a1,ffffffff84006874 <decodeRISCVMMUInvocation+0x690>
ffffffff84006712:	0394d793          	srl	a5,s1,0x39
ffffffff84006716:	8b8d                	and	a5,a5,3
ffffffff84006718:	470d                	li	a4,3
ffffffff8400671a:	28e78a63          	beq	a5,a4,ffffffff840069ae <decodeRISCVMMUInvocation+0x7ca>
ffffffff8400671e:	00379713          	sll	a4,a5,0x3
ffffffff84006722:	973e                	add	a4,a4,a5
ffffffff84006724:	00c70793          	add	a5,a4,12
ffffffff84006728:	4805                	li	a6,1
ffffffff8400672a:	fefff637          	lui	a2,0xfefff
ffffffff8400672e:	fffd0593          	add	a1,s10,-1
ffffffff84006732:	00f81533          	sll	a0,a6,a5
ffffffff84006736:	063a                	sll	a2,a2,0xe
ffffffff84006738:	95aa                	add	a1,a1,a0
ffffffff8400673a:	8269                	srl	a2,a2,0x1a
ffffffff8400673c:	24b66a63          	bltu	a2,a1,ffffffff84006990 <decodeRISCVMMUInvocation+0x7ac>
ffffffff84006740:	577d                	li	a4,-1
ffffffff84006742:	00f71bb3          	sll	s7,a4,a5
ffffffff84006746:	fffbcb93          	not	s7,s7
ffffffff8400674a:	01abfbb3          	and	s7,s7,s10
ffffffff8400674e:	240b9863          	bnez	s7,ffffffff8400699e <decodeRISCVMMUInvocation+0x7ba>
ffffffff84006752:	85ea                	mv	a1,s10
ffffffff84006754:	8566                	mv	a0,s9
ffffffff84006756:	e43e                	sd	a5,8(sp)
ffffffff84006758:	fd4fd0ef          	jal	ffffffff84003f2c <lookupPTSlot>
ffffffff8400675c:	68a2                	ld	a7,8(sp)
ffffffff8400675e:	e0aa                	sd	a0,64(sp)
ffffffff84006760:	e4ae                	sd	a1,72(sp)
ffffffff84006762:	86aa                	mv	a3,a0
ffffffff84006764:	4805                	li	a6,1
ffffffff84006766:	577d                	li	a4,-1
ffffffff84006768:	20b89063          	bne	a7,a1,ffffffff84006968 <decodeRISCVMMUInvocation+0x784>
ffffffff8400676c:	03095793          	srl	a5,s2,0x30
ffffffff84006770:	12079b63          	bnez	a5,ffffffff840068a6 <decodeRISCVMMUInvocation+0x6c2>
ffffffff84006774:	611c                	ld	a5,0(a0)
ffffffff84006776:	8b85                	and	a5,a5,1
ffffffff84006778:	16079363          	bnez	a5,ffffffff840068de <decodeRISCVMMUInvocation+0x6fa>
ffffffff8400677c:	0374d793          	srl	a5,s1,0x37
ffffffff84006780:	8b8d                	and	a5,a5,3
ffffffff84006782:	4709                	li	a4,2
ffffffff84006784:	1ce78b63          	beq	a5,a4,ffffffff8400695a <decodeRISCVMMUInvocation+0x776>
ffffffff84006788:	470d                	li	a4,3
ffffffff8400678a:	20e79063          	bne	a5,a4,ffffffff8400698a <decodeRISCVMMUInvocation+0x7a6>
ffffffff8400678e:	001b5613          	srl	a2,s6,0x1
ffffffff84006792:	8a05                	and	a2,a2,1
ffffffff84006794:	4581                	li	a1,0
ffffffff84006796:	c611                	beqz	a2,ffffffff840067a2 <decodeRISCVMMUInvocation+0x5be>
ffffffff84006798:	001b7b13          	and	s6,s6,1
ffffffff8400679c:	002b0413          	add	s0,s6,2
ffffffff840067a0:	85da                	mv	a1,s6
ffffffff840067a2:	00995713          	srl	a4,s2,0x9
ffffffff840067a6:	02675513          	srl	a0,a4,0x26
ffffffff840067aa:	57fd                	li	a5,-1
ffffffff840067ac:	0197d813          	srl	a6,a5,0x19
ffffffff840067b0:	8905                	and	a0,a0,1
ffffffff840067b2:	01077733          	and	a4,a4,a6
ffffffff840067b6:	c119                	beqz	a0,ffffffff840067bc <decodeRISCVMMUInvocation+0x5d8>
ffffffff840067b8:	179e                	sll	a5,a5,0x27
ffffffff840067ba:	8f5d                	or	a4,a4,a5
ffffffff840067bc:	57fd                	li	a5,-1
ffffffff840067be:	0107d813          	srl	a6,a5,0x10
ffffffff840067c2:	03079e13          	sll	t3,a5,0x30
ffffffff840067c6:	02779513          	sll	a0,a5,0x27
ffffffff840067ca:	4885                	li	a7,1
ffffffff840067cc:	83e5                	srl	a5,a5,0x19
ffffffff840067ce:	8d65                	and	a0,a0,s1
ffffffff840067d0:	00fd7d33          	and	s10,s10,a5
ffffffff840067d4:	02689313          	sll	t1,a7,0x26
ffffffff840067d8:	01097933          	and	s2,s2,a6
ffffffff840067dc:	01cdfdb3          	and	s11,s11,t3
ffffffff840067e0:	fffa4493          	not	s1,s4
ffffffff840067e4:	006707b3          	add	a5,a4,t1
ffffffff840067e8:	01b96933          	or	s2,s2,s11
ffffffff840067ec:	01a56d33          	or	s10,a0,s10
ffffffff840067f0:	8885                	and	s1,s1,1
ffffffff840067f2:	1b140b63          	beq	s0,a7,ffffffff840069a8 <decodeRISCVMMUInvocation+0x7c4>
ffffffff840067f6:	fff00737          	lui	a4,0xfff00
ffffffff840067fa:	8389                	srl	a5,a5,0x2
ffffffff840067fc:	8329                	srl	a4,a4,0xa
ffffffff840067fe:	048e                	sll	s1,s1,0x3
ffffffff84006800:	8ff9                	and	a5,a5,a4
ffffffff84006802:	8fc5                	or	a5,a5,s1
ffffffff84006804:	058a                	sll	a1,a1,0x2
ffffffff84006806:	8fcd                	or	a5,a5,a1
ffffffff84006808:	0606                	sll	a2,a2,0x1
ffffffff8400680a:	8fd1                	or	a5,a5,a2
ffffffff8400680c:	0d17e493          	or	s1,a5,209
ffffffff84006810:	118ab783          	ld	a5,280(s5)
ffffffff84006814:	8556                	mv	a0,s5
ffffffff84006816:	e436                	sd	a3,8(sp)
ffffffff84006818:	9bc1                	and	a5,a5,-16
ffffffff8400681a:	0027e793          	or	a5,a5,2
ffffffff8400681e:	10fabc23          	sd	a5,280(s5)
ffffffff84006822:	d44ff0ef          	jal	ffffffff84005d66 <scheduleTCB>
ffffffff84006826:	66a2                	ld	a3,8(sp)
ffffffff84006828:	01a9b023          	sd	s10,0(s3)
ffffffff8400682c:	0129b423          	sd	s2,8(s3)
ffffffff84006830:	e284                	sd	s1,0(a3)
ffffffff84006832:	12000073          	sfence.vma
ffffffff84006836:	b999                	j	ffffffff8400648c <decodeRISCVMMUInvocation+0x2a8>
ffffffff84006838:	aa01b503          	ld	a0,-1376(gp) # ffffffff8400ad50 <ksCurThread>
ffffffff8400683c:	11853783          	ld	a5,280(a0)
ffffffff84006840:	9bc1                	and	a5,a5,-16
ffffffff84006842:	0027e793          	or	a5,a5,2
ffffffff84006846:	10f53c23          	sd	a5,280(a0)
ffffffff8400684a:	d1cff0ef          	jal	ffffffff84005d66 <scheduleTCB>
ffffffff8400684e:	640e                	ld	s0,192(sp)
ffffffff84006850:	7542                	ld	a0,48(sp)
ffffffff84006852:	75e2                	ld	a1,56(sp)
ffffffff84006854:	60ae                	ld	ra,200(sp)
ffffffff84006856:	74ea                	ld	s1,184(sp)
ffffffff84006858:	794a                	ld	s2,176(sp)
ffffffff8400685a:	7a0a                	ld	s4,160(sp)
ffffffff8400685c:	6aea                	ld	s5,152(sp)
ffffffff8400685e:	6b4a                	ld	s6,144(sp)
ffffffff84006860:	6baa                	ld	s7,136(sp)
ffffffff84006862:	6c0a                	ld	s8,128(sp)
ffffffff84006864:	7ce6                	ld	s9,120(sp)
ffffffff84006866:	7d46                	ld	s10,112(sp)
ffffffff84006868:	7da6                	ld	s11,104(sp)
ffffffff8400686a:	864e                	mv	a2,s3
ffffffff8400686c:	79aa                	ld	s3,168(sp)
ffffffff8400686e:	6169                	add	sp,sp,208
ffffffff84006870:	addfd06f          	j	ffffffff8400434c <performPageInvocationUnmap>
ffffffff84006874:	d3018793          	add	a5,gp,-720 # ffffffff8400afe0 <current_syscall_error>
ffffffff84006878:	4709                	li	a4,2
ffffffff8400687a:	fb98                	sd	a4,48(a5)
ffffffff8400687c:	4705                	li	a4,1
ffffffff8400687e:	e798                	sd	a4,8(a5)
ffffffff84006880:	4b8d                	li	s7,3
ffffffff84006882:	b129                	j	ffffffff8400648c <decodeRISCVMMUInvocation+0x2a8>
ffffffff84006884:	479d                	li	a5,7
ffffffff84006886:	d6f1b023          	sd	a5,-672(gp) # ffffffff8400b010 <current_syscall_error+0x30>
ffffffff8400688a:	4b8d                	li	s7,3
ffffffff8400688c:	b101                	j	ffffffff8400648c <decodeRISCVMMUInvocation+0x2a8>
ffffffff8400688e:	47a1                	li	a5,8
ffffffff84006890:	d6f1b023          	sd	a5,-672(gp) # ffffffff8400b010 <current_syscall_error+0x30>
ffffffff84006894:	8ba2                	mv	s7,s0
ffffffff84006896:	bedd                	j	ffffffff8400648c <decodeRISCVMMUInvocation+0x2a8>
ffffffff84006898:	4789                	li	a5,2
ffffffff8400689a:	d6f1b023          	sd	a5,-672(gp) # ffffffff8400b010 <current_syscall_error+0x30>
ffffffff8400689e:	4b8d                	li	s7,3
ffffffff840068a0:	d201bc23          	sd	zero,-712(gp) # ffffffff8400afe8 <current_syscall_error+0x8>
ffffffff840068a4:	b6e5                	j	ffffffff8400648c <decodeRISCVMMUInvocation+0x2a8>
ffffffff840068a6:	fcfc17e3          	bne	s8,a5,ffffffff84006874 <decodeRISCVMMUInvocation+0x690>
ffffffff840068aa:	02681793          	sll	a5,a6,0x26
ffffffff840068ae:	01975613          	srl	a2,a4,0x19
ffffffff840068b2:	8fe5                	and	a5,a5,s1
ffffffff840068b4:	8e65                	and	a2,a2,s1
ffffffff840068b6:	c399                	beqz	a5,ffffffff840068bc <decodeRISCVMMUInvocation+0x6d8>
ffffffff840068b8:	171e                	sll	a4,a4,0x27
ffffffff840068ba:	8e59                	or	a2,a2,a4
ffffffff840068bc:	0ccd1a63          	bne	s10,a2,ffffffff84006990 <decodeRISCVMMUInvocation+0x7ac>
ffffffff840068c0:	6298                	ld	a4,0(a3)
ffffffff840068c2:	00177793          	and	a5,a4,1
ffffffff840068c6:	ea078be3          	beqz	a5,ffffffff8400677c <decodeRISCVMMUInvocation+0x598>
ffffffff840068ca:	00175793          	srl	a5,a4,0x1
ffffffff840068ce:	00275613          	srl	a2,a4,0x2
ffffffff840068d2:	8fd1                	or	a5,a5,a2
ffffffff840068d4:	830d                	srl	a4,a4,0x3
ffffffff840068d6:	8fd9                	or	a5,a5,a4
ffffffff840068d8:	8b85                	and	a5,a5,1
ffffffff840068da:	ea0791e3          	bnez	a5,ffffffff8400677c <decodeRISCVMMUInvocation+0x598>
ffffffff840068de:	47a1                	li	a5,8
ffffffff840068e0:	d6f1b023          	sd	a5,-672(gp) # ffffffff8400b010 <current_syscall_error+0x30>
ffffffff840068e4:	4b8d                	li	s7,3
ffffffff840068e6:	b65d                	j	ffffffff8400648c <decodeRISCVMMUInvocation+0x2a8>
ffffffff840068e8:	479d                	li	a5,7
ffffffff840068ea:	d6f1b023          	sd	a5,-672(gp) # ffffffff8400b010 <current_syscall_error+0x30>
ffffffff840068ee:	8ba2                	mv	s7,s0
ffffffff840068f0:	be71                	j	ffffffff8400648c <decodeRISCVMMUInvocation+0x2a8>
ffffffff840068f2:	d3018793          	add	a5,gp,-720 # ffffffff8400afe0 <current_syscall_error>
ffffffff840068f6:	4709                	li	a4,2
ffffffff840068f8:	fb98                	sd	a4,48(a5)
ffffffff840068fa:	4705                	li	a4,1
ffffffff840068fc:	e798                	sd	a4,8(a5)
ffffffff840068fe:	8ba2                	mv	s7,s0
ffffffff84006900:	b671                	j	ffffffff8400648c <decodeRISCVMMUInvocation+0x2a8>
ffffffff84006902:	d681b023          	sd	s0,-672(gp) # ffffffff8400b010 <current_syscall_error+0x30>
ffffffff84006906:	8ba2                	mv	s7,s0
ffffffff84006908:	b651                	j	ffffffff8400648c <decodeRISCVMMUInvocation+0x2a8>
ffffffff8400690a:	4799                	li	a5,6
ffffffff8400690c:	d6f1b023          	sd	a5,-672(gp) # ffffffff8400b010 <current_syscall_error+0x30>
ffffffff84006910:	4b8d                	li	s7,3
ffffffff84006912:	d401bc23          	sd	zero,-680(gp) # ffffffff8400b008 <current_syscall_error+0x28>
ffffffff84006916:	d601bc23          	sd	zero,-648(gp) # ffffffff8400b028 <current_lookup_fault>
ffffffff8400691a:	d801b023          	sd	zero,-640(gp) # ffffffff8400b030 <current_lookup_fault+0x8>
ffffffff8400691e:	b6bd                	j	ffffffff8400648c <decodeRISCVMMUInvocation+0x2a8>
ffffffff84006920:	4789                	li	a5,2
ffffffff84006922:	d6f1b023          	sd	a5,-672(gp) # ffffffff8400b010 <current_syscall_error+0x30>
ffffffff84006926:	8ba2                	mv	s7,s0
ffffffff84006928:	d201bc23          	sd	zero,-712(gp) # ffffffff8400afe8 <current_syscall_error+0x8>
ffffffff8400692c:	b685                	j	ffffffff8400648c <decodeRISCVMMUInvocation+0x2a8>
ffffffff8400692e:	67e6                	ld	a5,88(sp)
ffffffff84006930:	cd479fe3          	bne	a5,s4,ffffffff8400660e <decodeRISCVMMUInvocation+0x42a>
ffffffff84006934:	47a5                	li	a5,9
ffffffff84006936:	d6f1b023          	sd	a5,-672(gp) # ffffffff8400b010 <current_syscall_error+0x30>
ffffffff8400693a:	8ba2                	mv	s7,s0
ffffffff8400693c:	be81                	j	ffffffff8400648c <decodeRISCVMMUInvocation+0x2a8>
ffffffff8400693e:	4785                	li	a5,1
ffffffff84006940:	d6f1b023          	sd	a5,-672(gp) # ffffffff8400b010 <current_syscall_error+0x30>
ffffffff84006944:	8ba2                	mv	s7,s0
ffffffff84006946:	d201b823          	sd	zero,-720(gp) # ffffffff8400afe0 <current_syscall_error>
ffffffff8400694a:	b689                	j	ffffffff8400648c <decodeRISCVMMUInvocation+0x2a8>
ffffffff8400694c:	4799                	li	a5,6
ffffffff8400694e:	d6f1b023          	sd	a5,-672(gp) # ffffffff8400b010 <current_syscall_error+0x30>
ffffffff84006952:	8ba2                	mv	s7,s0
ffffffff84006954:	d401bc23          	sd	zero,-680(gp) # ffffffff8400b008 <current_syscall_error+0x28>
ffffffff84006958:	be15                	j	ffffffff8400648c <decodeRISCVMMUInvocation+0x2a8>
ffffffff8400695a:	001b5613          	srl	a2,s6,0x1
ffffffff8400695e:	8a05                	and	a2,a2,1
ffffffff84006960:	00160413          	add	s0,a2,1 # fffffffffefff001 <ki_end+0x7afdd001>
ffffffff84006964:	4581                	li	a1,0
ffffffff84006966:	bd35                	j	ffffffff840067a2 <decodeRISCVMMUInvocation+0x5be>
ffffffff84006968:	00259793          	sll	a5,a1,0x2
ffffffff8400696c:	1fc7f793          	and	a5,a5,508
ffffffff84006970:	0017e793          	or	a5,a5,1
ffffffff84006974:	d6f1bc23          	sd	a5,-648(gp) # ffffffff8400b028 <current_lookup_fault>
ffffffff84006978:	d801b023          	sd	zero,-640(gp) # ffffffff8400b030 <current_lookup_fault+0x8>
ffffffff8400697c:	4799                	li	a5,6
ffffffff8400697e:	d6f1b023          	sd	a5,-672(gp) # ffffffff8400b010 <current_syscall_error+0x30>
ffffffff84006982:	4b8d                	li	s7,3
ffffffff84006984:	d401bc23          	sd	zero,-680(gp) # ffffffff8400b008 <current_syscall_error+0x28>
ffffffff84006988:	b611                	j	ffffffff8400648c <decodeRISCVMMUInvocation+0x2a8>
ffffffff8400698a:	4601                	li	a2,0
ffffffff8400698c:	4581                	li	a1,0
ffffffff8400698e:	bd11                	j	ffffffff840067a2 <decodeRISCVMMUInvocation+0x5be>
ffffffff84006990:	4785                	li	a5,1
ffffffff84006992:	d6f1b023          	sd	a5,-672(gp) # ffffffff8400b010 <current_syscall_error+0x30>
ffffffff84006996:	4b8d                	li	s7,3
ffffffff84006998:	d201b823          	sd	zero,-720(gp) # ffffffff8400afe0 <current_syscall_error>
ffffffff8400699c:	bcc5                	j	ffffffff8400648c <decodeRISCVMMUInvocation+0x2a8>
ffffffff8400699e:	4795                	li	a5,5
ffffffff840069a0:	d6f1b023          	sd	a5,-672(gp) # ffffffff8400b010 <current_syscall_error+0x30>
ffffffff840069a4:	4b8d                	li	s7,3
ffffffff840069a6:	b4dd                	j	ffffffff8400648c <decodeRISCVMMUInvocation+0x2a8>
ffffffff840069a8:	e40497e3          	bnez	s1,ffffffff840067f6 <decodeRISCVMMUInvocation+0x612>
ffffffff840069ac:	b595                	j	ffffffff84006810 <decodeRISCVMMUInvocation+0x62c>
ffffffff840069ae:	a88fd0ef          	jal	ffffffff84003c36 <halt>

ffffffff840069b2 <Arch_decodeInvocation>:
ffffffff840069b2:	1141                	add	sp,sp,-16
ffffffff840069b4:	0141                	add	sp,sp,16
ffffffff840069b6:	82fff06f          	j	ffffffff840061e4 <decodeRISCVMMUInvocation>

ffffffff840069ba <cancelAllSignals>:
ffffffff840069ba:	6118                	ld	a4,0(a0)
ffffffff840069bc:	4685                	li	a3,1
ffffffff840069be:	00377793          	and	a5,a4,3
ffffffff840069c2:	00d78363          	beq	a5,a3,ffffffff840069c8 <cancelAllSignals+0xe>
ffffffff840069c6:	8082                	ret
ffffffff840069c8:	6514                	ld	a3,8(a0)
ffffffff840069ca:	1141                	add	sp,sp,-16
ffffffff840069cc:	567d                	li	a2,-1
ffffffff840069ce:	179a                	sll	a5,a5,0x26
ffffffff840069d0:	020005b7          	lui	a1,0x2000
ffffffff840069d4:	e022                	sd	s0,0(sp)
ffffffff840069d6:	8ff5                	and	a5,a5,a3
ffffffff840069d8:	01965413          	srl	s0,a2,0x19
ffffffff840069dc:	15f1                	add	a1,a1,-4 # 1fffffc <KERNEL_OFFSET-0xfffffffefe000004>
ffffffff840069de:	161e                	sll	a2,a2,0x27
ffffffff840069e0:	e406                	sd	ra,8(sp)
ffffffff840069e2:	8c75                	and	s0,s0,a3
ffffffff840069e4:	8f6d                	and	a4,a4,a1
ffffffff840069e6:	8ef1                	and	a3,a3,a2
ffffffff840069e8:	c7a9                	beqz	a5,ffffffff84006a32 <cancelAllSignals+0x78>
ffffffff840069ea:	8c51                	or	s0,s0,a2
ffffffff840069ec:	e514                	sd	a3,8(a0)
ffffffff840069ee:	e118                	sd	a4,0(a0)
ffffffff840069f0:	11843783          	ld	a5,280(s0)
ffffffff840069f4:	8522                	mv	a0,s0
ffffffff840069f6:	9bc1                	and	a5,a5,-16
ffffffff840069f8:	0027e793          	or	a5,a5,2
ffffffff840069fc:	10f43c23          	sd	a5,280(s0)
ffffffff84006a00:	a04ff0ef          	jal	ffffffff84005c04 <tcbSchedEnqueue>
ffffffff84006a04:	19843403          	ld	s0,408(s0)
ffffffff84006a08:	f465                	bnez	s0,ffffffff840069f0 <cancelAllSignals+0x36>
ffffffff84006a0a:	a9018413          	add	s0,gp,-1392 # ffffffff8400ad40 <ksSchedulerAction>
ffffffff84006a0e:	6008                	ld	a0,0(s0)
ffffffff84006a10:	4785                	li	a5,1
ffffffff84006a12:	00a7e863          	bltu	a5,a0,ffffffff84006a22 <cancelAllSignals+0x68>
ffffffff84006a16:	4785                	li	a5,1
ffffffff84006a18:	60a2                	ld	ra,8(sp)
ffffffff84006a1a:	e01c                	sd	a5,0(s0)
ffffffff84006a1c:	6402                	ld	s0,0(sp)
ffffffff84006a1e:	0141                	add	sp,sp,16
ffffffff84006a20:	8082                	ret
ffffffff84006a22:	9e2ff0ef          	jal	ffffffff84005c04 <tcbSchedEnqueue>
ffffffff84006a26:	4785                	li	a5,1
ffffffff84006a28:	60a2                	ld	ra,8(sp)
ffffffff84006a2a:	e01c                	sd	a5,0(s0)
ffffffff84006a2c:	6402                	ld	s0,0(sp)
ffffffff84006a2e:	0141                	add	sp,sp,16
ffffffff84006a30:	8082                	ret
ffffffff84006a32:	e514                	sd	a3,8(a0)
ffffffff84006a34:	e118                	sd	a4,0(a0)
ffffffff84006a36:	fc4d                	bnez	s0,ffffffff840069f0 <cancelAllSignals+0x36>
ffffffff84006a38:	bfc9                	j	ffffffff84006a0a <cancelAllSignals+0x50>

ffffffff84006a3a <handleDoubleFault>:
ffffffff84006a3a:	11853783          	ld	a5,280(a0)
ffffffff84006a3e:	aa01b703          	ld	a4,-1376(gp) # ffffffff8400ad50 <ksCurThread>
ffffffff84006a42:	1141                	add	sp,sp,-16
ffffffff84006a44:	9bc1                	and	a5,a5,-16
ffffffff84006a46:	10f53c23          	sd	a5,280(a0)
ffffffff84006a4a:	00e50463          	beq	a0,a4,ffffffff84006a52 <handleDoubleFault+0x18>
ffffffff84006a4e:	0141                	add	sp,sp,16
ffffffff84006a50:	8082                	ret
ffffffff84006a52:	a9018793          	add	a5,gp,-1392 # ffffffff8400ad40 <ksSchedulerAction>
ffffffff84006a56:	6398                	ld	a4,0(a5)
ffffffff84006a58:	fb7d                	bnez	a4,ffffffff84006a4e <handleDoubleFault+0x14>
ffffffff84006a5a:	4705                	li	a4,1
ffffffff84006a5c:	e398                	sd	a4,0(a5)
ffffffff84006a5e:	bfc5                	j	ffffffff84006a4e <handleDoubleFault+0x14>

ffffffff84006a60 <setThreadState>:
ffffffff84006a60:	11853783          	ld	a5,280(a0)
ffffffff84006a64:	89bd                	and	a1,a1,15
ffffffff84006a66:	aa01b703          	ld	a4,-1376(gp) # ffffffff8400ad50 <ksCurThread>
ffffffff84006a6a:	9bc1                	and	a5,a5,-16
ffffffff84006a6c:	8fcd                	or	a5,a5,a1
ffffffff84006a6e:	10f53c23          	sd	a5,280(a0)
ffffffff84006a72:	00e50363          	beq	a0,a4,ffffffff84006a78 <setThreadState+0x18>
ffffffff84006a76:	8082                	ret
ffffffff84006a78:	a9018713          	add	a4,gp,-1392 # ffffffff8400ad40 <ksSchedulerAction>
ffffffff84006a7c:	6314                	ld	a3,0(a4)
ffffffff84006a7e:	fee5                	bnez	a3,ffffffff84006a76 <setThreadState+0x16>
ffffffff84006a80:	8bbd                	and	a5,a5,15
ffffffff84006a82:	17fd                	add	a5,a5,-1
ffffffff84006a84:	4685                	li	a3,1
ffffffff84006a86:	fef6f8e3          	bgeu	a3,a5,ffffffff84006a76 <setThreadState+0x16>
ffffffff84006a8a:	e314                	sd	a3,0(a4)
ffffffff84006a8c:	8082                	ret

ffffffff84006a8e <activateThread>:
ffffffff84006a8e:	aa01b703          	ld	a4,-1376(gp) # ffffffff8400ad50 <ksCurThread>
ffffffff84006a92:	11873783          	ld	a5,280(a4) # fffffffffff00118 <ki_end+0x7bede118>
ffffffff84006a96:	4609                	li	a2,2
ffffffff84006a98:	00f7f693          	and	a3,a5,15
ffffffff84006a9c:	00c68c63          	beq	a3,a2,ffffffff84006ab4 <activateThread+0x26>
ffffffff84006aa0:	f7d00793          	li	a5,-131
ffffffff84006aa4:	40d7d7b3          	sra	a5,a5,a3
ffffffff84006aa8:	8b85                	and	a5,a5,1
ffffffff84006aaa:	cf99                	beqz	a5,ffffffff84006ac8 <activateThread+0x3a>
ffffffff84006aac:	1141                	add	sp,sp,-16
ffffffff84006aae:	e406                	sd	ra,8(sp)
ffffffff84006ab0:	986fd0ef          	jal	ffffffff84003c36 <halt>
ffffffff84006ab4:	10873683          	ld	a3,264(a4)
ffffffff84006ab8:	9bc1                	and	a5,a5,-16
ffffffff84006aba:	0017e793          	or	a5,a5,1
ffffffff84006abe:	10d73823          	sd	a3,272(a4)
ffffffff84006ac2:	10f73c23          	sd	a5,280(a4)
ffffffff84006ac6:	8082                	ret
ffffffff84006ac8:	8082                	ret

ffffffff84006aca <tcbSchedAppend>:
ffffffff84006aca:	12053783          	ld	a5,288(a0)
ffffffff84006ace:	0017f713          	and	a4,a5,1
ffffffff84006ad2:	ef1d                	bnez	a4,ffffffff84006b10 <tcbSchedAppend+0x46>
ffffffff84006ad4:	15853803          	ld	a6,344(a0)
ffffffff84006ad8:	16853883          	ld	a7,360(a0)
ffffffff84006adc:	00006697          	auipc	a3,0x6
ffffffff84006ae0:	d2468693          	add	a3,a3,-732 # ffffffff8400c800 <ksReadyQueues>
ffffffff84006ae4:	00881713          	sll	a4,a6,0x8
ffffffff84006ae8:	9746                	add	a4,a4,a7
ffffffff84006aea:	0712                	sll	a4,a4,0x4
ffffffff84006aec:	00e685b3          	add	a1,a3,a4
ffffffff84006af0:	6190                	ld	a2,0(a1)
ffffffff84006af2:	658c                	ld	a1,8(a1)
ffffffff84006af4:	ce19                	beqz	a2,ffffffff84006b12 <tcbSchedAppend+0x48>
ffffffff84006af6:	18a5b423          	sd	a0,392(a1)
ffffffff84006afa:	18b53823          	sd	a1,400(a0)
ffffffff84006afe:	18053423          	sd	zero,392(a0)
ffffffff84006b02:	9736                	add	a4,a4,a3
ffffffff84006b04:	e310                	sd	a2,0(a4)
ffffffff84006b06:	e708                	sd	a0,8(a4)
ffffffff84006b08:	0017e793          	or	a5,a5,1
ffffffff84006b0c:	12f53023          	sd	a5,288(a0)
ffffffff84006b10:	8082                	ret
ffffffff84006b12:	0068de13          	srl	t3,a7,0x6
ffffffff84006b16:	430d                	li	t1,3
ffffffff84006b18:	41c30333          	sub	t1,t1,t3
ffffffff84006b1c:	00281613          	sll	a2,a6,0x2
ffffffff84006b20:	961a                	add	a2,a2,t1
ffffffff84006b22:	080e                	sll	a6,a6,0x3
ffffffff84006b24:	ca818313          	add	t1,gp,-856 # ffffffff8400af58 <ksReadyQueuesL1Bitmap>
ffffffff84006b28:	9342                	add	t1,t1,a6
ffffffff84006b2a:	060e                	sll	a2,a2,0x3
ffffffff84006b2c:	aa818813          	add	a6,gp,-1368 # ffffffff8400ad58 <ksReadyQueuesL2Bitmap>
ffffffff84006b30:	9832                	add	a6,a6,a2
ffffffff84006b32:	00033e83          	ld	t4,0(t1)
ffffffff84006b36:	00083f03          	ld	t5,0(a6)
ffffffff84006b3a:	4605                	li	a2,1
ffffffff84006b3c:	01c61e33          	sll	t3,a2,t3
ffffffff84006b40:	01161633          	sll	a2,a2,a7
ffffffff84006b44:	01e66633          	or	a2,a2,t5
ffffffff84006b48:	01cee8b3          	or	a7,t4,t3
ffffffff84006b4c:	00c83023          	sd	a2,0(a6)
ffffffff84006b50:	01133023          	sd	a7,0(t1)
ffffffff84006b54:	862a                	mv	a2,a0
ffffffff84006b56:	b755                	j	ffffffff84006afa <tcbSchedAppend+0x30>

ffffffff84006b58 <timerTick>:
ffffffff84006b58:	1101                	add	sp,sp,-32
ffffffff84006b5a:	aa01b503          	ld	a0,-1376(gp) # ffffffff8400ad50 <ksCurThread>
ffffffff84006b5e:	e822                	sd	s0,16(sp)
ffffffff84006b60:	11853403          	ld	s0,280(a0)
ffffffff84006b64:	ec06                	sd	ra,24(sp)
ffffffff84006b66:	e426                	sd	s1,8(sp)
ffffffff84006b68:	4785                	li	a5,1
ffffffff84006b6a:	883d                	and	s0,s0,15
ffffffff84006b6c:	00f41963          	bne	s0,a5,ffffffff84006b7e <timerTick+0x26>
ffffffff84006b70:	17053783          	ld	a5,368(a0)
ffffffff84006b74:	02f47d63          	bgeu	s0,a5,ffffffff84006bae <timerTick+0x56>
ffffffff84006b78:	17fd                	add	a5,a5,-1
ffffffff84006b7a:	16f53823          	sd	a5,368(a0)
ffffffff84006b7e:	8c018713          	add	a4,gp,-1856 # ffffffff8400ab70 <ksDomainTime>
ffffffff84006b82:	631c                	ld	a5,0(a4)
ffffffff84006b84:	17fd                	add	a5,a5,-1
ffffffff84006b86:	e31c                	sd	a5,0(a4)
ffffffff84006b88:	c791                	beqz	a5,ffffffff84006b94 <timerTick+0x3c>
ffffffff84006b8a:	60e2                	ld	ra,24(sp)
ffffffff84006b8c:	6442                	ld	s0,16(sp)
ffffffff84006b8e:	64a2                	ld	s1,8(sp)
ffffffff84006b90:	6105                	add	sp,sp,32
ffffffff84006b92:	8082                	ret
ffffffff84006b94:	a9018493          	add	s1,gp,-1392 # ffffffff8400ad40 <ksSchedulerAction>
ffffffff84006b98:	6088                	ld	a0,0(s1)
ffffffff84006b9a:	4785                	li	a5,1
ffffffff84006b9c:	02a7e963          	bltu	a5,a0,ffffffff84006bce <timerTick+0x76>
ffffffff84006ba0:	60e2                	ld	ra,24(sp)
ffffffff84006ba2:	6442                	ld	s0,16(sp)
ffffffff84006ba4:	4785                	li	a5,1
ffffffff84006ba6:	e09c                	sd	a5,0(s1)
ffffffff84006ba8:	64a2                	ld	s1,8(sp)
ffffffff84006baa:	6105                	add	sp,sp,32
ffffffff84006bac:	8082                	ret
ffffffff84006bae:	4795                	li	a5,5
ffffffff84006bb0:	16f53823          	sd	a5,368(a0)
ffffffff84006bb4:	a9018493          	add	s1,gp,-1392 # ffffffff8400ad40 <ksSchedulerAction>
ffffffff84006bb8:	f13ff0ef          	jal	ffffffff84006aca <tcbSchedAppend>
ffffffff84006bbc:	6088                	ld	a0,0(s1)
ffffffff84006bbe:	00a46563          	bltu	s0,a0,ffffffff84006bc8 <timerTick+0x70>
ffffffff84006bc2:	4785                	li	a5,1
ffffffff84006bc4:	e09c                	sd	a5,0(s1)
ffffffff84006bc6:	bf65                	j	ffffffff84006b7e <timerTick+0x26>
ffffffff84006bc8:	83cff0ef          	jal	ffffffff84005c04 <tcbSchedEnqueue>
ffffffff84006bcc:	bfdd                	j	ffffffff84006bc2 <timerTick+0x6a>
ffffffff84006bce:	836ff0ef          	jal	ffffffff84005c04 <tcbSchedEnqueue>
ffffffff84006bd2:	b7f9                	j	ffffffff84006ba0 <timerTick+0x48>

ffffffff84006bd4 <tcbSchedDequeue>:
ffffffff84006bd4:	12053583          	ld	a1,288(a0)
ffffffff84006bd8:	0015f793          	and	a5,a1,1
ffffffff84006bdc:	c7b1                	beqz	a5,ffffffff84006c28 <tcbSchedDequeue+0x54>
ffffffff84006bde:	15853883          	ld	a7,344(a0)
ffffffff84006be2:	16853703          	ld	a4,360(a0)
ffffffff84006be6:	19053603          	ld	a2,400(a0)
ffffffff84006bea:	00889793          	sll	a5,a7,0x8
ffffffff84006bee:	97ba                	add	a5,a5,a4
ffffffff84006bf0:	00006817          	auipc	a6,0x6
ffffffff84006bf4:	c1080813          	add	a6,a6,-1008 # ffffffff8400c800 <ksReadyQueues>
ffffffff84006bf8:	0792                	sll	a5,a5,0x4
ffffffff84006bfa:	00f806b3          	add	a3,a6,a5
ffffffff84006bfe:	0006be03          	ld	t3,0(a3)
ffffffff84006c02:	0086b303          	ld	t1,8(a3)
ffffffff84006c06:	18853683          	ld	a3,392(a0)
ffffffff84006c0a:	c205                	beqz	a2,ffffffff84006c2a <tcbSchedDequeue+0x56>
ffffffff84006c0c:	18d63423          	sd	a3,392(a2)
ffffffff84006c10:	c2a5                	beqz	a3,ffffffff84006c70 <tcbSchedDequeue+0x9c>
ffffffff84006c12:	18c6b823          	sd	a2,400(a3)
ffffffff84006c16:	97c2                	add	a5,a5,a6
ffffffff84006c18:	01c7b023          	sd	t3,0(a5)
ffffffff84006c1c:	0067b423          	sd	t1,8(a5)
ffffffff84006c20:	99f9                	and	a1,a1,-2
ffffffff84006c22:	12b53023          	sd	a1,288(a0)
ffffffff84006c26:	8082                	ret
ffffffff84006c28:	8082                	ret
ffffffff84006c2a:	e6a9                	bnez	a3,ffffffff84006c74 <tcbSchedDequeue+0xa0>
ffffffff84006c2c:	00675313          	srl	t1,a4,0x6
ffffffff84006c30:	460d                	li	a2,3
ffffffff84006c32:	40660633          	sub	a2,a2,t1
ffffffff84006c36:	00289693          	sll	a3,a7,0x2
ffffffff84006c3a:	96b2                	add	a3,a3,a2
ffffffff84006c3c:	068e                	sll	a3,a3,0x3
ffffffff84006c3e:	aa818613          	add	a2,gp,-1368 # ffffffff8400ad58 <ksReadyQueuesL2Bitmap>
ffffffff84006c42:	96b2                	add	a3,a3,a2
ffffffff84006c44:	0006be03          	ld	t3,0(a3)
ffffffff84006c48:	4605                	li	a2,1
ffffffff84006c4a:	00e61733          	sll	a4,a2,a4
ffffffff84006c4e:	fff74713          	not	a4,a4
ffffffff84006c52:	01c77733          	and	a4,a4,t3
ffffffff84006c56:	e298                	sd	a4,0(a3)
ffffffff84006c58:	c305                	beqz	a4,ffffffff84006c78 <tcbSchedDequeue+0xa4>
ffffffff84006c5a:	97c2                	add	a5,a5,a6
ffffffff84006c5c:	4e01                	li	t3,0
ffffffff84006c5e:	4301                	li	t1,0
ffffffff84006c60:	01c7b023          	sd	t3,0(a5)
ffffffff84006c64:	0067b423          	sd	t1,8(a5)
ffffffff84006c68:	99f9                	and	a1,a1,-2
ffffffff84006c6a:	12b53023          	sd	a1,288(a0)
ffffffff84006c6e:	8082                	ret
ffffffff84006c70:	8332                	mv	t1,a2
ffffffff84006c72:	b755                	j	ffffffff84006c16 <tcbSchedDequeue+0x42>
ffffffff84006c74:	8e36                	mv	t3,a3
ffffffff84006c76:	bf71                	j	ffffffff84006c12 <tcbSchedDequeue+0x3e>
ffffffff84006c78:	088e                	sll	a7,a7,0x3
ffffffff84006c7a:	ca818693          	add	a3,gp,-856 # ffffffff8400af58 <ksReadyQueuesL1Bitmap>
ffffffff84006c7e:	96c6                	add	a3,a3,a7
ffffffff84006c80:	0006b883          	ld	a7,0(a3)
ffffffff84006c84:	00661733          	sll	a4,a2,t1
ffffffff84006c88:	fff74713          	not	a4,a4
ffffffff84006c8c:	01177733          	and	a4,a4,a7
ffffffff84006c90:	e298                	sd	a4,0(a3)
ffffffff84006c92:	b7e1                	j	ffffffff84006c5a <tcbSchedDequeue+0x86>

ffffffff84006c94 <switchToThread>:
ffffffff84006c94:	1141                	add	sp,sp,-16
ffffffff84006c96:	e406                	sd	ra,8(sp)
ffffffff84006c98:	e022                	sd	s0,0(sp)
ffffffff84006c9a:	842a                	mv	s0,a0
ffffffff84006c9c:	c92fd0ef          	jal	ffffffff8400412e <setVMRoot>
ffffffff84006ca0:	8522                	mv	a0,s0
ffffffff84006ca2:	f33ff0ef          	jal	ffffffff84006bd4 <tcbSchedDequeue>
ffffffff84006ca6:	60a2                	ld	ra,8(sp)
ffffffff84006ca8:	aa81b023          	sd	s0,-1376(gp) # ffffffff8400ad50 <ksCurThread>
ffffffff84006cac:	6402                	ld	s0,0(sp)
ffffffff84006cae:	0141                	add	sp,sp,16
ffffffff84006cb0:	8082                	ret

ffffffff84006cb2 <setDomain>:
ffffffff84006cb2:	1101                	add	sp,sp,-32
ffffffff84006cb4:	e822                	sd	s0,16(sp)
ffffffff84006cb6:	e426                	sd	s1,8(sp)
ffffffff84006cb8:	842a                	mv	s0,a0
ffffffff84006cba:	84ae                	mv	s1,a1
ffffffff84006cbc:	ec06                	sd	ra,24(sp)
ffffffff84006cbe:	f17ff0ef          	jal	ffffffff84006bd4 <tcbSchedDequeue>
ffffffff84006cc2:	11843783          	ld	a5,280(s0)
ffffffff84006cc6:	14943c23          	sd	s1,344(s0)
ffffffff84006cca:	4705                	li	a4,1
ffffffff84006ccc:	8bbd                	and	a5,a5,15
ffffffff84006cce:	17fd                	add	a5,a5,-1
ffffffff84006cd0:	00f76563          	bltu	a4,a5,ffffffff84006cda <setDomain+0x28>
ffffffff84006cd4:	8522                	mv	a0,s0
ffffffff84006cd6:	f2ffe0ef          	jal	ffffffff84005c04 <tcbSchedEnqueue>
ffffffff84006cda:	aa01b783          	ld	a5,-1376(gp) # ffffffff8400ad50 <ksCurThread>
ffffffff84006cde:	00878763          	beq	a5,s0,ffffffff84006cec <setDomain+0x3a>
ffffffff84006ce2:	60e2                	ld	ra,24(sp)
ffffffff84006ce4:	6442                	ld	s0,16(sp)
ffffffff84006ce6:	64a2                	ld	s1,8(sp)
ffffffff84006ce8:	6105                	add	sp,sp,32
ffffffff84006cea:	8082                	ret
ffffffff84006cec:	a9018413          	add	s0,gp,-1392 # ffffffff8400ad40 <ksSchedulerAction>
ffffffff84006cf0:	6008                	ld	a0,0(s0)
ffffffff84006cf2:	4785                	li	a5,1
ffffffff84006cf4:	00a7e963          	bltu	a5,a0,ffffffff84006d06 <setDomain+0x54>
ffffffff84006cf8:	4785                	li	a5,1
ffffffff84006cfa:	60e2                	ld	ra,24(sp)
ffffffff84006cfc:	e01c                	sd	a5,0(s0)
ffffffff84006cfe:	6442                	ld	s0,16(sp)
ffffffff84006d00:	64a2                	ld	s1,8(sp)
ffffffff84006d02:	6105                	add	sp,sp,32
ffffffff84006d04:	8082                	ret
ffffffff84006d06:	efffe0ef          	jal	ffffffff84005c04 <tcbSchedEnqueue>
ffffffff84006d0a:	b7fd                	j	ffffffff84006cf8 <setDomain+0x46>

ffffffff84006d0c <setPriority>:
ffffffff84006d0c:	1101                	add	sp,sp,-32
ffffffff84006d0e:	e822                	sd	s0,16(sp)
ffffffff84006d10:	e426                	sd	s1,8(sp)
ffffffff84006d12:	842a                	mv	s0,a0
ffffffff84006d14:	84ae                	mv	s1,a1
ffffffff84006d16:	ec06                	sd	ra,24(sp)
ffffffff84006d18:	ebdff0ef          	jal	ffffffff84006bd4 <tcbSchedDequeue>
ffffffff84006d1c:	11843783          	ld	a5,280(s0)
ffffffff84006d20:	16943423          	sd	s1,360(s0)
ffffffff84006d24:	4705                	li	a4,1
ffffffff84006d26:	8bbd                	and	a5,a5,15
ffffffff84006d28:	17fd                	add	a5,a5,-1
ffffffff84006d2a:	00f77763          	bgeu	a4,a5,ffffffff84006d38 <setPriority+0x2c>
ffffffff84006d2e:	60e2                	ld	ra,24(sp)
ffffffff84006d30:	6442                	ld	s0,16(sp)
ffffffff84006d32:	64a2                	ld	s1,8(sp)
ffffffff84006d34:	6105                	add	sp,sp,32
ffffffff84006d36:	8082                	ret
ffffffff84006d38:	aa01b783          	ld	a5,-1376(gp) # ffffffff8400ad50 <ksCurThread>
ffffffff84006d3c:	00878963          	beq	a5,s0,ffffffff84006d4e <setPriority+0x42>
ffffffff84006d40:	8522                	mv	a0,s0
ffffffff84006d42:	6442                	ld	s0,16(sp)
ffffffff84006d44:	60e2                	ld	ra,24(sp)
ffffffff84006d46:	64a2                	ld	s1,8(sp)
ffffffff84006d48:	6105                	add	sp,sp,32
ffffffff84006d4a:	f77fe06f          	j	ffffffff84005cc0 <possibleSwitchTo>
ffffffff84006d4e:	a9018413          	add	s0,gp,-1392 # ffffffff8400ad40 <ksSchedulerAction>
ffffffff84006d52:	6008                	ld	a0,0(s0)
ffffffff84006d54:	00a76963          	bltu	a4,a0,ffffffff84006d66 <setPriority+0x5a>
ffffffff84006d58:	4785                	li	a5,1
ffffffff84006d5a:	60e2                	ld	ra,24(sp)
ffffffff84006d5c:	e01c                	sd	a5,0(s0)
ffffffff84006d5e:	6442                	ld	s0,16(sp)
ffffffff84006d60:	64a2                	ld	s1,8(sp)
ffffffff84006d62:	6105                	add	sp,sp,32
ffffffff84006d64:	8082                	ret
ffffffff84006d66:	e9ffe0ef          	jal	ffffffff84005c04 <tcbSchedEnqueue>
ffffffff84006d6a:	b7fd                	j	ffffffff84006d58 <setPriority+0x4c>

ffffffff84006d6c <chooseThread>:
ffffffff84006d6c:	8c81b603          	ld	a2,-1848(gp) # ffffffff8400ab78 <ksCurDomain>
ffffffff84006d70:	00361713          	sll	a4,a2,0x3
ffffffff84006d74:	ca818793          	add	a5,gp,-856 # ffffffff8400af58 <ksReadyQueuesL1Bitmap>
ffffffff84006d78:	97ba                	add	a5,a5,a4
ffffffff84006d7a:	6398                	ld	a4,0(a5)
ffffffff84006d7c:	1141                	add	sp,sp,-16
ffffffff84006d7e:	e406                	sd	ra,8(sp)
ffffffff84006d80:	e022                	sd	s0,0(sp)
ffffffff84006d82:	14070263          	beqz	a4,ffffffff84006ec6 <chooseThread+0x15a>
ffffffff84006d86:	4505                	li	a0,1
ffffffff84006d88:	1502                	sll	a0,a0,0x20
ffffffff84006d8a:	00a737b3          	sltu	a5,a4,a0
ffffffff84006d8e:	0017c793          	xor	a5,a5,1
ffffffff84006d92:	0057979b          	sllw	a5,a5,0x5
ffffffff84006d96:	00f75733          	srl	a4,a4,a5
ffffffff84006d9a:	65c1                	lui	a1,0x10
ffffffff84006d9c:	00b73e33          	sltu	t3,a4,a1
ffffffff84006da0:	001e4e13          	xor	t3,t3,1
ffffffff84006da4:	004e1e1b          	sllw	t3,t3,0x4
ffffffff84006da8:	01c75733          	srl	a4,a4,t3
ffffffff84006dac:	10073313          	sltiu	t1,a4,256
ffffffff84006db0:	00134313          	xor	t1,t1,1
ffffffff84006db4:	0033131b          	sllw	t1,t1,0x3
ffffffff84006db8:	00675733          	srl	a4,a4,t1
ffffffff84006dbc:	01073893          	sltiu	a7,a4,16
ffffffff84006dc0:	0018c893          	xor	a7,a7,1
ffffffff84006dc4:	0028989b          	sllw	a7,a7,0x2
ffffffff84006dc8:	01175733          	srl	a4,a4,a7
ffffffff84006dcc:	04000693          	li	a3,64
ffffffff84006dd0:	00473813          	sltiu	a6,a4,4
ffffffff84006dd4:	40f687bb          	subw	a5,a3,a5
ffffffff84006dd8:	00184813          	xor	a6,a6,1
ffffffff84006ddc:	0018181b          	sllw	a6,a6,0x1
ffffffff84006de0:	41c787bb          	subw	a5,a5,t3
ffffffff84006de4:	01075733          	srl	a4,a4,a6
ffffffff84006de8:	406787bb          	subw	a5,a5,t1
ffffffff84006dec:	411787bb          	subw	a5,a5,a7
ffffffff84006df0:	00273893          	sltiu	a7,a4,2
ffffffff84006df4:	0018c893          	xor	a7,a7,1
ffffffff84006df8:	410787bb          	subw	a5,a5,a6
ffffffff84006dfc:	01175733          	srl	a4,a4,a7
ffffffff84006e00:	411787bb          	subw	a5,a5,a7
ffffffff84006e04:	9f99                	subw	a5,a5,a4
ffffffff84006e06:	fc478813          	add	a6,a5,-60
ffffffff84006e0a:	00261713          	sll	a4,a2,0x2
ffffffff84006e0e:	9742                	add	a4,a4,a6
ffffffff84006e10:	070e                	sll	a4,a4,0x3
ffffffff84006e12:	aa818813          	add	a6,gp,-1368 # ffffffff8400ad58 <ksReadyQueuesL2Bitmap>
ffffffff84006e16:	9742                	add	a4,a4,a6
ffffffff84006e18:	6318                	ld	a4,0(a4)
ffffffff84006e1a:	03f00813          	li	a6,63
ffffffff84006e1e:	40f807b3          	sub	a5,a6,a5
ffffffff84006e22:	00a73533          	sltu	a0,a4,a0
ffffffff84006e26:	00154513          	xor	a0,a0,1
ffffffff84006e2a:	0055151b          	sllw	a0,a0,0x5
ffffffff84006e2e:	00a75733          	srl	a4,a4,a0
ffffffff84006e32:	00b735b3          	sltu	a1,a4,a1
ffffffff84006e36:	0015c593          	xor	a1,a1,1
ffffffff84006e3a:	0045959b          	sllw	a1,a1,0x4
ffffffff84006e3e:	00b75733          	srl	a4,a4,a1
ffffffff84006e42:	10073e13          	sltiu	t3,a4,256
ffffffff84006e46:	001e4e13          	xor	t3,t3,1
ffffffff84006e4a:	003e1e1b          	sllw	t3,t3,0x3
ffffffff84006e4e:	01c75733          	srl	a4,a4,t3
ffffffff84006e52:	01073313          	sltiu	t1,a4,16
ffffffff84006e56:	00134313          	xor	t1,t1,1
ffffffff84006e5a:	0023131b          	sllw	t1,t1,0x2
ffffffff84006e5e:	00675733          	srl	a4,a4,t1
ffffffff84006e62:	00473893          	sltiu	a7,a4,4
ffffffff84006e66:	9e89                	subw	a3,a3,a0
ffffffff84006e68:	0018c513          	xor	a0,a7,1
ffffffff84006e6c:	0015151b          	sllw	a0,a0,0x1
ffffffff84006e70:	9e8d                	subw	a3,a3,a1
ffffffff84006e72:	00a75733          	srl	a4,a4,a0
ffffffff84006e76:	41c686bb          	subw	a3,a3,t3
ffffffff84006e7a:	406686bb          	subw	a3,a3,t1
ffffffff84006e7e:	00273593          	sltiu	a1,a4,2
ffffffff84006e82:	0015c593          	xor	a1,a1,1
ffffffff84006e86:	9e89                	subw	a3,a3,a0
ffffffff84006e88:	9e8d                	subw	a3,a3,a1
ffffffff84006e8a:	00b75733          	srl	a4,a4,a1
ffffffff84006e8e:	40e6873b          	subw	a4,a3,a4
ffffffff84006e92:	40e80833          	sub	a6,a6,a4
ffffffff84006e96:	079a                	sll	a5,a5,0x6
ffffffff84006e98:	00f86833          	or	a6,a6,a5
ffffffff84006e9c:	0622                	sll	a2,a2,0x8
ffffffff84006e9e:	9642                	add	a2,a2,a6
ffffffff84006ea0:	0612                	sll	a2,a2,0x4
ffffffff84006ea2:	00006797          	auipc	a5,0x6
ffffffff84006ea6:	95e78793          	add	a5,a5,-1698 # ffffffff8400c800 <ksReadyQueues>
ffffffff84006eaa:	97b2                	add	a5,a5,a2
ffffffff84006eac:	6380                	ld	s0,0(a5)
ffffffff84006eae:	8522                	mv	a0,s0
ffffffff84006eb0:	a7efd0ef          	jal	ffffffff8400412e <setVMRoot>
ffffffff84006eb4:	8522                	mv	a0,s0
ffffffff84006eb6:	d1fff0ef          	jal	ffffffff84006bd4 <tcbSchedDequeue>
ffffffff84006eba:	60a2                	ld	ra,8(sp)
ffffffff84006ebc:	aa81b023          	sd	s0,-1376(gp) # ffffffff8400ad50 <ksCurThread>
ffffffff84006ec0:	6402                	ld	s0,0(sp)
ffffffff84006ec2:	0141                	add	sp,sp,16
ffffffff84006ec4:	8082                	ret
ffffffff84006ec6:	a9818413          	add	s0,gp,-1384 # ffffffff8400ad48 <ksIdleThread>
ffffffff84006eca:	6008                	ld	a0,0(s0)
ffffffff84006ecc:	a62fd0ef          	jal	ffffffff8400412e <setVMRoot>
ffffffff84006ed0:	6000                	ld	s0,0(s0)
ffffffff84006ed2:	60a2                	ld	ra,8(sp)
ffffffff84006ed4:	aa81b023          	sd	s0,-1376(gp) # ffffffff8400ad50 <ksCurThread>
ffffffff84006ed8:	6402                	ld	s0,0(sp)
ffffffff84006eda:	0141                	add	sp,sp,16
ffffffff84006edc:	8082                	ret

ffffffff84006ede <scheduleChooseNewThread>:
ffffffff84006ede:	8c018713          	add	a4,gp,-1856 # ffffffff8400ab70 <ksDomainTime>
ffffffff84006ee2:	631c                	ld	a5,0(a4)
ffffffff84006ee4:	c391                	beqz	a5,ffffffff84006ee8 <scheduleChooseNewThread+0xa>
ffffffff84006ee6:	b559                	j	ffffffff84006d6c <chooseThread>
ffffffff84006ee8:	8b818613          	add	a2,gp,-1864 # ffffffff8400ab68 <ksDomScheduleIdx>
ffffffff84006eec:	6214                	ld	a3,0(a2)
ffffffff84006eee:	4589                	li	a1,2
ffffffff84006ef0:	0685                	add	a3,a3,1
ffffffff84006ef2:	e214                	sd	a3,0(a2)
ffffffff84006ef4:	02d5e063          	bltu	a1,a3,ffffffff84006f14 <scheduleChooseNewThread+0x36>
ffffffff84006ef8:	00004797          	auipc	a5,0x4
ffffffff84006efc:	be078793          	add	a5,a5,-1056 # ffffffff8400aad8 <ksDomSchedule>
ffffffff84006f00:	0692                	sll	a3,a3,0x4
ffffffff84006f02:	96be                	add	a3,a3,a5
ffffffff84006f04:	629c                	ld	a5,0(a3)
ffffffff84006f06:	6694                	ld	a3,8(a3)
ffffffff84006f08:	a801b423          	sd	zero,-1400(gp) # ffffffff8400ad38 <ksWorkUnitsCompleted>
ffffffff84006f0c:	8cf1b423          	sd	a5,-1848(gp) # ffffffff8400ab78 <ksCurDomain>
ffffffff84006f10:	e314                	sd	a3,0(a4)
ffffffff84006f12:	bda9                	j	ffffffff84006d6c <chooseThread>
ffffffff84006f14:	8a01bc23          	sd	zero,-1864(gp) # ffffffff8400ab68 <ksDomScheduleIdx>
ffffffff84006f18:	46bd                	li	a3,15
ffffffff84006f1a:	b7fd                	j	ffffffff84006f08 <scheduleChooseNewThread+0x2a>

ffffffff84006f1c <schedule>:
ffffffff84006f1c:	7179                	add	sp,sp,-48
ffffffff84006f1e:	ec26                	sd	s1,24(sp)
ffffffff84006f20:	a9018493          	add	s1,gp,-1392 # ffffffff8400ad40 <ksSchedulerAction>
ffffffff84006f24:	f022                	sd	s0,32(sp)
ffffffff84006f26:	6080                	ld	s0,0(s1)
ffffffff84006f28:	f406                	sd	ra,40(sp)
ffffffff84006f2a:	e84a                	sd	s2,16(sp)
ffffffff84006f2c:	e44e                	sd	s3,8(sp)
ffffffff84006f2e:	c035                	beqz	s0,ffffffff84006f92 <schedule+0x76>
ffffffff84006f30:	aa018913          	add	s2,gp,-1376 # ffffffff8400ad50 <ksCurThread>
ffffffff84006f34:	00093503          	ld	a0,0(s2)
ffffffff84006f38:	4705                	li	a4,1
ffffffff84006f3a:	4681                	li	a3,0
ffffffff84006f3c:	11853783          	ld	a5,280(a0)
ffffffff84006f40:	8bbd                	and	a5,a5,15
ffffffff84006f42:	17fd                	add	a5,a5,-1
ffffffff84006f44:	06f77063          	bgeu	a4,a5,ffffffff84006fa4 <schedule+0x88>
ffffffff84006f48:	4785                	li	a5,1
ffffffff84006f4a:	06f40463          	beq	s0,a5,ffffffff84006fb2 <schedule+0x96>
ffffffff84006f4e:	00093603          	ld	a2,0(s2)
ffffffff84006f52:	a981b783          	ld	a5,-1384(gp) # ffffffff8400ad48 <ksIdleThread>
ffffffff84006f56:	16843583          	ld	a1,360(s0)
ffffffff84006f5a:	00f60663          	beq	a2,a5,ffffffff84006f66 <schedule+0x4a>
ffffffff84006f5e:	16863783          	ld	a5,360(a2)
ffffffff84006f62:	00f5fb63          	bgeu	a1,a5,ffffffff84006f78 <schedule+0x5c>
ffffffff84006f66:	8c81b883          	ld	a7,-1848(gp) # ffffffff8400ab78 <ksCurDomain>
ffffffff84006f6a:	00389713          	sll	a4,a7,0x3
ffffffff84006f6e:	ca818793          	add	a5,gp,-856 # ffffffff8400af58 <ksReadyQueuesL1Bitmap>
ffffffff84006f72:	97ba                	add	a5,a5,a4
ffffffff84006f74:	639c                	ld	a5,0(a5)
ffffffff84006f76:	e3a9                	bnez	a5,ffffffff84006fb8 <schedule+0x9c>
ffffffff84006f78:	8522                	mv	a0,s0
ffffffff84006f7a:	c689                	beqz	a3,ffffffff84006f84 <schedule+0x68>
ffffffff84006f7c:	16863783          	ld	a5,360(a2)
ffffffff84006f80:	16b78663          	beq	a5,a1,ffffffff840070ec <schedule+0x1d0>
ffffffff84006f84:	9aafd0ef          	jal	ffffffff8400412e <setVMRoot>
ffffffff84006f88:	8522                	mv	a0,s0
ffffffff84006f8a:	c4bff0ef          	jal	ffffffff84006bd4 <tcbSchedDequeue>
ffffffff84006f8e:	00893023          	sd	s0,0(s2)
ffffffff84006f92:	70a2                	ld	ra,40(sp)
ffffffff84006f94:	7402                	ld	s0,32(sp)
ffffffff84006f96:	a801b823          	sd	zero,-1392(gp) # ffffffff8400ad40 <ksSchedulerAction>
ffffffff84006f9a:	64e2                	ld	s1,24(sp)
ffffffff84006f9c:	6942                	ld	s2,16(sp)
ffffffff84006f9e:	69a2                	ld	s3,8(sp)
ffffffff84006fa0:	6145                	add	sp,sp,48
ffffffff84006fa2:	8082                	ret
ffffffff84006fa4:	c61fe0ef          	jal	ffffffff84005c04 <tcbSchedEnqueue>
ffffffff84006fa8:	6080                	ld	s0,0(s1)
ffffffff84006faa:	4785                	li	a5,1
ffffffff84006fac:	4685                	li	a3,1
ffffffff84006fae:	faf410e3          	bne	s0,a5,ffffffff84006f4e <schedule+0x32>
ffffffff84006fb2:	f2dff0ef          	jal	ffffffff84006ede <scheduleChooseNewThread>
ffffffff84006fb6:	bff1                	j	ffffffff84006f92 <schedule+0x76>
ffffffff84006fb8:	4985                	li	s3,1
ffffffff84006fba:	02099813          	sll	a6,s3,0x20
ffffffff84006fbe:	0107b733          	sltu	a4,a5,a6
ffffffff84006fc2:	00174713          	xor	a4,a4,1
ffffffff84006fc6:	0057171b          	sllw	a4,a4,0x5
ffffffff84006fca:	00e7d7b3          	srl	a5,a5,a4
ffffffff84006fce:	6341                	lui	t1,0x10
ffffffff84006fd0:	0067bfb3          	sltu	t6,a5,t1
ffffffff84006fd4:	001fcf93          	xor	t6,t6,1
ffffffff84006fd8:	004f9f9b          	sllw	t6,t6,0x4
ffffffff84006fdc:	01f7d7b3          	srl	a5,a5,t6
ffffffff84006fe0:	1007bf13          	sltiu	t5,a5,256
ffffffff84006fe4:	001f4f13          	xor	t5,t5,1
ffffffff84006fe8:	003f1f1b          	sllw	t5,t5,0x3
ffffffff84006fec:	01e7d7b3          	srl	a5,a5,t5
ffffffff84006ff0:	0107be93          	sltiu	t4,a5,16
ffffffff84006ff4:	001ece93          	xor	t4,t4,1
ffffffff84006ff8:	002e9e9b          	sllw	t4,t4,0x2
ffffffff84006ffc:	01d7d7b3          	srl	a5,a5,t4
ffffffff84007000:	04000513          	li	a0,64
ffffffff84007004:	0047be13          	sltiu	t3,a5,4
ffffffff84007008:	40e5073b          	subw	a4,a0,a4
ffffffff8400700c:	001e4e13          	xor	t3,t3,1
ffffffff84007010:	001e1e1b          	sllw	t3,t3,0x1
ffffffff84007014:	41f7073b          	subw	a4,a4,t6
ffffffff84007018:	01c7d7b3          	srl	a5,a5,t3
ffffffff8400701c:	41e7073b          	subw	a4,a4,t5
ffffffff84007020:	41d7073b          	subw	a4,a4,t4
ffffffff84007024:	0027be93          	sltiu	t4,a5,2
ffffffff84007028:	001ece93          	xor	t4,t4,1
ffffffff8400702c:	41c7073b          	subw	a4,a4,t3
ffffffff84007030:	41d7073b          	subw	a4,a4,t4
ffffffff84007034:	01d7d7b3          	srl	a5,a5,t4
ffffffff84007038:	40f707bb          	subw	a5,a4,a5
ffffffff8400703c:	fc478713          	add	a4,a5,-60
ffffffff84007040:	088a                	sll	a7,a7,0x2
ffffffff84007042:	98ba                	add	a7,a7,a4
ffffffff84007044:	088e                	sll	a7,a7,0x3
ffffffff84007046:	aa818713          	add	a4,gp,-1368 # ffffffff8400ad58 <ksReadyQueuesL2Bitmap>
ffffffff8400704a:	9746                	add	a4,a4,a7
ffffffff8400704c:	6318                	ld	a4,0(a4)
ffffffff8400704e:	03f00893          	li	a7,63
ffffffff84007052:	40f887b3          	sub	a5,a7,a5
ffffffff84007056:	01073833          	sltu	a6,a4,a6
ffffffff8400705a:	00184813          	xor	a6,a6,1
ffffffff8400705e:	0058181b          	sllw	a6,a6,0x5
ffffffff84007062:	01075733          	srl	a4,a4,a6
ffffffff84007066:	00673333          	sltu	t1,a4,t1
ffffffff8400706a:	00134313          	xor	t1,t1,1
ffffffff8400706e:	0043131b          	sllw	t1,t1,0x4
ffffffff84007072:	00675733          	srl	a4,a4,t1
ffffffff84007076:	10073f13          	sltiu	t5,a4,256
ffffffff8400707a:	001f4f13          	xor	t5,t5,1
ffffffff8400707e:	003f1f1b          	sllw	t5,t5,0x3
ffffffff84007082:	01e75733          	srl	a4,a4,t5
ffffffff84007086:	01073e93          	sltiu	t4,a4,16
ffffffff8400708a:	001ece93          	xor	t4,t4,1
ffffffff8400708e:	002e9e9b          	sllw	t4,t4,0x2
ffffffff84007092:	01d75733          	srl	a4,a4,t4
ffffffff84007096:	00473e13          	sltiu	t3,a4,4
ffffffff8400709a:	4105053b          	subw	a0,a0,a6
ffffffff8400709e:	001e4813          	xor	a6,t3,1
ffffffff840070a2:	0018181b          	sllw	a6,a6,0x1
ffffffff840070a6:	4065053b          	subw	a0,a0,t1
ffffffff840070aa:	01075733          	srl	a4,a4,a6
ffffffff840070ae:	41e5053b          	subw	a0,a0,t5
ffffffff840070b2:	00273313          	sltiu	t1,a4,2
ffffffff840070b6:	41d5053b          	subw	a0,a0,t4
ffffffff840070ba:	00134313          	xor	t1,t1,1
ffffffff840070be:	4105053b          	subw	a0,a0,a6
ffffffff840070c2:	4065053b          	subw	a0,a0,t1
ffffffff840070c6:	00675733          	srl	a4,a4,t1
ffffffff840070ca:	40e5073b          	subw	a4,a0,a4
ffffffff840070ce:	40e888b3          	sub	a7,a7,a4
ffffffff840070d2:	079a                	sll	a5,a5,0x6
ffffffff840070d4:	00f8e8b3          	or	a7,a7,a5
ffffffff840070d8:	eb15f0e3          	bgeu	a1,a7,ffffffff84006f78 <schedule+0x5c>
ffffffff840070dc:	8522                	mv	a0,s0
ffffffff840070de:	b27fe0ef          	jal	ffffffff84005c04 <tcbSchedEnqueue>
ffffffff840070e2:	0134b023          	sd	s3,0(s1)
ffffffff840070e6:	df9ff0ef          	jal	ffffffff84006ede <scheduleChooseNewThread>
ffffffff840070ea:	b565                	j	ffffffff84006f92 <schedule+0x76>
ffffffff840070ec:	9dfff0ef          	jal	ffffffff84006aca <tcbSchedAppend>
ffffffff840070f0:	4785                	li	a5,1
ffffffff840070f2:	e09c                	sd	a5,0(s1)
ffffffff840070f4:	debff0ef          	jal	ffffffff84006ede <scheduleChooseNewThread>
ffffffff840070f8:	bd69                	j	ffffffff84006f92 <schedule+0x76>

ffffffff840070fa <finaliseCap>:
ffffffff840070fa:	7179                	add	sp,sp,-48
ffffffff840070fc:	03b5d793          	srl	a5,a1,0x3b
ffffffff84007100:	f022                	sd	s0,32(sp)
ffffffff84007102:	f406                	sd	ra,40(sp)
ffffffff84007104:	ec26                	sd	s1,24(sp)
ffffffff84007106:	e84a                	sd	s2,16(sp)
ffffffff84007108:	e02e                	sd	a1,0(sp)
ffffffff8400710a:	e432                	sd	a2,8(sp)
ffffffff8400710c:	0017f893          	and	a7,a5,1
ffffffff84007110:	842a                	mv	s0,a0
ffffffff84007112:	08089063          	bnez	a7,ffffffff84007192 <finaliseCap+0x98>
ffffffff84007116:	8836                	mv	a6,a3
ffffffff84007118:	46d1                	li	a3,20
ffffffff8400711a:	84ae                	mv	s1,a1
ffffffff8400711c:	8932                	mv	s2,a2
ffffffff8400711e:	08f6e363          	bltu	a3,a5,ffffffff840071a4 <finaliseCap+0xaa>
ffffffff84007122:	00004617          	auipc	a2,0x4
ffffffff84007126:	41e60613          	add	a2,a2,1054 # ffffffff8400b540 <platform_interrupt_t+0x100>
ffffffff8400712a:	00279693          	sll	a3,a5,0x2
ffffffff8400712e:	96b2                	add	a3,a3,a2
ffffffff84007130:	4294                	lw	a3,0(a3)
ffffffff84007132:	96b2                	add	a3,a3,a2
ffffffff84007134:	8682                	jr	a3
ffffffff84007136:	02080f63          	beqz	a6,ffffffff84007174 <finaliseCap+0x7a>
ffffffff8400713a:	57fd                	li	a5,-1
ffffffff8400713c:	0265d713          	srl	a4,a1,0x26
ffffffff84007140:	0197d513          	srl	a0,a5,0x19
ffffffff84007144:	8b05                	and	a4,a4,1
ffffffff84007146:	8d6d                	and	a0,a0,a1
ffffffff84007148:	c319                	beqz	a4,ffffffff8400714e <finaliseCap+0x54>
ffffffff8400714a:	179e                	sll	a5,a5,0x27
ffffffff8400714c:	8d5d                	or	a0,a0,a5
ffffffff8400714e:	6d1c                	ld	a5,24(a0)
ffffffff84007150:	56fd                	li	a3,-1
ffffffff84007152:	0196d713          	srl	a4,a3,0x19
ffffffff84007156:	0267d613          	srl	a2,a5,0x26
ffffffff8400715a:	8a05                	and	a2,a2,1
ffffffff8400715c:	8f7d                	and	a4,a4,a5
ffffffff8400715e:	18060263          	beqz	a2,ffffffff840072e2 <finaliseCap+0x1e8>
ffffffff84007162:	169e                	sll	a3,a3,0x27
ffffffff84007164:	8f55                	or	a4,a4,a3
ffffffff84007166:	939d                	srl	a5,a5,0x27
ffffffff84007168:	179e                	sll	a5,a5,0x27
ffffffff8400716a:	ed1c                	sd	a5,24(a0)
ffffffff8400716c:	12073823          	sd	zero,304(a4)
ffffffff84007170:	84bff0ef          	jal	ffffffff840069ba <cancelAllSignals>
ffffffff84007174:	00043023          	sd	zero,0(s0)
ffffffff84007178:	00043423          	sd	zero,8(s0)
ffffffff8400717c:	00043823          	sd	zero,16(s0)
ffffffff84007180:	00043c23          	sd	zero,24(s0)
ffffffff84007184:	70a2                	ld	ra,40(sp)
ffffffff84007186:	8522                	mv	a0,s0
ffffffff84007188:	7402                	ld	s0,32(sp)
ffffffff8400718a:	64e2                	ld	s1,24(sp)
ffffffff8400718c:	6942                	ld	s2,16(sp)
ffffffff8400718e:	6145                	add	sp,sp,48
ffffffff84007190:	8082                	ret
ffffffff84007192:	b10fd0ef          	jal	ffffffff840044a2 <Arch_finaliseCap>
ffffffff84007196:	70a2                	ld	ra,40(sp)
ffffffff84007198:	8522                	mv	a0,s0
ffffffff8400719a:	7402                	ld	s0,32(sp)
ffffffff8400719c:	64e2                	ld	s1,24(sp)
ffffffff8400719e:	6942                	ld	s2,16(sp)
ffffffff840071a0:	6145                	add	sp,sp,48
ffffffff840071a2:	8082                	ret
ffffffff840071a4:	14071263          	bnez	a4,ffffffff840072e8 <finaliseCap+0x1ee>
ffffffff840071a8:	4741                	li	a4,16
ffffffff840071aa:	0ce78063          	beq	a5,a4,ffffffff8400726a <finaliseCap+0x170>
ffffffff840071ae:	0af76363          	bltu	a4,a5,ffffffff84007254 <finaliseCap+0x15a>
ffffffff840071b2:	4729                	li	a4,10
ffffffff840071b4:	0ce78f63          	beq	a5,a4,ffffffff84007292 <finaliseCap+0x198>
ffffffff840071b8:	4731                	li	a4,12
ffffffff840071ba:	fae79de3          	bne	a5,a4,ffffffff84007174 <finaliseCap+0x7a>
ffffffff840071be:	fa080be3          	beqz	a6,ffffffff84007174 <finaliseCap+0x7a>
ffffffff840071c2:	0264d693          	srl	a3,s1,0x26
ffffffff840071c6:	577d                	li	a4,-1
ffffffff840071c8:	01975793          	srl	a5,a4,0x19
ffffffff840071cc:	8a85                	and	a3,a3,1
ffffffff840071ce:	8cfd                	and	s1,s1,a5
ffffffff840071d0:	c299                	beqz	a3,ffffffff840071d6 <finaliseCap+0xdc>
ffffffff840071d2:	171e                	sll	a4,a4,0x27
ffffffff840071d4:	8cd9                	or	s1,s1,a4
ffffffff840071d6:	1304b703          	ld	a4,304(s1)
ffffffff840071da:	c004f913          	and	s2,s1,-1024
ffffffff840071de:	c719                	beqz	a4,ffffffff840071ec <finaliseCap+0xf2>
ffffffff840071e0:	6f1c                	ld	a5,24(a4)
ffffffff840071e2:	939d                	srl	a5,a5,0x27
ffffffff840071e4:	179e                	sll	a5,a5,0x27
ffffffff840071e6:	ef1c                	sd	a5,24(a4)
ffffffff840071e8:	1204b823          	sd	zero,304(s1)
ffffffff840071ec:	8526                	mv	a0,s1
ffffffff840071ee:	0a9000ef          	jal	ffffffff84007a96 <cancelIPC>
ffffffff840071f2:	1184b783          	ld	a5,280(s1)
ffffffff840071f6:	4705                	li	a4,1
ffffffff840071f8:	00f7f693          	and	a3,a5,15
ffffffff840071fc:	00e69663          	bne	a3,a4,ffffffff84007208 <finaliseCap+0x10e>
ffffffff84007200:	1104b703          	ld	a4,272(s1)
ffffffff84007204:	10e4b423          	sd	a4,264(s1)
ffffffff84007208:	9bc1                	and	a5,a5,-16
ffffffff8400720a:	10f4bc23          	sd	a5,280(s1)
ffffffff8400720e:	8526                	mv	a0,s1
ffffffff84007210:	b57fe0ef          	jal	ffffffff84005d66 <scheduleTCB>
ffffffff84007214:	8526                	mv	a0,s1
ffffffff84007216:	9bfff0ef          	jal	ffffffff84006bd4 <tcbSchedDequeue>
ffffffff8400721a:	57e5                	li	a5,-7
ffffffff8400721c:	17f2                	sll	a5,a5,0x3c
ffffffff8400721e:	00594913          	xor	s2,s2,5
ffffffff84007222:	04078793          	add	a5,a5,64
ffffffff84007226:	e01c                	sd	a5,0(s0)
ffffffff84007228:	01243423          	sd	s2,8(s0)
ffffffff8400722c:	00043823          	sd	zero,16(s0)
ffffffff84007230:	00043c23          	sd	zero,24(s0)
ffffffff84007234:	bf81                	j	ffffffff84007184 <finaliseCap+0x8a>
ffffffff84007236:	f2080fe3          	beqz	a6,ffffffff84007174 <finaliseCap+0x7a>
ffffffff8400723a:	57fd                	li	a5,-1
ffffffff8400723c:	0265d713          	srl	a4,a1,0x26
ffffffff84007240:	0197d513          	srl	a0,a5,0x19
ffffffff84007244:	8b05                	and	a4,a4,1
ffffffff84007246:	8d6d                	and	a0,a0,a1
ffffffff84007248:	c319                	beqz	a4,ffffffff8400724e <finaliseCap+0x154>
ffffffff8400724a:	179e                	sll	a5,a5,0x27
ffffffff8400724c:	8d5d                	or	a0,a0,a5
ffffffff8400724e:	ab9fe0ef          	jal	ffffffff84005d06 <cancelAllIPC>
ffffffff84007252:	b70d                	j	ffffffff84007174 <finaliseCap+0x7a>
ffffffff84007254:	4749                	li	a4,18
ffffffff84007256:	f0e79fe3          	bne	a5,a4,ffffffff84007174 <finaliseCap+0x7a>
ffffffff8400725a:	e004                	sd	s1,0(s0)
ffffffff8400725c:	01243423          	sd	s2,8(s0)
ffffffff84007260:	00043823          	sd	zero,16(s0)
ffffffff84007264:	00043c23          	sd	zero,24(s0)
ffffffff84007268:	bf31                	j	ffffffff84007184 <finaliseCap+0x8a>
ffffffff8400726a:	f00805e3          	beqz	a6,ffffffff84007174 <finaliseCap+0x7a>
ffffffff8400726e:	03491793          	sll	a5,s2,0x34
ffffffff84007272:	93bd                	srl	a5,a5,0x2f
ffffffff84007274:	00005517          	auipc	a0,0x5
ffffffff84007278:	d8c50513          	add	a0,a0,-628 # ffffffff8400c000 <intStateIRQNode>
ffffffff8400727c:	953e                	add	a0,a0,a5
ffffffff8400727e:	7d8000ef          	jal	ffffffff84007a56 <cteDeleteOne>
ffffffff84007282:	00043023          	sd	zero,0(s0)
ffffffff84007286:	00043423          	sd	zero,8(s0)
ffffffff8400728a:	e804                	sd	s1,16(s0)
ffffffff8400728c:	01243c23          	sd	s2,24(s0)
ffffffff84007290:	bdd5                	j	ffffffff84007184 <finaliseCap+0x8a>
ffffffff84007292:	ee0801e3          	beqz	a6,ffffffff84007174 <finaliseCap+0x7a>
ffffffff84007296:	4605                	li	a2,1
ffffffff84007298:	02f4d713          	srl	a4,s1,0x2f
ffffffff8400729c:	03f77593          	and	a1,a4,63
ffffffff840072a0:	00149793          	sll	a5,s1,0x1
ffffffff840072a4:	02661513          	sll	a0,a2,0x26
ffffffff840072a8:	fc000737          	lui	a4,0xfc000
ffffffff840072ac:	8d7d                	and	a0,a0,a5
ffffffff840072ae:	8365                	srl	a4,a4,0x19
ffffffff840072b0:	86ae                	mv	a3,a1
ffffffff840072b2:	00b61633          	sll	a2,a2,a1
ffffffff840072b6:	8ff9                	and	a5,a5,a4
ffffffff840072b8:	c501                	beqz	a0,ffffffff840072c0 <finaliseCap+0x1c6>
ffffffff840072ba:	577d                	li	a4,-1
ffffffff840072bc:	171e                	sll	a4,a4,0x27
ffffffff840072be:	8fd9                	or	a5,a5,a4
ffffffff840072c0:	2585                	addw	a1,a1,1 # 10001 <KERNEL_OFFSET-0xfffffffefffeffff>
ffffffff840072c2:	577d                	li	a4,-1
ffffffff840072c4:	00b71733          	sll	a4,a4,a1
ffffffff840072c8:	8fb1                	xor	a5,a5,a2
ffffffff840072ca:	8ff9                	and	a5,a5,a4
ffffffff840072cc:	5765                	li	a4,-7
ffffffff840072ce:	1772                	sll	a4,a4,0x3c
ffffffff840072d0:	8f55                	or	a4,a4,a3
ffffffff840072d2:	8fb1                	xor	a5,a5,a2
ffffffff840072d4:	e018                	sd	a4,0(s0)
ffffffff840072d6:	e41c                	sd	a5,8(s0)
ffffffff840072d8:	00043823          	sd	zero,16(s0)
ffffffff840072dc:	00043c23          	sd	zero,24(s0)
ffffffff840072e0:	b555                	j	ffffffff84007184 <finaliseCap+0x8a>
ffffffff840072e2:	e80707e3          	beqz	a4,ffffffff84007170 <finaliseCap+0x76>
ffffffff840072e6:	b541                	j	ffffffff84007166 <finaliseCap+0x6c>
ffffffff840072e8:	94ffc0ef          	jal	ffffffff84003c36 <halt>

ffffffff840072ec <finaliseSlot>:
ffffffff840072ec:	7131                	add	sp,sp,-192
ffffffff840072ee:	f922                	sd	s0,176(sp)
ffffffff840072f0:	f526                	sd	s1,168(sp)
ffffffff840072f2:	f14a                	sd	s2,160(sp)
ffffffff840072f4:	ed4e                	sd	s3,152(sp)
ffffffff840072f6:	e15a                	sd	s6,128(sp)
ffffffff840072f8:	fcde                	sd	s7,120(sp)
ffffffff840072fa:	fd06                	sd	ra,184(sp)
ffffffff840072fc:	e952                	sd	s4,144(sp)
ffffffff840072fe:	e556                	sd	s5,136(sp)
ffffffff84007300:	f8e2                	sd	s8,112(sp)
ffffffff84007302:	f4e6                	sd	s9,104(sp)
ffffffff84007304:	f0ea                	sd	s10,96(sp)
ffffffff84007306:	ecee                	sd	s11,88(sp)
ffffffff84007308:	8b2a                	mv	s6,a0
ffffffff8400730a:	8bae                	mv	s7,a1
ffffffff8400730c:	8432                	mv	s0,a2
ffffffff8400730e:	49c9                	li	s3,18
ffffffff84007310:	04000913          	li	s2,64
ffffffff84007314:	a8818493          	add	s1,gp,-1400 # ffffffff8400ad38 <ksWorkUnitsCompleted>
ffffffff84007318:	4a85                	li	s5,1
ffffffff8400731a:	06300a13          	li	s4,99
ffffffff8400731e:	000bbc03          	ld	s8,0(s7)
ffffffff84007322:	03bc5693          	srl	a3,s8,0x3b
ffffffff84007326:	1a068b63          	beqz	a3,ffffffff840074dc <finaliseSlot+0x1f0>
ffffffff8400732a:	855e                	mv	a0,s7
ffffffff8400732c:	ffcfe0ef          	jal	ffffffff84005b28 <isFinalCapability>
ffffffff84007330:	008bb603          	ld	a2,8(s7)
ffffffff84007334:	86aa                	mv	a3,a0
ffffffff84007336:	4701                	li	a4,0
ffffffff84007338:	85e2                	mv	a1,s8
ffffffff8400733a:	0808                	add	a0,sp,16
ffffffff8400733c:	dbfff0ef          	jal	ffffffff840070fa <finaliseCap>
ffffffff84007340:	6742                	ld	a4,16(sp)
ffffffff84007342:	7802                	ld	a6,32(sp)
ffffffff84007344:	76a2                	ld	a3,40(sp)
ffffffff84007346:	03b75793          	srl	a5,a4,0x3b
ffffffff8400734a:	65e2                	ld	a1,24(sp)
ffffffff8400734c:	cbd9                	beqz	a5,ffffffff840073e2 <finaliseSlot+0xf6>
ffffffff8400734e:	19379e63          	bne	a5,s3,ffffffff840074ea <finaliseSlot+0x1fe>
ffffffff84007352:	07f77c93          	and	s9,a4,127
ffffffff84007356:	172c8863          	beq	s9,s2,ffffffff840074c6 <finaliseSlot+0x1da>
ffffffff8400735a:	03f77613          	and	a2,a4,63
ffffffff8400735e:	0605                	add	a2,a2,1
ffffffff84007360:	57fd                	li	a5,-1
ffffffff84007362:	00c797b3          	sll	a5,a5,a2
ffffffff84007366:	557d                	li	a0,-1
ffffffff84007368:	fff7c793          	not	a5,a5
ffffffff8400736c:	00c51533          	sll	a0,a0,a2
ffffffff84007370:	8fed                	and	a5,a5,a1
ffffffff84007372:	cba5                	beqz	a5,ffffffff840073e2 <finaliseSlot+0xf6>
ffffffff84007374:	4605                	li	a2,1
ffffffff84007376:	8d6d                	and	a0,a0,a1
ffffffff84007378:	0ac78063          	beq	a5,a2,ffffffff84007418 <finaliseSlot+0x12c>
ffffffff8400737c:	67c2                	ld	a5,16(sp)
ffffffff8400737e:	00fbb023          	sd	a5,0(s7)
ffffffff84007382:	67e2                	ld	a5,24(sp)
ffffffff84007384:	00fbb423          	sd	a5,8(s7)
ffffffff84007388:	e04d                	bnez	s0,ffffffff8400742a <finaliseSlot+0x13e>
ffffffff8400738a:	08ab8563          	beq	s7,a0,ffffffff84007414 <finaliseSlot+0x128>
ffffffff8400738e:	132c8963          	beq	s9,s2,ffffffff840074c0 <finaliseSlot+0x1d4>
ffffffff84007392:	03f77613          	and	a2,a4,63
ffffffff84007396:	2605                	addw	a2,a2,1
ffffffff84007398:	00ca9633          	sll	a2,s5,a2
ffffffff8400739c:	40c00633          	neg	a2,a2
ffffffff840073a0:	8e6d                	and	a2,a2,a1
ffffffff840073a2:	00cb8f63          	beq	s7,a2,ffffffff840073c0 <finaliseSlot+0xd4>
ffffffff840073a6:	6208                	ld	a0,0(a2)
ffffffff840073a8:	660c                	ld	a1,8(a2)
ffffffff840073aa:	000bb683          	ld	a3,0(s7)
ffffffff840073ae:	008bb703          	ld	a4,8(s7)
ffffffff840073b2:	87de                	mv	a5,s7
ffffffff840073b4:	e02a                	sd	a0,0(sp)
ffffffff840073b6:	e42e                	sd	a1,8(sp)
ffffffff840073b8:	f836                	sd	a3,48(sp)
ffffffff840073ba:	fc3a                	sd	a4,56(sp)
ffffffff840073bc:	9c1fd0ef          	jal	ffffffff84004d7c <cteSwap>
ffffffff840073c0:	609c                	ld	a5,0(s1)
ffffffff840073c2:	0785                	add	a5,a5,1
ffffffff840073c4:	e09c                	sd	a5,0(s1)
ffffffff840073c6:	f4fa7ce3          	bgeu	s4,a5,ffffffff8400731e <finaliseSlot+0x32>
ffffffff840073ca:	a801b423          	sd	zero,-1400(gp) # ffffffff8400ad38 <ksWorkUnitsCompleted>
ffffffff840073ce:	144027f3          	csrr	a5,sip
ffffffff840073d2:	2207f793          	and	a5,a5,544
ffffffff840073d6:	d3a9                	beqz	a5,ffffffff84007318 <finaliseSlot+0x2c>
ffffffff840073d8:	4791                	li	a5,4
ffffffff840073da:	4401                	li	s0,0
ffffffff840073dc:	4801                	li	a6,0
ffffffff840073de:	4681                	li	a3,0
ffffffff840073e0:	a011                	j	ffffffff840073e4 <finaliseSlot+0xf8>
ffffffff840073e2:	4405                	li	s0,1
ffffffff840073e4:	008b3423          	sd	s0,8(s6)
ffffffff840073e8:	70ea                	ld	ra,184(sp)
ffffffff840073ea:	744a                	ld	s0,176(sp)
ffffffff840073ec:	00fb3023          	sd	a5,0(s6)
ffffffff840073f0:	010b3823          	sd	a6,16(s6)
ffffffff840073f4:	00db3c23          	sd	a3,24(s6)
ffffffff840073f8:	74aa                	ld	s1,168(sp)
ffffffff840073fa:	790a                	ld	s2,160(sp)
ffffffff840073fc:	69ea                	ld	s3,152(sp)
ffffffff840073fe:	6a4a                	ld	s4,144(sp)
ffffffff84007400:	6aaa                	ld	s5,136(sp)
ffffffff84007402:	7be6                	ld	s7,120(sp)
ffffffff84007404:	7c46                	ld	s8,112(sp)
ffffffff84007406:	7ca6                	ld	s9,104(sp)
ffffffff84007408:	7d06                	ld	s10,96(sp)
ffffffff8400740a:	6de6                	ld	s11,88(sp)
ffffffff8400740c:	855a                	mv	a0,s6
ffffffff8400740e:	6b0a                	ld	s6,128(sp)
ffffffff84007410:	6129                	add	sp,sp,192
ffffffff84007412:	8082                	ret
ffffffff84007414:	4781                	li	a5,0
ffffffff84007416:	b7f9                	j	ffffffff840073e4 <finaliseSlot+0xf8>
ffffffff84007418:	0aab8f63          	beq	s7,a0,ffffffff840074d6 <finaliseSlot+0x1ea>
ffffffff8400741c:	67c2                	ld	a5,16(sp)
ffffffff8400741e:	00fbb023          	sd	a5,0(s7)
ffffffff84007422:	67e2                	ld	a5,24(sp)
ffffffff84007424:	00fbb423          	sd	a5,8(s7)
ffffffff84007428:	d03d                	beqz	s0,ffffffff8400738e <finaliseSlot+0xa2>
ffffffff8400742a:	0b2c8163          	beq	s9,s2,ffffffff840074cc <finaliseSlot+0x1e0>
ffffffff8400742e:	03f77713          	and	a4,a4,63
ffffffff84007432:	0705                	add	a4,a4,1 # fffffffffc000001 <ki_end+0x77fde001>
ffffffff84007434:	57fd                	li	a5,-1
ffffffff84007436:	00e797b3          	sll	a5,a5,a4
ffffffff8400743a:	873e                	mv	a4,a5
ffffffff8400743c:	fff7c793          	not	a5,a5
ffffffff84007440:	00b77d33          	and	s10,a4,a1
ffffffff84007444:	00b7fc33          	and	s8,a5,a1
ffffffff84007448:	005c1d93          	sll	s11,s8,0x5
ffffffff8400744c:	1d81                	add	s11,s11,-32
ffffffff8400744e:	9dea                	add	s11,s11,s10
ffffffff84007450:	4601                	li	a2,0
ffffffff84007452:	85ee                	mv	a1,s11
ffffffff84007454:	1808                	add	a0,sp,48
ffffffff84007456:	e97ff0ef          	jal	ffffffff840072ec <finaliseSlot>
ffffffff8400745a:	77c2                	ld	a5,48(sp)
ffffffff8400745c:	ffbd                	bnez	a5,ffffffff840073da <finaliseSlot+0xee>
ffffffff8400745e:	77e2                	ld	a5,56(sp)
ffffffff84007460:	c791                	beqz	a5,ffffffff8400746c <finaliseSlot+0x180>
ffffffff84007462:	6586                	ld	a1,64(sp)
ffffffff84007464:	6626                	ld	a2,72(sp)
ffffffff84007466:	856e                	mv	a0,s11
ffffffff84007468:	bbafc0ef          	jal	ffffffff84003822 <emptySlot>
ffffffff8400746c:	000bb703          	ld	a4,0(s7)
ffffffff84007470:	03b75793          	srl	a5,a4,0x3b
ffffffff84007474:	d7b1                	beqz	a5,ffffffff840073c0 <finaliseSlot+0xd4>
ffffffff84007476:	07379a63          	bne	a5,s3,ffffffff840074ea <finaliseSlot+0x1fe>
ffffffff8400747a:	07f77593          	and	a1,a4,127
ffffffff8400747e:	008bb603          	ld	a2,8(s7)
ffffffff84007482:	07258163          	beq	a1,s2,ffffffff840074e4 <finaliseSlot+0x1f8>
ffffffff84007486:	03f77693          	and	a3,a4,63
ffffffff8400748a:	0685                	add	a3,a3,1
ffffffff8400748c:	57fd                	li	a5,-1
ffffffff8400748e:	00d797b3          	sll	a5,a5,a3
ffffffff84007492:	8ff1                	and	a5,a5,a2
ffffffff84007494:	f2fd16e3          	bne	s10,a5,ffffffff840073c0 <finaliseSlot+0xd4>
ffffffff84007498:	57fd                	li	a5,-1
ffffffff8400749a:	00d796b3          	sll	a3,a5,a3
ffffffff8400749e:	fff6c693          	not	a3,a3
ffffffff840074a2:	8e75                	and	a2,a2,a3
ffffffff840074a4:	f0cc1ee3          	bne	s8,a2,ffffffff840073c0 <finaliseSlot+0xd4>
ffffffff840074a8:	f0bc9ce3          	bne	s9,a1,ffffffff840073c0 <finaliseSlot+0xd4>
ffffffff840074ac:	fffc0793          	add	a5,s8,-1
ffffffff840074b0:	8ff5                	and	a5,a5,a3
ffffffff840074b2:	01a7e7b3          	or	a5,a5,s10
ffffffff840074b6:	00ebb023          	sd	a4,0(s7)
ffffffff840074ba:	00fbb423          	sd	a5,8(s7)
ffffffff840074be:	b709                	j	ffffffff840073c0 <finaliseSlot+0xd4>
ffffffff840074c0:	fe05f613          	and	a2,a1,-32
ffffffff840074c4:	bdf9                	j	ffffffff840073a2 <finaliseSlot+0xb6>
ffffffff840074c6:	5501                	li	a0,-32
ffffffff840074c8:	47fd                	li	a5,31
ffffffff840074ca:	b55d                	j	ffffffff84007370 <finaliseSlot+0x84>
ffffffff840074cc:	fe05fd13          	and	s10,a1,-32
ffffffff840074d0:	01f5fc13          	and	s8,a1,31
ffffffff840074d4:	bf95                	j	ffffffff84007448 <finaliseSlot+0x15c>
ffffffff840074d6:	4405                	li	s0,1
ffffffff840074d8:	4781                	li	a5,0
ffffffff840074da:	b729                	j	ffffffff840073e4 <finaliseSlot+0xf8>
ffffffff840074dc:	4781                	li	a5,0
ffffffff840074de:	4801                	li	a6,0
ffffffff840074e0:	4405                	li	s0,1
ffffffff840074e2:	b709                	j	ffffffff840073e4 <finaliseSlot+0xf8>
ffffffff840074e4:	5781                	li	a5,-32
ffffffff840074e6:	4695                	li	a3,5
ffffffff840074e8:	b76d                	j	ffffffff84007492 <finaliseSlot+0x1a6>
ffffffff840074ea:	f4cfc0ef          	jal	ffffffff84003c36 <halt>

ffffffff840074ee <cteDelete>:
ffffffff840074ee:	7139                	add	sp,sp,-64
ffffffff840074f0:	f822                	sd	s0,48(sp)
ffffffff840074f2:	f426                	sd	s1,40(sp)
ffffffff840074f4:	862e                	mv	a2,a1
ffffffff840074f6:	84aa                	mv	s1,a0
ffffffff840074f8:	842e                	mv	s0,a1
ffffffff840074fa:	85aa                	mv	a1,a0
ffffffff840074fc:	850a                	mv	a0,sp
ffffffff840074fe:	f04a                	sd	s2,32(sp)
ffffffff84007500:	fc06                	sd	ra,56(sp)
ffffffff84007502:	debff0ef          	jal	ffffffff840072ec <finaliseSlot>
ffffffff84007506:	6902                	ld	s2,0(sp)
ffffffff84007508:	00091a63          	bnez	s2,ffffffff8400751c <cteDelete+0x2e>
ffffffff8400750c:	67a2                	ld	a5,8(sp)
ffffffff8400750e:	8c5d                	or	s0,s0,a5
ffffffff84007510:	c411                	beqz	s0,ffffffff8400751c <cteDelete+0x2e>
ffffffff84007512:	65c2                	ld	a1,16(sp)
ffffffff84007514:	6662                	ld	a2,24(sp)
ffffffff84007516:	8526                	mv	a0,s1
ffffffff84007518:	b0afc0ef          	jal	ffffffff84003822 <emptySlot>
ffffffff8400751c:	70e2                	ld	ra,56(sp)
ffffffff8400751e:	7442                	ld	s0,48(sp)
ffffffff84007520:	74a2                	ld	s1,40(sp)
ffffffff84007522:	854a                	mv	a0,s2
ffffffff84007524:	7902                	ld	s2,32(sp)
ffffffff84007526:	6121                	add	sp,sp,64
ffffffff84007528:	8082                	ret

ffffffff8400752a <cteRevoke>:
ffffffff8400752a:	711d                	add	sp,sp,-96
ffffffff8400752c:	e8a2                	sd	s0,80(sp)
ffffffff8400752e:	6d00                	ld	s0,24(a0)
ffffffff84007530:	f8000737          	lui	a4,0xf8000
ffffffff84007534:	e4a6                	sd	s1,72(sp)
ffffffff84007536:	02645793          	srl	a5,s0,0x26
ffffffff8400753a:	8365                	srl	a4,a4,0x19
ffffffff8400753c:	ec86                	sd	ra,88(sp)
ffffffff8400753e:	e0ca                	sd	s2,64(sp)
ffffffff84007540:	fc4e                	sd	s3,56(sp)
ffffffff84007542:	f852                	sd	s4,48(sp)
ffffffff84007544:	f456                	sd	s5,40(sp)
ffffffff84007546:	8b85                	and	a5,a5,1
ffffffff84007548:	84aa                	mv	s1,a0
ffffffff8400754a:	8c79                	and	s0,s0,a4
ffffffff8400754c:	cbc1                	beqz	a5,ffffffff840075dc <cteRevoke+0xb2>
ffffffff8400754e:	57fd                	li	a5,-1
ffffffff84007550:	179e                	sll	a5,a5,0x27
ffffffff84007552:	8c5d                	or	s0,s0,a5
ffffffff84007554:	f8000ab7          	lui	s5,0xf8000
ffffffff84007558:	4a05                	li	s4,1
ffffffff8400755a:	59fd                	li	s3,-1
ffffffff8400755c:	a8818913          	add	s2,gp,-1400 # ffffffff8400ad38 <ksWorkUnitsCompleted>
ffffffff84007560:	019ada93          	srl	s5,s5,0x19
ffffffff84007564:	1a1a                	sll	s4,s4,0x26
ffffffff84007566:	199e                	sll	s3,s3,0x27
ffffffff84007568:	a819                	j	ffffffff8400757e <cteRevoke+0x54>
ffffffff8400756a:	00f93023          	sd	a5,0(s2)
ffffffff8400756e:	6c9c                	ld	a5,24(s1)
ffffffff84007570:	0157f733          	and	a4,a5,s5
ffffffff84007574:	0147f7b3          	and	a5,a5,s4
ffffffff84007578:	01376433          	or	s0,a4,s3
ffffffff8400757c:	cfa1                	beqz	a5,ffffffff840075d4 <cteRevoke+0xaa>
ffffffff8400757e:	85a2                	mv	a1,s0
ffffffff84007580:	8526                	mv	a0,s1
ffffffff84007582:	c3cfe0ef          	jal	ffffffff840059be <isMDBParentOf>
ffffffff84007586:	87aa                	mv	a5,a0
ffffffff84007588:	85a2                	mv	a1,s0
ffffffff8400758a:	850a                	mv	a0,sp
ffffffff8400758c:	4605                	li	a2,1
ffffffff8400758e:	c7a9                	beqz	a5,ffffffff840075d8 <cteRevoke+0xae>
ffffffff84007590:	d5dff0ef          	jal	ffffffff840072ec <finaliseSlot>
ffffffff84007594:	6782                	ld	a5,0(sp)
ffffffff84007596:	8522                	mv	a0,s0
ffffffff84007598:	e785                	bnez	a5,ffffffff840075c0 <cteRevoke+0x96>
ffffffff8400759a:	65c2                	ld	a1,16(sp)
ffffffff8400759c:	6662                	ld	a2,24(sp)
ffffffff8400759e:	a84fc0ef          	jal	ffffffff84003822 <emptySlot>
ffffffff840075a2:	00093783          	ld	a5,0(s2)
ffffffff840075a6:	06300713          	li	a4,99
ffffffff840075aa:	0785                	add	a5,a5,1
ffffffff840075ac:	faf77fe3          	bgeu	a4,a5,ffffffff8400756a <cteRevoke+0x40>
ffffffff840075b0:	a801b423          	sd	zero,-1400(gp) # ffffffff8400ad38 <ksWorkUnitsCompleted>
ffffffff840075b4:	144027f3          	csrr	a5,sip
ffffffff840075b8:	2207f793          	and	a5,a5,544
ffffffff840075bc:	dbcd                	beqz	a5,ffffffff8400756e <cteRevoke+0x44>
ffffffff840075be:	4791                	li	a5,4
ffffffff840075c0:	60e6                	ld	ra,88(sp)
ffffffff840075c2:	6446                	ld	s0,80(sp)
ffffffff840075c4:	64a6                	ld	s1,72(sp)
ffffffff840075c6:	6906                	ld	s2,64(sp)
ffffffff840075c8:	79e2                	ld	s3,56(sp)
ffffffff840075ca:	7a42                	ld	s4,48(sp)
ffffffff840075cc:	7aa2                	ld	s5,40(sp)
ffffffff840075ce:	853e                	mv	a0,a5
ffffffff840075d0:	6125                	add	sp,sp,96
ffffffff840075d2:	8082                	ret
ffffffff840075d4:	843a                	mv	s0,a4
ffffffff840075d6:	f745                	bnez	a4,ffffffff8400757e <cteRevoke+0x54>
ffffffff840075d8:	4781                	li	a5,0
ffffffff840075da:	b7dd                	j	ffffffff840075c0 <cteRevoke+0x96>
ffffffff840075dc:	fc25                	bnez	s0,ffffffff84007554 <cteRevoke+0x2a>
ffffffff840075de:	4781                	li	a5,0
ffffffff840075e0:	b7c5                	j	ffffffff840075c0 <cteRevoke+0x96>

ffffffff840075e2 <invokeCNodeRevoke>:
ffffffff840075e2:	b7a1                	j	ffffffff8400752a <cteRevoke>

ffffffff840075e4 <invokeCNodeDelete>:
ffffffff840075e4:	7139                	add	sp,sp,-64
ffffffff840075e6:	f822                	sd	s0,48(sp)
ffffffff840075e8:	85aa                	mv	a1,a0
ffffffff840075ea:	842a                	mv	s0,a0
ffffffff840075ec:	4605                	li	a2,1
ffffffff840075ee:	850a                	mv	a0,sp
ffffffff840075f0:	f426                	sd	s1,40(sp)
ffffffff840075f2:	fc06                	sd	ra,56(sp)
ffffffff840075f4:	cf9ff0ef          	jal	ffffffff840072ec <finaliseSlot>
ffffffff840075f8:	6482                	ld	s1,0(sp)
ffffffff840075fa:	e491                	bnez	s1,ffffffff84007606 <invokeCNodeDelete+0x22>
ffffffff840075fc:	65c2                	ld	a1,16(sp)
ffffffff840075fe:	6662                	ld	a2,24(sp)
ffffffff84007600:	8522                	mv	a0,s0
ffffffff84007602:	a20fc0ef          	jal	ffffffff84003822 <emptySlot>
ffffffff84007606:	70e2                	ld	ra,56(sp)
ffffffff84007608:	7442                	ld	s0,48(sp)
ffffffff8400760a:	8526                	mv	a0,s1
ffffffff8400760c:	74a2                	ld	s1,40(sp)
ffffffff8400760e:	6121                	add	sp,sp,64
ffffffff84007610:	8082                	ret

ffffffff84007612 <decodeCNodeInvocation>:
ffffffff84007612:	7151                	add	sp,sp,-240
ffffffff84007614:	eda6                	sd	s1,216(sp)
ffffffff84007616:	f586                	sd	ra,232(sp)
ffffffff84007618:	f1a2                	sd	s0,224(sp)
ffffffff8400761a:	e9ca                	sd	s2,208(sp)
ffffffff8400761c:	e5ce                	sd	s3,200(sp)
ffffffff8400761e:	e1d2                	sd	s4,192(sp)
ffffffff84007620:	fd56                	sd	s5,184(sp)
ffffffff84007622:	f95a                	sd	s6,176(sp)
ffffffff84007624:	f55e                	sd	s7,168(sp)
ffffffff84007626:	f162                	sd	s8,160(sp)
ffffffff84007628:	ed66                	sd	s9,152(sp)
ffffffff8400762a:	e96a                	sd	s10,144(sp)
ffffffff8400762c:	e032                	sd	a2,0(sp)
ffffffff8400762e:	e436                	sd	a3,8(sp)
ffffffff84007630:	ff050493          	add	s1,a0,-16
ffffffff84007634:	47a1                	li	a5,8
ffffffff84007636:	0497ec63          	bltu	a5,s1,ffffffff8400768e <decodeCNodeInvocation+0x7c>
ffffffff8400763a:	4785                	li	a5,1
ffffffff8400763c:	8a2e                	mv	s4,a1
ffffffff8400763e:	06b7fb63          	bgeu	a5,a1,ffffffff840076b4 <decodeCNodeInvocation+0xa2>
ffffffff84007642:	aa01bb03          	ld	s6,-1376(gp) # ffffffff8400ad50 <ksCurThread>
ffffffff84007646:	87b6                	mv	a5,a3
ffffffff84007648:	89ba                	mv	s3,a4
ffffffff8400764a:	058b3683          	ld	a3,88(s6)
ffffffff8400764e:	060b3703          	ld	a4,96(s6)
ffffffff84007652:	85b2                	mv	a1,a2
ffffffff84007654:	892a                	mv	s2,a0
ffffffff84007656:	863e                	mv	a2,a5
ffffffff84007658:	4501                	li	a0,0
ffffffff8400765a:	f8ae                	sd	a1,112(sp)
ffffffff8400765c:	fcbe                	sd	a5,120(sp)
ffffffff8400765e:	b14fd0ef          	jal	ffffffff84004972 <lookupSlotForCNodeOp>
ffffffff84007662:	f82a                	sd	a0,48(sp)
ffffffff84007664:	fc2e                	sd	a1,56(sp)
ffffffff84007666:	842a                	mv	s0,a0
ffffffff84007668:	8aae                	mv	s5,a1
ffffffff8400766a:	e515                	bnez	a0,ffffffff84007696 <decodeCNodeInvocation+0x84>
ffffffff8400766c:	00004717          	auipc	a4,0x4
ffffffff84007670:	f2870713          	add	a4,a4,-216 # ffffffff8400b594 <platform_interrupt_t+0x154>
ffffffff84007674:	048a                	sll	s1,s1,0x2
ffffffff84007676:	94ba                	add	s1,s1,a4
ffffffff84007678:	409c                	lw	a5,0(s1)
ffffffff8400767a:	97ba                	add	a5,a5,a4
ffffffff8400767c:	8782                	jr	a5
ffffffff8400767e:	6188                	ld	a0,0(a1)
ffffffff84007680:	658c                	ld	a1,8(a1)
ffffffff84007682:	f8aa                	sd	a0,112(sp)
ffffffff84007684:	fcae                	sd	a1,120(sp)
ffffffff84007686:	bd3fd0ef          	jal	ffffffff84005258 <hasCancelSendRights>
ffffffff8400768a:	28051c63          	bnez	a0,ffffffff84007922 <decodeCNodeInvocation+0x310>
ffffffff8400768e:	478d                	li	a5,3
ffffffff84007690:	d6f1b023          	sd	a5,-672(gp) # ffffffff8400b010 <current_syscall_error+0x30>
ffffffff84007694:	440d                	li	s0,3
ffffffff84007696:	70ae                	ld	ra,232(sp)
ffffffff84007698:	8522                	mv	a0,s0
ffffffff8400769a:	740e                	ld	s0,224(sp)
ffffffff8400769c:	64ee                	ld	s1,216(sp)
ffffffff8400769e:	694e                	ld	s2,208(sp)
ffffffff840076a0:	69ae                	ld	s3,200(sp)
ffffffff840076a2:	6a0e                	ld	s4,192(sp)
ffffffff840076a4:	7aea                	ld	s5,184(sp)
ffffffff840076a6:	7b4a                	ld	s6,176(sp)
ffffffff840076a8:	7baa                	ld	s7,168(sp)
ffffffff840076aa:	7c0a                	ld	s8,160(sp)
ffffffff840076ac:	6cea                	ld	s9,152(sp)
ffffffff840076ae:	6d4a                	ld	s10,144(sp)
ffffffff840076b0:	616d                	add	sp,sp,240
ffffffff840076b2:	8082                	ret
ffffffff840076b4:	479d                	li	a5,7
ffffffff840076b6:	bfe9                	j	ffffffff84007690 <decodeCNodeInvocation+0x7e>
ffffffff840076b8:	478d                	li	a5,3
ffffffff840076ba:	2547ff63          	bgeu	a5,s4,ffffffff84007918 <decodeCNodeInvocation+0x306>
ffffffff840076be:	8981b783          	ld	a5,-1896(gp) # ffffffff8400ab48 <current_extra_caps>
ffffffff840076c2:	24078b63          	beqz	a5,ffffffff84007918 <decodeCNodeInvocation+0x306>
ffffffff840076c6:	6188                	ld	a0,0(a1)
ffffffff840076c8:	068b3683          	ld	a3,104(s6)
ffffffff840076cc:	070b3b83          	ld	s7,112(s6)
ffffffff840076d0:	916d                	srl	a0,a0,0x3b
ffffffff840076d2:	638c                	ld	a1,0(a5)
ffffffff840076d4:	6790                	ld	a2,8(a5)
ffffffff840076d6:	28051363          	bnez	a0,ffffffff8400795c <decodeCNodeInvocation+0x34a>
ffffffff840076da:	875e                	mv	a4,s7
ffffffff840076dc:	4505                	li	a0,1
ffffffff840076de:	f8ae                	sd	a1,112(sp)
ffffffff840076e0:	fcb2                	sd	a2,120(sp)
ffffffff840076e2:	a90fd0ef          	jal	ffffffff84004972 <lookupSlotForCNodeOp>
ffffffff840076e6:	e0aa                	sd	a0,64(sp)
ffffffff840076e8:	e4ae                	sd	a1,72(sp)
ffffffff840076ea:	842a                	mv	s0,a0
ffffffff840076ec:	84ae                	mv	s1,a1
ffffffff840076ee:	f545                	bnez	a0,ffffffff84007696 <decodeCNodeInvocation+0x84>
ffffffff840076f0:	0005bc03          	ld	s8,0(a1)
ffffffff840076f4:	03bc5793          	srl	a5,s8,0x3b
ffffffff840076f8:	26078763          	beqz	a5,ffffffff84007966 <decodeCNodeInvocation+0x354>
ffffffff840076fc:	47d5                	li	a5,21
ffffffff840076fe:	30f90a63          	beq	s2,a5,ffffffff84007a12 <decodeCNodeInvocation+0x400>
ffffffff84007702:	47d9                	li	a5,22
ffffffff84007704:	2cf90363          	beq	s2,a5,ffffffff840079ca <decodeCNodeInvocation+0x3b8>
ffffffff84007708:	47d1                	li	a5,20
ffffffff8400770a:	28f90063          	beq	s2,a5,ffffffff8400798a <decodeCNodeInvocation+0x378>
ffffffff8400770e:	4791                	li	a5,4
ffffffff84007710:	20fa0463          	beq	s4,a5,ffffffff84007918 <decodeCNodeInvocation+0x306>
ffffffff84007714:	6590                	ld	a2,8(a1)
ffffffff84007716:	0289b503          	ld	a0,40(s3)
ffffffff8400771a:	85e2                	mv	a1,s8
ffffffff8400771c:	bf1fd0ef          	jal	ffffffff8400530c <maskCapRights>
ffffffff84007720:	862a                	mv	a2,a0
ffffffff84007722:	86ae                	mv	a3,a1
ffffffff84007724:	1888                	add	a0,sp,112
ffffffff84007726:	85a6                	mv	a1,s1
ffffffff84007728:	e8b2                	sd	a2,80(sp)
ffffffff8400772a:	ecb6                	sd	a3,88(sp)
ffffffff8400772c:	b3efe0ef          	jal	ffffffff84005a6a <deriveCap>
ffffffff84007730:	77c6                	ld	a5,112(sp)
ffffffff84007732:	28079a63          	bnez	a5,ffffffff840079c6 <decodeCNodeInvocation+0x3b4>
ffffffff84007736:	7966                	ld	s2,120(sp)
ffffffff84007738:	678a                	ld	a5,128(sp)
ffffffff8400773a:	e84a                	sd	s2,16(sp)
ffffffff8400773c:	ec3e                	sd	a5,24(sp)
ffffffff8400773e:	03b95793          	srl	a5,s2,0x3b
ffffffff84007742:	d7b1                	beqz	a5,ffffffff8400768e <decodeCNodeInvocation+0x7c>
ffffffff84007744:	118b3783          	ld	a5,280(s6)
ffffffff84007748:	855a                	mv	a0,s6
ffffffff8400774a:	9bc1                	and	a5,a5,-16
ffffffff8400774c:	0027e793          	or	a5,a5,2
ffffffff84007750:	10fb3c23          	sd	a5,280(s6)
ffffffff84007754:	e12fe0ef          	jal	ffffffff84005d66 <scheduleTCB>
ffffffff84007758:	65e2                	ld	a1,24(sp)
ffffffff8400775a:	86d6                	mv	a3,s5
ffffffff8400775c:	8626                	mv	a2,s1
ffffffff8400775e:	854a                	mv	a0,s2
ffffffff84007760:	f0ca                	sd	s2,96(sp)
ffffffff84007762:	f4ae                	sd	a1,104(sp)
ffffffff84007764:	c56fd0ef          	jal	ffffffff84004bba <cteInsert>
ffffffff84007768:	b73d                	j	ffffffff84007696 <decodeCNodeInvocation+0x84>
ffffffff8400776a:	118b3783          	ld	a5,280(s6)
ffffffff8400776e:	855a                	mv	a0,s6
ffffffff84007770:	9bc1                	and	a5,a5,-16
ffffffff84007772:	0027e793          	or	a5,a5,2
ffffffff84007776:	10fb3c23          	sd	a5,280(s6)
ffffffff8400777a:	decfe0ef          	jal	ffffffff84005d66 <scheduleTCB>
ffffffff8400777e:	4605                	li	a2,1
ffffffff84007780:	85d6                	mv	a1,s5
ffffffff84007782:	1888                	add	a0,sp,112
ffffffff84007784:	b69ff0ef          	jal	ffffffff840072ec <finaliseSlot>
ffffffff84007788:	7446                	ld	s0,112(sp)
ffffffff8400778a:	f00416e3          	bnez	s0,ffffffff84007696 <decodeCNodeInvocation+0x84>
ffffffff8400778e:	658a                	ld	a1,128(sp)
ffffffff84007790:	662a                	ld	a2,136(sp)
ffffffff84007792:	8556                	mv	a0,s5
ffffffff84007794:	88efc0ef          	jal	ffffffff84003822 <emptySlot>
ffffffff84007798:	bdfd                	j	ffffffff84007696 <decodeCNodeInvocation+0x84>
ffffffff8400779a:	118b3783          	ld	a5,280(s6)
ffffffff8400779e:	855a                	mv	a0,s6
ffffffff840077a0:	9bc1                	and	a5,a5,-16
ffffffff840077a2:	0027e793          	or	a5,a5,2
ffffffff840077a6:	10fb3c23          	sd	a5,280(s6)
ffffffff840077aa:	dbcfe0ef          	jal	ffffffff84005d66 <scheduleTCB>
ffffffff840077ae:	740e                	ld	s0,224(sp)
ffffffff840077b0:	70ae                	ld	ra,232(sp)
ffffffff840077b2:	64ee                	ld	s1,216(sp)
ffffffff840077b4:	694e                	ld	s2,208(sp)
ffffffff840077b6:	69ae                	ld	s3,200(sp)
ffffffff840077b8:	6a0e                	ld	s4,192(sp)
ffffffff840077ba:	7b4a                	ld	s6,176(sp)
ffffffff840077bc:	7baa                	ld	s7,168(sp)
ffffffff840077be:	7c0a                	ld	s8,160(sp)
ffffffff840077c0:	6cea                	ld	s9,152(sp)
ffffffff840077c2:	6d4a                	ld	s10,144(sp)
ffffffff840077c4:	8556                	mv	a0,s5
ffffffff840077c6:	7aea                	ld	s5,184(sp)
ffffffff840077c8:	616d                	add	sp,sp,240
ffffffff840077ca:	b385                	j	ffffffff8400752a <cteRevoke>
ffffffff840077cc:	619c                	ld	a5,0(a1)
ffffffff840077ce:	93ed                	srl	a5,a5,0x3b
ffffffff840077d0:	18079463          	bnez	a5,ffffffff84007958 <decodeCNodeInvocation+0x346>
ffffffff840077d4:	118b3783          	ld	a5,280(s6)
ffffffff840077d8:	855a                	mv	a0,s6
ffffffff840077da:	9bc1                	and	a5,a5,-16
ffffffff840077dc:	0027e793          	or	a5,a5,2
ffffffff840077e0:	10fb3c23          	sd	a5,280(s6)
ffffffff840077e4:	d82fe0ef          	jal	ffffffff84005d66 <scheduleTCB>
ffffffff840077e8:	740e                	ld	s0,224(sp)
ffffffff840077ea:	70ae                	ld	ra,232(sp)
ffffffff840077ec:	64ee                	ld	s1,216(sp)
ffffffff840077ee:	694e                	ld	s2,208(sp)
ffffffff840077f0:	69ae                	ld	s3,200(sp)
ffffffff840077f2:	6a0e                	ld	s4,192(sp)
ffffffff840077f4:	7b4a                	ld	s6,176(sp)
ffffffff840077f6:	7baa                	ld	s7,168(sp)
ffffffff840077f8:	7c0a                	ld	s8,160(sp)
ffffffff840077fa:	6cea                	ld	s9,152(sp)
ffffffff840077fc:	6d4a                	ld	s10,144(sp)
ffffffff840077fe:	8556                	mv	a0,s5
ffffffff84007800:	7aea                	ld	s5,184(sp)
ffffffff84007802:	616d                	add	sp,sp,240
ffffffff84007804:	d34fd06f          	j	ffffffff84004d38 <invokeCNodeSaveCaller>
ffffffff84007808:	479d                	li	a5,7
ffffffff8400780a:	1147f763          	bgeu	a5,s4,ffffffff84007918 <decodeCNodeInvocation+0x306>
ffffffff8400780e:	89818713          	add	a4,gp,-1896 # ffffffff8400ab48 <current_extra_caps>
ffffffff84007812:	631c                	ld	a5,0(a4)
ffffffff84007814:	10078263          	beqz	a5,ffffffff84007918 <decodeCNodeInvocation+0x306>
ffffffff84007818:	6718                	ld	a4,8(a4)
ffffffff8400781a:	0e070f63          	beqz	a4,ffffffff84007918 <decodeCNodeInvocation+0x306>
ffffffff8400781e:	0409b483          	ld	s1,64(s3)
ffffffff84007822:	6710                	ld	a2,8(a4)
ffffffff84007824:	630c                	ld	a1,0(a4)
ffffffff84007826:	0389b683          	ld	a3,56(s3)
ffffffff8400782a:	8726                	mv	a4,s1
ffffffff8400782c:	4505                	li	a0,1
ffffffff8400782e:	0289ba03          	ld	s4,40(s3)
ffffffff84007832:	068b3c03          	ld	s8,104(s6)
ffffffff84007836:	070b3b83          	ld	s7,112(s6)
ffffffff8400783a:	0309b983          	ld	s3,48(s3)
ffffffff8400783e:	0007b903          	ld	s2,0(a5)
ffffffff84007842:	0087bc83          	ld	s9,8(a5)
ffffffff84007846:	f8ae                	sd	a1,112(sp)
ffffffff84007848:	fcb2                	sd	a2,120(sp)
ffffffff8400784a:	928fd0ef          	jal	ffffffff84004972 <lookupSlotForCNodeOp>
ffffffff8400784e:	e8aa                	sd	a0,80(sp)
ffffffff84007850:	ecae                	sd	a1,88(sp)
ffffffff84007852:	842a                	mv	s0,a0
ffffffff84007854:	8d2e                	mv	s10,a1
ffffffff84007856:	e40510e3          	bnez	a0,ffffffff84007696 <decodeCNodeInvocation+0x84>
ffffffff8400785a:	85ca                	mv	a1,s2
ffffffff8400785c:	8752                	mv	a4,s4
ffffffff8400785e:	86de                	mv	a3,s7
ffffffff84007860:	8666                	mv	a2,s9
ffffffff84007862:	4505                	li	a0,1
ffffffff84007864:	f0ca                	sd	s2,96(sp)
ffffffff84007866:	f4e6                	sd	s9,104(sp)
ffffffff84007868:	90afd0ef          	jal	ffffffff84004972 <lookupSlotForCNodeOp>
ffffffff8400786c:	f8aa                	sd	a0,112(sp)
ffffffff8400786e:	fcae                	sd	a1,120(sp)
ffffffff84007870:	842a                	mv	s0,a0
ffffffff84007872:	892e                	mv	s2,a1
ffffffff84007874:	e20511e3          	bnez	a0,ffffffff84007696 <decodeCNodeInvocation+0x84>
ffffffff84007878:	e1a58be3          	beq	a1,s10,ffffffff8400768e <decodeCNodeInvocation+0x7c>
ffffffff8400787c:	e15589e3          	beq	a1,s5,ffffffff8400768e <decodeCNodeInvocation+0x7c>
ffffffff84007880:	015d0663          	beq	s10,s5,ffffffff8400788c <decodeCNodeInvocation+0x27a>
ffffffff84007884:	000ab783          	ld	a5,0(s5) # fffffffff8000000 <ki_end+0x73fde000>
ffffffff84007888:	93ed                	srl	a5,a5,0x3b
ffffffff8400788a:	ebe9                	bnez	a5,ffffffff8400795c <decodeCNodeInvocation+0x34a>
ffffffff8400788c:	000d3603          	ld	a2,0(s10)
ffffffff84007890:	03b65793          	srl	a5,a2,0x3b
ffffffff84007894:	18078d63          	beqz	a5,ffffffff84007a2e <decodeCNodeInvocation+0x41c>
ffffffff84007898:	00093483          	ld	s1,0(s2)
ffffffff8400789c:	03b4d793          	srl	a5,s1,0x3b
ffffffff840078a0:	18078a63          	beqz	a5,ffffffff84007a34 <decodeCNodeInvocation+0x422>
ffffffff840078a4:	008d3683          	ld	a3,8(s10)
ffffffff840078a8:	85ce                	mv	a1,s3
ffffffff840078aa:	4505                	li	a0,1
ffffffff840078ac:	9e1fd0ef          	jal	ffffffff8400528c <updateCapData>
ffffffff840078b0:	00893683          	ld	a3,8(s2)
ffffffff840078b4:	842a                	mv	s0,a0
ffffffff840078b6:	87ae                	mv	a5,a1
ffffffff840078b8:	8626                	mv	a2,s1
ffffffff840078ba:	85e2                	mv	a1,s8
ffffffff840078bc:	4505                	li	a0,1
ffffffff840078be:	e0a2                	sd	s0,64(sp)
ffffffff840078c0:	e4be                	sd	a5,72(sp)
ffffffff840078c2:	9cbfd0ef          	jal	ffffffff8400528c <updateCapData>
ffffffff840078c6:	f0aa                	sd	a0,96(sp)
ffffffff840078c8:	f4ae                	sd	a1,104(sp)
ffffffff840078ca:	906d                	srl	s0,s0,0x3b
ffffffff840078cc:	dc0401e3          	beqz	s0,ffffffff8400768e <decodeCNodeInvocation+0x7c>
ffffffff840078d0:	03b55793          	srl	a5,a0,0x3b
ffffffff840078d4:	da078de3          	beqz	a5,ffffffff8400768e <decodeCNodeInvocation+0x7c>
ffffffff840078d8:	118b3783          	ld	a5,280(s6)
ffffffff840078dc:	855a                	mv	a0,s6
ffffffff840078de:	9bc1                	and	a5,a5,-16
ffffffff840078e0:	0027e793          	or	a5,a5,2
ffffffff840078e4:	10fb3c23          	sd	a5,280(s6)
ffffffff840078e8:	c7efe0ef          	jal	ffffffff84005d66 <scheduleTCB>
ffffffff840078ec:	740e                	ld	s0,224(sp)
ffffffff840078ee:	7606                	ld	a2,96(sp)
ffffffff840078f0:	76a6                	ld	a3,104(sp)
ffffffff840078f2:	6506                	ld	a0,64(sp)
ffffffff840078f4:	65a6                	ld	a1,72(sp)
ffffffff840078f6:	70ae                	ld	ra,232(sp)
ffffffff840078f8:	64ee                	ld	s1,216(sp)
ffffffff840078fa:	69ae                	ld	s3,200(sp)
ffffffff840078fc:	6a0e                	ld	s4,192(sp)
ffffffff840078fe:	7b4a                	ld	s6,176(sp)
ffffffff84007900:	7baa                	ld	s7,168(sp)
ffffffff84007902:	7c0a                	ld	s8,160(sp)
ffffffff84007904:	6cea                	ld	s9,152(sp)
ffffffff84007906:	8856                	mv	a6,s5
ffffffff84007908:	87ca                	mv	a5,s2
ffffffff8400790a:	7aea                	ld	s5,184(sp)
ffffffff8400790c:	694e                	ld	s2,208(sp)
ffffffff8400790e:	876a                	mv	a4,s10
ffffffff84007910:	6d4a                	ld	s10,144(sp)
ffffffff84007912:	616d                	add	sp,sp,240
ffffffff84007914:	d00fd06f          	j	ffffffff84004e14 <invokeCNodeRotate>
ffffffff84007918:	479d                	li	a5,7
ffffffff8400791a:	d6f1b023          	sd	a5,-672(gp) # ffffffff8400b010 <current_syscall_error+0x30>
ffffffff8400791e:	440d                	li	s0,3
ffffffff84007920:	bb9d                	j	ffffffff84007696 <decodeCNodeInvocation+0x84>
ffffffff84007922:	118b3783          	ld	a5,280(s6)
ffffffff84007926:	855a                	mv	a0,s6
ffffffff84007928:	9bc1                	and	a5,a5,-16
ffffffff8400792a:	0027e793          	or	a5,a5,2
ffffffff8400792e:	10fb3c23          	sd	a5,280(s6)
ffffffff84007932:	c34fe0ef          	jal	ffffffff84005d66 <scheduleTCB>
ffffffff84007936:	75e6                	ld	a1,120(sp)
ffffffff84007938:	d4058fe3          	beqz	a1,ffffffff84007696 <decodeCNodeInvocation+0x84>
ffffffff8400793c:	7546                	ld	a0,112(sp)
ffffffff8400793e:	57fd                	li	a5,-1
ffffffff84007940:	0197d693          	srl	a3,a5,0x19
ffffffff84007944:	02655713          	srl	a4,a0,0x26
ffffffff84007948:	8b05                	and	a4,a4,1
ffffffff8400794a:	8d75                	and	a0,a0,a3
ffffffff8400794c:	c319                	beqz	a4,ffffffff84007952 <decodeCNodeInvocation+0x340>
ffffffff8400794e:	179e                	sll	a5,a5,0x27
ffffffff84007950:	8d5d                	or	a0,a0,a5
ffffffff84007952:	edafe0ef          	jal	ffffffff8400602c <cancelBadgedSends>
ffffffff84007956:	b381                	j	ffffffff84007696 <decodeCNodeInvocation+0x84>
ffffffff84007958:	47a1                	li	a5,8
ffffffff8400795a:	bb1d                	j	ffffffff84007690 <decodeCNodeInvocation+0x7e>
ffffffff8400795c:	47a1                	li	a5,8
ffffffff8400795e:	d6f1b023          	sd	a5,-672(gp) # ffffffff8400b010 <current_syscall_error+0x30>
ffffffff84007962:	440d                	li	s0,3
ffffffff84007964:	bb0d                	j	ffffffff84007696 <decodeCNodeInvocation+0x84>
ffffffff84007966:	002b9793          	sll	a5,s7,0x2
ffffffff8400796a:	d3018713          	add	a4,gp,-720 # ffffffff8400afe0 <current_syscall_error>
ffffffff8400796e:	4699                	li	a3,6
ffffffff84007970:	1fc7f793          	and	a5,a5,508
ffffffff84007974:	0017e793          	or	a5,a5,1
ffffffff84007978:	fb14                	sd	a3,48(a4)
ffffffff8400797a:	4685                	li	a3,1
ffffffff8400797c:	f714                	sd	a3,40(a4)
ffffffff8400797e:	440d                	li	s0,3
ffffffff84007980:	d6f1bc23          	sd	a5,-648(gp) # ffffffff8400b028 <current_lookup_fault>
ffffffff84007984:	d801b023          	sd	zero,-640(gp) # ffffffff8400b030 <current_lookup_fault+0x8>
ffffffff84007988:	b339                	j	ffffffff84007696 <decodeCNodeInvocation+0x84>
ffffffff8400798a:	4795                	li	a5,5
ffffffff8400798c:	f947f6e3          	bgeu	a5,s4,ffffffff84007918 <decodeCNodeInvocation+0x306>
ffffffff84007990:	6590                	ld	a2,8(a1)
ffffffff84007992:	0289b503          	ld	a0,40(s3)
ffffffff84007996:	0309b903          	ld	s2,48(s3)
ffffffff8400799a:	85e2                	mv	a1,s8
ffffffff8400799c:	971fd0ef          	jal	ffffffff8400530c <maskCapRights>
ffffffff840079a0:	862a                	mv	a2,a0
ffffffff840079a2:	86ae                	mv	a3,a1
ffffffff840079a4:	4501                	li	a0,0
ffffffff840079a6:	85ca                	mv	a1,s2
ffffffff840079a8:	e8b2                	sd	a2,80(sp)
ffffffff840079aa:	ecb6                	sd	a3,88(sp)
ffffffff840079ac:	8e1fd0ef          	jal	ffffffff8400528c <updateCapData>
ffffffff840079b0:	862a                	mv	a2,a0
ffffffff840079b2:	86ae                	mv	a3,a1
ffffffff840079b4:	1888                	add	a0,sp,112
ffffffff840079b6:	85a6                	mv	a1,s1
ffffffff840079b8:	f032                	sd	a2,32(sp)
ffffffff840079ba:	f436                	sd	a3,40(sp)
ffffffff840079bc:	8aefe0ef          	jal	ffffffff84005a6a <deriveCap>
ffffffff840079c0:	77c6                	ld	a5,112(sp)
ffffffff840079c2:	d6078ae3          	beqz	a5,ffffffff84007736 <decodeCNodeInvocation+0x124>
ffffffff840079c6:	843e                	mv	s0,a5
ffffffff840079c8:	b1f9                	j	ffffffff84007696 <decodeCNodeInvocation+0x84>
ffffffff840079ca:	4791                	li	a5,4
ffffffff840079cc:	f4fa06e3          	beq	s4,a5,ffffffff84007918 <decodeCNodeInvocation+0x306>
ffffffff840079d0:	6594                	ld	a3,8(a1)
ffffffff840079d2:	0289b583          	ld	a1,40(s3)
ffffffff840079d6:	8662                	mv	a2,s8
ffffffff840079d8:	4505                	li	a0,1
ffffffff840079da:	8b3fd0ef          	jal	ffffffff8400528c <updateCapData>
ffffffff840079de:	e82a                	sd	a0,16(sp)
ffffffff840079e0:	ec2e                	sd	a1,24(sp)
ffffffff840079e2:	03b55793          	srl	a5,a0,0x3b
ffffffff840079e6:	8c2a                	mv	s8,a0
ffffffff840079e8:	ca0783e3          	beqz	a5,ffffffff8400768e <decodeCNodeInvocation+0x7c>
ffffffff840079ec:	118b3783          	ld	a5,280(s6)
ffffffff840079f0:	855a                	mv	a0,s6
ffffffff840079f2:	9bc1                	and	a5,a5,-16
ffffffff840079f4:	0027e793          	or	a5,a5,2
ffffffff840079f8:	10fb3c23          	sd	a5,280(s6)
ffffffff840079fc:	b6afe0ef          	jal	ffffffff84005d66 <scheduleTCB>
ffffffff84007a00:	65e2                	ld	a1,24(sp)
ffffffff84007a02:	86d6                	mv	a3,s5
ffffffff84007a04:	8626                	mv	a2,s1
ffffffff84007a06:	8562                	mv	a0,s8
ffffffff84007a08:	f8e2                	sd	s8,112(sp)
ffffffff84007a0a:	fcae                	sd	a1,120(sp)
ffffffff84007a0c:	ad2fd0ef          	jal	ffffffff84004cde <cteMove>
ffffffff84007a10:	b159                	j	ffffffff84007696 <decodeCNodeInvocation+0x84>
ffffffff84007a12:	118b3783          	ld	a5,280(s6)
ffffffff84007a16:	6598                	ld	a4,8(a1)
ffffffff84007a18:	855a                	mv	a0,s6
ffffffff84007a1a:	9bc1                	and	a5,a5,-16
ffffffff84007a1c:	0027e793          	or	a5,a5,2
ffffffff84007a20:	10fb3c23          	sd	a5,280(s6)
ffffffff84007a24:	e862                	sd	s8,16(sp)
ffffffff84007a26:	ec3a                	sd	a4,24(sp)
ffffffff84007a28:	b3efe0ef          	jal	ffffffff84005d66 <scheduleTCB>
ffffffff84007a2c:	bfd1                	j	ffffffff84007a00 <decodeCNodeInvocation+0x3ee>
ffffffff84007a2e:	00249793          	sll	a5,s1,0x2
ffffffff84007a32:	bf25                	j	ffffffff8400796a <decodeCNodeInvocation+0x358>
ffffffff84007a34:	002a1793          	sll	a5,s4,0x2
ffffffff84007a38:	1fc7f793          	and	a5,a5,508
ffffffff84007a3c:	4719                	li	a4,6
ffffffff84007a3e:	0017e793          	or	a5,a5,1
ffffffff84007a42:	d6e1b023          	sd	a4,-672(gp) # ffffffff8400b010 <current_syscall_error+0x30>
ffffffff84007a46:	440d                	li	s0,3
ffffffff84007a48:	d6f1bc23          	sd	a5,-648(gp) # ffffffff8400b028 <current_lookup_fault>
ffffffff84007a4c:	d401bc23          	sd	zero,-680(gp) # ffffffff8400b008 <current_syscall_error+0x28>
ffffffff84007a50:	d801b023          	sd	zero,-640(gp) # ffffffff8400b030 <current_lookup_fault+0x8>
ffffffff84007a54:	b189                	j	ffffffff84007696 <decodeCNodeInvocation+0x84>

ffffffff84007a56 <cteDeleteOne>:
ffffffff84007a56:	715d                	add	sp,sp,-80
ffffffff84007a58:	fc26                	sd	s1,56(sp)
ffffffff84007a5a:	6104                	ld	s1,0(a0)
ffffffff84007a5c:	e486                	sd	ra,72(sp)
ffffffff84007a5e:	e0a2                	sd	s0,64(sp)
ffffffff84007a60:	03b4d793          	srl	a5,s1,0x3b
ffffffff84007a64:	e791                	bnez	a5,ffffffff84007a70 <cteDeleteOne+0x1a>
ffffffff84007a66:	60a6                	ld	ra,72(sp)
ffffffff84007a68:	6406                	ld	s0,64(sp)
ffffffff84007a6a:	74e2                	ld	s1,56(sp)
ffffffff84007a6c:	6161                	add	sp,sp,80
ffffffff84007a6e:	8082                	ret
ffffffff84007a70:	842a                	mv	s0,a0
ffffffff84007a72:	8b6fe0ef          	jal	ffffffff84005b28 <isFinalCapability>
ffffffff84007a76:	6410                	ld	a2,8(s0)
ffffffff84007a78:	85a6                	mv	a1,s1
ffffffff84007a7a:	86aa                	mv	a3,a0
ffffffff84007a7c:	4705                	li	a4,1
ffffffff84007a7e:	850a                	mv	a0,sp
ffffffff84007a80:	e7aff0ef          	jal	ffffffff840070fa <finaliseCap>
ffffffff84007a84:	8522                	mv	a0,s0
ffffffff84007a86:	6406                	ld	s0,64(sp)
ffffffff84007a88:	60a6                	ld	ra,72(sp)
ffffffff84007a8a:	74e2                	ld	s1,56(sp)
ffffffff84007a8c:	4581                	li	a1,0
ffffffff84007a8e:	4601                	li	a2,0
ffffffff84007a90:	6161                	add	sp,sp,80
ffffffff84007a92:	d91fb06f          	j	ffffffff84003822 <emptySlot>

ffffffff84007a96 <cancelIPC>:
ffffffff84007a96:	11853583          	ld	a1,280(a0)
ffffffff84007a9a:	4715                	li	a4,5
ffffffff84007a9c:	00f5f793          	and	a5,a1,15
ffffffff84007aa0:	0ae78163          	beq	a5,a4,ffffffff84007b42 <cancelIPC+0xac>
ffffffff84007aa4:	06f76d63          	bltu	a4,a5,ffffffff84007b1e <cancelIPC+0x88>
ffffffff84007aa8:	17f5                	add	a5,a5,-3
ffffffff84007aaa:	4705                	li	a4,1
ffffffff84007aac:	08f76a63          	bltu	a4,a5,ffffffff84007b40 <cancelIPC+0xaa>
ffffffff84007ab0:	171a                	sll	a4,a4,0x26
ffffffff84007ab2:	e00007b7          	lui	a5,0xe0000
ffffffff84007ab6:	83e5                	srl	a5,a5,0x19
ffffffff84007ab8:	8f6d                	and	a4,a4,a1
ffffffff84007aba:	8fed                	and	a5,a5,a1
ffffffff84007abc:	c701                	beqz	a4,ffffffff84007ac4 <cancelIPC+0x2e>
ffffffff84007abe:	577d                	li	a4,-1
ffffffff84007ac0:	171e                	sll	a4,a4,0x27
ffffffff84007ac2:	8fd9                	or	a5,a5,a4
ffffffff84007ac4:	6394                	ld	a3,0(a5)
ffffffff84007ac6:	f8000737          	lui	a4,0xf8000
ffffffff84007aca:	8365                	srl	a4,a4,0x19
ffffffff84007acc:	0266d613          	srl	a2,a3,0x26
ffffffff84007ad0:	8a05                	and	a2,a2,1
ffffffff84007ad2:	8f75                	and	a4,a4,a3
ffffffff84007ad4:	c601                	beqz	a2,ffffffff84007adc <cancelIPC+0x46>
ffffffff84007ad6:	567d                	li	a2,-1
ffffffff84007ad8:	161e                	sll	a2,a2,0x27
ffffffff84007ada:	8f51                	or	a4,a4,a2
ffffffff84007adc:	1a053803          	ld	a6,416(a0)
ffffffff84007ae0:	19853603          	ld	a2,408(a0)
ffffffff84007ae4:	08080363          	beqz	a6,ffffffff84007b6a <cancelIPC+0xd4>
ffffffff84007ae8:	0087b883          	ld	a7,8(a5) # ffffffffe0000008 <ki_end+0x5bfde008>
ffffffff84007aec:	18c83c23          	sd	a2,408(a6)
ffffffff84007af0:	8346                	mv	t1,a7
ffffffff84007af2:	c249                	beqz	a2,ffffffff84007b74 <cancelIPC+0xde>
ffffffff84007af4:	1b063023          	sd	a6,416(a2)
ffffffff84007af8:	567d                	li	a2,-1
ffffffff84007afa:	161e                	sll	a2,a2,0x27
ffffffff84007afc:	060d                	add	a2,a2,3
ffffffff84007afe:	8ef1                	and	a3,a3,a2
ffffffff84007b00:	f8000637          	lui	a2,0xf8000
ffffffff84007b04:	8265                	srl	a2,a2,0x19
ffffffff84007b06:	8f71                	and	a4,a4,a2
ffffffff84007b08:	8ed9                	or	a3,a3,a4
ffffffff84007b0a:	06030363          	beqz	t1,ffffffff84007b70 <cancelIPC+0xda>
ffffffff84007b0e:	0117b423          	sd	a7,8(a5)
ffffffff84007b12:	e394                	sd	a3,0(a5)
ffffffff84007b14:	99c1                	and	a1,a1,-16
ffffffff84007b16:	10b53c23          	sd	a1,280(a0)
ffffffff84007b1a:	a4cfe06f          	j	ffffffff84005d66 <scheduleTCB>
ffffffff84007b1e:	4719                	li	a4,6
ffffffff84007b20:	00e79f63          	bne	a5,a4,ffffffff84007b3e <cancelIPC+0xa8>
ffffffff84007b24:	0265d793          	srl	a5,a1,0x26
ffffffff84007b28:	e0000737          	lui	a4,0xe0000
ffffffff84007b2c:	8365                	srl	a4,a4,0x19
ffffffff84007b2e:	8b85                	and	a5,a5,1
ffffffff84007b30:	8df9                	and	a1,a1,a4
ffffffff84007b32:	c781                	beqz	a5,ffffffff84007b3a <cancelIPC+0xa4>
ffffffff84007b34:	57fd                	li	a5,-1
ffffffff84007b36:	179e                	sll	a5,a5,0x27
ffffffff84007b38:	8ddd                	or	a1,a1,a5
ffffffff84007b3a:	e16fe06f          	j	ffffffff84006150 <cancelSignal>
ffffffff84007b3e:	8082                	ret
ffffffff84007b40:	8082                	ret
ffffffff84007b42:	c0057793          	and	a5,a0,-1024
ffffffff84007b46:	6fbc                	ld	a5,88(a5)
ffffffff84007b48:	f80006b7          	lui	a3,0xf8000
ffffffff84007b4c:	82e5                	srl	a3,a3,0x19
ffffffff84007b4e:	0267d713          	srl	a4,a5,0x26
ffffffff84007b52:	12053c23          	sd	zero,312(a0)
ffffffff84007b56:	14053023          	sd	zero,320(a0)
ffffffff84007b5a:	8b05                	and	a4,a4,1
ffffffff84007b5c:	8ff5                	and	a5,a5,a3
ffffffff84007b5e:	cf09                	beqz	a4,ffffffff84007b78 <cancelIPC+0xe2>
ffffffff84007b60:	577d                	li	a4,-1
ffffffff84007b62:	171e                	sll	a4,a4,0x27
ffffffff84007b64:	00e7e533          	or	a0,a5,a4
ffffffff84007b68:	b5fd                	j	ffffffff84007a56 <cteDeleteOne>
ffffffff84007b6a:	88b2                	mv	a7,a2
ffffffff84007b6c:	8332                	mv	t1,a2
ffffffff84007b6e:	b751                	j	ffffffff84007af2 <cancelIPC+0x5c>
ffffffff84007b70:	9af1                	and	a3,a3,-4
ffffffff84007b72:	bf71                	j	ffffffff84007b0e <cancelIPC+0x78>
ffffffff84007b74:	8742                	mv	a4,a6
ffffffff84007b76:	b749                	j	ffffffff84007af8 <cancelIPC+0x62>
ffffffff84007b78:	c399                	beqz	a5,ffffffff84007b7e <cancelIPC+0xe8>
ffffffff84007b7a:	853e                	mv	a0,a5
ffffffff84007b7c:	b7f5                	j	ffffffff84007b68 <cancelIPC+0xd2>
ffffffff84007b7e:	8082                	ret

ffffffff84007b80 <suspend>:
ffffffff84007b80:	1141                	add	sp,sp,-16
ffffffff84007b82:	e022                	sd	s0,0(sp)
ffffffff84007b84:	e406                	sd	ra,8(sp)
ffffffff84007b86:	842a                	mv	s0,a0
ffffffff84007b88:	f0fff0ef          	jal	ffffffff84007a96 <cancelIPC>
ffffffff84007b8c:	11843783          	ld	a5,280(s0)
ffffffff84007b90:	4705                	li	a4,1
ffffffff84007b92:	00f7f693          	and	a3,a5,15
ffffffff84007b96:	00e69663          	bne	a3,a4,ffffffff84007ba2 <suspend+0x22>
ffffffff84007b9a:	11043703          	ld	a4,272(s0)
ffffffff84007b9e:	10e43423          	sd	a4,264(s0)
ffffffff84007ba2:	9bc1                	and	a5,a5,-16
ffffffff84007ba4:	8522                	mv	a0,s0
ffffffff84007ba6:	10f43c23          	sd	a5,280(s0)
ffffffff84007baa:	9bcfe0ef          	jal	ffffffff84005d66 <scheduleTCB>
ffffffff84007bae:	8522                	mv	a0,s0
ffffffff84007bb0:	6402                	ld	s0,0(sp)
ffffffff84007bb2:	60a2                	ld	ra,8(sp)
ffffffff84007bb4:	0141                	add	sp,sp,16
ffffffff84007bb6:	81eff06f          	j	ffffffff84006bd4 <tcbSchedDequeue>

ffffffff84007bba <restart>:
ffffffff84007bba:	11853703          	ld	a4,280(a0)
ffffffff84007bbe:	f8600793          	li	a5,-122
ffffffff84007bc2:	8b3d                	and	a4,a4,15
ffffffff84007bc4:	40e7d7b3          	sra	a5,a5,a4
ffffffff84007bc8:	8b85                	and	a5,a5,1
ffffffff84007bca:	c391                	beqz	a5,ffffffff84007bce <restart+0x14>
ffffffff84007bcc:	8082                	ret
ffffffff84007bce:	1141                	add	sp,sp,-16
ffffffff84007bd0:	e022                	sd	s0,0(sp)
ffffffff84007bd2:	e406                	sd	ra,8(sp)
ffffffff84007bd4:	842a                	mv	s0,a0
ffffffff84007bd6:	ec1ff0ef          	jal	ffffffff84007a96 <cancelIPC>
ffffffff84007bda:	c0047713          	and	a4,s0,-1024
ffffffff84007bde:	633c                	ld	a5,64(a4)
ffffffff84007be0:	93ed                	srl	a5,a5,0x3b
ffffffff84007be2:	eb91                	bnez	a5,ffffffff84007bf6 <restart+0x3c>
ffffffff84007be4:	4785                	li	a5,1
ffffffff84007be6:	17fa                	sll	a5,a5,0x3e
ffffffff84007be8:	078d                	add	a5,a5,3
ffffffff84007bea:	e33c                	sd	a5,64(a4)
ffffffff84007bec:	478d                	li	a5,3
ffffffff84007bee:	e720                	sd	s0,72(a4)
ffffffff84007bf0:	04073823          	sd	zero,80(a4) # ffffffffe0000050 <ki_end+0x5bfde050>
ffffffff84007bf4:	ef3c                	sd	a5,88(a4)
ffffffff84007bf6:	11843783          	ld	a5,280(s0)
ffffffff84007bfa:	8522                	mv	a0,s0
ffffffff84007bfc:	9bc1                	and	a5,a5,-16
ffffffff84007bfe:	0027e793          	or	a5,a5,2
ffffffff84007c02:	10f43c23          	sd	a5,280(s0)
ffffffff84007c06:	960fe0ef          	jal	ffffffff84005d66 <scheduleTCB>
ffffffff84007c0a:	8522                	mv	a0,s0
ffffffff84007c0c:	ff9fd0ef          	jal	ffffffff84005c04 <tcbSchedEnqueue>
ffffffff84007c10:	8522                	mv	a0,s0
ffffffff84007c12:	6402                	ld	s0,0(sp)
ffffffff84007c14:	60a2                	ld	ra,8(sp)
ffffffff84007c16:	0141                	add	sp,sp,16
ffffffff84007c18:	8a8fe06f          	j	ffffffff84005cc0 <possibleSwitchTo>

ffffffff84007c1c <sendSignal>:
ffffffff84007c1c:	6114                	ld	a3,0(a0)
ffffffff84007c1e:	1101                	add	sp,sp,-32
ffffffff84007c20:	e426                	sd	s1,8(sp)
ffffffff84007c22:	ec06                	sd	ra,24(sp)
ffffffff84007c24:	e822                	sd	s0,16(sp)
ffffffff84007c26:	4605                	li	a2,1
ffffffff84007c28:	0036f713          	and	a4,a3,3
ffffffff84007c2c:	87aa                	mv	a5,a0
ffffffff84007c2e:	84ae                	mv	s1,a1
ffffffff84007c30:	00c70b63          	beq	a4,a2,ffffffff84007c46 <sendSignal+0x2a>
ffffffff84007c34:	4509                	li	a0,2
ffffffff84007c36:	0ca70563          	beq	a4,a0,ffffffff84007d00 <sendSignal+0xe4>
ffffffff84007c3a:	cb49                	beqz	a4,ffffffff84007ccc <sendSignal+0xb0>
ffffffff84007c3c:	60e2                	ld	ra,24(sp)
ffffffff84007c3e:	6442                	ld	s0,16(sp)
ffffffff84007c40:	64a2                	ld	s1,8(sp)
ffffffff84007c42:	6105                	add	sp,sp,32
ffffffff84007c44:	8082                	ret
ffffffff84007c46:	650c                	ld	a1,8(a0)
ffffffff84007c48:	171a                	sll	a4,a4,0x26
ffffffff84007c4a:	557d                	li	a0,-1
ffffffff84007c4c:	01955613          	srl	a2,a0,0x19
ffffffff84007c50:	8f6d                	and	a4,a4,a1
ffffffff84007c52:	8e6d                	and	a2,a2,a1
ffffffff84007c54:	c319                	beqz	a4,ffffffff84007c5a <sendSignal+0x3e>
ffffffff84007c56:	151e                	sll	a0,a0,0x27
ffffffff84007c58:	8e49                	or	a2,a2,a0
ffffffff84007c5a:	8432                	mv	s0,a2
ffffffff84007c5c:	0196d513          	srl	a0,a3,0x19
ffffffff84007c60:	0006d563          	bgez	a3,ffffffff84007c6a <sendSignal+0x4e>
ffffffff84007c64:	577d                	li	a4,-1
ffffffff84007c66:	171e                	sll	a4,a4,0x27
ffffffff84007c68:	8d59                	or	a0,a0,a4
ffffffff84007c6a:	1a063803          	ld	a6,416(a2) # fffffffff80001a0 <ki_end+0x73fde1a0>
ffffffff84007c6e:	5e7d                	li	t3,-1
ffffffff84007c70:	02000337          	lui	t1,0x2000
ffffffff84007c74:	027e1e93          	sll	t4,t3,0x27
ffffffff84007c78:	fff30713          	add	a4,t1,-1 # 1ffffff <KERNEL_OFFSET-0xfffffffefe000001>
ffffffff84007c7c:	19863883          	ld	a7,408(a2)
ffffffff84007c80:	01d5f5b3          	and	a1,a1,t4
ffffffff84007c84:	8f75                	and	a4,a4,a3
ffffffff84007c86:	08080563          	beqz	a6,ffffffff84007d10 <sendSignal+0xf4>
ffffffff84007c8a:	19183c23          	sd	a7,408(a6)
ffffffff84007c8e:	08088863          	beqz	a7,ffffffff84007d1e <sendSignal+0x102>
ffffffff84007c92:	0666                	sll	a2,a2,0x19
ffffffff84007c94:	8265                	srl	a2,a2,0x19
ffffffff84007c96:	0566                	sll	a0,a0,0x19
ffffffff84007c98:	1b08b023          	sd	a6,416(a7)
ffffffff84007c9c:	8dd1                	or	a1,a1,a2
ffffffff84007c9e:	00e566b3          	or	a3,a0,a4
ffffffff84007ca2:	11843703          	ld	a4,280(s0)
ffffffff84007ca6:	e78c                	sd	a1,8(a5)
ffffffff84007ca8:	e394                	sd	a3,0(a5)
ffffffff84007caa:	ff077793          	and	a5,a4,-16
ffffffff84007cae:	0017e793          	or	a5,a5,1
ffffffff84007cb2:	8522                	mv	a0,s0
ffffffff84007cb4:	10f43c23          	sd	a5,280(s0)
ffffffff84007cb8:	8aefe0ef          	jal	ffffffff84005d66 <scheduleTCB>
ffffffff84007cbc:	8522                	mv	a0,s0
ffffffff84007cbe:	e424                	sd	s1,72(s0)
ffffffff84007cc0:	6442                	ld	s0,16(sp)
ffffffff84007cc2:	60e2                	ld	ra,24(sp)
ffffffff84007cc4:	64a2                	ld	s1,8(sp)
ffffffff84007cc6:	6105                	add	sp,sp,32
ffffffff84007cc8:	ff9fd06f          	j	ffffffff84005cc0 <possibleSwitchTo>
ffffffff84007ccc:	6f80                	ld	s0,24(a5)
ffffffff84007cce:	577d                	li	a4,-1
ffffffff84007cd0:	161a                	sll	a2,a2,0x26
ffffffff84007cd2:	01975593          	srl	a1,a4,0x19
ffffffff84007cd6:	8e61                	and	a2,a2,s0
ffffffff84007cd8:	8c6d                	and	s0,s0,a1
ffffffff84007cda:	c62d                	beqz	a2,ffffffff84007d44 <sendSignal+0x128>
ffffffff84007cdc:	171e                	sll	a4,a4,0x27
ffffffff84007cde:	8c59                	or	s0,s0,a4
ffffffff84007ce0:	11843703          	ld	a4,280(s0)
ffffffff84007ce4:	460d                	li	a2,3
ffffffff84007ce6:	8b3d                	and	a4,a4,15
ffffffff84007ce8:	04c70463          	beq	a4,a2,ffffffff84007d30 <sendSignal+0x114>
ffffffff84007cec:	60e2                	ld	ra,24(sp)
ffffffff84007cee:	6442                	ld	s0,16(sp)
ffffffff84007cf0:	9af1                	and	a3,a3,-4
ffffffff84007cf2:	0026e693          	or	a3,a3,2
ffffffff84007cf6:	eb84                	sd	s1,16(a5)
ffffffff84007cf8:	e394                	sd	a3,0(a5)
ffffffff84007cfa:	64a2                	ld	s1,8(sp)
ffffffff84007cfc:	6105                	add	sp,sp,32
ffffffff84007cfe:	8082                	ret
ffffffff84007d00:	6b98                	ld	a4,16(a5)
ffffffff84007d02:	60e2                	ld	ra,24(sp)
ffffffff84007d04:	6442                	ld	s0,16(sp)
ffffffff84007d06:	8f4d                	or	a4,a4,a1
ffffffff84007d08:	eb98                	sd	a4,16(a5)
ffffffff84007d0a:	64a2                	ld	s1,8(sp)
ffffffff84007d0c:	6105                	add	sp,sp,32
ffffffff84007d0e:	8082                	ret
ffffffff84007d10:	8646                	mv	a2,a7
ffffffff84007d12:	f80890e3          	bnez	a7,ffffffff84007c92 <sendSignal+0x76>
ffffffff84007d16:	1371                	add	t1,t1,-4
ffffffff84007d18:	0066f6b3          	and	a3,a3,t1
ffffffff84007d1c:	b759                	j	ffffffff84007ca2 <sendSignal+0x86>
ffffffff84007d1e:	019e5e13          	srl	t3,t3,0x19
ffffffff84007d22:	01c67633          	and	a2,a2,t3
ffffffff84007d26:	0866                	sll	a6,a6,0x19
ffffffff84007d28:	8dd1                	or	a1,a1,a2
ffffffff84007d2a:	00e866b3          	or	a3,a6,a4
ffffffff84007d2e:	bf95                	j	ffffffff84007ca2 <sendSignal+0x86>
ffffffff84007d30:	8522                	mv	a0,s0
ffffffff84007d32:	d65ff0ef          	jal	ffffffff84007a96 <cancelIPC>
ffffffff84007d36:	11843783          	ld	a5,280(s0)
ffffffff84007d3a:	8522                	mv	a0,s0
ffffffff84007d3c:	9bc1                	and	a5,a5,-16
ffffffff84007d3e:	0017e793          	or	a5,a5,1
ffffffff84007d42:	bf8d                	j	ffffffff84007cb4 <sendSignal+0x98>
ffffffff84007d44:	fc51                	bnez	s0,ffffffff84007ce0 <sendSignal+0xc4>
ffffffff84007d46:	ffc6f713          	and	a4,a3,-4
ffffffff84007d4a:	00276713          	or	a4,a4,2
ffffffff84007d4e:	e398                	sd	a4,0(a5)
ffffffff84007d50:	eb84                	sd	s1,16(a5)
ffffffff84007d52:	b5ed                	j	ffffffff84007c3c <sendSignal+0x20>

ffffffff84007d54 <handleInterrupt>:
ffffffff84007d54:	03600693          	li	a3,54
ffffffff84007d58:	0ea6e263          	bltu	a3,a0,ffffffff84007e3c <handleInterrupt+0xe8>
ffffffff84007d5c:	00351713          	sll	a4,a0,0x3
ffffffff84007d60:	00003797          	auipc	a5,0x3
ffffffff84007d64:	e2078793          	add	a5,a5,-480 # ffffffff8400ab80 <intStateIRQTable>
ffffffff84007d68:	97ba                	add	a5,a5,a4
ffffffff84007d6a:	639c                	ld	a5,0(a5)
ffffffff84007d6c:	1141                	add	sp,sp,-16
ffffffff84007d6e:	e406                	sd	ra,8(sp)
ffffffff84007d70:	4709                	li	a4,2
ffffffff84007d72:	04e78c63          	beq	a5,a4,ffffffff84007dca <handleInterrupt+0x76>
ffffffff84007d76:	04f76263          	bltu	a4,a5,ffffffff84007dba <handleInterrupt+0x66>
ffffffff84007d7a:	cfbd                	beqz	a5,ffffffff84007df8 <handleInterrupt+0xa4>
ffffffff84007d7c:	00004797          	auipc	a5,0x4
ffffffff84007d80:	28478793          	add	a5,a5,644 # ffffffff8400c000 <intStateIRQNode>
ffffffff84007d84:	0516                	sll	a0,a0,0x5
ffffffff84007d86:	953e                	add	a0,a0,a5
ffffffff84007d88:	611c                	ld	a5,0(a0)
ffffffff84007d8a:	4719                	li	a4,6
ffffffff84007d8c:	650c                	ld	a1,8(a0)
ffffffff84007d8e:	03b7d693          	srl	a3,a5,0x3b
ffffffff84007d92:	02e69763          	bne	a3,a4,ffffffff84007dc0 <handleInterrupt+0x6c>
ffffffff84007d96:	0397d713          	srl	a4,a5,0x39
ffffffff84007d9a:	8b05                	and	a4,a4,1
ffffffff84007d9c:	c315                	beqz	a4,ffffffff84007dc0 <handleInterrupt+0x6c>
ffffffff84007d9e:	577d                	li	a4,-1
ffffffff84007da0:	0267d693          	srl	a3,a5,0x26
ffffffff84007da4:	01975613          	srl	a2,a4,0x19
ffffffff84007da8:	8a85                	and	a3,a3,1
ffffffff84007daa:	00c7f533          	and	a0,a5,a2
ffffffff84007dae:	c299                	beqz	a3,ffffffff84007db4 <handleInterrupt+0x60>
ffffffff84007db0:	171e                	sll	a4,a4,0x27
ffffffff84007db2:	8d59                	or	a0,a0,a4
ffffffff84007db4:	e69ff0ef          	jal	ffffffff84007c1c <sendSignal>
ffffffff84007db8:	a021                	j	ffffffff84007dc0 <handleInterrupt+0x6c>
ffffffff84007dba:	470d                	li	a4,3
ffffffff84007dbc:	0ae79563          	bne	a5,a4,ffffffff84007e66 <handleInterrupt+0x112>
ffffffff84007dc0:	60a2                	ld	ra,8(sp)
ffffffff84007dc2:	1801b423          	sd	zero,392(gp) # ffffffff8400b438 <active_irq>
ffffffff84007dc6:	0141                	add	sp,sp,16
ffffffff84007dc8:	8082                	ret
ffffffff84007dca:	d8ffe0ef          	jal	ffffffff84006b58 <timerTick>
ffffffff84007dce:	c000c737          	lui	a4,0xc000c
ffffffff84007dd2:	ff873783          	ld	a5,-8(a4) # ffffffffc000bff8 <ki_end+0x3bfe9ff8>
ffffffff84007dd6:	4581                	li	a1,0
ffffffff84007dd8:	4601                	li	a2,0
ffffffff84007dda:	7d078793          	add	a5,a5,2000
ffffffff84007dde:	853e                	mv	a0,a5
ffffffff84007de0:	4881                	li	a7,0
ffffffff84007de2:	00000073          	ecall
ffffffff84007de6:	ff873683          	ld	a3,-8(a4)
ffffffff84007dea:	fed7e4e3          	bltu	a5,a3,ffffffff84007dd2 <handleInterrupt+0x7e>
ffffffff84007dee:	60a2                	ld	ra,8(sp)
ffffffff84007df0:	1801b423          	sd	zero,392(gp) # ffffffff8400b438 <active_irq>
ffffffff84007df4:	0141                	add	sp,sp,16
ffffffff84007df6:	8082                	ret
ffffffff84007df8:	00d51b63          	bne	a0,a3,ffffffff84007e0e <handleInterrupt+0xba>
ffffffff84007dfc:	02000793          	li	a5,32
ffffffff84007e00:	1047b7f3          	csrrc	a5,sie,a5
ffffffff84007e04:	60a2                	ld	ra,8(sp)
ffffffff84007e06:	1801b423          	sd	zero,392(gp) # ffffffff8400b438 <active_irq>
ffffffff84007e0a:	0141                	add	sp,sp,16
ffffffff84007e0c:	8082                	ret
ffffffff84007e0e:	00555713          	srl	a4,a0,0x5
ffffffff84007e12:	c02027b7          	lui	a5,0xc0202
ffffffff84007e16:	10078793          	add	a5,a5,256 # ffffffffc0202100 <ki_end+0x3c1e0100>
ffffffff84007e1a:	070a                	sll	a4,a4,0x2
ffffffff84007e1c:	973e                	add	a4,a4,a5
ffffffff84007e1e:	4314                	lw	a3,0(a4)
ffffffff84007e20:	897d                	and	a0,a0,31
ffffffff84007e22:	4785                	li	a5,1
ffffffff84007e24:	00a797b3          	sll	a5,a5,a0
ffffffff84007e28:	fff7c793          	not	a5,a5
ffffffff84007e2c:	60a2                	ld	ra,8(sp)
ffffffff84007e2e:	8ff5                	and	a5,a5,a3
ffffffff84007e30:	2781                	sext.w	a5,a5
ffffffff84007e32:	c31c                	sw	a5,0(a4)
ffffffff84007e34:	1801b423          	sd	zero,392(gp) # ffffffff8400b438 <active_irq>
ffffffff84007e38:	0141                	add	sp,sp,16
ffffffff84007e3a:	8082                	ret
ffffffff84007e3c:	00555713          	srl	a4,a0,0x5
ffffffff84007e40:	c02027b7          	lui	a5,0xc0202
ffffffff84007e44:	10078793          	add	a5,a5,256 # ffffffffc0202100 <ki_end+0x3c1e0100>
ffffffff84007e48:	070a                	sll	a4,a4,0x2
ffffffff84007e4a:	973e                	add	a4,a4,a5
ffffffff84007e4c:	4314                	lw	a3,0(a4)
ffffffff84007e4e:	897d                	and	a0,a0,31
ffffffff84007e50:	4785                	li	a5,1
ffffffff84007e52:	00a797b3          	sll	a5,a5,a0
ffffffff84007e56:	fff7c793          	not	a5,a5
ffffffff84007e5a:	8ff5                	and	a5,a5,a3
ffffffff84007e5c:	2781                	sext.w	a5,a5
ffffffff84007e5e:	c31c                	sw	a5,0(a4)
ffffffff84007e60:	1801b423          	sd	zero,392(gp) # ffffffff8400b438 <active_irq>
ffffffff84007e64:	8082                	ret
ffffffff84007e66:	dd1fb0ef          	jal	ffffffff84003c36 <halt>

ffffffff84007e6a <handleInterruptEntry>:
ffffffff84007e6a:	18818793          	add	a5,gp,392 # ffffffff8400b438 <active_irq>
ffffffff84007e6e:	6388                	ld	a0,0(a5)
ffffffff84007e70:	1141                	add	sp,sp,-16
ffffffff84007e72:	e406                	sd	ra,8(sp)
ffffffff84007e74:	03500713          	li	a4,53
ffffffff84007e78:	fff50693          	add	a3,a0,-1
ffffffff84007e7c:	02d77163          	bgeu	a4,a3,ffffffff84007e9e <handleInterruptEntry+0x34>
ffffffff84007e80:	144026f3          	csrr	a3,sip
ffffffff84007e84:	2006f613          	and	a2,a3,512
ffffffff84007e88:	c60d                	beqz	a2,ffffffff84007eb2 <handleInterruptEntry+0x48>
ffffffff84007e8a:	c04026b7          	lui	a3,0xc0402
ffffffff84007e8e:	42c8                	lw	a0,4(a3)
ffffffff84007e90:	1502                	sll	a0,a0,0x20
ffffffff84007e92:	9101                	srl	a0,a0,0x20
ffffffff84007e94:	fff50693          	add	a3,a0,-1
ffffffff84007e98:	00d76563          	bltu	a4,a3,ffffffff84007ea2 <handleInterruptEntry+0x38>
ffffffff84007e9c:	e388                	sd	a0,0(a5)
ffffffff84007e9e:	eb7ff0ef          	jal	ffffffff84007d54 <handleInterrupt>
ffffffff84007ea2:	87aff0ef          	jal	ffffffff84006f1c <schedule>
ffffffff84007ea6:	be9fe0ef          	jal	ffffffff84006a8e <activateThread>
ffffffff84007eaa:	60a2                	ld	ra,8(sp)
ffffffff84007eac:	4501                	li	a0,0
ffffffff84007eae:	0141                	add	sp,sp,16
ffffffff84007eb0:	8082                	ret
ffffffff84007eb2:	0206f693          	and	a3,a3,32
ffffffff84007eb6:	d6f5                	beqz	a3,ffffffff84007ea2 <handleInterruptEntry+0x38>
ffffffff84007eb8:	03600513          	li	a0,54
ffffffff84007ebc:	b7c5                	j	ffffffff84007e9c <handleInterruptEntry+0x32>

ffffffff84007ebe <performInvocation_Notification>:
ffffffff84007ebe:	1141                	add	sp,sp,-16
ffffffff84007ec0:	e406                	sd	ra,8(sp)
ffffffff84007ec2:	d5bff0ef          	jal	ffffffff84007c1c <sendSignal>
ffffffff84007ec6:	60a2                	ld	ra,8(sp)
ffffffff84007ec8:	4501                	li	a0,0
ffffffff84007eca:	0141                	add	sp,sp,16
ffffffff84007ecc:	8082                	ret

ffffffff84007ece <invokeIRQHandler_SetIRQHandler>:
ffffffff84007ece:	7179                	add	sp,sp,-48
ffffffff84007ed0:	f022                	sd	s0,32(sp)
ffffffff84007ed2:	00004797          	auipc	a5,0x4
ffffffff84007ed6:	12e78793          	add	a5,a5,302 # ffffffff8400c000 <intStateIRQNode>
ffffffff84007eda:	00551413          	sll	s0,a0,0x5
ffffffff84007ede:	943e                	add	s0,s0,a5
ffffffff84007ee0:	8522                	mv	a0,s0
ffffffff84007ee2:	ec26                	sd	s1,24(sp)
ffffffff84007ee4:	f406                	sd	ra,40(sp)
ffffffff84007ee6:	84b6                	mv	s1,a3
ffffffff84007ee8:	e02e                	sd	a1,0(sp)
ffffffff84007eea:	e432                	sd	a2,8(sp)
ffffffff84007eec:	b6bff0ef          	jal	ffffffff84007a56 <cteDeleteOne>
ffffffff84007ef0:	86a2                	mv	a3,s0
ffffffff84007ef2:	7402                	ld	s0,32(sp)
ffffffff84007ef4:	6502                	ld	a0,0(sp)
ffffffff84007ef6:	65a2                	ld	a1,8(sp)
ffffffff84007ef8:	70a2                	ld	ra,40(sp)
ffffffff84007efa:	8626                	mv	a2,s1
ffffffff84007efc:	64e2                	ld	s1,24(sp)
ffffffff84007efe:	6145                	add	sp,sp,48
ffffffff84007f00:	cbbfc06f          	j	ffffffff84004bba <cteInsert>

ffffffff84007f04 <decodeIRQHandlerInvocation>:
ffffffff84007f04:	7139                	add	sp,sp,-64
ffffffff84007f06:	f822                	sd	s0,48(sp)
ffffffff84007f08:	fc06                	sd	ra,56(sp)
ffffffff84007f0a:	f426                	sd	s1,40(sp)
ffffffff84007f0c:	f04a                	sd	s2,32(sp)
ffffffff84007f0e:	ec4e                	sd	s3,24(sp)
ffffffff84007f10:	47ed                	li	a5,27
ffffffff84007f12:	842e                	mv	s0,a1
ffffffff84007f14:	08f50063          	beq	a0,a5,ffffffff84007f94 <decodeIRQHandlerInvocation+0x90>
ffffffff84007f18:	47f1                	li	a5,28
ffffffff84007f1a:	04f50863          	beq	a0,a5,ffffffff84007f6a <decodeIRQHandlerInvocation+0x66>
ffffffff84007f1e:	47e9                	li	a5,26
ffffffff84007f20:	00f50d63          	beq	a0,a5,ffffffff84007f3a <decodeIRQHandlerInvocation+0x36>
ffffffff84007f24:	478d                	li	a5,3
ffffffff84007f26:	d6f1b023          	sd	a5,-672(gp) # ffffffff8400b010 <current_syscall_error+0x30>
ffffffff84007f2a:	450d                	li	a0,3
ffffffff84007f2c:	70e2                	ld	ra,56(sp)
ffffffff84007f2e:	7442                	ld	s0,48(sp)
ffffffff84007f30:	74a2                	ld	s1,40(sp)
ffffffff84007f32:	7902                	ld	s2,32(sp)
ffffffff84007f34:	69e2                	ld	s3,24(sp)
ffffffff84007f36:	6121                	add	sp,sp,64
ffffffff84007f38:	8082                	ret
ffffffff84007f3a:	aa01b503          	ld	a0,-1376(gp) # ffffffff8400ad50 <ksCurThread>
ffffffff84007f3e:	11853783          	ld	a5,280(a0)
ffffffff84007f42:	9bc1                	and	a5,a5,-16
ffffffff84007f44:	0027e793          	or	a5,a5,2
ffffffff84007f48:	10f53c23          	sd	a5,280(a0)
ffffffff84007f4c:	e1bfd0ef          	jal	ffffffff84005d66 <scheduleTCB>
ffffffff84007f50:	0004059b          	sext.w	a1,s0
ffffffff84007f54:	c04027b7          	lui	a5,0xc0402
ffffffff84007f58:	c3cc                	sw	a1,4(a5)
ffffffff84007f5a:	4501                	li	a0,0
ffffffff84007f5c:	70e2                	ld	ra,56(sp)
ffffffff84007f5e:	7442                	ld	s0,48(sp)
ffffffff84007f60:	74a2                	ld	s1,40(sp)
ffffffff84007f62:	7902                	ld	s2,32(sp)
ffffffff84007f64:	69e2                	ld	s3,24(sp)
ffffffff84007f66:	6121                	add	sp,sp,64
ffffffff84007f68:	8082                	ret
ffffffff84007f6a:	aa01b503          	ld	a0,-1376(gp) # ffffffff8400ad50 <ksCurThread>
ffffffff84007f6e:	11853783          	ld	a5,280(a0)
ffffffff84007f72:	0416                	sll	s0,s0,0x5
ffffffff84007f74:	9bc1                	and	a5,a5,-16
ffffffff84007f76:	0027e793          	or	a5,a5,2
ffffffff84007f7a:	10f53c23          	sd	a5,280(a0)
ffffffff84007f7e:	de9fd0ef          	jal	ffffffff84005d66 <scheduleTCB>
ffffffff84007f82:	00004517          	auipc	a0,0x4
ffffffff84007f86:	07e50513          	add	a0,a0,126 # ffffffff8400c000 <intStateIRQNode>
ffffffff84007f8a:	9522                	add	a0,a0,s0
ffffffff84007f8c:	acbff0ef          	jal	ffffffff84007a56 <cteDeleteOne>
ffffffff84007f90:	4501                	li	a0,0
ffffffff84007f92:	b7e9                	j	ffffffff84007f5c <decodeIRQHandlerInvocation+0x58>
ffffffff84007f94:	8981b483          	ld	s1,-1896(gp) # ffffffff8400ab48 <current_extra_caps>
ffffffff84007f98:	c0b5                	beqz	s1,ffffffff84007ffc <decodeIRQHandlerInvocation+0xf8>
ffffffff84007f9a:	0004b903          	ld	s2,0(s1)
ffffffff84007f9e:	4799                	li	a5,6
ffffffff84007fa0:	0084b983          	ld	s3,8(s1)
ffffffff84007fa4:	03b95713          	srl	a4,s2,0x3b
ffffffff84007fa8:	04f71463          	bne	a4,a5,ffffffff84007ff0 <decodeIRQHandlerInvocation+0xec>
ffffffff84007fac:	03995793          	srl	a5,s2,0x39
ffffffff84007fb0:	8b85                	and	a5,a5,1
ffffffff84007fb2:	cf9d                	beqz	a5,ffffffff84007ff0 <decodeIRQHandlerInvocation+0xec>
ffffffff84007fb4:	aa01b503          	ld	a0,-1376(gp) # ffffffff8400ad50 <ksCurThread>
ffffffff84007fb8:	11853783          	ld	a5,280(a0)
ffffffff84007fbc:	0416                	sll	s0,s0,0x5
ffffffff84007fbe:	9bc1                	and	a5,a5,-16
ffffffff84007fc0:	0027e793          	or	a5,a5,2
ffffffff84007fc4:	10f53c23          	sd	a5,280(a0)
ffffffff84007fc8:	d9ffd0ef          	jal	ffffffff84005d66 <scheduleTCB>
ffffffff84007fcc:	00004797          	auipc	a5,0x4
ffffffff84007fd0:	03478793          	add	a5,a5,52 # ffffffff8400c000 <intStateIRQNode>
ffffffff84007fd4:	943e                	add	s0,s0,a5
ffffffff84007fd6:	8522                	mv	a0,s0
ffffffff84007fd8:	e04a                	sd	s2,0(sp)
ffffffff84007fda:	e44e                	sd	s3,8(sp)
ffffffff84007fdc:	a7bff0ef          	jal	ffffffff84007a56 <cteDeleteOne>
ffffffff84007fe0:	6502                	ld	a0,0(sp)
ffffffff84007fe2:	65a2                	ld	a1,8(sp)
ffffffff84007fe4:	86a2                	mv	a3,s0
ffffffff84007fe6:	8626                	mv	a2,s1
ffffffff84007fe8:	bd3fc0ef          	jal	ffffffff84004bba <cteInsert>
ffffffff84007fec:	4501                	li	a0,0
ffffffff84007fee:	bf3d                	j	ffffffff84007f2c <decodeIRQHandlerInvocation+0x28>
ffffffff84007ff0:	4789                	li	a5,2
ffffffff84007ff2:	d6f1b023          	sd	a5,-672(gp) # ffffffff8400b010 <current_syscall_error+0x30>
ffffffff84007ff6:	d201bc23          	sd	zero,-712(gp) # ffffffff8400afe8 <current_syscall_error+0x8>
ffffffff84007ffa:	bf05                	j	ffffffff84007f2a <decodeIRQHandlerInvocation+0x26>
ffffffff84007ffc:	479d                	li	a5,7
ffffffff84007ffe:	d6f1b023          	sd	a5,-672(gp) # ffffffff8400b010 <current_syscall_error+0x30>
ffffffff84008002:	b725                	j	ffffffff84007f2a <decodeIRQHandlerInvocation+0x26>

ffffffff84008004 <deletingIRQHandler>:
ffffffff84008004:	715d                	add	sp,sp,-80
ffffffff84008006:	00004797          	auipc	a5,0x4
ffffffff8400800a:	ffa78793          	add	a5,a5,-6 # ffffffff8400c000 <intStateIRQNode>
ffffffff8400800e:	e0a2                	sd	s0,64(sp)
ffffffff84008010:	00551413          	sll	s0,a0,0x5
ffffffff84008014:	943e                	add	s0,s0,a5
ffffffff84008016:	fc26                	sd	s1,56(sp)
ffffffff84008018:	6004                	ld	s1,0(s0)
ffffffff8400801a:	e486                	sd	ra,72(sp)
ffffffff8400801c:	03b4d793          	srl	a5,s1,0x3b
ffffffff84008020:	e791                	bnez	a5,ffffffff8400802c <deletingIRQHandler+0x28>
ffffffff84008022:	60a6                	ld	ra,72(sp)
ffffffff84008024:	6406                	ld	s0,64(sp)
ffffffff84008026:	74e2                	ld	s1,56(sp)
ffffffff84008028:	6161                	add	sp,sp,80
ffffffff8400802a:	8082                	ret
ffffffff8400802c:	8522                	mv	a0,s0
ffffffff8400802e:	afbfd0ef          	jal	ffffffff84005b28 <isFinalCapability>
ffffffff84008032:	6410                	ld	a2,8(s0)
ffffffff84008034:	85a6                	mv	a1,s1
ffffffff84008036:	86aa                	mv	a3,a0
ffffffff84008038:	4705                	li	a4,1
ffffffff8400803a:	850a                	mv	a0,sp
ffffffff8400803c:	8beff0ef          	jal	ffffffff840070fa <finaliseCap>
ffffffff84008040:	8522                	mv	a0,s0
ffffffff84008042:	6406                	ld	s0,64(sp)
ffffffff84008044:	60a6                	ld	ra,72(sp)
ffffffff84008046:	74e2                	ld	s1,56(sp)
ffffffff84008048:	4581                	li	a1,0
ffffffff8400804a:	4601                	li	a2,0
ffffffff8400804c:	6161                	add	sp,sp,80
ffffffff8400804e:	fd4fb06f          	j	ffffffff84003822 <emptySlot>

ffffffff84008052 <invokeIRQHandler_ClearIRQHandler>:
ffffffff84008052:	715d                	add	sp,sp,-80
ffffffff84008054:	00004797          	auipc	a5,0x4
ffffffff84008058:	fac78793          	add	a5,a5,-84 # ffffffff8400c000 <intStateIRQNode>
ffffffff8400805c:	e0a2                	sd	s0,64(sp)
ffffffff8400805e:	00551413          	sll	s0,a0,0x5
ffffffff84008062:	943e                	add	s0,s0,a5
ffffffff84008064:	fc26                	sd	s1,56(sp)
ffffffff84008066:	6004                	ld	s1,0(s0)
ffffffff84008068:	e486                	sd	ra,72(sp)
ffffffff8400806a:	03b4d793          	srl	a5,s1,0x3b
ffffffff8400806e:	e791                	bnez	a5,ffffffff8400807a <invokeIRQHandler_ClearIRQHandler+0x28>
ffffffff84008070:	60a6                	ld	ra,72(sp)
ffffffff84008072:	6406                	ld	s0,64(sp)
ffffffff84008074:	74e2                	ld	s1,56(sp)
ffffffff84008076:	6161                	add	sp,sp,80
ffffffff84008078:	8082                	ret
ffffffff8400807a:	8522                	mv	a0,s0
ffffffff8400807c:	aadfd0ef          	jal	ffffffff84005b28 <isFinalCapability>
ffffffff84008080:	6410                	ld	a2,8(s0)
ffffffff84008082:	85a6                	mv	a1,s1
ffffffff84008084:	86aa                	mv	a3,a0
ffffffff84008086:	4705                	li	a4,1
ffffffff84008088:	850a                	mv	a0,sp
ffffffff8400808a:	870ff0ef          	jal	ffffffff840070fa <finaliseCap>
ffffffff8400808e:	8522                	mv	a0,s0
ffffffff84008090:	6406                	ld	s0,64(sp)
ffffffff84008092:	60a6                	ld	ra,72(sp)
ffffffff84008094:	74e2                	ld	s1,56(sp)
ffffffff84008096:	4581                	li	a1,0
ffffffff84008098:	4601                	li	a2,0
ffffffff8400809a:	6161                	add	sp,sp,80
ffffffff8400809c:	f86fb06f          	j	ffffffff84003822 <emptySlot>

ffffffff840080a0 <tcbEPAppend>:
ffffffff840080a0:	87ae                	mv	a5,a1
ffffffff840080a2:	1101                	add	sp,sp,-32
ffffffff840080a4:	85aa                	mv	a1,a0
ffffffff840080a6:	cb91                	beqz	a5,ffffffff840080ba <tcbEPAppend+0x1a>
ffffffff840080a8:	18a63c23          	sd	a0,408(a2)
ffffffff840080ac:	1ac5b023          	sd	a2,416(a1)
ffffffff840080b0:	1805bc23          	sd	zero,408(a1)
ffffffff840080b4:	853e                	mv	a0,a5
ffffffff840080b6:	6105                	add	sp,sp,32
ffffffff840080b8:	8082                	ret
ffffffff840080ba:	87aa                	mv	a5,a0
ffffffff840080bc:	1ac5b023          	sd	a2,416(a1)
ffffffff840080c0:	1805bc23          	sd	zero,408(a1)
ffffffff840080c4:	853e                	mv	a0,a5
ffffffff840080c6:	6105                	add	sp,sp,32
ffffffff840080c8:	8082                	ret

ffffffff840080ca <tcbEPDequeue>:
ffffffff840080ca:	19853783          	ld	a5,408(a0)
ffffffff840080ce:	1a053703          	ld	a4,416(a0)
ffffffff840080d2:	1101                	add	sp,sp,-32
ffffffff840080d4:	853e                	mv	a0,a5
ffffffff840080d6:	c701                	beqz	a4,ffffffff840080de <tcbEPDequeue+0x14>
ffffffff840080d8:	852e                	mv	a0,a1
ffffffff840080da:	18f73c23          	sd	a5,408(a4)
ffffffff840080de:	c791                	beqz	a5,ffffffff840080ea <tcbEPDequeue+0x20>
ffffffff840080e0:	1ae7b023          	sd	a4,416(a5)
ffffffff840080e4:	85b2                	mv	a1,a2
ffffffff840080e6:	6105                	add	sp,sp,32
ffffffff840080e8:	8082                	ret
ffffffff840080ea:	863a                	mv	a2,a4
ffffffff840080ec:	85b2                	mv	a1,a2
ffffffff840080ee:	6105                	add	sp,sp,32
ffffffff840080f0:	8082                	ret

ffffffff840080f2 <getExtraCPtr>:
ffffffff840080f2:	07a58593          	add	a1,a1,122
ffffffff840080f6:	058e                	sll	a1,a1,0x3
ffffffff840080f8:	952e                	add	a0,a0,a1
ffffffff840080fa:	6108                	ld	a0,0(a0)
ffffffff840080fc:	8082                	ret

ffffffff840080fe <setExtraBadge>:
ffffffff840080fe:	07a60613          	add	a2,a2,122
ffffffff84008102:	060e                	sll	a2,a2,0x3
ffffffff84008104:	9532                	add	a0,a0,a2
ffffffff84008106:	e10c                	sd	a1,0(a0)
ffffffff84008108:	8082                	ret

ffffffff8400810a <setupCallerCap>:
ffffffff8400810a:	11853783          	ld	a5,280(a0)
ffffffff8400810e:	7179                	add	sp,sp,-48
ffffffff84008110:	f022                	sd	s0,32(sp)
ffffffff84008112:	9bc1                	and	a5,a5,-16
ffffffff84008114:	ec26                	sd	s1,24(sp)
ffffffff84008116:	e84a                	sd	s2,16(sp)
ffffffff84008118:	f406                	sd	ra,40(sp)
ffffffff8400811a:	0057e793          	or	a5,a5,5
ffffffff8400811e:	10f53c23          	sd	a5,280(a0)
ffffffff84008122:	84aa                	mv	s1,a0
ffffffff84008124:	8432                	mv	s0,a2
ffffffff84008126:	892e                	mv	s2,a1
ffffffff84008128:	c3ffd0ef          	jal	ffffffff84005d66 <scheduleTCB>
ffffffff8400812c:	00141793          	sll	a5,s0,0x1
ffffffff84008130:	7402                	ld	s0,32(sp)
ffffffff84008132:	70a2                	ld	ra,40(sp)
ffffffff84008134:	c0097693          	and	a3,s2,-1024
ffffffff84008138:	c004f613          	and	a2,s1,-1024
ffffffff8400813c:	6942                	ld	s2,16(sp)
ffffffff8400813e:	4505                	li	a0,1
ffffffff84008140:	85a6                	mv	a1,s1
ffffffff84008142:	64e2                	ld	s1,24(sp)
ffffffff84008144:	8b89                	and	a5,a5,2
ffffffff84008146:	157a                	sll	a0,a0,0x3e
ffffffff84008148:	06068693          	add	a3,a3,96 # ffffffffc0402060 <ki_end+0x3c3e0060>
ffffffff8400814c:	04060613          	add	a2,a2,64
ffffffff84008150:	8d5d                	or	a0,a0,a5
ffffffff84008152:	6145                	add	sp,sp,48
ffffffff84008154:	a67fc06f          	j	ffffffff84004bba <cteInsert>

ffffffff84008158 <deleteCallerCap>:
ffffffff84008158:	715d                	add	sp,sp,-80
ffffffff8400815a:	c0057513          	and	a0,a0,-1024
ffffffff8400815e:	fc26                	sd	s1,56(sp)
ffffffff84008160:	7124                	ld	s1,96(a0)
ffffffff84008162:	e486                	sd	ra,72(sp)
ffffffff84008164:	e0a2                	sd	s0,64(sp)
ffffffff84008166:	03b4d793          	srl	a5,s1,0x3b
ffffffff8400816a:	e791                	bnez	a5,ffffffff84008176 <deleteCallerCap+0x1e>
ffffffff8400816c:	60a6                	ld	ra,72(sp)
ffffffff8400816e:	6406                	ld	s0,64(sp)
ffffffff84008170:	74e2                	ld	s1,56(sp)
ffffffff84008172:	6161                	add	sp,sp,80
ffffffff84008174:	8082                	ret
ffffffff84008176:	06050413          	add	s0,a0,96
ffffffff8400817a:	8522                	mv	a0,s0
ffffffff8400817c:	9adfd0ef          	jal	ffffffff84005b28 <isFinalCapability>
ffffffff84008180:	6410                	ld	a2,8(s0)
ffffffff84008182:	85a6                	mv	a1,s1
ffffffff84008184:	86aa                	mv	a3,a0
ffffffff84008186:	4705                	li	a4,1
ffffffff84008188:	850a                	mv	a0,sp
ffffffff8400818a:	f71fe0ef          	jal	ffffffff840070fa <finaliseCap>
ffffffff8400818e:	8522                	mv	a0,s0
ffffffff84008190:	6406                	ld	s0,64(sp)
ffffffff84008192:	60a6                	ld	ra,72(sp)
ffffffff84008194:	74e2                	ld	s1,56(sp)
ffffffff84008196:	4581                	li	a1,0
ffffffff84008198:	4601                	li	a2,0
ffffffff8400819a:	6161                	add	sp,sp,80
ffffffff8400819c:	e86fb06f          	j	ffffffff84003822 <emptySlot>

ffffffff840081a0 <lookupExtraCaps>:
ffffffff840081a0:	c5d9                	beqz	a1,ffffffff8400822e <lookupExtraCaps+0x8e>
ffffffff840081a2:	7159                	add	sp,sp,-112
ffffffff840081a4:	821d                	srl	a2,a2,0x7
ffffffff840081a6:	fc56                	sd	s5,56(sp)
ffffffff840081a8:	f486                	sd	ra,104(sp)
ffffffff840081aa:	f0a2                	sd	s0,96(sp)
ffffffff840081ac:	eca6                	sd	s1,88(sp)
ffffffff840081ae:	e8ca                	sd	s2,80(sp)
ffffffff840081b0:	e4ce                	sd	s3,72(sp)
ffffffff840081b2:	e0d2                	sd	s4,64(sp)
ffffffff840081b4:	f85a                	sd	s6,48(sp)
ffffffff840081b6:	00367a93          	and	s5,a2,3
ffffffff840081ba:	060a8e63          	beqz	s5,ffffffff84008236 <lookupExtraCaps+0x96>
ffffffff840081be:	89818b13          	add	s6,gp,-1896 # ffffffff8400ab48 <current_extra_caps>
ffffffff840081c2:	c0057993          	and	s3,a0,-1024
ffffffff840081c6:	3d058413          	add	s0,a1,976
ffffffff840081ca:	895a                	mv	s2,s6
ffffffff840081cc:	4481                	li	s1,0
ffffffff840081ce:	a039                	j	ffffffff840081dc <lookupExtraCaps+0x3c>
ffffffff840081d0:	00f93023          	sd	a5,0(s2)
ffffffff840081d4:	0421                	add	s0,s0,8
ffffffff840081d6:	0921                	add	s2,s2,8
ffffffff840081d8:	05548263          	beq	s1,s5,ffffffff8400821c <lookupExtraCaps+0x7c>
ffffffff840081dc:	00043a03          	ld	s4,0(s0)
ffffffff840081e0:	0009b583          	ld	a1,0(s3)
ffffffff840081e4:	0089b603          	ld	a2,8(s3)
ffffffff840081e8:	0828                	add	a0,sp,24
ffffffff840081ea:	04000713          	li	a4,64
ffffffff840081ee:	86d2                	mv	a3,s4
ffffffff840081f0:	e68fc0ef          	jal	ffffffff84004858 <resolveAddressBits>
ffffffff840081f4:	6562                	ld	a0,24(sp)
ffffffff840081f6:	7782                	ld	a5,32(sp)
ffffffff840081f8:	0485                	add	s1,s1,1
ffffffff840081fa:	d979                	beqz	a0,ffffffff840081d0 <lookupExtraCaps+0x30>
ffffffff840081fc:	d6818793          	add	a5,gp,-664 # ffffffff8400b018 <current_fault>
ffffffff84008200:	4705                	li	a4,1
ffffffff84008202:	e398                	sd	a4,0(a5)
ffffffff84008204:	0147b423          	sd	s4,8(a5)
ffffffff84008208:	70a6                	ld	ra,104(sp)
ffffffff8400820a:	7406                	ld	s0,96(sp)
ffffffff8400820c:	64e6                	ld	s1,88(sp)
ffffffff8400820e:	6946                	ld	s2,80(sp)
ffffffff84008210:	69a6                	ld	s3,72(sp)
ffffffff84008212:	6a06                	ld	s4,64(sp)
ffffffff84008214:	7ae2                	ld	s5,56(sp)
ffffffff84008216:	7b42                	ld	s6,48(sp)
ffffffff84008218:	6165                	add	sp,sp,112
ffffffff8400821a:	8082                	ret
ffffffff8400821c:	478d                	li	a5,3
ffffffff8400821e:	00f48663          	beq	s1,a5,ffffffff8400822a <lookupExtraCaps+0x8a>
ffffffff84008222:	048e                	sll	s1,s1,0x3
ffffffff84008224:	9b26                	add	s6,s6,s1
ffffffff84008226:	000b3023          	sd	zero,0(s6)
ffffffff8400822a:	4501                	li	a0,0
ffffffff8400822c:	bff1                	j	ffffffff84008208 <lookupExtraCaps+0x68>
ffffffff8400822e:	8801bc23          	sd	zero,-1896(gp) # ffffffff8400ab48 <current_extra_caps>
ffffffff84008232:	4501                	li	a0,0
ffffffff84008234:	8082                	ret
ffffffff84008236:	4481                	li	s1,0
ffffffff84008238:	89818b13          	add	s6,gp,-1896 # ffffffff8400ab48 <current_extra_caps>
ffffffff8400823c:	b7dd                	j	ffffffff84008222 <lookupExtraCaps+0x82>

ffffffff8400823e <copyMRs>:
ffffffff8400823e:	cf29                	beqz	a4,ffffffff84008298 <copyMRs+0x5a>
ffffffff84008240:	05853803          	ld	a6,88(a0)
ffffffff84008244:	4785                	li	a5,1
ffffffff84008246:	05063c23          	sd	a6,88(a2)
ffffffff8400824a:	04f70763          	beq	a4,a5,ffffffff84008298 <copyMRs+0x5a>
ffffffff8400824e:	06053803          	ld	a6,96(a0)
ffffffff84008252:	4789                	li	a5,2
ffffffff84008254:	07063023          	sd	a6,96(a2)
ffffffff84008258:	04f70063          	beq	a4,a5,ffffffff84008298 <copyMRs+0x5a>
ffffffff8400825c:	06853803          	ld	a6,104(a0)
ffffffff84008260:	478d                	li	a5,3
ffffffff84008262:	07063423          	sd	a6,104(a2)
ffffffff84008266:	02f70963          	beq	a4,a5,ffffffff84008298 <copyMRs+0x5a>
ffffffff8400826a:	7928                	ld	a0,112(a0)
ffffffff8400826c:	4791                	li	a5,4
ffffffff8400826e:	fa28                	sd	a0,112(a2)
ffffffff84008270:	02f70463          	beq	a4,a5,ffffffff84008298 <copyMRs+0x5a>
ffffffff84008274:	c685                	beqz	a3,ffffffff8400829c <copyMRs+0x5e>
ffffffff84008276:	c19d                	beqz	a1,ffffffff8400829c <copyMRs+0x5e>
ffffffff84008278:	00170513          	add	a0,a4,1
ffffffff8400827c:	050e                	sll	a0,a0,0x3
ffffffff8400827e:	02800793          	li	a5,40
ffffffff84008282:	00f58633          	add	a2,a1,a5
ffffffff84008286:	00063803          	ld	a6,0(a2)
ffffffff8400828a:	00f68633          	add	a2,a3,a5
ffffffff8400828e:	07a1                	add	a5,a5,8
ffffffff84008290:	01063023          	sd	a6,0(a2)
ffffffff84008294:	fea797e3          	bne	a5,a0,ffffffff84008282 <copyMRs+0x44>
ffffffff84008298:	853a                	mv	a0,a4
ffffffff8400829a:	8082                	ret
ffffffff8400829c:	4711                	li	a4,4
ffffffff8400829e:	853a                	mv	a0,a4
ffffffff840082a0:	8082                	ret

ffffffff840082a2 <doNormalTransfer>:
ffffffff840082a2:	7171                	add	sp,sp,-176
ffffffff840082a4:	fcd6                	sd	s5,120(sp)
ffffffff840082a6:	05053a83          	ld	s5,80(a0)
ffffffff840082aa:	f122                	sd	s0,160(sp)
ffffffff840082ac:	ed26                	sd	s1,152(sp)
ffffffff840082ae:	e94a                	sd	s2,144(sp)
ffffffff840082b0:	e54e                	sd	s3,136(sp)
ffffffff840082b2:	e152                	sd	s4,128(sp)
ffffffff840082b4:	f8da                	sd	s6,112(sp)
ffffffff840082b6:	f506                	sd	ra,168(sp)
ffffffff840082b8:	f4de                	sd	s7,104(sp)
ffffffff840082ba:	f0e2                	sd	s8,96(sp)
ffffffff840082bc:	ece6                	sd	s9,88(sp)
ffffffff840082be:	e8ea                	sd	s10,80(sp)
ffffffff840082c0:	e4ee                	sd	s11,72(sp)
ffffffff840082c2:	07faf413          	and	s0,s5,127
ffffffff840082c6:	07800313          	li	t1,120
ffffffff840082ca:	8b2a                	mv	s6,a0
ffffffff840082cc:	89b2                	mv	s3,a2
ffffffff840082ce:	8936                	mv	s2,a3
ffffffff840082d0:	88ba                	mv	a7,a4
ffffffff840082d2:	8a3e                	mv	s4,a5
ffffffff840082d4:	84c2                	mv	s1,a6
ffffffff840082d6:	00837863          	bgeu	t1,s0,ffffffff840082e6 <doNormalTransfer+0x44>
ffffffff840082da:	f80afa93          	and	s5,s5,-128
ffffffff840082de:	078aea93          	or	s5,s5,120
ffffffff840082e2:	07800413          	li	s0,120
ffffffff840082e6:	04089863          	bnez	a7,ffffffff84008336 <doNormalTransfer+0x94>
ffffffff840082ea:	8722                	mv	a4,s0
ffffffff840082ec:	855a                	mv	a0,s6
ffffffff840082ee:	86a6                	mv	a3,s1
ffffffff840082f0:	8652                	mv	a2,s4
ffffffff840082f2:	747d                	lui	s0,0xfffff
ffffffff840082f4:	8801bc23          	sd	zero,-1896(gp) # ffffffff8400ab48 <current_extra_caps>
ffffffff840082f8:	07f40413          	add	s0,s0,127 # fffffffffffff07f <ki_end+0x7bfdd07f>
ffffffff840082fc:	f43ff0ef          	jal	ffffffff8400823e <copyMRs>
ffffffff84008300:	8b2a                	mv	s6,a0
ffffffff84008302:	008af433          	and	s0,s5,s0
ffffffff84008306:	07fb7513          	and	a0,s6,127
ffffffff8400830a:	f8047413          	and	s0,s0,-128
ffffffff8400830e:	8c49                	or	s0,s0,a0
ffffffff84008310:	048a3823          	sd	s0,80(s4)
ffffffff84008314:	70aa                	ld	ra,168(sp)
ffffffff84008316:	740a                	ld	s0,160(sp)
ffffffff84008318:	052a3423          	sd	s2,72(s4)
ffffffff8400831c:	64ea                	ld	s1,152(sp)
ffffffff8400831e:	694a                	ld	s2,144(sp)
ffffffff84008320:	69aa                	ld	s3,136(sp)
ffffffff84008322:	6a0a                	ld	s4,128(sp)
ffffffff84008324:	7ae6                	ld	s5,120(sp)
ffffffff84008326:	7b46                	ld	s6,112(sp)
ffffffff84008328:	7ba6                	ld	s7,104(sp)
ffffffff8400832a:	7c06                	ld	s8,96(sp)
ffffffff8400832c:	6ce6                	ld	s9,88(sp)
ffffffff8400832e:	6d46                	ld	s10,80(sp)
ffffffff84008330:	6da6                	ld	s11,72(sp)
ffffffff84008332:	614d                	add	sp,sp,176
ffffffff84008334:	8082                	ret
ffffffff84008336:	8656                	mv	a2,s5
ffffffff84008338:	855a                	mv	a0,s6
ffffffff8400833a:	e42e                	sd	a1,8(sp)
ffffffff8400833c:	e65ff0ef          	jal	ffffffff840081a0 <lookupExtraCaps>
ffffffff84008340:	65a2                	ld	a1,8(sp)
ffffffff84008342:	8caa                	mv	s9,a0
ffffffff84008344:	f15d                	bnez	a0,ffffffff840082ea <doNormalTransfer+0x48>
ffffffff84008346:	89818b93          	add	s7,gp,-1896 # ffffffff8400ab48 <current_extra_caps>
ffffffff8400834a:	000bbc03          	ld	s8,0(s7)
ffffffff8400834e:	8722                	mv	a4,s0
ffffffff84008350:	855a                	mv	a0,s6
ffffffff84008352:	86a6                	mv	a3,s1
ffffffff84008354:	8652                	mv	a2,s4
ffffffff84008356:	747d                	lui	s0,0xfffff
ffffffff84008358:	ee7ff0ef          	jal	ffffffff8400823e <copyMRs>
ffffffff8400835c:	07f40413          	add	s0,s0,127 # fffffffffffff07f <ki_end+0x7bfdd07f>
ffffffff84008360:	8b2a                	mv	s6,a0
ffffffff84008362:	008af433          	and	s0,s5,s0
ffffffff84008366:	fa0c00e3          	beqz	s8,ffffffff84008306 <doNormalTransfer+0x64>
ffffffff8400836a:	dcd1                	beqz	s1,ffffffff84008306 <doNormalTransfer+0x64>
ffffffff8400836c:	85a6                	mv	a1,s1
ffffffff8400836e:	8552                	mv	a0,s4
ffffffff84008370:	c37fc0ef          	jal	ffffffff84004fa6 <getReceiveSlots>
ffffffff84008374:	8daa                	mv	s11,a0
ffffffff84008376:	3d048493          	add	s1,s1,976
ffffffff8400837a:	4c11                	li	s8,4
ffffffff8400837c:	4d0d                	li	s10,3
ffffffff8400837e:	000bba83          	ld	s5,0(s7)
ffffffff84008382:	080a8563          	beqz	s5,ffffffff8400840c <doNormalTransfer+0x16a>
ffffffff84008386:	000ab783          	ld	a5,0(s5)
ffffffff8400838a:	008ab703          	ld	a4,8(s5)
ffffffff8400838e:	ec3e                	sd	a5,24(sp)
ffffffff84008390:	f03a                	sd	a4,32(sp)
ffffffff84008392:	03b7d693          	srl	a3,a5,0x3b
ffffffff84008396:	03868f63          	beq	a3,s8,ffffffff840083d4 <doNormalTransfer+0x132>
ffffffff8400839a:	060d8963          	beqz	s11,ffffffff8400840c <doNormalTransfer+0x16a>
ffffffff8400839e:	6662                	ld	a2,24(sp)
ffffffff840083a0:	7682                	ld	a3,32(sp)
ffffffff840083a2:	85d6                	mv	a1,s5
ffffffff840083a4:	1028                	add	a0,sp,40
ffffffff840083a6:	ec4fd0ef          	jal	ffffffff84005a6a <deriveCap>
ffffffff840083aa:	77a2                	ld	a5,40(sp)
ffffffff840083ac:	e3a5                	bnez	a5,ffffffff8400840c <doNormalTransfer+0x16a>
ffffffff840083ae:	7542                	ld	a0,48(sp)
ffffffff840083b0:	03b55793          	srl	a5,a0,0x3b
ffffffff840083b4:	cfa1                	beqz	a5,ffffffff8400840c <doNormalTransfer+0x16a>
ffffffff840083b6:	75e2                	ld	a1,56(sp)
ffffffff840083b8:	86ee                	mv	a3,s11
ffffffff840083ba:	8656                	mv	a2,s5
ffffffff840083bc:	ffefc0ef          	jal	ffffffff84004bba <cteInsert>
ffffffff840083c0:	4d81                	li	s11,0
ffffffff840083c2:	0c85                	add	s9,s9,1
ffffffff840083c4:	0ba1                	add	s7,s7,8
ffffffff840083c6:	04a1                	add	s1,s1,8
ffffffff840083c8:	fbac9be3          	bne	s9,s10,ffffffff8400837e <doNormalTransfer+0xdc>
ffffffff840083cc:	18000513          	li	a0,384
ffffffff840083d0:	8c49                	or	s0,s0,a0
ffffffff840083d2:	bf15                	j	ffffffff84008306 <doNormalTransfer+0x64>
ffffffff840083d4:	0267d613          	srl	a2,a5,0x26
ffffffff840083d8:	56fd                	li	a3,-1
ffffffff840083da:	0196d593          	srl	a1,a3,0x19
ffffffff840083de:	8a05                	and	a2,a2,1
ffffffff840083e0:	8fed                	and	a5,a5,a1
ffffffff840083e2:	c219                	beqz	a2,ffffffff840083e8 <doNormalTransfer+0x146>
ffffffff840083e4:	169e                	sll	a3,a3,0x27
ffffffff840083e6:	8fd5                	or	a5,a5,a3
ffffffff840083e8:	faf999e3          	bne	s3,a5,ffffffff8400839a <doNormalTransfer+0xf8>
ffffffff840083ec:	00945793          	srl	a5,s0,0x9
ffffffff840083f0:	4685                	li	a3,1
ffffffff840083f2:	019696bb          	sllw	a3,a3,s9
ffffffff840083f6:	8b9d                	and	a5,a5,7
ffffffff840083f8:	8fd5                	or	a5,a5,a3
ffffffff840083fa:	76fd                	lui	a3,0xfffff
ffffffff840083fc:	1ff68693          	add	a3,a3,511 # fffffffffffff1ff <ki_end+0x7bfdd1ff>
ffffffff84008400:	07a6                	sll	a5,a5,0x9
ffffffff84008402:	8ee1                	and	a3,a3,s0
ffffffff84008404:	e098                	sd	a4,0(s1)
ffffffff84008406:	00d7e433          	or	s0,a5,a3
ffffffff8400840a:	bf65                	j	ffffffff840083c2 <doNormalTransfer+0x120>
ffffffff8400840c:	007c9513          	sll	a0,s9,0x7
ffffffff84008410:	8c49                	or	s0,s0,a0
ffffffff84008412:	bdd5                	j	ffffffff84008306 <doNormalTransfer+0x64>

ffffffff84008414 <doIPCTransfer>:
ffffffff84008414:	7139                	add	sp,sp,-64
ffffffff84008416:	f822                	sd	s0,48(sp)
ffffffff84008418:	e852                	sd	s4,16(sp)
ffffffff8400841a:	842a                	mv	s0,a0
ffffffff8400841c:	8a2e                	mv	s4,a1
ffffffff8400841e:	4505                	li	a0,1
ffffffff84008420:	85ba                	mv	a1,a4
ffffffff84008422:	f426                	sd	s1,40(sp)
ffffffff84008424:	f04a                	sd	s2,32(sp)
ffffffff84008426:	ec4e                	sd	s3,24(sp)
ffffffff84008428:	e456                	sd	s5,8(sp)
ffffffff8400842a:	e05a                	sd	s6,0(sp)
ffffffff8400842c:	fc06                	sd	ra,56(sp)
ffffffff8400842e:	84ba                	mv	s1,a4
ffffffff84008430:	8932                	mv	s2,a2
ffffffff84008432:	8ab6                	mv	s5,a3
ffffffff84008434:	95dfb0ef          	jal	ffffffff84003d90 <lookupIPCBuffer>
ffffffff84008438:	13843b03          	ld	s6,312(s0)
ffffffff8400843c:	89aa                	mv	s3,a0
ffffffff8400843e:	00fb7793          	and	a5,s6,15
ffffffff84008442:	e795                	bnez	a5,ffffffff8400846e <doIPCTransfer+0x5a>
ffffffff84008444:	85a2                	mv	a1,s0
ffffffff84008446:	4501                	li	a0,0
ffffffff84008448:	949fb0ef          	jal	ffffffff84003d90 <lookupIPCBuffer>
ffffffff8400844c:	85aa                	mv	a1,a0
ffffffff8400844e:	8522                	mv	a0,s0
ffffffff84008450:	7442                	ld	s0,48(sp)
ffffffff84008452:	70e2                	ld	ra,56(sp)
ffffffff84008454:	6b02                	ld	s6,0(sp)
ffffffff84008456:	884e                	mv	a6,s3
ffffffff84008458:	87a6                	mv	a5,s1
ffffffff8400845a:	69e2                	ld	s3,24(sp)
ffffffff8400845c:	74a2                	ld	s1,40(sp)
ffffffff8400845e:	8756                	mv	a4,s5
ffffffff84008460:	86ca                	mv	a3,s2
ffffffff84008462:	6aa2                	ld	s5,8(sp)
ffffffff84008464:	7902                	ld	s2,32(sp)
ffffffff84008466:	8652                	mv	a2,s4
ffffffff84008468:	6a42                	ld	s4,16(sp)
ffffffff8400846a:	6121                	add	sp,sp,64
ffffffff8400846c:	bd1d                	j	ffffffff840082a2 <doNormalTransfer>
ffffffff8400846e:	862a                	mv	a2,a0
ffffffff84008470:	85a6                	mv	a1,s1
ffffffff84008472:	8522                	mv	a0,s0
ffffffff84008474:	811fb0ef          	jal	ffffffff84003c84 <setMRs_fault>
ffffffff84008478:	0b32                	sll	s6,s6,0xc
ffffffff8400847a:	67bd                	lui	a5,0xf
ffffffff8400847c:	70e2                	ld	ra,56(sp)
ffffffff8400847e:	7442                	ld	s0,48(sp)
ffffffff84008480:	00fb7b33          	and	s6,s6,a5
ffffffff84008484:	07f57513          	and	a0,a0,127
ffffffff84008488:	00ab6b33          	or	s6,s6,a0
ffffffff8400848c:	0564b823          	sd	s6,80(s1)
ffffffff84008490:	0524b423          	sd	s2,72(s1)
ffffffff84008494:	69e2                	ld	s3,24(sp)
ffffffff84008496:	74a2                	ld	s1,40(sp)
ffffffff84008498:	7902                	ld	s2,32(sp)
ffffffff8400849a:	6a42                	ld	s4,16(sp)
ffffffff8400849c:	6aa2                	ld	s5,8(sp)
ffffffff8400849e:	6b02                	ld	s6,0(sp)
ffffffff840084a0:	6121                	add	sp,sp,64
ffffffff840084a2:	8082                	ret

ffffffff840084a4 <doReplyTransfer>:
ffffffff840084a4:	1385b783          	ld	a5,312(a1)
ffffffff840084a8:	1101                	add	sp,sp,-32
ffffffff840084aa:	e822                	sd	s0,16(sp)
ffffffff840084ac:	e426                	sd	s1,8(sp)
ffffffff840084ae:	ec06                	sd	ra,24(sp)
ffffffff840084b0:	e04a                	sd	s2,0(sp)
ffffffff840084b2:	8bbd                	and	a5,a5,15
ffffffff840084b4:	842e                	mv	s0,a1
ffffffff840084b6:	84b2                	mv	s1,a2
ffffffff840084b8:	eb9d                	bnez	a5,ffffffff840084ee <doReplyTransfer+0x4a>
ffffffff840084ba:	872e                	mv	a4,a1
ffffffff840084bc:	4601                	li	a2,0
ffffffff840084be:	4581                	li	a1,0
ffffffff840084c0:	f55ff0ef          	jal	ffffffff84008414 <doIPCTransfer>
ffffffff840084c4:	8526                	mv	a0,s1
ffffffff840084c6:	d90ff0ef          	jal	ffffffff84007a56 <cteDeleteOne>
ffffffff840084ca:	11843783          	ld	a5,280(s0)
ffffffff840084ce:	8522                	mv	a0,s0
ffffffff840084d0:	9bc1                	and	a5,a5,-16
ffffffff840084d2:	0017e793          	or	a5,a5,1
ffffffff840084d6:	10f43c23          	sd	a5,280(s0)
ffffffff840084da:	88dfd0ef          	jal	ffffffff84005d66 <scheduleTCB>
ffffffff840084de:	8522                	mv	a0,s0
ffffffff840084e0:	6442                	ld	s0,16(sp)
ffffffff840084e2:	60e2                	ld	ra,24(sp)
ffffffff840084e4:	64a2                	ld	s1,8(sp)
ffffffff840084e6:	6902                	ld	s2,0(sp)
ffffffff840084e8:	6105                	add	sp,sp,32
ffffffff840084ea:	fd6fd06f          	j	ffffffff84005cc0 <possibleSwitchTo>
ffffffff840084ee:	892a                	mv	s2,a0
ffffffff840084f0:	8532                	mv	a0,a2
ffffffff840084f2:	d64ff0ef          	jal	ffffffff84007a56 <cteDeleteOne>
ffffffff840084f6:	85ca                	mv	a1,s2
ffffffff840084f8:	8522                	mv	a0,s0
ffffffff840084fa:	911fb0ef          	jal	ffffffff84003e0a <handleFaultReply>
ffffffff840084fe:	12043c23          	sd	zero,312(s0)
ffffffff84008502:	14043023          	sd	zero,320(s0)
ffffffff84008506:	11843783          	ld	a5,280(s0)
ffffffff8400850a:	c511                	beqz	a0,ffffffff84008516 <doReplyTransfer+0x72>
ffffffff8400850c:	9bc1                	and	a5,a5,-16
ffffffff8400850e:	8522                	mv	a0,s0
ffffffff84008510:	0027e793          	or	a5,a5,2
ffffffff84008514:	b7c9                	j	ffffffff840084d6 <doReplyTransfer+0x32>
ffffffff84008516:	9bc1                	and	a5,a5,-16
ffffffff84008518:	10f43c23          	sd	a5,280(s0)
ffffffff8400851c:	8522                	mv	a0,s0
ffffffff8400851e:	6442                	ld	s0,16(sp)
ffffffff84008520:	60e2                	ld	ra,24(sp)
ffffffff84008522:	64a2                	ld	s1,8(sp)
ffffffff84008524:	6902                	ld	s2,0(sp)
ffffffff84008526:	6105                	add	sp,sp,32
ffffffff84008528:	83ffd06f          	j	ffffffff84005d66 <scheduleTCB>

ffffffff8400852c <handleReply>:
ffffffff8400852c:	aa01b503          	ld	a0,-1376(gp) # ffffffff8400ad50 <ksCurThread>
ffffffff84008530:	c0057613          	and	a2,a0,-1024
ffffffff84008534:	7234                	ld	a3,96(a2)
ffffffff84008536:	03b6d793          	srl	a5,a3,0x3b
ffffffff8400853a:	cf89                	beqz	a5,ffffffff84008554 <handleReply+0x28>
ffffffff8400853c:	4721                	li	a4,8
ffffffff8400853e:	00e79c63          	bne	a5,a4,ffffffff84008556 <handleReply+0x2a>
ffffffff84008542:	0016f793          	and	a5,a3,1
ffffffff84008546:	eb81                	bnez	a5,ffffffff84008556 <handleReply+0x2a>
ffffffff84008548:	762c                	ld	a1,104(a2)
ffffffff8400854a:	8285                	srl	a3,a3,0x1
ffffffff8400854c:	06060613          	add	a2,a2,96
ffffffff84008550:	8a85                	and	a3,a3,1
ffffffff84008552:	bf89                	j	ffffffff840084a4 <doReplyTransfer>
ffffffff84008554:	8082                	ret
ffffffff84008556:	1141                	add	sp,sp,-16
ffffffff84008558:	e406                	sd	ra,8(sp)
ffffffff8400855a:	edcfb0ef          	jal	ffffffff84003c36 <halt>

ffffffff8400855e <performInvocation_Reply>:
ffffffff8400855e:	87aa                	mv	a5,a0
ffffffff84008560:	1141                	add	sp,sp,-16
ffffffff84008562:	86b2                	mv	a3,a2
ffffffff84008564:	aa01b503          	ld	a0,-1376(gp) # ffffffff8400ad50 <ksCurThread>
ffffffff84008568:	862e                	mv	a2,a1
ffffffff8400856a:	85be                	mv	a1,a5
ffffffff8400856c:	e406                	sd	ra,8(sp)
ffffffff8400856e:	f37ff0ef          	jal	ffffffff840084a4 <doReplyTransfer>
ffffffff84008572:	60a2                	ld	ra,8(sp)
ffffffff84008574:	4501                	li	a0,0
ffffffff84008576:	0141                	add	sp,sp,16
ffffffff84008578:	8082                	ret

ffffffff8400857a <sendIPC>:
ffffffff8400857a:	7139                	add	sp,sp,-64
ffffffff8400857c:	f426                	sd	s1,40(sp)
ffffffff8400857e:	00083483          	ld	s1,0(a6)
ffffffff84008582:	f822                	sd	s0,48(sp)
ffffffff84008584:	f04a                	sd	s2,32(sp)
ffffffff84008586:	e852                	sd	s4,16(sp)
ffffffff84008588:	e456                	sd	s5,8(sp)
ffffffff8400858a:	e05a                	sd	s6,0(sp)
ffffffff8400858c:	fc06                	sd	ra,56(sp)
ffffffff8400858e:	ec4e                	sd	s3,24(sp)
ffffffff84008590:	0024f893          	and	a7,s1,2
ffffffff84008594:	8442                	mv	s0,a6
ffffffff84008596:	8b2e                	mv	s6,a1
ffffffff84008598:	8ab6                	mv	s5,a3
ffffffff8400859a:	8a3a                	mv	s4,a4
ffffffff8400859c:	893e                	mv	s2,a5
ffffffff8400859e:	0a088563          	beqz	a7,ffffffff84008648 <sendIPC+0xce>
ffffffff840085a2:	0034f813          	and	a6,s1,3
ffffffff840085a6:	4789                	li	a5,2
ffffffff840085a8:	0af81163          	bne	a6,a5,ffffffff8400864a <sendIPC+0xd0>
ffffffff840085ac:	6418                	ld	a4,8(s0)
ffffffff840085ae:	0264d693          	srl	a3,s1,0x26
ffffffff840085b2:	f80007b7          	lui	a5,0xf8000
ffffffff840085b6:	83e5                	srl	a5,a5,0x19
ffffffff840085b8:	8a85                	and	a3,a3,1
ffffffff840085ba:	89ba                	mv	s3,a4
ffffffff840085bc:	8fe5                	and	a5,a5,s1
ffffffff840085be:	c681                	beqz	a3,ffffffff840085c6 <sendIPC+0x4c>
ffffffff840085c0:	56fd                	li	a3,-1
ffffffff840085c2:	169e                	sll	a3,a3,0x27
ffffffff840085c4:	8fd5                	or	a5,a5,a3
ffffffff840085c6:	56fd                	li	a3,-1
ffffffff840085c8:	1a073583          	ld	a1,416(a4)
ffffffff840085cc:	169e                	sll	a3,a3,0x27
ffffffff840085ce:	00368513          	add	a0,a3,3
ffffffff840085d2:	19873803          	ld	a6,408(a4)
ffffffff840085d6:	8d65                	and	a0,a0,s1
ffffffff840085d8:	12058063          	beqz	a1,ffffffff840086f8 <sendIPC+0x17e>
ffffffff840085dc:	1905bc23          	sd	a6,408(a1)
ffffffff840085e0:	10080463          	beqz	a6,ffffffff840086e8 <sendIPC+0x16e>
ffffffff840085e4:	f80006b7          	lui	a3,0xf8000
ffffffff840085e8:	82e5                	srl	a3,a3,0x19
ffffffff840085ea:	8ff5                	and	a5,a5,a3
ffffffff840085ec:	8fc9                	or	a5,a5,a0
ffffffff840085ee:	1ab83023          	sd	a1,416(a6)
ffffffff840085f2:	e418                	sd	a4,8(s0)
ffffffff840085f4:	85a2                	mv	a1,s0
ffffffff840085f6:	e01c                	sd	a5,0(s0)
ffffffff840085f8:	874e                	mv	a4,s3
ffffffff840085fa:	86d6                	mv	a3,s5
ffffffff840085fc:	854a                	mv	a0,s2
ffffffff840085fe:	e17ff0ef          	jal	ffffffff84008414 <doIPCTransfer>
ffffffff84008602:	1189b783          	ld	a5,280(s3)
ffffffff84008606:	854e                	mv	a0,s3
ffffffff84008608:	1209b403          	ld	s0,288(s3)
ffffffff8400860c:	9bc1                	and	a5,a5,-16
ffffffff8400860e:	0017e793          	or	a5,a5,1
ffffffff84008612:	10f9bc23          	sd	a5,280(s3)
ffffffff84008616:	f50fd0ef          	jal	ffffffff84005d66 <scheduleTCB>
ffffffff8400861a:	854e                	mv	a0,s3
ffffffff8400861c:	ea4fd0ef          	jal	ffffffff84005cc0 <possibleSwitchTo>
ffffffff84008620:	020b0563          	beqz	s6,ffffffff8400864a <sendIPC+0xd0>
ffffffff84008624:	014ae733          	or	a4,s5,s4
ffffffff84008628:	c775                	beqz	a4,ffffffff84008714 <sendIPC+0x19a>
ffffffff8400862a:	00345613          	srl	a2,s0,0x3
ffffffff8400862e:	7442                	ld	s0,48(sp)
ffffffff84008630:	70e2                	ld	ra,56(sp)
ffffffff84008632:	74a2                	ld	s1,40(sp)
ffffffff84008634:	6a42                	ld	s4,16(sp)
ffffffff84008636:	6aa2                	ld	s5,8(sp)
ffffffff84008638:	6b02                	ld	s6,0(sp)
ffffffff8400863a:	85ce                	mv	a1,s3
ffffffff8400863c:	854a                	mv	a0,s2
ffffffff8400863e:	69e2                	ld	s3,24(sp)
ffffffff84008640:	7902                	ld	s2,32(sp)
ffffffff84008642:	8a05                	and	a2,a2,1
ffffffff84008644:	6121                	add	sp,sp,64
ffffffff84008646:	b4d1                	j	ffffffff8400810a <setupCallerCap>
ffffffff84008648:	e919                	bnez	a0,ffffffff8400865e <sendIPC+0xe4>
ffffffff8400864a:	70e2                	ld	ra,56(sp)
ffffffff8400864c:	7442                	ld	s0,48(sp)
ffffffff8400864e:	74a2                	ld	s1,40(sp)
ffffffff84008650:	7902                	ld	s2,32(sp)
ffffffff84008652:	69e2                	ld	s3,24(sp)
ffffffff84008654:	6a42                	ld	s4,16(sp)
ffffffff84008656:	6aa2                	ld	s5,8(sp)
ffffffff84008658:	6b02                	ld	s6,0(sp)
ffffffff8400865a:	6121                	add	sp,sp,64
ffffffff8400865c:	8082                	ret
ffffffff8400865e:	1207b783          	ld	a5,288(a5) # fffffffff8000120 <ki_end+0x73fde120>
ffffffff84008662:	068e                	sll	a3,a3,0x3
ffffffff84008664:	11893583          	ld	a1,280(s2)
ffffffff84008668:	8aa1                	and	a3,a3,8
ffffffff8400866a:	9bcd                	and	a5,a5,-13
ffffffff8400866c:	8fd5                	or	a5,a5,a3
ffffffff8400866e:	070a                	sll	a4,a4,0x2
ffffffff84008670:	59fd                	li	s3,-1
ffffffff84008672:	e00006b7          	lui	a3,0xe0000
ffffffff84008676:	8b11                	and	a4,a4,4
ffffffff84008678:	199e                	sll	s3,s3,0x27
ffffffff8400867a:	82e5                	srl	a3,a3,0x19
ffffffff8400867c:	00d876b3          	and	a3,a6,a3
ffffffff84008680:	8fd9                	or	a5,a5,a4
ffffffff84008682:	0135f5b3          	and	a1,a1,s3
ffffffff84008686:	0b06                	sll	s6,s6,0x1
ffffffff84008688:	8dd5                	or	a1,a1,a3
ffffffff8400868a:	9bf5                	and	a5,a5,-3
ffffffff8400868c:	002b7b13          	and	s6,s6,2
ffffffff84008690:	0167e7b3          	or	a5,a5,s6
ffffffff84008694:	0045e593          	or	a1,a1,4
ffffffff84008698:	12f93023          	sd	a5,288(s2)
ffffffff8400869c:	10b93c23          	sd	a1,280(s2)
ffffffff840086a0:	12c93423          	sd	a2,296(s2)
ffffffff840086a4:	854a                	mv	a0,s2
ffffffff840086a6:	ec0fd0ef          	jal	ffffffff84005d66 <scheduleTCB>
ffffffff840086aa:	0264d793          	srl	a5,s1,0x26
ffffffff840086ae:	f8000737          	lui	a4,0xf8000
ffffffff840086b2:	8365                	srl	a4,a4,0x19
ffffffff840086b4:	8b85                	and	a5,a5,1
ffffffff840086b6:	6414                	ld	a3,8(s0)
ffffffff840086b8:	8f65                	and	a4,a4,s1
ffffffff840086ba:	c399                	beqz	a5,ffffffff840086c0 <sendIPC+0x146>
ffffffff840086bc:	01376733          	or	a4,a4,s3
ffffffff840086c0:	cabd                	beqz	a3,ffffffff84008736 <sendIPC+0x1bc>
ffffffff840086c2:	19273c23          	sd	s2,408(a4) # fffffffff8000198 <ki_end+0x73fde198>
ffffffff840086c6:	f80007b7          	lui	a5,0xf8000
ffffffff840086ca:	909d                	srl	s1,s1,0x27
ffffffff840086cc:	83e5                	srl	a5,a5,0x19
ffffffff840086ce:	00f977b3          	and	a5,s2,a5
ffffffff840086d2:	149e                	sll	s1,s1,0x27
ffffffff840086d4:	8fc5                	or	a5,a5,s1
ffffffff840086d6:	1ae93023          	sd	a4,416(s2)
ffffffff840086da:	18093c23          	sd	zero,408(s2)
ffffffff840086de:	0017e793          	or	a5,a5,1
ffffffff840086e2:	e414                	sd	a3,8(s0)
ffffffff840086e4:	e01c                	sd	a5,0(s0)
ffffffff840086e6:	b795                	j	ffffffff8400864a <sendIPC+0xd0>
ffffffff840086e8:	f80007b7          	lui	a5,0xf8000
ffffffff840086ec:	83e5                	srl	a5,a5,0x19
ffffffff840086ee:	8dfd                	and	a1,a1,a5
ffffffff840086f0:	e418                	sd	a4,8(s0)
ffffffff840086f2:	00a5e7b3          	or	a5,a1,a0
ffffffff840086f6:	bdfd                	j	ffffffff840085f4 <sendIPC+0x7a>
ffffffff840086f8:	00080963          	beqz	a6,ffffffff8400870a <sendIPC+0x190>
ffffffff840086fc:	f8000737          	lui	a4,0xf8000
ffffffff84008700:	8365                	srl	a4,a4,0x19
ffffffff84008702:	8ff9                	and	a5,a5,a4
ffffffff84008704:	8fc9                	or	a5,a5,a0
ffffffff84008706:	8742                	mv	a4,a6
ffffffff84008708:	b5dd                	j	ffffffff840085ee <sendIPC+0x74>
ffffffff8400870a:	00043423          	sd	zero,8(s0)
ffffffff8400870e:	00d4f7b3          	and	a5,s1,a3
ffffffff84008712:	b5cd                	j	ffffffff840085f4 <sendIPC+0x7a>
ffffffff84008714:	11893783          	ld	a5,280(s2)
ffffffff84008718:	7442                	ld	s0,48(sp)
ffffffff8400871a:	70e2                	ld	ra,56(sp)
ffffffff8400871c:	9bc1                	and	a5,a5,-16
ffffffff8400871e:	74a2                	ld	s1,40(sp)
ffffffff84008720:	69e2                	ld	s3,24(sp)
ffffffff84008722:	6a42                	ld	s4,16(sp)
ffffffff84008724:	6aa2                	ld	s5,8(sp)
ffffffff84008726:	6b02                	ld	s6,0(sp)
ffffffff84008728:	10f93c23          	sd	a5,280(s2)
ffffffff8400872c:	854a                	mv	a0,s2
ffffffff8400872e:	7902                	ld	s2,32(sp)
ffffffff84008730:	6121                	add	sp,sp,64
ffffffff84008732:	e34fd06f          	j	ffffffff84005d66 <scheduleTCB>
ffffffff84008736:	86ca                	mv	a3,s2
ffffffff84008738:	b779                	j	ffffffff840086c6 <sendIPC+0x14c>

ffffffff8400873a <sendFaultIPC>:
ffffffff8400873a:	7159                	add	sp,sp,-112
ffffffff8400873c:	c0057793          	and	a5,a0,-1024
ffffffff84008740:	e4ce                	sd	s3,72(sp)
ffffffff84008742:	17853983          	ld	s3,376(a0)
ffffffff84008746:	638c                	ld	a1,0(a5)
ffffffff84008748:	6790                	ld	a2,8(a5)
ffffffff8400874a:	f0a2                	sd	s0,96(sp)
ffffffff8400874c:	e8ca                	sd	s2,80(sp)
ffffffff8400874e:	842a                	mv	s0,a0
ffffffff84008750:	d7818913          	add	s2,gp,-648 # ffffffff8400b028 <current_lookup_fault>
ffffffff84008754:	04000713          	li	a4,64
ffffffff84008758:	86ce                	mv	a3,s3
ffffffff8400875a:	0828                	add	a0,sp,24
ffffffff8400875c:	eca6                	sd	s1,88(sp)
ffffffff8400875e:	e0d2                	sd	s4,64(sp)
ffffffff84008760:	fc56                	sd	s5,56(sp)
ffffffff84008762:	00893a03          	ld	s4,8(s2)
ffffffff84008766:	00093a83          	ld	s5,0(s2)
ffffffff8400876a:	f486                	sd	ra,104(sp)
ffffffff8400876c:	e42e                	sd	a1,8(sp)
ffffffff8400876e:	e832                	sd	a2,16(sp)
ffffffff84008770:	8e8fc0ef          	jal	ffffffff84004858 <resolveAddressBits>
ffffffff84008774:	64e2                	ld	s1,24(sp)
ffffffff84008776:	7782                	ld	a5,32(sp)
ffffffff84008778:	ecd1                	bnez	s1,ffffffff84008814 <sendFaultIPC+0xda>
ffffffff8400877a:	0007b803          	ld	a6,0(a5) # fffffffff8000000 <ki_end+0x73fde000>
ffffffff8400877e:	6790                	ld	a2,8(a5)
ffffffff84008780:	4711                	li	a4,4
ffffffff84008782:	03b85793          	srl	a5,a6,0x3b
ffffffff84008786:	06e79263          	bne	a5,a4,ffffffff840087ea <sendFaultIPC+0xb0>
ffffffff8400878a:	03785793          	srl	a5,a6,0x37
ffffffff8400878e:	8b85                	and	a5,a5,1
ffffffff84008790:	cfa9                	beqz	a5,ffffffff840087ea <sendFaultIPC+0xb0>
ffffffff84008792:	03985693          	srl	a3,a6,0x39
ffffffff84008796:	8a85                	and	a3,a3,1
ffffffff84008798:	e691                	bnez	a3,ffffffff840087a4 <sendFaultIPC+0x6a>
ffffffff8400879a:	03a85793          	srl	a5,a6,0x3a
ffffffff8400879e:	4721                	li	a4,8
ffffffff840087a0:	04e78563          	beq	a5,a4,ffffffff840087ea <sendFaultIPC+0xb0>
ffffffff840087a4:	d6818713          	add	a4,gp,-664 # ffffffff8400b018 <current_fault>
ffffffff840087a8:	631c                	ld	a5,0(a4)
ffffffff840087aa:	670c                	ld	a1,8(a4)
ffffffff840087ac:	4705                	li	a4,1
ffffffff840087ae:	12f43c23          	sd	a5,312(s0)
ffffffff840087b2:	14b43023          	sd	a1,320(s0)
ffffffff840087b6:	8bbd                	and	a5,a5,15
ffffffff840087b8:	00e79663          	bne	a5,a4,ffffffff840087c4 <sendFaultIPC+0x8a>
ffffffff840087bc:	15543423          	sd	s5,328(s0)
ffffffff840087c0:	15443823          	sd	s4,336(s0)
ffffffff840087c4:	02685713          	srl	a4,a6,0x26
ffffffff840087c8:	57fd                	li	a5,-1
ffffffff840087ca:	0197d593          	srl	a1,a5,0x19
ffffffff840087ce:	8b05                	and	a4,a4,1
ffffffff840087d0:	00b87833          	and	a6,a6,a1
ffffffff840087d4:	c701                	beqz	a4,ffffffff840087dc <sendFaultIPC+0xa2>
ffffffff840087d6:	179e                	sll	a5,a5,0x27
ffffffff840087d8:	00f86833          	or	a6,a6,a5
ffffffff840087dc:	87a2                	mv	a5,s0
ffffffff840087de:	4705                	li	a4,1
ffffffff840087e0:	4585                	li	a1,1
ffffffff840087e2:	4505                	li	a0,1
ffffffff840087e4:	d97ff0ef          	jal	ffffffff8400857a <sendIPC>
ffffffff840087e8:	a821                	j	ffffffff84008800 <sendFaultIPC+0xc6>
ffffffff840087ea:	4785                	li	a5,1
ffffffff840087ec:	d6818713          	add	a4,gp,-664 # ffffffff8400b018 <current_fault>
ffffffff840087f0:	e31c                	sd	a5,0(a4)
ffffffff840087f2:	00f93023          	sd	a5,0(s2)
ffffffff840087f6:	01373423          	sd	s3,8(a4) # fffffffff8000008 <ki_end+0x73fde008>
ffffffff840087fa:	d801b023          	sd	zero,-640(gp) # ffffffff8400b030 <current_lookup_fault+0x8>
ffffffff840087fe:	4485                	li	s1,1
ffffffff84008800:	70a6                	ld	ra,104(sp)
ffffffff84008802:	7406                	ld	s0,96(sp)
ffffffff84008804:	6946                	ld	s2,80(sp)
ffffffff84008806:	69a6                	ld	s3,72(sp)
ffffffff84008808:	6a06                	ld	s4,64(sp)
ffffffff8400880a:	7ae2                	ld	s5,56(sp)
ffffffff8400880c:	8526                	mv	a0,s1
ffffffff8400880e:	64e6                	ld	s1,88(sp)
ffffffff84008810:	6165                	add	sp,sp,112
ffffffff84008812:	8082                	ret
ffffffff84008814:	d6818793          	add	a5,gp,-664 # ffffffff8400b018 <current_fault>
ffffffff84008818:	4705                	li	a4,1
ffffffff8400881a:	e398                	sd	a4,0(a5)
ffffffff8400881c:	0137b423          	sd	s3,8(a5)
ffffffff84008820:	bff9                	j	ffffffff840087fe <sendFaultIPC+0xc4>

ffffffff84008822 <handleFault>:
ffffffff84008822:	1141                	add	sp,sp,-16
ffffffff84008824:	e022                	sd	s0,0(sp)
ffffffff84008826:	e406                	sd	ra,8(sp)
ffffffff84008828:	842a                	mv	s0,a0
ffffffff8400882a:	f11ff0ef          	jal	ffffffff8400873a <sendFaultIPC>
ffffffff8400882e:	e509                	bnez	a0,ffffffff84008838 <handleFault+0x16>
ffffffff84008830:	60a2                	ld	ra,8(sp)
ffffffff84008832:	6402                	ld	s0,0(sp)
ffffffff84008834:	0141                	add	sp,sp,16
ffffffff84008836:	8082                	ret
ffffffff84008838:	11843783          	ld	a5,280(s0)
ffffffff8400883c:	8522                	mv	a0,s0
ffffffff8400883e:	60a2                	ld	ra,8(sp)
ffffffff84008840:	9bc1                	and	a5,a5,-16
ffffffff84008842:	10f43c23          	sd	a5,280(s0)
ffffffff84008846:	6402                	ld	s0,0(sp)
ffffffff84008848:	0141                	add	sp,sp,16
ffffffff8400884a:	d1cfd06f          	j	ffffffff84005d66 <scheduleTCB>

ffffffff8400884e <handleUnknownSyscall>:
ffffffff8400884e:	1141                	add	sp,sp,-16
ffffffff84008850:	e022                	sd	s0,0(sp)
ffffffff84008852:	aa01b403          	ld	s0,-1376(gp) # ffffffff8400ad50 <ksCurThread>
ffffffff84008856:	e406                	sd	ra,8(sp)
ffffffff84008858:	872a                	mv	a4,a0
ffffffff8400885a:	d6818793          	add	a5,gp,-664 # ffffffff8400b018 <current_fault>
ffffffff8400885e:	4689                	li	a3,2
ffffffff84008860:	8522                	mv	a0,s0
ffffffff84008862:	e394                	sd	a3,0(a5)
ffffffff84008864:	e798                	sd	a4,8(a5)
ffffffff84008866:	ed5ff0ef          	jal	ffffffff8400873a <sendFaultIPC>
ffffffff8400886a:	e911                	bnez	a0,ffffffff8400887e <handleUnknownSyscall+0x30>
ffffffff8400886c:	eb0fe0ef          	jal	ffffffff84006f1c <schedule>
ffffffff84008870:	a1efe0ef          	jal	ffffffff84006a8e <activateThread>
ffffffff84008874:	60a2                	ld	ra,8(sp)
ffffffff84008876:	6402                	ld	s0,0(sp)
ffffffff84008878:	4501                	li	a0,0
ffffffff8400887a:	0141                	add	sp,sp,16
ffffffff8400887c:	8082                	ret
ffffffff8400887e:	11843783          	ld	a5,280(s0)
ffffffff84008882:	8522                	mv	a0,s0
ffffffff84008884:	9bc1                	and	a5,a5,-16
ffffffff84008886:	10f43c23          	sd	a5,280(s0)
ffffffff8400888a:	cdcfd0ef          	jal	ffffffff84005d66 <scheduleTCB>
ffffffff8400888e:	bff9                	j	ffffffff8400886c <handleUnknownSyscall+0x1e>

ffffffff84008890 <handleUserLevelFault>:
ffffffff84008890:	57fd                	li	a5,-1
ffffffff84008892:	9381                	srl	a5,a5,0x20
ffffffff84008894:	0592                	sll	a1,a1,0x4
ffffffff84008896:	1141                	add	sp,sp,-16
ffffffff84008898:	8dfd                	and	a1,a1,a5
ffffffff8400889a:	1502                	sll	a0,a0,0x20
ffffffff8400889c:	e022                	sd	s0,0(sp)
ffffffff8400889e:	8dc9                	or	a1,a1,a0
ffffffff840088a0:	aa01b403          	ld	s0,-1376(gp) # ffffffff8400ad50 <ksCurThread>
ffffffff840088a4:	0035e593          	or	a1,a1,3
ffffffff840088a8:	8522                	mv	a0,s0
ffffffff840088aa:	e406                	sd	ra,8(sp)
ffffffff840088ac:	d6b1b423          	sd	a1,-664(gp) # ffffffff8400b018 <current_fault>
ffffffff840088b0:	d601b823          	sd	zero,-656(gp) # ffffffff8400b020 <current_fault+0x8>
ffffffff840088b4:	e87ff0ef          	jal	ffffffff8400873a <sendFaultIPC>
ffffffff840088b8:	e911                	bnez	a0,ffffffff840088cc <handleUserLevelFault+0x3c>
ffffffff840088ba:	e62fe0ef          	jal	ffffffff84006f1c <schedule>
ffffffff840088be:	9d0fe0ef          	jal	ffffffff84006a8e <activateThread>
ffffffff840088c2:	60a2                	ld	ra,8(sp)
ffffffff840088c4:	6402                	ld	s0,0(sp)
ffffffff840088c6:	4501                	li	a0,0
ffffffff840088c8:	0141                	add	sp,sp,16
ffffffff840088ca:	8082                	ret
ffffffff840088cc:	11843783          	ld	a5,280(s0)
ffffffff840088d0:	8522                	mv	a0,s0
ffffffff840088d2:	9bc1                	and	a5,a5,-16
ffffffff840088d4:	10f43c23          	sd	a5,280(s0)
ffffffff840088d8:	c8efd0ef          	jal	ffffffff84005d66 <scheduleTCB>
ffffffff840088dc:	bff9                	j	ffffffff840088ba <handleUserLevelFault+0x2a>

ffffffff840088de <handleVMFaultEvent>:
ffffffff840088de:	1141                	add	sp,sp,-16
ffffffff840088e0:	e022                	sd	s0,0(sp)
ffffffff840088e2:	aa01b403          	ld	s0,-1376(gp) # ffffffff8400ad50 <ksCurThread>
ffffffff840088e6:	85aa                	mv	a1,a0
ffffffff840088e8:	8522                	mv	a0,s0
ffffffff840088ea:	e406                	sd	ra,8(sp)
ffffffff840088ec:	ea8fb0ef          	jal	ffffffff84003f94 <handleVMFault>
ffffffff840088f0:	e911                	bnez	a0,ffffffff84008904 <handleVMFaultEvent+0x26>
ffffffff840088f2:	e2afe0ef          	jal	ffffffff84006f1c <schedule>
ffffffff840088f6:	998fe0ef          	jal	ffffffff84006a8e <activateThread>
ffffffff840088fa:	60a2                	ld	ra,8(sp)
ffffffff840088fc:	6402                	ld	s0,0(sp)
ffffffff840088fe:	4501                	li	a0,0
ffffffff84008900:	0141                	add	sp,sp,16
ffffffff84008902:	8082                	ret
ffffffff84008904:	8522                	mv	a0,s0
ffffffff84008906:	e35ff0ef          	jal	ffffffff8400873a <sendFaultIPC>
ffffffff8400890a:	d565                	beqz	a0,ffffffff840088f2 <handleVMFaultEvent+0x14>
ffffffff8400890c:	11843783          	ld	a5,280(s0)
ffffffff84008910:	8522                	mv	a0,s0
ffffffff84008912:	9bc1                	and	a5,a5,-16
ffffffff84008914:	10f43c23          	sd	a5,280(s0)
ffffffff84008918:	c4efd0ef          	jal	ffffffff84005d66 <scheduleTCB>
ffffffff8400891c:	bfd9                	j	ffffffff840088f2 <handleVMFaultEvent+0x14>

ffffffff8400891e <performInvocation_Endpoint>:
ffffffff8400891e:	88ae                	mv	a7,a1
ffffffff84008920:	1141                	add	sp,sp,-16
ffffffff84008922:	882a                	mv	a6,a0
ffffffff84008924:	85be                	mv	a1,a5
ffffffff84008926:	853a                	mv	a0,a4
ffffffff84008928:	aa01b783          	ld	a5,-1376(gp) # ffffffff8400ad50 <ksCurThread>
ffffffff8400892c:	8736                	mv	a4,a3
ffffffff8400892e:	86b2                	mv	a3,a2
ffffffff84008930:	8646                	mv	a2,a7
ffffffff84008932:	e406                	sd	ra,8(sp)
ffffffff84008934:	c47ff0ef          	jal	ffffffff8400857a <sendIPC>
ffffffff84008938:	60a2                	ld	ra,8(sp)
ffffffff8400893a:	4501                	li	a0,0
ffffffff8400893c:	0141                	add	sp,sp,16
ffffffff8400893e:	8082                	ret

ffffffff84008940 <receiveIPC>:
ffffffff84008940:	715d                	add	sp,sp,-80
ffffffff84008942:	57fd                	li	a5,-1
ffffffff84008944:	0265d713          	srl	a4,a1,0x26
ffffffff84008948:	e0a2                	sd	s0,64(sp)
ffffffff8400894a:	fc26                	sd	s1,56(sp)
ffffffff8400894c:	f84a                	sd	s2,48(sp)
ffffffff8400894e:	0197d413          	srl	s0,a5,0x19
ffffffff84008952:	e486                	sd	ra,72(sp)
ffffffff84008954:	f44e                	sd	s3,40(sp)
ffffffff84008956:	f052                	sd	s4,32(sp)
ffffffff84008958:	ec56                	sd	s5,24(sp)
ffffffff8400895a:	e02e                	sd	a1,0(sp)
ffffffff8400895c:	e432                	sd	a2,8(sp)
ffffffff8400895e:	8b05                	and	a4,a4,1
ffffffff84008960:	84ae                	mv	s1,a1
ffffffff84008962:	892a                	mv	s2,a0
ffffffff84008964:	8c6d                	and	s0,s0,a1
ffffffff84008966:	c319                	beqz	a4,ffffffff8400896c <receiveIPC+0x2c>
ffffffff84008968:	179e                	sll	a5,a5,0x27
ffffffff8400896a:	8c5d                	or	s0,s0,a5
ffffffff8400896c:	13093783          	ld	a5,304(s2)
ffffffff84008970:	c799                	beqz	a5,ffffffff8400897e <receiveIPC+0x3e>
ffffffff84008972:	6398                	ld	a4,0(a5)
ffffffff84008974:	4609                	li	a2,2
ffffffff84008976:	00377593          	and	a1,a4,3
ffffffff8400897a:	14c58c63          	beq	a1,a2,ffffffff84008ad2 <receiveIPC+0x192>
ffffffff8400897e:	00043983          	ld	s3,0(s0)
ffffffff84008982:	4a05                	li	s4,1
ffffffff84008984:	0039f793          	and	a5,s3,3
ffffffff84008988:	01478e63          	beq	a5,s4,ffffffff840089a4 <receiveIPC+0x64>
ffffffff8400898c:	0019f793          	and	a5,s3,1
ffffffff84008990:	cbc5                	beqz	a5,ffffffff84008a40 <receiveIPC+0x100>
ffffffff84008992:	60a6                	ld	ra,72(sp)
ffffffff84008994:	6406                	ld	s0,64(sp)
ffffffff84008996:	74e2                	ld	s1,56(sp)
ffffffff84008998:	7942                	ld	s2,48(sp)
ffffffff8400899a:	79a2                	ld	s3,40(sp)
ffffffff8400899c:	7a02                	ld	s4,32(sp)
ffffffff8400899e:	6ae2                	ld	s5,24(sp)
ffffffff840089a0:	6161                	add	sp,sp,80
ffffffff840089a2:	8082                	ret
ffffffff840089a4:	6414                	ld	a3,8(s0)
ffffffff840089a6:	179a                	sll	a5,a5,0x26
ffffffff840089a8:	f8000737          	lui	a4,0xf8000
ffffffff840089ac:	8365                	srl	a4,a4,0x19
ffffffff840089ae:	00f9f7b3          	and	a5,s3,a5
ffffffff840089b2:	8a36                	mv	s4,a3
ffffffff840089b4:	00e9f733          	and	a4,s3,a4
ffffffff840089b8:	c781                	beqz	a5,ffffffff840089c0 <receiveIPC+0x80>
ffffffff840089ba:	57fd                	li	a5,-1
ffffffff840089bc:	179e                	sll	a5,a5,0x27
ffffffff840089be:	8f5d                	or	a4,a4,a5
ffffffff840089c0:	567d                	li	a2,-1
ffffffff840089c2:	1a06b583          	ld	a1,416(a3) # ffffffffe00001a0 <ki_end+0x5bfde1a0>
ffffffff840089c6:	161e                	sll	a2,a2,0x27
ffffffff840089c8:	00360793          	add	a5,a2,3
ffffffff840089cc:	1986b503          	ld	a0,408(a3)
ffffffff840089d0:	00f9f7b3          	and	a5,s3,a5
ffffffff840089d4:	14058a63          	beqz	a1,ffffffff84008b28 <receiveIPC+0x1e8>
ffffffff840089d8:	18a5bc23          	sd	a0,408(a1)
ffffffff840089dc:	c565                	beqz	a0,ffffffff84008ac4 <receiveIPC+0x184>
ffffffff840089de:	f8000637          	lui	a2,0xf8000
ffffffff840089e2:	8265                	srl	a2,a2,0x19
ffffffff840089e4:	8f71                	and	a4,a4,a2
ffffffff840089e6:	8fd9                	or	a5,a5,a4
ffffffff840089e8:	1ab53023          	sd	a1,416(a0)
ffffffff840089ec:	e414                	sd	a3,8(s0)
ffffffff840089ee:	120a3983          	ld	s3,288(s4)
ffffffff840089f2:	128a3603          	ld	a2,296(s4)
ffffffff840089f6:	874a                	mv	a4,s2
ffffffff840089f8:	0039da93          	srl	s5,s3,0x3
ffffffff840089fc:	e01c                	sd	a5,0(s0)
ffffffff840089fe:	001af693          	and	a3,s5,1
ffffffff84008a02:	85a2                	mv	a1,s0
ffffffff84008a04:	8552                	mv	a0,s4
ffffffff84008a06:	a0fff0ef          	jal	ffffffff84008414 <doIPCTransfer>
ffffffff84008a0a:	0019d793          	srl	a5,s3,0x1
ffffffff84008a0e:	8b85                	and	a5,a5,1
ffffffff84008a10:	c7fd                	beqz	a5,ffffffff84008afe <receiveIPC+0x1be>
ffffffff84008a12:	0029d993          	srl	s3,s3,0x2
ffffffff84008a16:	0159e9b3          	or	s3,s3,s5
ffffffff84008a1a:	0019f993          	and	s3,s3,1
ffffffff84008a1e:	0c098063          	beqz	s3,ffffffff84008ade <receiveIPC+0x19e>
ffffffff84008a22:	6406                	ld	s0,64(sp)
ffffffff84008a24:	60a6                	ld	ra,72(sp)
ffffffff84008a26:	79a2                	ld	s3,40(sp)
ffffffff84008a28:	6ae2                	ld	s5,24(sp)
ffffffff84008a2a:	0394d613          	srl	a2,s1,0x39
ffffffff84008a2e:	85ca                	mv	a1,s2
ffffffff84008a30:	74e2                	ld	s1,56(sp)
ffffffff84008a32:	7942                	ld	s2,48(sp)
ffffffff84008a34:	8552                	mv	a0,s4
ffffffff84008a36:	7a02                	ld	s4,32(sp)
ffffffff84008a38:	8a05                	and	a2,a2,1
ffffffff84008a3a:	6161                	add	sp,sp,80
ffffffff84008a3c:	eceff06f          	j	ffffffff8400810a <setupCallerCap>
ffffffff84008a40:	e681                	bnez	a3,ffffffff84008a48 <receiveIPC+0x108>
ffffffff84008a42:	04093423          	sd	zero,72(s2)
ffffffff84008a46:	b7b1                	j	ffffffff84008992 <receiveIPC+0x52>
ffffffff84008a48:	11893783          	ld	a5,280(s2)
ffffffff84008a4c:	12093683          	ld	a3,288(s2)
ffffffff84008a50:	5afd                	li	s5,-1
ffffffff84008a52:	e0000737          	lui	a4,0xe0000
ffffffff84008a56:	1a9e                	sll	s5,s5,0x27
ffffffff84008a58:	8365                	srl	a4,a4,0x19
ffffffff84008a5a:	8f61                	and	a4,a4,s0
ffffffff84008a5c:	0157f7b3          	and	a5,a5,s5
ffffffff84008a60:	90d9                	srl	s1,s1,0x36
ffffffff84008a62:	8fd9                	or	a5,a5,a4
ffffffff84008a64:	88a1                	and	s1,s1,8
ffffffff84008a66:	ff76f713          	and	a4,a3,-9
ffffffff84008a6a:	8cd9                	or	s1,s1,a4
ffffffff84008a6c:	0037e793          	or	a5,a5,3
ffffffff84008a70:	10f93c23          	sd	a5,280(s2)
ffffffff84008a74:	12993023          	sd	s1,288(s2)
ffffffff84008a78:	854a                	mv	a0,s2
ffffffff84008a7a:	aecfd0ef          	jal	ffffffff84005d66 <scheduleTCB>
ffffffff84008a7e:	1a1a                	sll	s4,s4,0x26
ffffffff84008a80:	f8000737          	lui	a4,0xf8000
ffffffff84008a84:	8365                	srl	a4,a4,0x19
ffffffff84008a86:	0149fa33          	and	s4,s3,s4
ffffffff84008a8a:	6414                	ld	a3,8(s0)
ffffffff84008a8c:	00e9f733          	and	a4,s3,a4
ffffffff84008a90:	000a0463          	beqz	s4,ffffffff84008a98 <receiveIPC+0x158>
ffffffff84008a94:	01576733          	or	a4,a4,s5
ffffffff84008a98:	c6cd                	beqz	a3,ffffffff84008b42 <receiveIPC+0x202>
ffffffff84008a9a:	19273c23          	sd	s2,408(a4) # fffffffff8000198 <ki_end+0x73fde198>
ffffffff84008a9e:	f80007b7          	lui	a5,0xf8000
ffffffff84008aa2:	0279d993          	srl	s3,s3,0x27
ffffffff84008aa6:	83e5                	srl	a5,a5,0x19
ffffffff84008aa8:	00f977b3          	and	a5,s2,a5
ffffffff84008aac:	199e                	sll	s3,s3,0x27
ffffffff84008aae:	0137e7b3          	or	a5,a5,s3
ffffffff84008ab2:	1ae93023          	sd	a4,416(s2)
ffffffff84008ab6:	18093c23          	sd	zero,408(s2)
ffffffff84008aba:	0027e793          	or	a5,a5,2
ffffffff84008abe:	e414                	sd	a3,8(s0)
ffffffff84008ac0:	e01c                	sd	a5,0(s0)
ffffffff84008ac2:	bdc1                	j	ffffffff84008992 <receiveIPC+0x52>
ffffffff84008ac4:	f8000737          	lui	a4,0xf8000
ffffffff84008ac8:	8365                	srl	a4,a4,0x19
ffffffff84008aca:	8df9                	and	a1,a1,a4
ffffffff84008acc:	e414                	sd	a3,8(s0)
ffffffff84008ace:	8fcd                	or	a5,a5,a1
ffffffff84008ad0:	bf39                	j	ffffffff840089ee <receiveIPC+0xae>
ffffffff84008ad2:	6b94                	ld	a3,16(a5)
ffffffff84008ad4:	9b71                	and	a4,a4,-4
ffffffff84008ad6:	04d93423          	sd	a3,72(s2)
ffffffff84008ada:	e398                	sd	a4,0(a5)
ffffffff84008adc:	bd5d                	j	ffffffff84008992 <receiveIPC+0x52>
ffffffff84008ade:	118a3783          	ld	a5,280(s4)
ffffffff84008ae2:	6406                	ld	s0,64(sp)
ffffffff84008ae4:	60a6                	ld	ra,72(sp)
ffffffff84008ae6:	9bc1                	and	a5,a5,-16
ffffffff84008ae8:	74e2                	ld	s1,56(sp)
ffffffff84008aea:	7942                	ld	s2,48(sp)
ffffffff84008aec:	79a2                	ld	s3,40(sp)
ffffffff84008aee:	6ae2                	ld	s5,24(sp)
ffffffff84008af0:	10fa3c23          	sd	a5,280(s4)
ffffffff84008af4:	8552                	mv	a0,s4
ffffffff84008af6:	7a02                	ld	s4,32(sp)
ffffffff84008af8:	6161                	add	sp,sp,80
ffffffff84008afa:	a6cfd06f          	j	ffffffff84005d66 <scheduleTCB>
ffffffff84008afe:	118a3783          	ld	a5,280(s4)
ffffffff84008b02:	8552                	mv	a0,s4
ffffffff84008b04:	9bc1                	and	a5,a5,-16
ffffffff84008b06:	0017e793          	or	a5,a5,1
ffffffff84008b0a:	10fa3c23          	sd	a5,280(s4)
ffffffff84008b0e:	a58fd0ef          	jal	ffffffff84005d66 <scheduleTCB>
ffffffff84008b12:	6406                	ld	s0,64(sp)
ffffffff84008b14:	60a6                	ld	ra,72(sp)
ffffffff84008b16:	74e2                	ld	s1,56(sp)
ffffffff84008b18:	7942                	ld	s2,48(sp)
ffffffff84008b1a:	79a2                	ld	s3,40(sp)
ffffffff84008b1c:	6ae2                	ld	s5,24(sp)
ffffffff84008b1e:	8552                	mv	a0,s4
ffffffff84008b20:	7a02                	ld	s4,32(sp)
ffffffff84008b22:	6161                	add	sp,sp,80
ffffffff84008b24:	99cfd06f          	j	ffffffff84005cc0 <possibleSwitchTo>
ffffffff84008b28:	c901                	beqz	a0,ffffffff84008b38 <receiveIPC+0x1f8>
ffffffff84008b2a:	f80006b7          	lui	a3,0xf8000
ffffffff84008b2e:	82e5                	srl	a3,a3,0x19
ffffffff84008b30:	8f75                	and	a4,a4,a3
ffffffff84008b32:	8fd9                	or	a5,a5,a4
ffffffff84008b34:	86aa                	mv	a3,a0
ffffffff84008b36:	bd4d                	j	ffffffff840089e8 <receiveIPC+0xa8>
ffffffff84008b38:	00043423          	sd	zero,8(s0)
ffffffff84008b3c:	00c9f7b3          	and	a5,s3,a2
ffffffff84008b40:	b57d                	j	ffffffff840089ee <receiveIPC+0xae>
ffffffff84008b42:	86ca                	mv	a3,s2
ffffffff84008b44:	bfa9                	j	ffffffff84008a9e <receiveIPC+0x15e>

ffffffff84008b46 <handleRecv>:
ffffffff84008b46:	7159                	add	sp,sp,-112
ffffffff84008b48:	fc56                	sd	s5,56(sp)
ffffffff84008b4a:	aa018a93          	add	s5,gp,-1376 # ffffffff8400ad50 <ksCurThread>
ffffffff84008b4e:	f0a2                	sd	s0,96(sp)
ffffffff84008b50:	000ab403          	ld	s0,0(s5)
ffffffff84008b54:	e4ce                	sd	s3,72(sp)
ffffffff84008b56:	e0d2                	sd	s4,64(sp)
ffffffff84008b58:	c0047993          	and	s3,s0,-1024
ffffffff84008b5c:	04843a03          	ld	s4,72(s0)
ffffffff84008b60:	0009b583          	ld	a1,0(s3)
ffffffff84008b64:	0089b603          	ld	a2,8(s3)
ffffffff84008b68:	e8ca                	sd	s2,80(sp)
ffffffff84008b6a:	04000713          	li	a4,64
ffffffff84008b6e:	892a                	mv	s2,a0
ffffffff84008b70:	86d2                	mv	a3,s4
ffffffff84008b72:	0828                	add	a0,sp,24
ffffffff84008b74:	f486                	sd	ra,104(sp)
ffffffff84008b76:	eca6                	sd	s1,88(sp)
ffffffff84008b78:	e42e                	sd	a1,8(sp)
ffffffff84008b7a:	e832                	sd	a2,16(sp)
ffffffff84008b7c:	cddfb0ef          	jal	ffffffff84004858 <resolveAddressBits>
ffffffff84008b80:	6762                	ld	a4,24(sp)
ffffffff84008b82:	7782                	ld	a5,32(sp)
ffffffff84008b84:	0e071a63          	bnez	a4,ffffffff84008c78 <handleRecv+0x132>
ffffffff84008b88:	6794                	ld	a3,8(a5)
ffffffff84008b8a:	6384                	ld	s1,0(a5)
ffffffff84008b8c:	4711                	li	a4,4
ffffffff84008b8e:	f436                	sd	a3,40(sp)
ffffffff84008b90:	03b4d793          	srl	a5,s1,0x3b
ffffffff84008b94:	08e78b63          	beq	a5,a4,ffffffff84008c2a <handleRecv+0xe4>
ffffffff84008b98:	4719                	li	a4,6
ffffffff84008b9a:	04e79e63          	bne	a5,a4,ffffffff84008bf6 <handleRecv+0xb0>
ffffffff84008b9e:	56fd                	li	a3,-1
ffffffff84008ba0:	0264d793          	srl	a5,s1,0x26
ffffffff84008ba4:	0196d713          	srl	a4,a3,0x19
ffffffff84008ba8:	8b85                	and	a5,a5,1
ffffffff84008baa:	8f65                	and	a4,a4,s1
ffffffff84008bac:	c399                	beqz	a5,ffffffff84008bb2 <handleRecv+0x6c>
ffffffff84008bae:	169e                	sll	a3,a3,0x27
ffffffff84008bb0:	8f55                	or	a4,a4,a3
ffffffff84008bb2:	6f18                	ld	a4,24(a4)
ffffffff84008bb4:	56fd                	li	a3,-1
ffffffff84008bb6:	03a4d793          	srl	a5,s1,0x3a
ffffffff84008bba:	02675613          	srl	a2,a4,0x26
ffffffff84008bbe:	0196d593          	srl	a1,a3,0x19
ffffffff84008bc2:	fff7c793          	not	a5,a5
ffffffff84008bc6:	8a05                	and	a2,a2,1
ffffffff84008bc8:	8f6d                	and	a4,a4,a1
ffffffff84008bca:	8b85                	and	a5,a5,1
ffffffff84008bcc:	ca5d                	beqz	a2,ffffffff84008c82 <handleRecv+0x13c>
ffffffff84008bce:	169e                	sll	a3,a3,0x27
ffffffff84008bd0:	8f55                	or	a4,a4,a3
ffffffff84008bd2:	e395                	bnez	a5,ffffffff84008bf6 <handleRecv+0xb0>
ffffffff84008bd4:	02e41163          	bne	s0,a4,ffffffff84008bf6 <handleRecv+0xb0>
ffffffff84008bd8:	8522                	mv	a0,s0
ffffffff84008bda:	7406                	ld	s0,96(sp)
ffffffff84008bdc:	f026                	sd	s1,32(sp)
ffffffff84008bde:	7622                	ld	a2,40(sp)
ffffffff84008be0:	70a6                	ld	ra,104(sp)
ffffffff84008be2:	69a6                	ld	s3,72(sp)
ffffffff84008be4:	6a06                	ld	s4,64(sp)
ffffffff84008be6:	7ae2                	ld	s5,56(sp)
ffffffff84008be8:	86ca                	mv	a3,s2
ffffffff84008bea:	85a6                	mv	a1,s1
ffffffff84008bec:	6946                	ld	s2,80(sp)
ffffffff84008bee:	64e6                	ld	s1,88(sp)
ffffffff84008bf0:	6165                	add	sp,sp,112
ffffffff84008bf2:	b46fd06f          	j	ffffffff84005f38 <receiveSignal>
ffffffff84008bf6:	4685                	li	a3,1
ffffffff84008bf8:	d6d1bc23          	sd	a3,-648(gp) # ffffffff8400b028 <current_lookup_fault>
ffffffff84008bfc:	57fd                	li	a5,-1
ffffffff84008bfe:	d6818713          	add	a4,gp,-664 # ffffffff8400b018 <current_fault>
ffffffff84008c02:	8522                	mv	a0,s0
ffffffff84008c04:	d801b023          	sd	zero,-640(gp) # ffffffff8400b030 <current_lookup_fault+0x8>
ffffffff84008c08:	17fe                	sll	a5,a5,0x3f
ffffffff84008c0a:	0785                	add	a5,a5,1 # fffffffff8000001 <ki_end+0x73fde001>
ffffffff84008c0c:	e31c                	sd	a5,0(a4)
ffffffff84008c0e:	01473423          	sd	s4,8(a4) # fffffffff8000008 <ki_end+0x73fde008>
ffffffff84008c12:	b29ff0ef          	jal	ffffffff8400873a <sendFaultIPC>
ffffffff84008c16:	e129                	bnez	a0,ffffffff84008c58 <handleRecv+0x112>
ffffffff84008c18:	70a6                	ld	ra,104(sp)
ffffffff84008c1a:	7406                	ld	s0,96(sp)
ffffffff84008c1c:	64e6                	ld	s1,88(sp)
ffffffff84008c1e:	6946                	ld	s2,80(sp)
ffffffff84008c20:	69a6                	ld	s3,72(sp)
ffffffff84008c22:	6a06                	ld	s4,64(sp)
ffffffff84008c24:	7ae2                	ld	s5,56(sp)
ffffffff84008c26:	6165                	add	sp,sp,112
ffffffff84008c28:	8082                	ret
ffffffff84008c2a:	0384d793          	srl	a5,s1,0x38
ffffffff84008c2e:	8b85                	and	a5,a5,1
ffffffff84008c30:	d3f9                	beqz	a5,ffffffff84008bf6 <handleRecv+0xb0>
ffffffff84008c32:	06098513          	add	a0,s3,96
ffffffff84008c36:	e21fe0ef          	jal	ffffffff84007a56 <cteDeleteOne>
ffffffff84008c3a:	7406                	ld	s0,96(sp)
ffffffff84008c3c:	f026                	sd	s1,32(sp)
ffffffff84008c3e:	7622                	ld	a2,40(sp)
ffffffff84008c40:	000ab503          	ld	a0,0(s5)
ffffffff84008c44:	70a6                	ld	ra,104(sp)
ffffffff84008c46:	69a6                	ld	s3,72(sp)
ffffffff84008c48:	6a06                	ld	s4,64(sp)
ffffffff84008c4a:	7ae2                	ld	s5,56(sp)
ffffffff84008c4c:	86ca                	mv	a3,s2
ffffffff84008c4e:	85a6                	mv	a1,s1
ffffffff84008c50:	6946                	ld	s2,80(sp)
ffffffff84008c52:	64e6                	ld	s1,88(sp)
ffffffff84008c54:	6165                	add	sp,sp,112
ffffffff84008c56:	b1ed                	j	ffffffff84008940 <receiveIPC>
ffffffff84008c58:	11843783          	ld	a5,280(s0)
ffffffff84008c5c:	8522                	mv	a0,s0
ffffffff84008c5e:	70a6                	ld	ra,104(sp)
ffffffff84008c60:	9bc1                	and	a5,a5,-16
ffffffff84008c62:	10f43c23          	sd	a5,280(s0)
ffffffff84008c66:	7406                	ld	s0,96(sp)
ffffffff84008c68:	64e6                	ld	s1,88(sp)
ffffffff84008c6a:	6946                	ld	s2,80(sp)
ffffffff84008c6c:	69a6                	ld	s3,72(sp)
ffffffff84008c6e:	6a06                	ld	s4,64(sp)
ffffffff84008c70:	7ae2                	ld	s5,56(sp)
ffffffff84008c72:	6165                	add	sp,sp,112
ffffffff84008c74:	8f2fd06f          	j	ffffffff84005d66 <scheduleTCB>
ffffffff84008c78:	57fd                	li	a5,-1
ffffffff84008c7a:	d6818713          	add	a4,gp,-664 # ffffffff8400b018 <current_fault>
ffffffff84008c7e:	8522                	mv	a0,s0
ffffffff84008c80:	b761                	j	ffffffff84008c08 <handleRecv+0xc2>
ffffffff84008c82:	fbb5                	bnez	a5,ffffffff84008bf6 <handleRecv+0xb0>
ffffffff84008c84:	db31                	beqz	a4,ffffffff84008bd8 <handleRecv+0x92>
ffffffff84008c86:	b7b9                	j	ffffffff84008bd4 <handleRecv+0x8e>

ffffffff84008c88 <decodeSetPriority>:
ffffffff84008c88:	7179                	add	sp,sp,-48
ffffffff84008c8a:	f406                	sd	ra,40(sp)
ffffffff84008c8c:	f022                	sd	s0,32(sp)
ffffffff84008c8e:	ec26                	sd	s1,24(sp)
ffffffff84008c90:	e84a                	sd	s2,16(sp)
ffffffff84008c92:	e02a                	sd	a0,0(sp)
ffffffff84008c94:	e42e                	sd	a1,8(sp)
ffffffff84008c96:	ce41                	beqz	a2,ffffffff84008d2e <decodeSetPriority+0xa6>
ffffffff84008c98:	8981b783          	ld	a5,-1896(gp) # ffffffff8400ab48 <current_extra_caps>
ffffffff84008c9c:	cbc9                	beqz	a5,ffffffff84008d2e <decodeSetPriority+0xa6>
ffffffff84008c9e:	639c                	ld	a5,0(a5)
ffffffff84008ca0:	aa018493          	add	s1,gp,-1376 # ffffffff8400ad50 <ksCurThread>
ffffffff84008ca4:	6088                	ld	a0,0(s1)
ffffffff84008ca6:	03b7d693          	srl	a3,a5,0x3b
ffffffff84008caa:	4731                	li	a4,12
ffffffff84008cac:	05853903          	ld	s2,88(a0)
ffffffff84008cb0:	06e69263          	bne	a3,a4,ffffffff84008d14 <decodeSetPriority+0x8c>
ffffffff84008cb4:	0267d693          	srl	a3,a5,0x26
ffffffff84008cb8:	577d                	li	a4,-1
ffffffff84008cba:	01975613          	srl	a2,a4,0x19
ffffffff84008cbe:	8a85                	and	a3,a3,1
ffffffff84008cc0:	8ff1                	and	a5,a5,a2
ffffffff84008cc2:	c299                	beqz	a3,ffffffff84008cc8 <decodeSetPriority+0x40>
ffffffff84008cc4:	171e                	sll	a4,a4,0x27
ffffffff84008cc6:	8fd9                	or	a5,a5,a4
ffffffff84008cc8:	1607b783          	ld	a5,352(a5)
ffffffff84008ccc:	0727ed63          	bltu	a5,s2,ffffffff84008d46 <decodeSetPriority+0xbe>
ffffffff84008cd0:	11853783          	ld	a5,280(a0)
ffffffff84008cd4:	9bc1                	and	a5,a5,-16
ffffffff84008cd6:	0027e793          	or	a5,a5,2
ffffffff84008cda:	10f53c23          	sd	a5,280(a0)
ffffffff84008cde:	888fd0ef          	jal	ffffffff84005d66 <scheduleTCB>
ffffffff84008ce2:	6402                	ld	s0,0(sp)
ffffffff84008ce4:	57fd                	li	a5,-1
ffffffff84008ce6:	0197d693          	srl	a3,a5,0x19
ffffffff84008cea:	02645713          	srl	a4,s0,0x26
ffffffff84008cee:	8b05                	and	a4,a4,1
ffffffff84008cf0:	8c75                	and	s0,s0,a3
ffffffff84008cf2:	c319                	beqz	a4,ffffffff84008cf8 <decodeSetPriority+0x70>
ffffffff84008cf4:	179e                	sll	a5,a5,0x27
ffffffff84008cf6:	8c5d                	or	s0,s0,a5
ffffffff84008cf8:	8522                	mv	a0,s0
ffffffff84008cfa:	edbfd0ef          	jal	ffffffff84006bd4 <tcbSchedDequeue>
ffffffff84008cfe:	11843783          	ld	a5,280(s0)
ffffffff84008d02:	17243423          	sd	s2,360(s0)
ffffffff84008d06:	4705                	li	a4,1
ffffffff84008d08:	8bbd                	and	a5,a5,15
ffffffff84008d0a:	17fd                	add	a5,a5,-1
ffffffff84008d0c:	02f77563          	bgeu	a4,a5,ffffffff84008d36 <decodeSetPriority+0xae>
ffffffff84008d10:	4501                	li	a0,0
ffffffff84008d12:	a801                	j	ffffffff84008d22 <decodeSetPriority+0x9a>
ffffffff84008d14:	d3018793          	add	a5,gp,-720 # ffffffff8400afe0 <current_syscall_error>
ffffffff84008d18:	4709                	li	a4,2
ffffffff84008d1a:	fb98                	sd	a4,48(a5)
ffffffff84008d1c:	4705                	li	a4,1
ffffffff84008d1e:	e798                	sd	a4,8(a5)
ffffffff84008d20:	450d                	li	a0,3
ffffffff84008d22:	70a2                	ld	ra,40(sp)
ffffffff84008d24:	7402                	ld	s0,32(sp)
ffffffff84008d26:	64e2                	ld	s1,24(sp)
ffffffff84008d28:	6942                	ld	s2,16(sp)
ffffffff84008d2a:	6145                	add	sp,sp,48
ffffffff84008d2c:	8082                	ret
ffffffff84008d2e:	479d                	li	a5,7
ffffffff84008d30:	d6f1b023          	sd	a5,-672(gp) # ffffffff8400b010 <current_syscall_error+0x30>
ffffffff84008d34:	b7f5                	j	ffffffff84008d20 <decodeSetPriority+0x98>
ffffffff84008d36:	609c                	ld	a5,0(s1)
ffffffff84008d38:	00f40f63          	beq	s0,a5,ffffffff84008d56 <decodeSetPriority+0xce>
ffffffff84008d3c:	8522                	mv	a0,s0
ffffffff84008d3e:	f83fc0ef          	jal	ffffffff84005cc0 <possibleSwitchTo>
ffffffff84008d42:	4501                	li	a0,0
ffffffff84008d44:	bff9                	j	ffffffff84008d22 <decodeSetPriority+0x9a>
ffffffff84008d46:	d3018713          	add	a4,gp,-720 # ffffffff8400afe0 <current_syscall_error>
ffffffff84008d4a:	4691                	li	a3,4
ffffffff84008d4c:	fb14                	sd	a3,48(a4)
ffffffff84008d4e:	ef1c                	sd	a5,24(a4)
ffffffff84008d50:	d401b023          	sd	zero,-704(gp) # ffffffff8400aff0 <current_syscall_error+0x10>
ffffffff84008d54:	b7f1                	j	ffffffff84008d20 <decodeSetPriority+0x98>
ffffffff84008d56:	a9018413          	add	s0,gp,-1392 # ffffffff8400ad40 <ksSchedulerAction>
ffffffff84008d5a:	6008                	ld	a0,0(s0)
ffffffff84008d5c:	00a76663          	bltu	a4,a0,ffffffff84008d68 <decodeSetPriority+0xe0>
ffffffff84008d60:	4785                	li	a5,1
ffffffff84008d62:	e01c                	sd	a5,0(s0)
ffffffff84008d64:	4501                	li	a0,0
ffffffff84008d66:	bf75                	j	ffffffff84008d22 <decodeSetPriority+0x9a>
ffffffff84008d68:	e9dfc0ef          	jal	ffffffff84005c04 <tcbSchedEnqueue>
ffffffff84008d6c:	bfd5                	j	ffffffff84008d60 <decodeSetPriority+0xd8>

ffffffff84008d6e <decodeSetMCPriority>:
ffffffff84008d6e:	1101                	add	sp,sp,-32
ffffffff84008d70:	ec06                	sd	ra,24(sp)
ffffffff84008d72:	e822                	sd	s0,16(sp)
ffffffff84008d74:	e02a                	sd	a0,0(sp)
ffffffff84008d76:	e42e                	sd	a1,8(sp)
ffffffff84008d78:	c249                	beqz	a2,ffffffff84008dfa <decodeSetMCPriority+0x8c>
ffffffff84008d7a:	8981b783          	ld	a5,-1896(gp) # ffffffff8400ab48 <current_extra_caps>
ffffffff84008d7e:	cfb5                	beqz	a5,ffffffff84008dfa <decodeSetMCPriority+0x8c>
ffffffff84008d80:	639c                	ld	a5,0(a5)
ffffffff84008d82:	aa01b503          	ld	a0,-1376(gp) # ffffffff8400ad50 <ksCurThread>
ffffffff84008d86:	4731                	li	a4,12
ffffffff84008d88:	03b7d693          	srl	a3,a5,0x3b
ffffffff84008d8c:	6d20                	ld	s0,88(a0)
ffffffff84008d8e:	04e69b63          	bne	a3,a4,ffffffff84008de4 <decodeSetMCPriority+0x76>
ffffffff84008d92:	0267d693          	srl	a3,a5,0x26
ffffffff84008d96:	577d                	li	a4,-1
ffffffff84008d98:	01975613          	srl	a2,a4,0x19
ffffffff84008d9c:	8a85                	and	a3,a3,1
ffffffff84008d9e:	8ff1                	and	a5,a5,a2
ffffffff84008da0:	c299                	beqz	a3,ffffffff84008da6 <decodeSetMCPriority+0x38>
ffffffff84008da2:	171e                	sll	a4,a4,0x27
ffffffff84008da4:	8fd9                	or	a5,a5,a4
ffffffff84008da6:	1607b783          	ld	a5,352(a5)
ffffffff84008daa:	0487ed63          	bltu	a5,s0,ffffffff84008e04 <decodeSetMCPriority+0x96>
ffffffff84008dae:	11853783          	ld	a5,280(a0)
ffffffff84008db2:	9bc1                	and	a5,a5,-16
ffffffff84008db4:	0027e793          	or	a5,a5,2
ffffffff84008db8:	10f53c23          	sd	a5,280(a0)
ffffffff84008dbc:	fabfc0ef          	jal	ffffffff84005d66 <scheduleTCB>
ffffffff84008dc0:	6782                	ld	a5,0(sp)
ffffffff84008dc2:	577d                	li	a4,-1
ffffffff84008dc4:	01975613          	srl	a2,a4,0x19
ffffffff84008dc8:	0267d693          	srl	a3,a5,0x26
ffffffff84008dcc:	8a85                	and	a3,a3,1
ffffffff84008dce:	8ff1                	and	a5,a5,a2
ffffffff84008dd0:	c299                	beqz	a3,ffffffff84008dd6 <decodeSetMCPriority+0x68>
ffffffff84008dd2:	171e                	sll	a4,a4,0x27
ffffffff84008dd4:	8fd9                	or	a5,a5,a4
ffffffff84008dd6:	60e2                	ld	ra,24(sp)
ffffffff84008dd8:	1687b023          	sd	s0,352(a5)
ffffffff84008ddc:	6442                	ld	s0,16(sp)
ffffffff84008dde:	4501                	li	a0,0
ffffffff84008de0:	6105                	add	sp,sp,32
ffffffff84008de2:	8082                	ret
ffffffff84008de4:	d3018793          	add	a5,gp,-720 # ffffffff8400afe0 <current_syscall_error>
ffffffff84008de8:	4709                	li	a4,2
ffffffff84008dea:	fb98                	sd	a4,48(a5)
ffffffff84008dec:	4705                	li	a4,1
ffffffff84008dee:	e798                	sd	a4,8(a5)
ffffffff84008df0:	450d                	li	a0,3
ffffffff84008df2:	60e2                	ld	ra,24(sp)
ffffffff84008df4:	6442                	ld	s0,16(sp)
ffffffff84008df6:	6105                	add	sp,sp,32
ffffffff84008df8:	8082                	ret
ffffffff84008dfa:	479d                	li	a5,7
ffffffff84008dfc:	d6f1b023          	sd	a5,-672(gp) # ffffffff8400b010 <current_syscall_error+0x30>
ffffffff84008e00:	450d                	li	a0,3
ffffffff84008e02:	bfc5                	j	ffffffff84008df2 <decodeSetMCPriority+0x84>
ffffffff84008e04:	d3018713          	add	a4,gp,-720 # ffffffff8400afe0 <current_syscall_error>
ffffffff84008e08:	4691                	li	a3,4
ffffffff84008e0a:	fb14                	sd	a3,48(a4)
ffffffff84008e0c:	ef1c                	sd	a5,24(a4)
ffffffff84008e0e:	d401b023          	sd	zero,-704(gp) # ffffffff8400aff0 <current_syscall_error+0x10>
ffffffff84008e12:	450d                	li	a0,3
ffffffff84008e14:	bff9                	j	ffffffff84008df2 <decodeSetMCPriority+0x84>

ffffffff84008e16 <decodeSetSchedParams>:
ffffffff84008e16:	7139                	add	sp,sp,-64
ffffffff84008e18:	fc06                	sd	ra,56(sp)
ffffffff84008e1a:	f822                	sd	s0,48(sp)
ffffffff84008e1c:	f426                	sd	s1,40(sp)
ffffffff84008e1e:	f04a                	sd	s2,32(sp)
ffffffff84008e20:	ec4e                	sd	s3,24(sp)
ffffffff84008e22:	e02a                	sd	a0,0(sp)
ffffffff84008e24:	e42e                	sd	a1,8(sp)
ffffffff84008e26:	4785                	li	a5,1
ffffffff84008e28:	0ac7f263          	bgeu	a5,a2,ffffffff84008ecc <decodeSetSchedParams+0xb6>
ffffffff84008e2c:	8981b703          	ld	a4,-1896(gp) # ffffffff8400ab48 <current_extra_caps>
ffffffff84008e30:	cf51                	beqz	a4,ffffffff84008ecc <decodeSetSchedParams+0xb6>
ffffffff84008e32:	6318                	ld	a4,0(a4)
ffffffff84008e34:	aa018493          	add	s1,gp,-1376 # ffffffff8400ad50 <ksCurThread>
ffffffff84008e38:	6088                	ld	a0,0(s1)
ffffffff84008e3a:	03b75613          	srl	a2,a4,0x3b
ffffffff84008e3e:	46b1                	li	a3,12
ffffffff84008e40:	05853903          	ld	s2,88(a0)
ffffffff84008e44:	06053983          	ld	s3,96(a0)
ffffffff84008e48:	06d61563          	bne	a2,a3,ffffffff84008eb2 <decodeSetSchedParams+0x9c>
ffffffff84008e4c:	56fd                	li	a3,-1
ffffffff84008e4e:	179a                	sll	a5,a5,0x26
ffffffff84008e50:	0196d613          	srl	a2,a3,0x19
ffffffff84008e54:	8ff9                	and	a5,a5,a4
ffffffff84008e56:	8f71                	and	a4,a4,a2
ffffffff84008e58:	c399                	beqz	a5,ffffffff84008e5e <decodeSetSchedParams+0x48>
ffffffff84008e5a:	169e                	sll	a3,a3,0x27
ffffffff84008e5c:	8f55                	or	a4,a4,a3
ffffffff84008e5e:	16073783          	ld	a5,352(a4)
ffffffff84008e62:	0927e163          	bltu	a5,s2,ffffffff84008ee4 <decodeSetSchedParams+0xce>
ffffffff84008e66:	0737ef63          	bltu	a5,s3,ffffffff84008ee4 <decodeSetSchedParams+0xce>
ffffffff84008e6a:	11853783          	ld	a5,280(a0)
ffffffff84008e6e:	9bc1                	and	a5,a5,-16
ffffffff84008e70:	0027e793          	or	a5,a5,2
ffffffff84008e74:	10f53c23          	sd	a5,280(a0)
ffffffff84008e78:	eeffc0ef          	jal	ffffffff84005d66 <scheduleTCB>
ffffffff84008e7c:	6402                	ld	s0,0(sp)
ffffffff84008e7e:	57fd                	li	a5,-1
ffffffff84008e80:	0197d693          	srl	a3,a5,0x19
ffffffff84008e84:	02645713          	srl	a4,s0,0x26
ffffffff84008e88:	8b05                	and	a4,a4,1
ffffffff84008e8a:	8c75                	and	s0,s0,a3
ffffffff84008e8c:	c319                	beqz	a4,ffffffff84008e92 <decodeSetSchedParams+0x7c>
ffffffff84008e8e:	179e                	sll	a5,a5,0x27
ffffffff84008e90:	8c5d                	or	s0,s0,a5
ffffffff84008e92:	17243023          	sd	s2,352(s0)
ffffffff84008e96:	8522                	mv	a0,s0
ffffffff84008e98:	d3dfd0ef          	jal	ffffffff84006bd4 <tcbSchedDequeue>
ffffffff84008e9c:	11843783          	ld	a5,280(s0)
ffffffff84008ea0:	17343423          	sd	s3,360(s0)
ffffffff84008ea4:	4705                	li	a4,1
ffffffff84008ea6:	8bbd                	and	a5,a5,15
ffffffff84008ea8:	17fd                	add	a5,a5,-1
ffffffff84008eaa:	02f77563          	bgeu	a4,a5,ffffffff84008ed4 <decodeSetSchedParams+0xbe>
ffffffff84008eae:	4501                	li	a0,0
ffffffff84008eb0:	a039                	j	ffffffff84008ebe <decodeSetSchedParams+0xa8>
ffffffff84008eb2:	d3018713          	add	a4,gp,-720 # ffffffff8400afe0 <current_syscall_error>
ffffffff84008eb6:	4689                	li	a3,2
ffffffff84008eb8:	fb14                	sd	a3,48(a4)
ffffffff84008eba:	e71c                	sd	a5,8(a4)
ffffffff84008ebc:	450d                	li	a0,3
ffffffff84008ebe:	70e2                	ld	ra,56(sp)
ffffffff84008ec0:	7442                	ld	s0,48(sp)
ffffffff84008ec2:	74a2                	ld	s1,40(sp)
ffffffff84008ec4:	7902                	ld	s2,32(sp)
ffffffff84008ec6:	69e2                	ld	s3,24(sp)
ffffffff84008ec8:	6121                	add	sp,sp,64
ffffffff84008eca:	8082                	ret
ffffffff84008ecc:	479d                	li	a5,7
ffffffff84008ece:	d6f1b023          	sd	a5,-672(gp) # ffffffff8400b010 <current_syscall_error+0x30>
ffffffff84008ed2:	b7ed                	j	ffffffff84008ebc <decodeSetSchedParams+0xa6>
ffffffff84008ed4:	609c                	ld	a5,0(s1)
ffffffff84008ed6:	00f40f63          	beq	s0,a5,ffffffff84008ef4 <decodeSetSchedParams+0xde>
ffffffff84008eda:	8522                	mv	a0,s0
ffffffff84008edc:	de5fc0ef          	jal	ffffffff84005cc0 <possibleSwitchTo>
ffffffff84008ee0:	4501                	li	a0,0
ffffffff84008ee2:	bff1                	j	ffffffff84008ebe <decodeSetSchedParams+0xa8>
ffffffff84008ee4:	d3018713          	add	a4,gp,-720 # ffffffff8400afe0 <current_syscall_error>
ffffffff84008ee8:	4691                	li	a3,4
ffffffff84008eea:	fb14                	sd	a3,48(a4)
ffffffff84008eec:	ef1c                	sd	a5,24(a4)
ffffffff84008eee:	d401b023          	sd	zero,-704(gp) # ffffffff8400aff0 <current_syscall_error+0x10>
ffffffff84008ef2:	b7e9                	j	ffffffff84008ebc <decodeSetSchedParams+0xa6>
ffffffff84008ef4:	a9018413          	add	s0,gp,-1392 # ffffffff8400ad40 <ksSchedulerAction>
ffffffff84008ef8:	6008                	ld	a0,0(s0)
ffffffff84008efa:	00a76663          	bltu	a4,a0,ffffffff84008f06 <decodeSetSchedParams+0xf0>
ffffffff84008efe:	4785                	li	a5,1
ffffffff84008f00:	e01c                	sd	a5,0(s0)
ffffffff84008f02:	4501                	li	a0,0
ffffffff84008f04:	bf6d                	j	ffffffff84008ebe <decodeSetSchedParams+0xa8>
ffffffff84008f06:	cfffc0ef          	jal	ffffffff84005c04 <tcbSchedEnqueue>
ffffffff84008f0a:	bfd5                	j	ffffffff84008efe <decodeSetSchedParams+0xe8>

ffffffff84008f0c <decodeSetIPCBuffer>:
ffffffff84008f0c:	7171                	add	sp,sp,-176
ffffffff84008f0e:	f506                	sd	ra,168(sp)
ffffffff84008f10:	f122                	sd	s0,160(sp)
ffffffff84008f12:	ed26                	sd	s1,152(sp)
ffffffff84008f14:	e94a                	sd	s2,144(sp)
ffffffff84008f16:	e54e                	sd	s3,136(sp)
ffffffff84008f18:	e152                	sd	s4,128(sp)
ffffffff84008f1a:	fcd6                	sd	s5,120(sp)
ffffffff84008f1c:	f8da                	sd	s6,112(sp)
ffffffff84008f1e:	f4de                	sd	s7,104(sp)
ffffffff84008f20:	e02a                	sd	a0,0(sp)
ffffffff84008f22:	e42e                	sd	a1,8(sp)
ffffffff84008f24:	10060b63          	beqz	a2,ffffffff8400903a <decodeSetIPCBuffer+0x12e>
ffffffff84008f28:	8981b403          	ld	s0,-1896(gp) # ffffffff8400ab48 <current_extra_caps>
ffffffff84008f2c:	10040763          	beqz	s0,ffffffff8400903a <decodeSetIPCBuffer+0x12e>
ffffffff84008f30:	aa018b13          	add	s6,gp,-1376 # ffffffff8400ad50 <ksCurThread>
ffffffff84008f34:	000b3983          	ld	s3,0(s6)
ffffffff84008f38:	6010                	ld	a2,0(s0)
ffffffff84008f3a:	84b6                	mv	s1,a3
ffffffff84008f3c:	6414                	ld	a3,8(s0)
ffffffff84008f3e:	0589ba03          	ld	s4,88(s3)
ffffffff84008f42:	e832                	sd	a2,16(sp)
ffffffff84008f44:	ec36                	sd	a3,24(sp)
ffffffff84008f46:	0a0a1d63          	bnez	s4,ffffffff84009000 <decodeSetIPCBuffer+0xf4>
ffffffff84008f4a:	4401                	li	s0,0
ffffffff84008f4c:	04010a93          	add	s5,sp,64
ffffffff84008f50:	1189b783          	ld	a5,280(s3)
ffffffff84008f54:	854e                	mv	a0,s3
ffffffff84008f56:	9bc1                	and	a5,a5,-16
ffffffff84008f58:	0027e793          	or	a5,a5,2
ffffffff84008f5c:	10f9bc23          	sd	a5,280(s3)
ffffffff84008f60:	e07fc0ef          	jal	ffffffff84005d66 <scheduleTCB>
ffffffff84008f64:	6782                	ld	a5,0(sp)
ffffffff84008f66:	577d                	li	a4,-1
ffffffff84008f68:	01975613          	srl	a2,a4,0x19
ffffffff84008f6c:	0267d693          	srl	a3,a5,0x26
ffffffff84008f70:	8a85                	and	a3,a3,1
ffffffff84008f72:	8ff1                	and	a5,a5,a2
ffffffff84008f74:	0e068163          	beqz	a3,ffffffff84009056 <decodeSetIPCBuffer+0x14a>
ffffffff84008f78:	171e                	sll	a4,a4,0x27
ffffffff84008f7a:	00e7e9b3          	or	s3,a5,a4
ffffffff84008f7e:	470d                	li	a4,3
ffffffff84008f80:	1776                	sll	a4,a4,0x3d
ffffffff84008f82:	8fd9                	or	a5,a5,a4
ffffffff84008f84:	6742                	ld	a4,16(sp)
ffffffff84008f86:	c009fb93          	and	s7,s3,-1024
ffffffff84008f8a:	080b8b93          	add	s7,s7,128
ffffffff84008f8e:	f03a                	sd	a4,32(sp)
ffffffff84008f90:	6762                	ld	a4,24(sp)
ffffffff84008f92:	4605                	li	a2,1
ffffffff84008f94:	85de                	mv	a1,s7
ffffffff84008f96:	8556                	mv	a0,s5
ffffffff84008f98:	f43a                	sd	a4,40(sp)
ffffffff84008f9a:	f83e                	sd	a5,48(sp)
ffffffff84008f9c:	fc02                	sd	zero,56(sp)
ffffffff84008f9e:	b4efe0ef          	jal	ffffffff840072ec <finaliseSlot>
ffffffff84008fa2:	6906                	ld	s2,64(sp)
ffffffff84008fa4:	04091263          	bnez	s2,ffffffff84008fe8 <decodeSetIPCBuffer+0xdc>
ffffffff84008fa8:	65c6                	ld	a1,80(sp)
ffffffff84008faa:	6666                	ld	a2,88(sp)
ffffffff84008fac:	855e                	mv	a0,s7
ffffffff84008fae:	875fa0ef          	jal	ffffffff84003822 <emptySlot>
ffffffff84008fb2:	1949b023          	sd	s4,384(s3)
ffffffff84008fb6:	c40d                	beqz	s0,ffffffff84008fe0 <decodeSetIPCBuffer+0xd4>
ffffffff84008fb8:	6010                	ld	a2,0(s0)
ffffffff84008fba:	6414                	ld	a3,8(s0)
ffffffff84008fbc:	7502                	ld	a0,32(sp)
ffffffff84008fbe:	75a2                	ld	a1,40(sp)
ffffffff84008fc0:	b23fc0ef          	jal	ffffffff84005ae2 <sameObjectAs>
ffffffff84008fc4:	cd11                	beqz	a0,ffffffff84008fe0 <decodeSetIPCBuffer+0xd4>
ffffffff84008fc6:	6090                	ld	a2,0(s1)
ffffffff84008fc8:	6494                	ld	a3,8(s1)
ffffffff84008fca:	7542                	ld	a0,48(sp)
ffffffff84008fcc:	75e2                	ld	a1,56(sp)
ffffffff84008fce:	b15fc0ef          	jal	ffffffff84005ae2 <sameObjectAs>
ffffffff84008fd2:	c519                	beqz	a0,ffffffff84008fe0 <decodeSetIPCBuffer+0xd4>
ffffffff84008fd4:	7502                	ld	a0,32(sp)
ffffffff84008fd6:	75a2                	ld	a1,40(sp)
ffffffff84008fd8:	86de                	mv	a3,s7
ffffffff84008fda:	8622                	mv	a2,s0
ffffffff84008fdc:	bdffb0ef          	jal	ffffffff84004bba <cteInsert>
ffffffff84008fe0:	000b3783          	ld	a5,0(s6)
ffffffff84008fe4:	07378063          	beq	a5,s3,ffffffff84009044 <decodeSetIPCBuffer+0x138>
ffffffff84008fe8:	70aa                	ld	ra,168(sp)
ffffffff84008fea:	740a                	ld	s0,160(sp)
ffffffff84008fec:	64ea                	ld	s1,152(sp)
ffffffff84008fee:	69aa                	ld	s3,136(sp)
ffffffff84008ff0:	6a0a                	ld	s4,128(sp)
ffffffff84008ff2:	7ae6                	ld	s5,120(sp)
ffffffff84008ff4:	7b46                	ld	s6,112(sp)
ffffffff84008ff6:	7ba6                	ld	s7,104(sp)
ffffffff84008ff8:	854a                	mv	a0,s2
ffffffff84008ffa:	694a                	ld	s2,144(sp)
ffffffff84008ffc:	614d                	add	sp,sp,176
ffffffff84008ffe:	8082                	ret
ffffffff84009000:	04010a93          	add	s5,sp,64
ffffffff84009004:	85a2                	mv	a1,s0
ffffffff84009006:	8556                	mv	a0,s5
ffffffff84009008:	a63fc0ef          	jal	ffffffff84005a6a <deriveCap>
ffffffff8400900c:	6906                	ld	s2,64(sp)
ffffffff8400900e:	fc091de3          	bnez	s2,ffffffff84008fe8 <decodeSetIPCBuffer+0xdc>
ffffffff84009012:	67a6                	ld	a5,72(sp)
ffffffff84009014:	66c6                	ld	a3,80(sp)
ffffffff84009016:	4705                	li	a4,1
ffffffff84009018:	e83e                	sd	a5,16(sp)
ffffffff8400901a:	ec36                	sd	a3,24(sp)
ffffffff8400901c:	03b7d693          	srl	a3,a5,0x3b
ffffffff84009020:	02e69d63          	bne	a3,a4,ffffffff8400905a <decodeSetIPCBuffer+0x14e>
ffffffff84009024:	93d9                	srl	a5,a5,0x36
ffffffff84009026:	8b85                	and	a5,a5,1
ffffffff84009028:	eb8d                	bnez	a5,ffffffff8400905a <decodeSetIPCBuffer+0x14e>
ffffffff8400902a:	3ffa7793          	and	a5,s4,1023
ffffffff8400902e:	d38d                	beqz	a5,ffffffff84008f50 <decodeSetIPCBuffer+0x44>
ffffffff84009030:	4795                	li	a5,5
ffffffff84009032:	d6f1b023          	sd	a5,-672(gp) # ffffffff8400b010 <current_syscall_error+0x30>
ffffffff84009036:	490d                	li	s2,3
ffffffff84009038:	bf45                	j	ffffffff84008fe8 <decodeSetIPCBuffer+0xdc>
ffffffff8400903a:	479d                	li	a5,7
ffffffff8400903c:	d6f1b023          	sd	a5,-672(gp) # ffffffff8400b010 <current_syscall_error+0x30>
ffffffff84009040:	490d                	li	s2,3
ffffffff84009042:	b75d                	j	ffffffff84008fe8 <decodeSetIPCBuffer+0xdc>
ffffffff84009044:	a9018413          	add	s0,gp,-1392 # ffffffff8400ad40 <ksSchedulerAction>
ffffffff84009048:	6008                	ld	a0,0(s0)
ffffffff8400904a:	4785                	li	a5,1
ffffffff8400904c:	00a7e963          	bltu	a5,a0,ffffffff8400905e <decodeSetIPCBuffer+0x152>
ffffffff84009050:	4785                	li	a5,1
ffffffff84009052:	e01c                	sd	a5,0(s0)
ffffffff84009054:	bf51                	j	ffffffff84008fe8 <decodeSetIPCBuffer+0xdc>
ffffffff84009056:	89be                	mv	s3,a5
ffffffff84009058:	b71d                	j	ffffffff84008f7e <decodeSetIPCBuffer+0x72>
ffffffff8400905a:	478d                	li	a5,3
ffffffff8400905c:	bfd9                	j	ffffffff84009032 <decodeSetIPCBuffer+0x126>
ffffffff8400905e:	ba7fc0ef          	jal	ffffffff84005c04 <tcbSchedEnqueue>
ffffffff84009062:	b7fd                	j	ffffffff84009050 <decodeSetIPCBuffer+0x144>

ffffffff84009064 <decodeDomainInvocation>:
ffffffff84009064:	47f5                	li	a5,29
ffffffff84009066:	0cf51363          	bne	a0,a5,ffffffff8400912c <decodeDomainInvocation+0xc8>
ffffffff8400906a:	0e058063          	beqz	a1,ffffffff8400914a <decodeDomainInvocation+0xe6>
ffffffff8400906e:	1101                	add	sp,sp,-32
ffffffff84009070:	e426                	sd	s1,8(sp)
ffffffff84009072:	aa018493          	add	s1,gp,-1376 # ffffffff8400ad50 <ksCurThread>
ffffffff84009076:	6088                	ld	a0,0(s1)
ffffffff84009078:	e04a                	sd	s2,0(sp)
ffffffff8400907a:	ec06                	sd	ra,24(sp)
ffffffff8400907c:	05853903          	ld	s2,88(a0)
ffffffff84009080:	e822                	sd	s0,16(sp)
ffffffff84009082:	47bd                	li	a5,15
ffffffff84009084:	0927e363          	bltu	a5,s2,ffffffff8400910a <decodeDomainInvocation+0xa6>
ffffffff84009088:	8981b783          	ld	a5,-1896(gp) # ffffffff8400ab48 <current_extra_caps>
ffffffff8400908c:	cbd9                	beqz	a5,ffffffff84009122 <decodeDomainInvocation+0xbe>
ffffffff8400908e:	6380                	ld	s0,0(a5)
ffffffff84009090:	47b1                	li	a5,12
ffffffff84009092:	03b45713          	srl	a4,s0,0x3b
ffffffff84009096:	0af71063          	bne	a4,a5,ffffffff84009136 <decodeDomainInvocation+0xd2>
ffffffff8400909a:	11853783          	ld	a5,280(a0)
ffffffff8400909e:	9bc1                	and	a5,a5,-16
ffffffff840090a0:	0027e793          	or	a5,a5,2
ffffffff840090a4:	10f53c23          	sd	a5,280(a0)
ffffffff840090a8:	cbffc0ef          	jal	ffffffff84005d66 <scheduleTCB>
ffffffff840090ac:	02645713          	srl	a4,s0,0x26
ffffffff840090b0:	57fd                	li	a5,-1
ffffffff840090b2:	0197d693          	srl	a3,a5,0x19
ffffffff840090b6:	8b05                	and	a4,a4,1
ffffffff840090b8:	8c75                	and	s0,s0,a3
ffffffff840090ba:	c319                	beqz	a4,ffffffff840090c0 <decodeDomainInvocation+0x5c>
ffffffff840090bc:	179e                	sll	a5,a5,0x27
ffffffff840090be:	8c5d                	or	s0,s0,a5
ffffffff840090c0:	8522                	mv	a0,s0
ffffffff840090c2:	b13fd0ef          	jal	ffffffff84006bd4 <tcbSchedDequeue>
ffffffff840090c6:	11843783          	ld	a5,280(s0)
ffffffff840090ca:	15243c23          	sd	s2,344(s0)
ffffffff840090ce:	4705                	li	a4,1
ffffffff840090d0:	8bbd                	and	a5,a5,15
ffffffff840090d2:	17fd                	add	a5,a5,-1
ffffffff840090d4:	00f77c63          	bgeu	a4,a5,ffffffff840090ec <decodeDomainInvocation+0x88>
ffffffff840090d8:	609c                	ld	a5,0(s1)
ffffffff840090da:	00878f63          	beq	a5,s0,ffffffff840090f8 <decodeDomainInvocation+0x94>
ffffffff840090de:	60e2                	ld	ra,24(sp)
ffffffff840090e0:	6442                	ld	s0,16(sp)
ffffffff840090e2:	64a2                	ld	s1,8(sp)
ffffffff840090e4:	6902                	ld	s2,0(sp)
ffffffff840090e6:	4501                	li	a0,0
ffffffff840090e8:	6105                	add	sp,sp,32
ffffffff840090ea:	8082                	ret
ffffffff840090ec:	8522                	mv	a0,s0
ffffffff840090ee:	b17fc0ef          	jal	ffffffff84005c04 <tcbSchedEnqueue>
ffffffff840090f2:	609c                	ld	a5,0(s1)
ffffffff840090f4:	fe8795e3          	bne	a5,s0,ffffffff840090de <decodeDomainInvocation+0x7a>
ffffffff840090f8:	a9018413          	add	s0,gp,-1392 # ffffffff8400ad40 <ksSchedulerAction>
ffffffff840090fc:	6008                	ld	a0,0(s0)
ffffffff840090fe:	4785                	li	a5,1
ffffffff84009100:	04a7e263          	bltu	a5,a0,ffffffff84009144 <decodeDomainInvocation+0xe0>
ffffffff84009104:	4785                	li	a5,1
ffffffff84009106:	e01c                	sd	a5,0(s0)
ffffffff84009108:	bfd9                	j	ffffffff840090de <decodeDomainInvocation+0x7a>
ffffffff8400910a:	4785                	li	a5,1
ffffffff8400910c:	d6f1b023          	sd	a5,-672(gp) # ffffffff8400b010 <current_syscall_error+0x30>
ffffffff84009110:	450d                	li	a0,3
ffffffff84009112:	d201b823          	sd	zero,-720(gp) # ffffffff8400afe0 <current_syscall_error>
ffffffff84009116:	60e2                	ld	ra,24(sp)
ffffffff84009118:	6442                	ld	s0,16(sp)
ffffffff8400911a:	64a2                	ld	s1,8(sp)
ffffffff8400911c:	6902                	ld	s2,0(sp)
ffffffff8400911e:	6105                	add	sp,sp,32
ffffffff84009120:	8082                	ret
ffffffff84009122:	479d                	li	a5,7
ffffffff84009124:	d6f1b023          	sd	a5,-672(gp) # ffffffff8400b010 <current_syscall_error+0x30>
ffffffff84009128:	450d                	li	a0,3
ffffffff8400912a:	b7f5                	j	ffffffff84009116 <decodeDomainInvocation+0xb2>
ffffffff8400912c:	478d                	li	a5,3
ffffffff8400912e:	d6f1b023          	sd	a5,-672(gp) # ffffffff8400b010 <current_syscall_error+0x30>
ffffffff84009132:	450d                	li	a0,3
ffffffff84009134:	8082                	ret
ffffffff84009136:	d3018793          	add	a5,gp,-720 # ffffffff8400afe0 <current_syscall_error>
ffffffff8400913a:	4705                	li	a4,1
ffffffff8400913c:	fb98                	sd	a4,48(a5)
ffffffff8400913e:	e398                	sd	a4,0(a5)
ffffffff84009140:	450d                	li	a0,3
ffffffff84009142:	bfd1                	j	ffffffff84009116 <decodeDomainInvocation+0xb2>
ffffffff84009144:	ac1fc0ef          	jal	ffffffff84005c04 <tcbSchedEnqueue>
ffffffff84009148:	bf75                	j	ffffffff84009104 <decodeDomainInvocation+0xa0>
ffffffff8400914a:	479d                	li	a5,7
ffffffff8400914c:	d6f1b023          	sd	a5,-672(gp) # ffffffff8400b010 <current_syscall_error+0x30>
ffffffff84009150:	b7cd                	j	ffffffff84009132 <decodeDomainInvocation+0xce>

ffffffff84009152 <decodeBindNotification>:
ffffffff84009152:	715d                	add	sp,sp,-80
ffffffff84009154:	e486                	sd	ra,72(sp)
ffffffff84009156:	e0a6                	sd	s1,64(sp)
ffffffff84009158:	fc4a                	sd	s2,56(sp)
ffffffff8400915a:	f84e                	sd	s3,48(sp)
ffffffff8400915c:	f452                	sd	s4,40(sp)
ffffffff8400915e:	f056                	sd	s5,32(sp)
ffffffff84009160:	e82a                	sd	a0,16(sp)
ffffffff84009162:	ec2e                	sd	a1,24(sp)
ffffffff84009164:	8981b683          	ld	a3,-1896(gp) # ffffffff8400ab48 <current_extra_caps>
ffffffff84009168:	c6d5                	beqz	a3,ffffffff84009214 <decodeBindNotification+0xc2>
ffffffff8400916a:	57fd                	li	a5,-1
ffffffff8400916c:	02655713          	srl	a4,a0,0x26
ffffffff84009170:	0197d613          	srl	a2,a5,0x19
ffffffff84009174:	8b05                	and	a4,a4,1
ffffffff84009176:	8e69                	and	a2,a2,a0
ffffffff84009178:	c319                	beqz	a4,ffffffff8400917e <decodeBindNotification+0x2c>
ffffffff8400917a:	179e                	sll	a5,a5,0x27
ffffffff8400917c:	8e5d                	or	a2,a2,a5
ffffffff8400917e:	13063783          	ld	a5,304(a2) # fffffffff8000130 <ki_end+0x73fde130>
ffffffff84009182:	efa5                	bnez	a5,ffffffff840091fa <decodeBindNotification+0xa8>
ffffffff84009184:	629c                	ld	a5,0(a3)
ffffffff84009186:	4719                	li	a4,6
ffffffff84009188:	03b7d693          	srl	a3,a5,0x3b
ffffffff8400918c:	06e69763          	bne	a3,a4,ffffffff840091fa <decodeBindNotification+0xa8>
ffffffff84009190:	56fd                	li	a3,-1
ffffffff84009192:	0267d713          	srl	a4,a5,0x26
ffffffff84009196:	0196d493          	srl	s1,a3,0x19
ffffffff8400919a:	8b05                	and	a4,a4,1
ffffffff8400919c:	8cfd                	and	s1,s1,a5
ffffffff8400919e:	c319                	beqz	a4,ffffffff840091a4 <decodeBindNotification+0x52>
ffffffff840091a0:	169e                	sll	a3,a3,0x27
ffffffff840091a2:	8cd5                	or	s1,s1,a3
ffffffff840091a4:	93e9                	srl	a5,a5,0x3a
ffffffff840091a6:	4731                	li	a4,12
ffffffff840091a8:	04e78963          	beq	a5,a4,ffffffff840091fa <decodeBindNotification+0xa8>
ffffffff840091ac:	6498                	ld	a4,8(s1)
ffffffff840091ae:	5a7d                	li	s4,-1
ffffffff840091b0:	019a5993          	srl	s3,s4,0x19
ffffffff840091b4:	01377733          	and	a4,a4,s3
ffffffff840091b8:	478d                	li	a5,3
ffffffff840091ba:	e329                	bnez	a4,ffffffff840091fc <decodeBindNotification+0xaa>
ffffffff840091bc:	0184ba83          	ld	s5,24(s1)
ffffffff840091c0:	013af933          	and	s2,s5,s3
ffffffff840091c4:	02091c63          	bnez	s2,ffffffff840091fc <decodeBindNotification+0xaa>
ffffffff840091c8:	aa01b503          	ld	a0,-1376(gp) # ffffffff8400ad50 <ksCurThread>
ffffffff840091cc:	11853783          	ld	a5,280(a0)
ffffffff840091d0:	e432                	sd	a2,8(sp)
ffffffff840091d2:	9bc1                	and	a5,a5,-16
ffffffff840091d4:	0027e793          	or	a5,a5,2
ffffffff840091d8:	10f53c23          	sd	a5,280(a0)
ffffffff840091dc:	b8bfc0ef          	jal	ffffffff84005d66 <scheduleTCB>
ffffffff840091e0:	c08d                	beqz	s1,ffffffff84009202 <decodeBindNotification+0xb0>
ffffffff840091e2:	6622                	ld	a2,8(sp)
ffffffff840091e4:	1a1e                	sll	s4,s4,0x27
ffffffff840091e6:	014af7b3          	and	a5,s5,s4
ffffffff840091ea:	013679b3          	and	s3,a2,s3
ffffffff840091ee:	0137e7b3          	or	a5,a5,s3
ffffffff840091f2:	ec9c                	sd	a5,24(s1)
ffffffff840091f4:	12963823          	sd	s1,304(a2)
ffffffff840091f8:	a029                	j	ffffffff84009202 <decodeBindNotification+0xb0>
ffffffff840091fa:	478d                	li	a5,3
ffffffff840091fc:	d6f1b023          	sd	a5,-672(gp) # ffffffff8400b010 <current_syscall_error+0x30>
ffffffff84009200:	490d                	li	s2,3
ffffffff84009202:	60a6                	ld	ra,72(sp)
ffffffff84009204:	6486                	ld	s1,64(sp)
ffffffff84009206:	79c2                	ld	s3,48(sp)
ffffffff84009208:	7a22                	ld	s4,40(sp)
ffffffff8400920a:	7a82                	ld	s5,32(sp)
ffffffff8400920c:	854a                	mv	a0,s2
ffffffff8400920e:	7962                	ld	s2,56(sp)
ffffffff84009210:	6161                	add	sp,sp,80
ffffffff84009212:	8082                	ret
ffffffff84009214:	479d                	li	a5,7
ffffffff84009216:	b7dd                	j	ffffffff840091fc <decodeBindNotification+0xaa>

ffffffff84009218 <decodeUnbindNotification>:
ffffffff84009218:	1141                	add	sp,sp,-16
ffffffff8400921a:	577d                	li	a4,-1
ffffffff8400921c:	02655693          	srl	a3,a0,0x26
ffffffff84009220:	01975613          	srl	a2,a4,0x19
ffffffff84009224:	e02a                	sd	a0,0(sp)
ffffffff84009226:	e42e                	sd	a1,8(sp)
ffffffff84009228:	8a85                	and	a3,a3,1
ffffffff8400922a:	00c577b3          	and	a5,a0,a2
ffffffff8400922e:	c299                	beqz	a3,ffffffff84009234 <decodeUnbindNotification+0x1c>
ffffffff84009230:	171e                	sll	a4,a4,0x27
ffffffff84009232:	8fd9                	or	a5,a5,a4
ffffffff84009234:	1307b603          	ld	a2,304(a5)
ffffffff84009238:	c21d                	beqz	a2,ffffffff8400925e <decodeUnbindNotification+0x46>
ffffffff8400923a:	aa01b583          	ld	a1,-1376(gp) # ffffffff8400ad50 <ksCurThread>
ffffffff8400923e:	1185b683          	ld	a3,280(a1)
ffffffff84009242:	6e18                	ld	a4,24(a2)
ffffffff84009244:	4501                	li	a0,0
ffffffff84009246:	9ac1                	and	a3,a3,-16
ffffffff84009248:	0026e693          	or	a3,a3,2
ffffffff8400924c:	931d                	srl	a4,a4,0x27
ffffffff8400924e:	10d5bc23          	sd	a3,280(a1)
ffffffff84009252:	171e                	sll	a4,a4,0x27
ffffffff84009254:	ee18                	sd	a4,24(a2)
ffffffff84009256:	1207b823          	sd	zero,304(a5)
ffffffff8400925a:	0141                	add	sp,sp,16
ffffffff8400925c:	8082                	ret
ffffffff8400925e:	478d                	li	a5,3
ffffffff84009260:	d6f1b023          	sd	a5,-672(gp) # ffffffff8400b010 <current_syscall_error+0x30>
ffffffff84009264:	450d                	li	a0,3
ffffffff84009266:	0141                	add	sp,sp,16
ffffffff84009268:	8082                	ret

ffffffff8400926a <invokeTCB_Suspend>:
ffffffff8400926a:	1141                	add	sp,sp,-16
ffffffff8400926c:	e022                	sd	s0,0(sp)
ffffffff8400926e:	e406                	sd	ra,8(sp)
ffffffff84009270:	842a                	mv	s0,a0
ffffffff84009272:	825fe0ef          	jal	ffffffff84007a96 <cancelIPC>
ffffffff84009276:	11843783          	ld	a5,280(s0)
ffffffff8400927a:	4705                	li	a4,1
ffffffff8400927c:	00f7f693          	and	a3,a5,15
ffffffff84009280:	00e69663          	bne	a3,a4,ffffffff8400928c <invokeTCB_Suspend+0x22>
ffffffff84009284:	11043703          	ld	a4,272(s0)
ffffffff84009288:	10e43423          	sd	a4,264(s0)
ffffffff8400928c:	9bc1                	and	a5,a5,-16
ffffffff8400928e:	10f43c23          	sd	a5,280(s0)
ffffffff84009292:	8522                	mv	a0,s0
ffffffff84009294:	ad3fc0ef          	jal	ffffffff84005d66 <scheduleTCB>
ffffffff84009298:	8522                	mv	a0,s0
ffffffff8400929a:	93bfd0ef          	jal	ffffffff84006bd4 <tcbSchedDequeue>
ffffffff8400929e:	60a2                	ld	ra,8(sp)
ffffffff840092a0:	6402                	ld	s0,0(sp)
ffffffff840092a2:	4501                	li	a0,0
ffffffff840092a4:	0141                	add	sp,sp,16
ffffffff840092a6:	8082                	ret

ffffffff840092a8 <invokeTCB_Resume>:
ffffffff840092a8:	1141                	add	sp,sp,-16
ffffffff840092aa:	e406                	sd	ra,8(sp)
ffffffff840092ac:	90ffe0ef          	jal	ffffffff84007bba <restart>
ffffffff840092b0:	60a2                	ld	ra,8(sp)
ffffffff840092b2:	4501                	li	a0,0
ffffffff840092b4:	0141                	add	sp,sp,16
ffffffff840092b6:	8082                	ret

ffffffff840092b8 <invokeTCB_ThreadControl>:
ffffffff840092b8:	7119                	add	sp,sp,-128
ffffffff840092ba:	f8a2                	sd	s0,112(sp)
ffffffff840092bc:	f4a6                	sd	s1,104(sp)
ffffffff840092be:	842a                	mv	s0,a0
ffffffff840092c0:	74ea                	ld	s1,184(sp)
ffffffff840092c2:	0566                	sll	a0,a0,0x19
ffffffff840092c4:	430d                	li	t1,3
ffffffff840092c6:	8165                	srl	a0,a0,0x19
ffffffff840092c8:	1376                	sll	t1,t1,0x3d
ffffffff840092ca:	00656533          	or	a0,a0,t1
ffffffff840092ce:	f0ca                	sd	s2,96(sp)
ffffffff840092d0:	ecce                	sd	s3,88(sp)
ffffffff840092d2:	e03e                	sd	a5,0(sp)
ffffffff840092d4:	e82a                	sd	a0,16(sp)
ffffffff840092d6:	fc86                	sd	ra,120(sp)
ffffffff840092d8:	e8d2                	sd	s4,80(sp)
ffffffff840092da:	e4d6                	sd	s5,72(sp)
ffffffff840092dc:	e442                	sd	a6,8(sp)
ffffffff840092de:	ec02                	sd	zero,24(sp)
ffffffff840092e0:	0044f513          	and	a0,s1,4
ffffffff840092e4:	892e                	mv	s2,a1
ffffffff840092e6:	89ba                	mv	s3,a4
ffffffff840092e8:	0084f793          	and	a5,s1,8
ffffffff840092ec:	ed5d                	bnez	a0,ffffffff840093aa <invokeTCB_ThreadControl+0xf2>
ffffffff840092ee:	e385                	bnez	a5,ffffffff8400930e <invokeTCB_ThreadControl+0x56>
ffffffff840092f0:	0024f793          	and	a5,s1,2
ffffffff840092f4:	e395                	bnez	a5,ffffffff84009318 <invokeTCB_ThreadControl+0x60>
ffffffff840092f6:	8885                	and	s1,s1,1
ffffffff840092f8:	e4c9                	bnez	s1,ffffffff84009382 <invokeTCB_ThreadControl+0xca>
ffffffff840092fa:	4501                	li	a0,0
ffffffff840092fc:	70e6                	ld	ra,120(sp)
ffffffff840092fe:	7446                	ld	s0,112(sp)
ffffffff84009300:	74a6                	ld	s1,104(sp)
ffffffff84009302:	7906                	ld	s2,96(sp)
ffffffff84009304:	69e6                	ld	s3,88(sp)
ffffffff84009306:	6a46                	ld	s4,80(sp)
ffffffff84009308:	6aa6                	ld	s5,72(sp)
ffffffff8400930a:	6109                	add	sp,sp,128
ffffffff8400930c:	8082                	ret
ffffffff8400930e:	16d43023          	sd	a3,352(s0)
ffffffff84009312:	0024f793          	and	a5,s1,2
ffffffff84009316:	d3e5                	beqz	a5,ffffffff840092f6 <invokeTCB_ThreadControl+0x3e>
ffffffff84009318:	c0047a13          	and	s4,s0,-1024
ffffffff8400931c:	080a0a13          	add	s4,s4,128
ffffffff84009320:	1008                	add	a0,sp,32
ffffffff84009322:	4605                	li	a2,1
ffffffff84009324:	85d2                	mv	a1,s4
ffffffff84009326:	fc7fd0ef          	jal	ffffffff840072ec <finaliseSlot>
ffffffff8400932a:	7502                	ld	a0,32(sp)
ffffffff8400932c:	f961                	bnez	a0,ffffffff840092fc <invokeTCB_ThreadControl+0x44>
ffffffff8400932e:	75c2                	ld	a1,48(sp)
ffffffff84009330:	7662                	ld	a2,56(sp)
ffffffff84009332:	8552                	mv	a0,s4
ffffffff84009334:	ceefa0ef          	jal	ffffffff84003822 <emptySlot>
ffffffff84009338:	67ea                	ld	a5,152(sp)
ffffffff8400933a:	18f43023          	sd	a5,384(s0)
ffffffff8400933e:	77ca                	ld	a5,176(sp)
ffffffff84009340:	c395                	beqz	a5,ffffffff84009364 <invokeTCB_ThreadControl+0xac>
ffffffff84009342:	6390                	ld	a2,0(a5)
ffffffff84009344:	6794                	ld	a3,8(a5)
ffffffff84009346:	750a                	ld	a0,160(sp)
ffffffff84009348:	75aa                	ld	a1,168(sp)
ffffffff8400934a:	f98fc0ef          	jal	ffffffff84005ae2 <sameObjectAs>
ffffffff8400934e:	c919                	beqz	a0,ffffffff84009364 <invokeTCB_ThreadControl+0xac>
ffffffff84009350:	00093603          	ld	a2,0(s2)
ffffffff84009354:	00893683          	ld	a3,8(s2)
ffffffff84009358:	6542                	ld	a0,16(sp)
ffffffff8400935a:	65e2                	ld	a1,24(sp)
ffffffff8400935c:	f86fc0ef          	jal	ffffffff84005ae2 <sameObjectAs>
ffffffff84009360:	0e051b63          	bnez	a0,ffffffff84009456 <invokeTCB_ThreadControl+0x19e>
ffffffff84009364:	aa01b783          	ld	a5,-1376(gp) # ffffffff8400ad50 <ksCurThread>
ffffffff84009368:	f88797e3          	bne	a5,s0,ffffffff840092f6 <invokeTCB_ThreadControl+0x3e>
ffffffff8400936c:	a9018913          	add	s2,gp,-1392 # ffffffff8400ad40 <ksSchedulerAction>
ffffffff84009370:	00093503          	ld	a0,0(s2)
ffffffff84009374:	4785                	li	a5,1
ffffffff84009376:	10a7e163          	bltu	a5,a0,ffffffff84009478 <invokeTCB_ThreadControl+0x1c0>
ffffffff8400937a:	4785                	li	a5,1
ffffffff8400937c:	00f93023          	sd	a5,0(s2)
ffffffff84009380:	bf9d                	j	ffffffff840092f6 <invokeTCB_ThreadControl+0x3e>
ffffffff84009382:	8522                	mv	a0,s0
ffffffff84009384:	851fd0ef          	jal	ffffffff84006bd4 <tcbSchedDequeue>
ffffffff84009388:	11843783          	ld	a5,280(s0)
ffffffff8400938c:	17343423          	sd	s3,360(s0)
ffffffff84009390:	4705                	li	a4,1
ffffffff84009392:	8bbd                	and	a5,a5,15
ffffffff84009394:	17fd                	add	a5,a5,-1
ffffffff84009396:	f6f762e3          	bltu	a4,a5,ffffffff840092fa <invokeTCB_ThreadControl+0x42>
ffffffff8400939a:	aa01b783          	ld	a5,-1376(gp) # ffffffff8400ad50 <ksCurThread>
ffffffff8400939e:	0cf40363          	beq	s0,a5,ffffffff84009464 <invokeTCB_ThreadControl+0x1ac>
ffffffff840093a2:	8522                	mv	a0,s0
ffffffff840093a4:	91dfc0ef          	jal	ffffffff84005cc0 <possibleSwitchTo>
ffffffff840093a8:	bf89                	j	ffffffff840092fa <invokeTCB_ThreadControl+0x42>
ffffffff840093aa:	16c43c23          	sd	a2,376(s0)
ffffffff840093ae:	8ac6                	mv	s5,a7
ffffffff840093b0:	c399                	beqz	a5,ffffffff840093b6 <invokeTCB_ThreadControl+0xfe>
ffffffff840093b2:	16d43023          	sd	a3,352(s0)
ffffffff840093b6:	c0047a13          	and	s4,s0,-1024
ffffffff840093ba:	1008                	add	a0,sp,32
ffffffff840093bc:	4605                	li	a2,1
ffffffff840093be:	85d2                	mv	a1,s4
ffffffff840093c0:	f2dfd0ef          	jal	ffffffff840072ec <finaliseSlot>
ffffffff840093c4:	7502                	ld	a0,32(sp)
ffffffff840093c6:	f91d                	bnez	a0,ffffffff840092fc <invokeTCB_ThreadControl+0x44>
ffffffff840093c8:	75c2                	ld	a1,48(sp)
ffffffff840093ca:	7662                	ld	a2,56(sp)
ffffffff840093cc:	8552                	mv	a0,s4
ffffffff840093ce:	c54fa0ef          	jal	ffffffff84003822 <emptySlot>
ffffffff840093d2:	000ab603          	ld	a2,0(s5)
ffffffff840093d6:	008ab683          	ld	a3,8(s5)
ffffffff840093da:	6502                	ld	a0,0(sp)
ffffffff840093dc:	65a2                	ld	a1,8(sp)
ffffffff840093de:	f04fc0ef          	jal	ffffffff84005ae2 <sameObjectAs>
ffffffff840093e2:	c911                	beqz	a0,ffffffff840093f6 <invokeTCB_ThreadControl+0x13e>
ffffffff840093e4:	00093603          	ld	a2,0(s2)
ffffffff840093e8:	00893683          	ld	a3,8(s2)
ffffffff840093ec:	6542                	ld	a0,16(sp)
ffffffff840093ee:	65e2                	ld	a1,24(sp)
ffffffff840093f0:	ef2fc0ef          	jal	ffffffff84005ae2 <sameObjectAs>
ffffffff840093f4:	e931                	bnez	a0,ffffffff84009448 <invokeTCB_ThreadControl+0x190>
ffffffff840093f6:	020a0a13          	add	s4,s4,32
ffffffff840093fa:	1008                	add	a0,sp,32
ffffffff840093fc:	4605                	li	a2,1
ffffffff840093fe:	85d2                	mv	a1,s4
ffffffff84009400:	eedfd0ef          	jal	ffffffff840072ec <finaliseSlot>
ffffffff84009404:	7502                	ld	a0,32(sp)
ffffffff84009406:	ee051be3          	bnez	a0,ffffffff840092fc <invokeTCB_ThreadControl+0x44>
ffffffff8400940a:	75c2                	ld	a1,48(sp)
ffffffff8400940c:	7662                	ld	a2,56(sp)
ffffffff8400940e:	8552                	mv	a0,s4
ffffffff84009410:	c12fa0ef          	jal	ffffffff84003822 <emptySlot>
ffffffff84009414:	67ca                	ld	a5,144(sp)
ffffffff84009416:	650a                	ld	a0,128(sp)
ffffffff84009418:	65aa                	ld	a1,136(sp)
ffffffff8400941a:	6390                	ld	a2,0(a5)
ffffffff8400941c:	6794                	ld	a3,8(a5)
ffffffff8400941e:	ec4fc0ef          	jal	ffffffff84005ae2 <sameObjectAs>
ffffffff84009422:	ec0507e3          	beqz	a0,ffffffff840092f0 <invokeTCB_ThreadControl+0x38>
ffffffff84009426:	00093603          	ld	a2,0(s2)
ffffffff8400942a:	00893683          	ld	a3,8(s2)
ffffffff8400942e:	6542                	ld	a0,16(sp)
ffffffff84009430:	65e2                	ld	a1,24(sp)
ffffffff84009432:	eb0fc0ef          	jal	ffffffff84005ae2 <sameObjectAs>
ffffffff84009436:	ea050de3          	beqz	a0,ffffffff840092f0 <invokeTCB_ThreadControl+0x38>
ffffffff8400943a:	650a                	ld	a0,128(sp)
ffffffff8400943c:	65aa                	ld	a1,136(sp)
ffffffff8400943e:	664a                	ld	a2,144(sp)
ffffffff84009440:	86d2                	mv	a3,s4
ffffffff84009442:	f78fb0ef          	jal	ffffffff84004bba <cteInsert>
ffffffff84009446:	b56d                	j	ffffffff840092f0 <invokeTCB_ThreadControl+0x38>
ffffffff84009448:	6502                	ld	a0,0(sp)
ffffffff8400944a:	65a2                	ld	a1,8(sp)
ffffffff8400944c:	86d2                	mv	a3,s4
ffffffff8400944e:	8656                	mv	a2,s5
ffffffff84009450:	f6afb0ef          	jal	ffffffff84004bba <cteInsert>
ffffffff84009454:	b74d                	j	ffffffff840093f6 <invokeTCB_ThreadControl+0x13e>
ffffffff84009456:	750a                	ld	a0,160(sp)
ffffffff84009458:	75aa                	ld	a1,168(sp)
ffffffff8400945a:	764a                	ld	a2,176(sp)
ffffffff8400945c:	86d2                	mv	a3,s4
ffffffff8400945e:	f5cfb0ef          	jal	ffffffff84004bba <cteInsert>
ffffffff84009462:	b709                	j	ffffffff84009364 <invokeTCB_ThreadControl+0xac>
ffffffff84009464:	a9018913          	add	s2,gp,-1392 # ffffffff8400ad40 <ksSchedulerAction>
ffffffff84009468:	00093503          	ld	a0,0(s2)
ffffffff8400946c:	00a76963          	bltu	a4,a0,ffffffff8400947e <invokeTCB_ThreadControl+0x1c6>
ffffffff84009470:	4785                	li	a5,1
ffffffff84009472:	00f93023          	sd	a5,0(s2)
ffffffff84009476:	b551                	j	ffffffff840092fa <invokeTCB_ThreadControl+0x42>
ffffffff84009478:	f8cfc0ef          	jal	ffffffff84005c04 <tcbSchedEnqueue>
ffffffff8400947c:	bdfd                	j	ffffffff8400937a <invokeTCB_ThreadControl+0xc2>
ffffffff8400947e:	f86fc0ef          	jal	ffffffff84005c04 <tcbSchedEnqueue>
ffffffff84009482:	b7fd                	j	ffffffff84009470 <invokeTCB_ThreadControl+0x1b8>

ffffffff84009484 <decodeTCBConfigure>:
ffffffff84009484:	712d                	add	sp,sp,-288
ffffffff84009486:	ee06                	sd	ra,280(sp)
ffffffff84009488:	ea22                	sd	s0,272(sp)
ffffffff8400948a:	e626                	sd	s1,264(sp)
ffffffff8400948c:	e24a                	sd	s2,256(sp)
ffffffff8400948e:	fdce                	sd	s3,248(sp)
ffffffff84009490:	f9d2                	sd	s4,240(sp)
ffffffff84009492:	f5d6                	sd	s5,232(sp)
ffffffff84009494:	f1da                	sd	s6,224(sp)
ffffffff84009496:	edde                	sd	s7,216(sp)
ffffffff84009498:	e9e2                	sd	s8,208(sp)
ffffffff8400949a:	e5e6                	sd	s9,200(sp)
ffffffff8400949c:	e1ea                	sd	s10,192(sp)
ffffffff8400949e:	fd6e                	sd	s11,184(sp)
ffffffff840094a0:	e8aa                	sd	a0,80(sp)
ffffffff840094a2:	ecae                	sd	a1,88(sp)
ffffffff840094a4:	478d                	li	a5,3
ffffffff840094a6:	1ac7f163          	bgeu	a5,a2,ffffffff84009648 <decodeTCBConfigure+0x1c4>
ffffffff840094aa:	89818793          	add	a5,gp,-1896 # ffffffff8400ab48 <current_extra_caps>
ffffffff840094ae:	0007b903          	ld	s2,0(a5)
ffffffff840094b2:	18090b63          	beqz	s2,ffffffff84009648 <decodeTCBConfigure+0x1c4>
ffffffff840094b6:	0087bb03          	ld	s6,8(a5)
ffffffff840094ba:	180b0763          	beqz	s6,ffffffff84009648 <decodeTCBConfigure+0x1c4>
ffffffff840094be:	0107b983          	ld	s3,16(a5)
ffffffff840094c2:	18098363          	beqz	s3,ffffffff84009648 <decodeTCBConfigure+0x1c4>
ffffffff840094c6:	008b3783          	ld	a5,8(s6)
ffffffff840094ca:	aa01ba83          	ld	s5,-1376(gp) # ffffffff8400ad50 <ksCurThread>
ffffffff840094ce:	00093a03          	ld	s4,0(s2)
ffffffff840094d2:	000b3b83          	ld	s7,0(s6)
ffffffff840094d6:	00893703          	ld	a4,8(s2)
ffffffff840094da:	0009b603          	ld	a2,0(s3)
ffffffff840094de:	8436                	mv	s0,a3
ffffffff840094e0:	e93e                	sd	a5,144(sp)
ffffffff840094e2:	0089b683          	ld	a3,8(s3)
ffffffff840094e6:	058ab783          	ld	a5,88(s5)
ffffffff840094ea:	070abc03          	ld	s8,112(s5)
ffffffff840094ee:	fcd2                	sd	s4,120(sp)
ffffffff840094f0:	e13a                	sd	a4,128(sp)
ffffffff840094f2:	e55e                	sd	s7,136(sp)
ffffffff840094f4:	f4b2                	sd	a2,104(sp)
ffffffff840094f6:	f8b6                	sd	a3,112(sp)
ffffffff840094f8:	e4be                	sd	a5,72(sp)
ffffffff840094fa:	060abc83          	ld	s9,96(s5)
ffffffff840094fe:	068abd03          	ld	s10,104(s5)
ffffffff84009502:	140c1863          	bnez	s8,ffffffff84009652 <decodeTCBConfigure+0x1ce>
ffffffff84009506:	4981                	li	s3,0
ffffffff84009508:	64c6                	ld	s1,80(sp)
ffffffff8400950a:	57fd                	li	a5,-1
ffffffff8400950c:	0197d693          	srl	a3,a5,0x19
ffffffff84009510:	0264d713          	srl	a4,s1,0x26
ffffffff84009514:	8b05                	and	a4,a4,1
ffffffff84009516:	8cf5                	and	s1,s1,a3
ffffffff84009518:	c319                	beqz	a4,ffffffff8400951e <decodeTCBConfigure+0x9a>
ffffffff8400951a:	179e                	sll	a5,a5,0x27
ffffffff8400951c:	8cdd                	or	s1,s1,a5
ffffffff8400951e:	c004fd93          	and	s11,s1,-1024
ffffffff84009522:	000db703          	ld	a4,0(s11)
ffffffff84009526:	936d                	srl	a4,a4,0x3b
ffffffff84009528:	e0ba                	sd	a4,64(sp)
ffffffff8400952a:	c329                	beqz	a4,ffffffff8400956c <decodeTCBConfigure+0xe8>
ffffffff8400952c:	856e                	mv	a0,s11
ffffffff8400952e:	dfafc0ef          	jal	ffffffff84005b28 <isFinalCapability>
ffffffff84009532:	cd0d                	beqz	a0,ffffffff8400956c <decodeTCBConfigure+0xe8>
ffffffff84009534:	6706                	ld	a4,64(sp)
ffffffff84009536:	000416b7          	lui	a3,0x41
ffffffff8400953a:	40068693          	add	a3,a3,1024 # 41400 <KERNEL_OFFSET-0xfffffffefffbec00>
ffffffff8400953e:	00e6d733          	srl	a4,a3,a4
ffffffff84009542:	8b05                	and	a4,a4,1
ffffffff84009544:	c705                	beqz	a4,ffffffff8400956c <decodeTCBConfigure+0xe8>
ffffffff84009546:	478d                	li	a5,3
ffffffff84009548:	d6f1b023          	sd	a5,-672(gp) # ffffffff8400b010 <current_syscall_error+0x30>
ffffffff8400954c:	450d                	li	a0,3
ffffffff8400954e:	60f2                	ld	ra,280(sp)
ffffffff84009550:	6452                	ld	s0,272(sp)
ffffffff84009552:	64b2                	ld	s1,264(sp)
ffffffff84009554:	6912                	ld	s2,256(sp)
ffffffff84009556:	79ee                	ld	s3,248(sp)
ffffffff84009558:	7a4e                	ld	s4,240(sp)
ffffffff8400955a:	7aae                	ld	s5,232(sp)
ffffffff8400955c:	7b0e                	ld	s6,224(sp)
ffffffff8400955e:	6bee                	ld	s7,216(sp)
ffffffff84009560:	6c4e                	ld	s8,208(sp)
ffffffff84009562:	6cae                	ld	s9,200(sp)
ffffffff84009564:	6d0e                	ld	s10,192(sp)
ffffffff84009566:	7dea                	ld	s11,184(sp)
ffffffff84009568:	6115                	add	sp,sp,288
ffffffff8400956a:	8082                	ret
ffffffff8400956c:	020db703          	ld	a4,32(s11)
ffffffff84009570:	020d8513          	add	a0,s11,32
ffffffff84009574:	03b75793          	srl	a5,a4,0x3b
ffffffff84009578:	e0be                	sd	a5,64(sp)
ffffffff8400957a:	cf89                	beqz	a5,ffffffff84009594 <decodeTCBConfigure+0x110>
ffffffff8400957c:	dacfc0ef          	jal	ffffffff84005b28 <isFinalCapability>
ffffffff84009580:	c911                	beqz	a0,ffffffff84009594 <decodeTCBConfigure+0x110>
ffffffff84009582:	6786                	ld	a5,64(sp)
ffffffff84009584:	00041737          	lui	a4,0x41
ffffffff84009588:	40070713          	add	a4,a4,1024 # 41400 <KERNEL_OFFSET-0xfffffffefffbec00>
ffffffff8400958c:	00f757b3          	srl	a5,a4,a5
ffffffff84009590:	8b85                	and	a5,a5,1
ffffffff84009592:	fbd5                	bnez	a5,ffffffff84009546 <decodeTCBConfigure+0xc2>
ffffffff84009594:	000c8a63          	beqz	s9,ffffffff840095a8 <decodeTCBConfigure+0x124>
ffffffff84009598:	668a                	ld	a3,128(sp)
ffffffff8400959a:	7666                	ld	a2,120(sp)
ffffffff8400959c:	85e6                	mv	a1,s9
ffffffff8400959e:	4501                	li	a0,0
ffffffff840095a0:	cedfb0ef          	jal	ffffffff8400528c <updateCapData>
ffffffff840095a4:	e12e                	sd	a1,128(sp)
ffffffff840095a6:	8a2a                	mv	s4,a0
ffffffff840095a8:	668a                	ld	a3,128(sp)
ffffffff840095aa:	0928                	add	a0,sp,152
ffffffff840095ac:	8652                	mv	a2,s4
ffffffff840095ae:	85ca                	mv	a1,s2
ffffffff840095b0:	cbafc0ef          	jal	ffffffff84005a6a <deriveCap>
ffffffff840095b4:	656a                	ld	a0,152(sp)
ffffffff840095b6:	fd41                	bnez	a0,ffffffff8400954e <decodeTCBConfigure+0xca>
ffffffff840095b8:	778a                	ld	a5,160(sp)
ffffffff840095ba:	76aa                	ld	a3,168(sp)
ffffffff840095bc:	4729                	li	a4,10
ffffffff840095be:	fcbe                	sd	a5,120(sp)
ffffffff840095c0:	e136                	sd	a3,128(sp)
ffffffff840095c2:	93ed                	srl	a5,a5,0x3b
ffffffff840095c4:	f8e791e3          	bne	a5,a4,ffffffff84009546 <decodeTCBConfigure+0xc2>
ffffffff840095c8:	000d0a63          	beqz	s10,ffffffff840095dc <decodeTCBConfigure+0x158>
ffffffff840095cc:	66ca                	ld	a3,144(sp)
ffffffff840095ce:	662a                	ld	a2,136(sp)
ffffffff840095d0:	85ea                	mv	a1,s10
ffffffff840095d2:	4501                	li	a0,0
ffffffff840095d4:	cb9fb0ef          	jal	ffffffff8400528c <updateCapData>
ffffffff840095d8:	e92e                	sd	a1,144(sp)
ffffffff840095da:	8baa                	mv	s7,a0
ffffffff840095dc:	66ca                	ld	a3,144(sp)
ffffffff840095de:	0928                	add	a0,sp,152
ffffffff840095e0:	865e                	mv	a2,s7
ffffffff840095e2:	85da                	mv	a1,s6
ffffffff840095e4:	c86fc0ef          	jal	ffffffff84005a6a <deriveCap>
ffffffff840095e8:	656a                	ld	a0,152(sp)
ffffffff840095ea:	f135                	bnez	a0,ffffffff8400954e <decodeTCBConfigure+0xca>
ffffffff840095ec:	778a                	ld	a5,160(sp)
ffffffff840095ee:	76aa                	ld	a3,168(sp)
ffffffff840095f0:	470d                	li	a4,3
ffffffff840095f2:	e53e                	sd	a5,136(sp)
ffffffff840095f4:	e936                	sd	a3,144(sp)
ffffffff840095f6:	03b7d693          	srl	a3,a5,0x3b
ffffffff840095fa:	f4e696e3          	bne	a3,a4,ffffffff84009546 <decodeTCBConfigure+0xc2>
ffffffff840095fe:	939d                	srl	a5,a5,0x27
ffffffff84009600:	8b85                	and	a5,a5,1
ffffffff84009602:	d3b1                	beqz	a5,ffffffff84009546 <decodeTCBConfigure+0xc2>
ffffffff84009604:	118ab783          	ld	a5,280(s5)
ffffffff84009608:	8556                	mv	a0,s5
ffffffff8400960a:	9bc1                	and	a5,a5,-16
ffffffff8400960c:	0027e793          	or	a5,a5,2
ffffffff84009610:	10fabc23          	sd	a5,280(s5)
ffffffff84009614:	f52fc0ef          	jal	ffffffff84005d66 <scheduleTCB>
ffffffff84009618:	4719                	li	a4,6
ffffffff8400961a:	fc3a                	sd	a4,56(sp)
ffffffff8400961c:	7726                	ld	a4,104(sp)
ffffffff8400961e:	77e6                	ld	a5,120(sp)
ffffffff84009620:	680a                	ld	a6,128(sp)
ffffffff84009622:	f03a                	sd	a4,32(sp)
ffffffff84009624:	7746                	ld	a4,112(sp)
ffffffff84009626:	6626                	ld	a2,72(sp)
ffffffff84009628:	f84e                	sd	s3,48(sp)
ffffffff8400962a:	f43a                	sd	a4,40(sp)
ffffffff8400962c:	672a                	ld	a4,136(sp)
ffffffff8400962e:	ec62                	sd	s8,24(sp)
ffffffff84009630:	e85a                	sd	s6,16(sp)
ffffffff84009632:	e03a                	sd	a4,0(sp)
ffffffff84009634:	674a                	ld	a4,144(sp)
ffffffff84009636:	88ca                	mv	a7,s2
ffffffff84009638:	4681                	li	a3,0
ffffffff8400963a:	e43a                	sd	a4,8(sp)
ffffffff8400963c:	85a2                	mv	a1,s0
ffffffff8400963e:	4701                	li	a4,0
ffffffff84009640:	8526                	mv	a0,s1
ffffffff84009642:	c77ff0ef          	jal	ffffffff840092b8 <invokeTCB_ThreadControl>
ffffffff84009646:	b721                	j	ffffffff8400954e <decodeTCBConfigure+0xca>
ffffffff84009648:	479d                	li	a5,7
ffffffff8400964a:	d6f1b023          	sd	a5,-672(gp) # ffffffff8400b010 <current_syscall_error+0x30>
ffffffff8400964e:	450d                	li	a0,3
ffffffff84009650:	bdfd                	j	ffffffff8400954e <decodeTCBConfigure+0xca>
ffffffff84009652:	0928                	add	a0,sp,152
ffffffff84009654:	85ce                	mv	a1,s3
ffffffff84009656:	c14fc0ef          	jal	ffffffff84005a6a <deriveCap>
ffffffff8400965a:	656a                	ld	a0,152(sp)
ffffffff8400965c:	ee0519e3          	bnez	a0,ffffffff8400954e <decodeTCBConfigure+0xca>
ffffffff84009660:	778a                	ld	a5,160(sp)
ffffffff84009662:	76aa                	ld	a3,168(sp)
ffffffff84009664:	4705                	li	a4,1
ffffffff84009666:	f4be                	sd	a5,104(sp)
ffffffff84009668:	f8b6                	sd	a3,112(sp)
ffffffff8400966a:	03b7d693          	srl	a3,a5,0x3b
ffffffff8400966e:	ece69ce3          	bne	a3,a4,ffffffff84009546 <decodeTCBConfigure+0xc2>
ffffffff84009672:	93d9                	srl	a5,a5,0x36
ffffffff84009674:	8b85                	and	a5,a5,1
ffffffff84009676:	ec0798e3          	bnez	a5,ffffffff84009546 <decodeTCBConfigure+0xc2>
ffffffff8400967a:	3ffc7793          	and	a5,s8,1023
ffffffff8400967e:	e80785e3          	beqz	a5,ffffffff84009508 <decodeTCBConfigure+0x84>
ffffffff84009682:	4795                	li	a5,5
ffffffff84009684:	d6f1b023          	sd	a5,-672(gp) # ffffffff8400b010 <current_syscall_error+0x30>
ffffffff84009688:	450d                	li	a0,3
ffffffff8400968a:	b5d1                	j	ffffffff8400954e <decodeTCBConfigure+0xca>

ffffffff8400968c <decodeSetSpace>:
ffffffff8400968c:	716d                	add	sp,sp,-272
ffffffff8400968e:	e606                	sd	ra,264(sp)
ffffffff84009690:	e222                	sd	s0,256(sp)
ffffffff84009692:	fda6                	sd	s1,248(sp)
ffffffff84009694:	f9ca                	sd	s2,240(sp)
ffffffff84009696:	f5ce                	sd	s3,232(sp)
ffffffff84009698:	f1d2                	sd	s4,224(sp)
ffffffff8400969a:	edd6                	sd	s5,216(sp)
ffffffff8400969c:	e9da                	sd	s6,208(sp)
ffffffff8400969e:	e5de                	sd	s7,200(sp)
ffffffff840096a0:	e1e2                	sd	s8,192(sp)
ffffffff840096a2:	fd66                	sd	s9,184(sp)
ffffffff840096a4:	f96a                	sd	s10,176(sp)
ffffffff840096a6:	f56e                	sd	s11,168(sp)
ffffffff840096a8:	e0aa                	sd	a0,64(sp)
ffffffff840096aa:	e4ae                	sd	a1,72(sp)
ffffffff840096ac:	4789                	li	a5,2
ffffffff840096ae:	12c7f163          	bgeu	a5,a2,ffffffff840097d0 <decodeSetSpace+0x144>
ffffffff840096b2:	89818793          	add	a5,gp,-1896 # ffffffff8400ab48 <current_extra_caps>
ffffffff840096b6:	0007b903          	ld	s2,0(a5)
ffffffff840096ba:	10090b63          	beqz	s2,ffffffff840097d0 <decodeSetSpace+0x144>
ffffffff840096be:	0087bd03          	ld	s10,8(a5)
ffffffff840096c2:	100d0763          	beqz	s10,ffffffff840097d0 <decodeSetSpace+0x144>
ffffffff840096c6:	00093983          	ld	s3,0(s2)
ffffffff840096ca:	000d3a83          	ld	s5,0(s10)
ffffffff840096ce:	00893583          	ld	a1,8(s2)
ffffffff840096d2:	008d3603          	ld	a2,8(s10)
ffffffff840096d6:	57fd                	li	a5,-1
ffffffff840096d8:	02655713          	srl	a4,a0,0x26
ffffffff840096dc:	aa01bb03          	ld	s6,-1376(gp) # ffffffff8400ad50 <ksCurThread>
ffffffff840096e0:	8a36                	mv	s4,a3
ffffffff840096e2:	ecce                	sd	s3,88(sp)
ffffffff840096e4:	0197d693          	srl	a3,a5,0x19
ffffffff840096e8:	f0ae                	sd	a1,96(sp)
ffffffff840096ea:	f4d6                	sd	s5,104(sp)
ffffffff840096ec:	f8b2                	sd	a2,112(sp)
ffffffff840096ee:	8b05                	and	a4,a4,1
ffffffff840096f0:	058b3c83          	ld	s9,88(s6)
ffffffff840096f4:	060b3b83          	ld	s7,96(s6)
ffffffff840096f8:	068b3c03          	ld	s8,104(s6)
ffffffff840096fc:	00d57433          	and	s0,a0,a3
ffffffff84009700:	c319                	beqz	a4,ffffffff84009706 <decodeSetSpace+0x7a>
ffffffff84009702:	179e                	sll	a5,a5,0x27
ffffffff84009704:	8c5d                	or	s0,s0,a5
ffffffff84009706:	c0047493          	and	s1,s0,-1024
ffffffff8400970a:	0004bd83          	ld	s11,0(s1)
ffffffff8400970e:	03bddd93          	srl	s11,s11,0x3b
ffffffff84009712:	000d8e63          	beqz	s11,ffffffff8400972e <decodeSetSpace+0xa2>
ffffffff84009716:	8526                	mv	a0,s1
ffffffff84009718:	c10fc0ef          	jal	ffffffff84005b28 <isFinalCapability>
ffffffff8400971c:	c909                	beqz	a0,ffffffff8400972e <decodeSetSpace+0xa2>
ffffffff8400971e:	000417b7          	lui	a5,0x41
ffffffff84009722:	40078793          	add	a5,a5,1024 # 41400 <KERNEL_OFFSET-0xfffffffefffbec00>
ffffffff84009726:	01b7d7b3          	srl	a5,a5,s11
ffffffff8400972a:	8b85                	and	a5,a5,1
ffffffff8400972c:	efbd                	bnez	a5,ffffffff840097aa <decodeSetSpace+0x11e>
ffffffff8400972e:	709c                	ld	a5,32(s1)
ffffffff84009730:	02048513          	add	a0,s1,32
ffffffff84009734:	03b7d493          	srl	s1,a5,0x3b
ffffffff84009738:	cc81                	beqz	s1,ffffffff84009750 <decodeSetSpace+0xc4>
ffffffff8400973a:	beefc0ef          	jal	ffffffff84005b28 <isFinalCapability>
ffffffff8400973e:	c909                	beqz	a0,ffffffff84009750 <decodeSetSpace+0xc4>
ffffffff84009740:	000417b7          	lui	a5,0x41
ffffffff84009744:	40078793          	add	a5,a5,1024 # 41400 <KERNEL_OFFSET-0xfffffffefffbec00>
ffffffff84009748:	0097d7b3          	srl	a5,a5,s1
ffffffff8400974c:	8b85                	and	a5,a5,1
ffffffff8400974e:	efb1                	bnez	a5,ffffffff840097aa <decodeSetSpace+0x11e>
ffffffff84009750:	080b9263          	bnez	s7,ffffffff840097d4 <decodeSetSpace+0x148>
ffffffff84009754:	7686                	ld	a3,96(sp)
ffffffff84009756:	0128                	add	a0,sp,136
ffffffff84009758:	864e                	mv	a2,s3
ffffffff8400975a:	85ca                	mv	a1,s2
ffffffff8400975c:	b0efc0ef          	jal	ffffffff84005a6a <deriveCap>
ffffffff84009760:	652a                	ld	a0,136(sp)
ffffffff84009762:	e921                	bnez	a0,ffffffff840097b2 <decodeSetSpace+0x126>
ffffffff84009764:	67ca                	ld	a5,144(sp)
ffffffff84009766:	66ea                	ld	a3,152(sp)
ffffffff84009768:	4729                	li	a4,10
ffffffff8400976a:	ecbe                	sd	a5,88(sp)
ffffffff8400976c:	f0b6                	sd	a3,96(sp)
ffffffff8400976e:	93ed                	srl	a5,a5,0x3b
ffffffff84009770:	02e79d63          	bne	a5,a4,ffffffff840097aa <decodeSetSpace+0x11e>
ffffffff84009774:	000c0a63          	beqz	s8,ffffffff84009788 <decodeSetSpace+0xfc>
ffffffff84009778:	76c6                	ld	a3,112(sp)
ffffffff8400977a:	7626                	ld	a2,104(sp)
ffffffff8400977c:	85e2                	mv	a1,s8
ffffffff8400977e:	4501                	li	a0,0
ffffffff84009780:	b0dfb0ef          	jal	ffffffff8400528c <updateCapData>
ffffffff84009784:	f8ae                	sd	a1,112(sp)
ffffffff84009786:	8aaa                	mv	s5,a0
ffffffff84009788:	76c6                	ld	a3,112(sp)
ffffffff8400978a:	0128                	add	a0,sp,136
ffffffff8400978c:	8656                	mv	a2,s5
ffffffff8400978e:	85ea                	mv	a1,s10
ffffffff84009790:	adafc0ef          	jal	ffffffff84005a6a <deriveCap>
ffffffff84009794:	652a                	ld	a0,136(sp)
ffffffff84009796:	ed11                	bnez	a0,ffffffff840097b2 <decodeSetSpace+0x126>
ffffffff84009798:	67ca                	ld	a5,144(sp)
ffffffff8400979a:	66ea                	ld	a3,152(sp)
ffffffff8400979c:	470d                	li	a4,3
ffffffff8400979e:	f4be                	sd	a5,104(sp)
ffffffff840097a0:	f8b6                	sd	a3,112(sp)
ffffffff840097a2:	03b7d693          	srl	a3,a5,0x3b
ffffffff840097a6:	04e68063          	beq	a3,a4,ffffffff840097e6 <decodeSetSpace+0x15a>
ffffffff840097aa:	478d                	li	a5,3
ffffffff840097ac:	d6f1b023          	sd	a5,-672(gp) # ffffffff8400b010 <current_syscall_error+0x30>
ffffffff840097b0:	450d                	li	a0,3
ffffffff840097b2:	60b2                	ld	ra,264(sp)
ffffffff840097b4:	6412                	ld	s0,256(sp)
ffffffff840097b6:	74ee                	ld	s1,248(sp)
ffffffff840097b8:	794e                	ld	s2,240(sp)
ffffffff840097ba:	79ae                	ld	s3,232(sp)
ffffffff840097bc:	7a0e                	ld	s4,224(sp)
ffffffff840097be:	6aee                	ld	s5,216(sp)
ffffffff840097c0:	6b4e                	ld	s6,208(sp)
ffffffff840097c2:	6bae                	ld	s7,200(sp)
ffffffff840097c4:	6c0e                	ld	s8,192(sp)
ffffffff840097c6:	7cea                	ld	s9,184(sp)
ffffffff840097c8:	7d4a                	ld	s10,176(sp)
ffffffff840097ca:	7daa                	ld	s11,168(sp)
ffffffff840097cc:	6151                	add	sp,sp,272
ffffffff840097ce:	8082                	ret
ffffffff840097d0:	479d                	li	a5,7
ffffffff840097d2:	bfe9                	j	ffffffff840097ac <decodeSetSpace+0x120>
ffffffff840097d4:	7686                	ld	a3,96(sp)
ffffffff840097d6:	6666                	ld	a2,88(sp)
ffffffff840097d8:	85de                	mv	a1,s7
ffffffff840097da:	4501                	li	a0,0
ffffffff840097dc:	ab1fb0ef          	jal	ffffffff8400528c <updateCapData>
ffffffff840097e0:	f0ae                	sd	a1,96(sp)
ffffffff840097e2:	89aa                	mv	s3,a0
ffffffff840097e4:	bf85                	j	ffffffff84009754 <decodeSetSpace+0xc8>
ffffffff840097e6:	939d                	srl	a5,a5,0x27
ffffffff840097e8:	8b85                	and	a5,a5,1
ffffffff840097ea:	d3e1                	beqz	a5,ffffffff840097aa <decodeSetSpace+0x11e>
ffffffff840097ec:	118b3783          	ld	a5,280(s6)
ffffffff840097f0:	855a                	mv	a0,s6
ffffffff840097f2:	9bc1                	and	a5,a5,-16
ffffffff840097f4:	0027e793          	or	a5,a5,2
ffffffff840097f8:	10fb3c23          	sd	a5,280(s6)
ffffffff840097fc:	d6afc0ef          	jal	ffffffff84005d66 <scheduleTCB>
ffffffff84009800:	4711                	li	a4,4
ffffffff84009802:	fc3a                	sd	a4,56(sp)
ffffffff84009804:	7726                	ld	a4,104(sp)
ffffffff84009806:	67e6                	ld	a5,88(sp)
ffffffff84009808:	7806                	ld	a6,96(sp)
ffffffff8400980a:	e03a                	sd	a4,0(sp)
ffffffff8400980c:	7746                	ld	a4,112(sp)
ffffffff8400980e:	f802                	sd	zero,48(sp)
ffffffff84009810:	f002                	sd	zero,32(sp)
ffffffff84009812:	e43a                	sd	a4,8(sp)
ffffffff84009814:	f402                	sd	zero,40(sp)
ffffffff84009816:	ec02                	sd	zero,24(sp)
ffffffff84009818:	e86a                	sd	s10,16(sp)
ffffffff8400981a:	88ca                	mv	a7,s2
ffffffff8400981c:	4701                	li	a4,0
ffffffff8400981e:	4681                	li	a3,0
ffffffff84009820:	8666                	mv	a2,s9
ffffffff84009822:	85d2                	mv	a1,s4
ffffffff84009824:	8522                	mv	a0,s0
ffffffff84009826:	a93ff0ef          	jal	ffffffff840092b8 <invokeTCB_ThreadControl>
ffffffff8400982a:	b761                	j	ffffffff840097b2 <decodeSetSpace+0x126>

ffffffff8400982c <invokeTCB_CopyRegisters>:
ffffffff8400982c:	7179                	add	sp,sp,-48
ffffffff8400982e:	f022                	sd	s0,32(sp)
ffffffff84009830:	ec26                	sd	s1,24(sp)
ffffffff84009832:	e84a                	sd	s2,16(sp)
ffffffff84009834:	e44e                	sd	s3,8(sp)
ffffffff84009836:	e052                	sd	s4,0(sp)
ffffffff84009838:	f406                	sd	ra,40(sp)
ffffffff8400983a:	842a                	mv	s0,a0
ffffffff8400983c:	84ae                	mv	s1,a1
ffffffff8400983e:	8a36                	mv	s4,a3
ffffffff84009840:	89ba                	mv	s3,a4
ffffffff84009842:	893e                	mv	s2,a5
ffffffff84009844:	ea35                	bnez	a2,ffffffff840098b8 <invokeTCB_CopyRegisters+0x8c>
ffffffff84009846:	060a1563          	bnez	s4,ffffffff840098b0 <invokeTCB_CopyRegisters+0x84>
ffffffff8400984a:	02098563          	beqz	s3,ffffffff84009874 <invokeTCB_CopyRegisters+0x48>
ffffffff8400984e:	88018693          	add	a3,gp,-1920 # ffffffff8400ab30 <frameRegisters>
ffffffff84009852:	89018593          	add	a1,gp,-1904 # ffffffff8400ab40 <msgRegisters>
ffffffff84009856:	0006c703          	lbu	a4,0(a3)
ffffffff8400985a:	0685                	add	a3,a3,1
ffffffff8400985c:	070e                	sll	a4,a4,0x3
ffffffff8400985e:	00e48633          	add	a2,s1,a4
ffffffff84009862:	6210                	ld	a2,0(a2)
ffffffff84009864:	9722                	add	a4,a4,s0
ffffffff84009866:	e310                	sd	a2,0(a4)
ffffffff84009868:	feb697e3          	bne	a3,a1,ffffffff84009856 <invokeTCB_CopyRegisters+0x2a>
ffffffff8400986c:	10843783          	ld	a5,264(s0)
ffffffff84009870:	10f43823          	sd	a5,272(s0)
ffffffff84009874:	02090163          	beqz	s2,ffffffff84009896 <invokeTCB_CopyRegisters+0x6a>
ffffffff84009878:	87018713          	add	a4,gp,-1936 # ffffffff8400ab20 <gpRegisters>
ffffffff8400987c:	88018613          	add	a2,gp,-1920 # ffffffff8400ab30 <frameRegisters>
ffffffff84009880:	00074783          	lbu	a5,0(a4)
ffffffff84009884:	0705                	add	a4,a4,1
ffffffff84009886:	078e                	sll	a5,a5,0x3
ffffffff84009888:	00f486b3          	add	a3,s1,a5
ffffffff8400988c:	6294                	ld	a3,0(a3)
ffffffff8400988e:	97a2                	add	a5,a5,s0
ffffffff84009890:	e394                	sd	a3,0(a5)
ffffffff84009892:	fec717e3          	bne	a4,a2,ffffffff84009880 <invokeTCB_CopyRegisters+0x54>
ffffffff84009896:	aa01b783          	ld	a5,-1376(gp) # ffffffff8400ad50 <ksCurThread>
ffffffff8400989a:	04878963          	beq	a5,s0,ffffffff840098ec <invokeTCB_CopyRegisters+0xc0>
ffffffff8400989e:	70a2                	ld	ra,40(sp)
ffffffff840098a0:	7402                	ld	s0,32(sp)
ffffffff840098a2:	64e2                	ld	s1,24(sp)
ffffffff840098a4:	6942                	ld	s2,16(sp)
ffffffff840098a6:	69a2                	ld	s3,8(sp)
ffffffff840098a8:	6a02                	ld	s4,0(sp)
ffffffff840098aa:	4501                	li	a0,0
ffffffff840098ac:	6145                	add	sp,sp,48
ffffffff840098ae:	8082                	ret
ffffffff840098b0:	8522                	mv	a0,s0
ffffffff840098b2:	b08fe0ef          	jal	ffffffff84007bba <restart>
ffffffff840098b6:	bf51                	j	ffffffff8400984a <invokeTCB_CopyRegisters+0x1e>
ffffffff840098b8:	852e                	mv	a0,a1
ffffffff840098ba:	9dcfe0ef          	jal	ffffffff84007a96 <cancelIPC>
ffffffff840098be:	1184b783          	ld	a5,280(s1)
ffffffff840098c2:	4705                	li	a4,1
ffffffff840098c4:	00f7f693          	and	a3,a5,15
ffffffff840098c8:	00e69663          	bne	a3,a4,ffffffff840098d4 <invokeTCB_CopyRegisters+0xa8>
ffffffff840098cc:	1104b703          	ld	a4,272(s1)
ffffffff840098d0:	10e4b423          	sd	a4,264(s1)
ffffffff840098d4:	9bc1                	and	a5,a5,-16
ffffffff840098d6:	8526                	mv	a0,s1
ffffffff840098d8:	10f4bc23          	sd	a5,280(s1)
ffffffff840098dc:	c8afc0ef          	jal	ffffffff84005d66 <scheduleTCB>
ffffffff840098e0:	8526                	mv	a0,s1
ffffffff840098e2:	af2fd0ef          	jal	ffffffff84006bd4 <tcbSchedDequeue>
ffffffff840098e6:	f60a02e3          	beqz	s4,ffffffff8400984a <invokeTCB_CopyRegisters+0x1e>
ffffffff840098ea:	b7d9                	j	ffffffff840098b0 <invokeTCB_CopyRegisters+0x84>
ffffffff840098ec:	a9018413          	add	s0,gp,-1392 # ffffffff8400ad40 <ksSchedulerAction>
ffffffff840098f0:	6008                	ld	a0,0(s0)
ffffffff840098f2:	4785                	li	a5,1
ffffffff840098f4:	00a7e563          	bltu	a5,a0,ffffffff840098fe <invokeTCB_CopyRegisters+0xd2>
ffffffff840098f8:	4785                	li	a5,1
ffffffff840098fa:	e01c                	sd	a5,0(s0)
ffffffff840098fc:	b74d                	j	ffffffff8400989e <invokeTCB_CopyRegisters+0x72>
ffffffff840098fe:	b06fc0ef          	jal	ffffffff84005c04 <tcbSchedEnqueue>
ffffffff84009902:	bfdd                	j	ffffffff840098f8 <invokeTCB_CopyRegisters+0xcc>

ffffffff84009904 <decodeCopyRegisters>:
ffffffff84009904:	7179                	add	sp,sp,-48
ffffffff84009906:	f406                	sd	ra,40(sp)
ffffffff84009908:	f022                	sd	s0,32(sp)
ffffffff8400990a:	ec26                	sd	s1,24(sp)
ffffffff8400990c:	e02a                	sd	a0,0(sp)
ffffffff8400990e:	e42e                	sd	a1,8(sp)
ffffffff84009910:	c659                	beqz	a2,ffffffff8400999e <decodeCopyRegisters+0x9a>
ffffffff84009912:	8981b783          	ld	a5,-1896(gp) # ffffffff8400ab48 <current_extra_caps>
ffffffff84009916:	c7c1                	beqz	a5,ffffffff8400999e <decodeCopyRegisters+0x9a>
ffffffff84009918:	638c                	ld	a1,0(a5)
ffffffff8400991a:	aa01b503          	ld	a0,-1376(gp) # ffffffff8400ad50 <ksCurThread>
ffffffff8400991e:	47b1                	li	a5,12
ffffffff84009920:	03b5d713          	srl	a4,a1,0x3b
ffffffff84009924:	6d24                	ld	s1,88(a0)
ffffffff84009926:	06f71063          	bne	a4,a5,ffffffff84009986 <decodeCopyRegisters+0x82>
ffffffff8400992a:	57fd                	li	a5,-1
ffffffff8400992c:	0265d713          	srl	a4,a1,0x26
ffffffff84009930:	0197d693          	srl	a3,a5,0x19
ffffffff84009934:	8b05                	and	a4,a4,1
ffffffff84009936:	00d5f433          	and	s0,a1,a3
ffffffff8400993a:	c319                	beqz	a4,ffffffff84009940 <decodeCopyRegisters+0x3c>
ffffffff8400993c:	179e                	sll	a5,a5,0x27
ffffffff8400993e:	8c5d                	or	s0,s0,a5
ffffffff84009940:	11853783          	ld	a5,280(a0)
ffffffff84009944:	9bc1                	and	a5,a5,-16
ffffffff84009946:	0027e793          	or	a5,a5,2
ffffffff8400994a:	10f53c23          	sd	a5,280(a0)
ffffffff8400994e:	c18fc0ef          	jal	ffffffff84005d66 <scheduleTCB>
ffffffff84009952:	6502                	ld	a0,0(sp)
ffffffff84009954:	57fd                	li	a5,-1
ffffffff84009956:	0197d693          	srl	a3,a5,0x19
ffffffff8400995a:	02655713          	srl	a4,a0,0x26
ffffffff8400995e:	8b05                	and	a4,a4,1
ffffffff84009960:	8d75                	and	a0,a0,a3
ffffffff84009962:	c319                	beqz	a4,ffffffff84009968 <decodeCopyRegisters+0x64>
ffffffff84009964:	179e                	sll	a5,a5,0x27
ffffffff84009966:	8d5d                	or	a0,a0,a5
ffffffff84009968:	85a2                	mv	a1,s0
ffffffff8400996a:	7402                	ld	s0,32(sp)
ffffffff8400996c:	70a2                	ld	ra,40(sp)
ffffffff8400996e:	0084f793          	and	a5,s1,8
ffffffff84009972:	0044f713          	and	a4,s1,4
ffffffff84009976:	0024f693          	and	a3,s1,2
ffffffff8400997a:	0014f613          	and	a2,s1,1
ffffffff8400997e:	64e2                	ld	s1,24(sp)
ffffffff84009980:	4801                	li	a6,0
ffffffff84009982:	6145                	add	sp,sp,48
ffffffff84009984:	b565                	j	ffffffff8400982c <invokeTCB_CopyRegisters>
ffffffff84009986:	70a2                	ld	ra,40(sp)
ffffffff84009988:	7402                	ld	s0,32(sp)
ffffffff8400998a:	d3018793          	add	a5,gp,-720 # ffffffff8400afe0 <current_syscall_error>
ffffffff8400998e:	4709                	li	a4,2
ffffffff84009990:	fb98                	sd	a4,48(a5)
ffffffff84009992:	4705                	li	a4,1
ffffffff84009994:	e798                	sd	a4,8(a5)
ffffffff84009996:	64e2                	ld	s1,24(sp)
ffffffff84009998:	450d                	li	a0,3
ffffffff8400999a:	6145                	add	sp,sp,48
ffffffff8400999c:	8082                	ret
ffffffff8400999e:	70a2                	ld	ra,40(sp)
ffffffff840099a0:	7402                	ld	s0,32(sp)
ffffffff840099a2:	479d                	li	a5,7
ffffffff840099a4:	d6f1b023          	sd	a5,-672(gp) # ffffffff8400b010 <current_syscall_error+0x30>
ffffffff840099a8:	64e2                	ld	s1,24(sp)
ffffffff840099aa:	450d                	li	a0,3
ffffffff840099ac:	6145                	add	sp,sp,48
ffffffff840099ae:	8082                	ret

ffffffff840099b0 <invokeTCB_ReadRegisters>:
ffffffff840099b0:	7179                	add	sp,sp,-48
ffffffff840099b2:	f022                	sd	s0,32(sp)
ffffffff840099b4:	ec26                	sd	s1,24(sp)
ffffffff840099b6:	e84a                	sd	s2,16(sp)
ffffffff840099b8:	e44e                	sd	s3,8(sp)
ffffffff840099ba:	f406                	sd	ra,40(sp)
ffffffff840099bc:	892a                	mv	s2,a0
ffffffff840099be:	8432                	mv	s0,a2
ffffffff840099c0:	84ba                	mv	s1,a4
ffffffff840099c2:	aa01b983          	ld	s3,-1376(gp) # ffffffff8400ad50 <ksCurThread>
ffffffff840099c6:	e1cd                	bnez	a1,ffffffff84009a68 <invokeTCB_ReadRegisters+0xb8>
ffffffff840099c8:	ccb9                	beqz	s1,ffffffff84009a26 <invokeTCB_ReadRegisters+0x76>
ffffffff840099ca:	85ce                	mv	a1,s3
ffffffff840099cc:	4505                	li	a0,1
ffffffff840099ce:	bc2fa0ef          	jal	ffffffff84003d90 <lookupIPCBuffer>
ffffffff840099d2:	0409b423          	sd	zero,72(s3)
ffffffff840099d6:	c431                	beqz	s0,ffffffff84009a22 <invokeTCB_ReadRegisters+0x72>
ffffffff840099d8:	10893703          	ld	a4,264(s2)
ffffffff840099dc:	4785                	li	a5,1
ffffffff840099de:	04e9bc23          	sd	a4,88(s3)
ffffffff840099e2:	04f40063          	beq	s0,a5,ffffffff84009a22 <invokeTCB_ReadRegisters+0x72>
ffffffff840099e6:	00093703          	ld	a4,0(s2)
ffffffff840099ea:	4789                	li	a5,2
ffffffff840099ec:	06e9b023          	sd	a4,96(s3)
ffffffff840099f0:	02f40963          	beq	s0,a5,ffffffff84009a22 <invokeTCB_ReadRegisters+0x72>
ffffffff840099f4:	00893703          	ld	a4,8(s2)
ffffffff840099f8:	478d                	li	a5,3
ffffffff840099fa:	06e9b423          	sd	a4,104(s3)
ffffffff840099fe:	02f40263          	beq	s0,a5,ffffffff84009a22 <invokeTCB_ReadRegisters+0x72>
ffffffff84009a02:	01093703          	ld	a4,16(s2)
ffffffff84009a06:	4791                	li	a5,4
ffffffff84009a08:	06e9b823          	sd	a4,112(s3)
ffffffff84009a0c:	00f40b63          	beq	s0,a5,ffffffff84009a22 <invokeTCB_ReadRegisters+0x72>
ffffffff84009a10:	c901                	beqz	a0,ffffffff84009a20 <invokeTCB_ReadRegisters+0x70>
ffffffff84009a12:	88418613          	add	a2,gp,-1916 # ffffffff8400ab34 <frameRegisters+0x4>
ffffffff84009a16:	02050693          	add	a3,a0,32
ffffffff84009a1a:	4711                	li	a4,4
ffffffff84009a1c:	45c1                	li	a1,16
ffffffff84009a1e:	a805                	j	ffffffff84009a4e <invokeTCB_ReadRegisters+0x9e>
ffffffff84009a20:	4411                	li	s0,4
ffffffff84009a22:	0489b823          	sd	s0,80(s3)
ffffffff84009a26:	1189b783          	ld	a5,280(s3)
ffffffff84009a2a:	854e                	mv	a0,s3
ffffffff84009a2c:	9bc1                	and	a5,a5,-16
ffffffff84009a2e:	0017e793          	or	a5,a5,1
ffffffff84009a32:	10f9bc23          	sd	a5,280(s3)
ffffffff84009a36:	b30fc0ef          	jal	ffffffff84005d66 <scheduleTCB>
ffffffff84009a3a:	70a2                	ld	ra,40(sp)
ffffffff84009a3c:	7402                	ld	s0,32(sp)
ffffffff84009a3e:	64e2                	ld	s1,24(sp)
ffffffff84009a40:	6942                	ld	s2,16(sp)
ffffffff84009a42:	69a2                	ld	s3,8(sp)
ffffffff84009a44:	4501                	li	a0,0
ffffffff84009a46:	6145                	add	sp,sp,48
ffffffff84009a48:	8082                	ret
ffffffff84009a4a:	04b70663          	beq	a4,a1,ffffffff84009a96 <invokeTCB_ReadRegisters+0xe6>
ffffffff84009a4e:	00064783          	lbu	a5,0(a2)
ffffffff84009a52:	06a1                	add	a3,a3,8
ffffffff84009a54:	0705                	add	a4,a4,1
ffffffff84009a56:	078e                	sll	a5,a5,0x3
ffffffff84009a58:	97ca                	add	a5,a5,s2
ffffffff84009a5a:	639c                	ld	a5,0(a5)
ffffffff84009a5c:	0605                	add	a2,a2,1
ffffffff84009a5e:	e29c                	sd	a5,0(a3)
ffffffff84009a60:	fe8765e3          	bltu	a4,s0,ffffffff84009a4a <invokeTCB_ReadRegisters+0x9a>
ffffffff84009a64:	843a                	mv	s0,a4
ffffffff84009a66:	bf75                	j	ffffffff84009a22 <invokeTCB_ReadRegisters+0x72>
ffffffff84009a68:	82efe0ef          	jal	ffffffff84007a96 <cancelIPC>
ffffffff84009a6c:	11893783          	ld	a5,280(s2)
ffffffff84009a70:	4705                	li	a4,1
ffffffff84009a72:	00f7f693          	and	a3,a5,15
ffffffff84009a76:	00e69663          	bne	a3,a4,ffffffff84009a82 <invokeTCB_ReadRegisters+0xd2>
ffffffff84009a7a:	11093703          	ld	a4,272(s2)
ffffffff84009a7e:	10e93423          	sd	a4,264(s2)
ffffffff84009a82:	9bc1                	and	a5,a5,-16
ffffffff84009a84:	854a                	mv	a0,s2
ffffffff84009a86:	10f93c23          	sd	a5,280(s2)
ffffffff84009a8a:	adcfc0ef          	jal	ffffffff84005d66 <scheduleTCB>
ffffffff84009a8e:	854a                	mv	a0,s2
ffffffff84009a90:	944fd0ef          	jal	ffffffff84006bd4 <tcbSchedDequeue>
ffffffff84009a94:	bf15                	j	ffffffff840099c8 <invokeTCB_ReadRegisters+0x18>
ffffffff84009a96:	04877163          	bgeu	a4,s0,ffffffff84009ad8 <invokeTCB_ReadRegisters+0x128>
ffffffff84009a9a:	08850713          	add	a4,a0,136
ffffffff84009a9e:	1445                	add	s0,s0,-15
ffffffff84009aa0:	4685                	li	a3,1
ffffffff84009aa2:	87018513          	add	a0,gp,-1936 # ffffffff8400ab20 <gpRegisters>
ffffffff84009aa6:	45c1                	li	a1,16
ffffffff84009aa8:	a021                	j	ffffffff84009ab0 <invokeTCB_ReadRegisters+0x100>
ffffffff84009aaa:	02c40463          	beq	s0,a2,ffffffff84009ad2 <invokeTCB_ReadRegisters+0x122>
ffffffff84009aae:	86b2                	mv	a3,a2
ffffffff84009ab0:	00d507b3          	add	a5,a0,a3
ffffffff84009ab4:	fff7c783          	lbu	a5,-1(a5)
ffffffff84009ab8:	0721                	add	a4,a4,8
ffffffff84009aba:	00168613          	add	a2,a3,1
ffffffff84009abe:	078e                	sll	a5,a5,0x3
ffffffff84009ac0:	97ca                	add	a5,a5,s2
ffffffff84009ac2:	639c                	ld	a5,0(a5)
ffffffff84009ac4:	fef73c23          	sd	a5,-8(a4)
ffffffff84009ac8:	feb691e3          	bne	a3,a1,ffffffff84009aaa <invokeTCB_ReadRegisters+0xfa>
ffffffff84009acc:	02000413          	li	s0,32
ffffffff84009ad0:	bf89                	j	ffffffff84009a22 <invokeTCB_ReadRegisters+0x72>
ffffffff84009ad2:	01068413          	add	s0,a3,16
ffffffff84009ad6:	b7b1                	j	ffffffff84009a22 <invokeTCB_ReadRegisters+0x72>
ffffffff84009ad8:	4441                	li	s0,16
ffffffff84009ada:	b7a1                	j	ffffffff84009a22 <invokeTCB_ReadRegisters+0x72>

ffffffff84009adc <decodeReadRegisters>:
ffffffff84009adc:	7139                	add	sp,sp,-64
ffffffff84009ade:	fc06                	sd	ra,56(sp)
ffffffff84009ae0:	f822                	sd	s0,48(sp)
ffffffff84009ae2:	f426                	sd	s1,40(sp)
ffffffff84009ae4:	f04a                	sd	s2,32(sp)
ffffffff84009ae6:	ec4e                	sd	s3,24(sp)
ffffffff84009ae8:	e02a                	sd	a0,0(sp)
ffffffff84009aea:	e42e                	sd	a1,8(sp)
ffffffff84009aec:	4785                	li	a5,1
ffffffff84009aee:	08c7f163          	bgeu	a5,a2,ffffffff84009b70 <decodeReadRegisters+0x94>
ffffffff84009af2:	aa01b803          	ld	a6,-1376(gp) # ffffffff8400ad50 <ksCurThread>
ffffffff84009af6:	06083903          	ld	s2,96(a6)
ffffffff84009afa:	84b6                	mv	s1,a3
ffffffff84009afc:	477d                	li	a4,31
ffffffff84009afe:	fff90693          	add	a3,s2,-1
ffffffff84009b02:	05883983          	ld	s3,88(a6)
ffffffff84009b06:	04d76563          	bltu	a4,a3,ffffffff84009b50 <decodeReadRegisters+0x74>
ffffffff84009b0a:	577d                	li	a4,-1
ffffffff84009b0c:	179a                	sll	a5,a5,0x26
ffffffff84009b0e:	01975693          	srl	a3,a4,0x19
ffffffff84009b12:	8fe9                	and	a5,a5,a0
ffffffff84009b14:	00d57433          	and	s0,a0,a3
ffffffff84009b18:	c399                	beqz	a5,ffffffff84009b1e <decodeReadRegisters+0x42>
ffffffff84009b1a:	171e                	sll	a4,a4,0x27
ffffffff84009b1c:	8c59                	or	s0,s0,a4
ffffffff84009b1e:	07040463          	beq	s0,a6,ffffffff84009b86 <decodeReadRegisters+0xaa>
ffffffff84009b22:	11883783          	ld	a5,280(a6)
ffffffff84009b26:	8542                	mv	a0,a6
ffffffff84009b28:	9bc1                	and	a5,a5,-16
ffffffff84009b2a:	0027e793          	or	a5,a5,2
ffffffff84009b2e:	10f83c23          	sd	a5,280(a6)
ffffffff84009b32:	a34fc0ef          	jal	ffffffff84005d66 <scheduleTCB>
ffffffff84009b36:	8522                	mv	a0,s0
ffffffff84009b38:	7442                	ld	s0,48(sp)
ffffffff84009b3a:	70e2                	ld	ra,56(sp)
ffffffff84009b3c:	8726                	mv	a4,s1
ffffffff84009b3e:	864a                	mv	a2,s2
ffffffff84009b40:	74a2                	ld	s1,40(sp)
ffffffff84009b42:	7902                	ld	s2,32(sp)
ffffffff84009b44:	0019f593          	and	a1,s3,1
ffffffff84009b48:	69e2                	ld	s3,24(sp)
ffffffff84009b4a:	4681                	li	a3,0
ffffffff84009b4c:	6121                	add	sp,sp,64
ffffffff84009b4e:	b58d                	j	ffffffff840099b0 <invokeTCB_ReadRegisters>
ffffffff84009b50:	d3018713          	add	a4,gp,-720 # ffffffff8400afe0 <current_syscall_error>
ffffffff84009b54:	70e2                	ld	ra,56(sp)
ffffffff84009b56:	7442                	ld	s0,48(sp)
ffffffff84009b58:	eb1c                	sd	a5,16(a4)
ffffffff84009b5a:	4691                	li	a3,4
ffffffff84009b5c:	02000793          	li	a5,32
ffffffff84009b60:	fb14                	sd	a3,48(a4)
ffffffff84009b62:	ef1c                	sd	a5,24(a4)
ffffffff84009b64:	74a2                	ld	s1,40(sp)
ffffffff84009b66:	7902                	ld	s2,32(sp)
ffffffff84009b68:	69e2                	ld	s3,24(sp)
ffffffff84009b6a:	450d                	li	a0,3
ffffffff84009b6c:	6121                	add	sp,sp,64
ffffffff84009b6e:	8082                	ret
ffffffff84009b70:	70e2                	ld	ra,56(sp)
ffffffff84009b72:	7442                	ld	s0,48(sp)
ffffffff84009b74:	479d                	li	a5,7
ffffffff84009b76:	d6f1b023          	sd	a5,-672(gp) # ffffffff8400b010 <current_syscall_error+0x30>
ffffffff84009b7a:	74a2                	ld	s1,40(sp)
ffffffff84009b7c:	7902                	ld	s2,32(sp)
ffffffff84009b7e:	69e2                	ld	s3,24(sp)
ffffffff84009b80:	450d                	li	a0,3
ffffffff84009b82:	6121                	add	sp,sp,64
ffffffff84009b84:	8082                	ret
ffffffff84009b86:	70e2                	ld	ra,56(sp)
ffffffff84009b88:	7442                	ld	s0,48(sp)
ffffffff84009b8a:	478d                	li	a5,3
ffffffff84009b8c:	d6f1b023          	sd	a5,-672(gp) # ffffffff8400b010 <current_syscall_error+0x30>
ffffffff84009b90:	74a2                	ld	s1,40(sp)
ffffffff84009b92:	7902                	ld	s2,32(sp)
ffffffff84009b94:	69e2                	ld	s3,24(sp)
ffffffff84009b96:	450d                	li	a0,3
ffffffff84009b98:	6121                	add	sp,sp,64
ffffffff84009b9a:	8082                	ret

ffffffff84009b9c <invokeTCB_WriteRegisters>:
ffffffff84009b9c:	1101                	add	sp,sp,-32
ffffffff84009b9e:	e822                	sd	s0,16(sp)
ffffffff84009ba0:	ec06                	sd	ra,24(sp)
ffffffff84009ba2:	e426                	sd	s1,8(sp)
ffffffff84009ba4:	02000793          	li	a5,32
ffffffff84009ba8:	842a                	mv	s0,a0
ffffffff84009baa:	02000e13          	li	t3,32
ffffffff84009bae:	00c7e363          	bltu	a5,a2,ffffffff84009bb4 <invokeTCB_WriteRegisters+0x18>
ffffffff84009bb2:	8e32                	mv	t3,a2
ffffffff84009bb4:	aa018493          	add	s1,gp,-1376 # ffffffff8400ad50 <ksCurThread>
ffffffff84009bb8:	ce41                	beqz	a2,ffffffff84009c50 <invokeTCB_WriteRegisters+0xb4>
ffffffff84009bba:	0004b283          	ld	t0,0(s1)
ffffffff84009bbe:	88018513          	add	a0,gp,-1920 # ffffffff8400ab30 <frameRegisters>
ffffffff84009bc2:	01870313          	add	t1,a4,24
ffffffff84009bc6:	4681                	li	a3,0
ffffffff84009bc8:	02100793          	li	a5,33
ffffffff84009bcc:	4e8d                	li	t4,3
ffffffff84009bce:	4f3d                	li	t5,15
ffffffff84009bd0:	89018f93          	add	t6,gp,-1904 # ffffffff8400ab40 <msgRegisters>
ffffffff84009bd4:	a831                	j	ffffffff84009bf0 <invokeTCB_WriteRegisters+0x54>
ffffffff84009bd6:	00033783          	ld	a5,0(t1)
ffffffff84009bda:	00f8b023          	sd	a5,0(a7)
ffffffff84009bde:	05e68063          	beq	a3,t5,ffffffff84009c1e <invokeTCB_WriteRegisters+0x82>
ffffffff84009be2:	0685                	add	a3,a3,1
ffffffff84009be4:	0505                	add	a0,a0,1
ffffffff84009be6:	0321                	add	t1,t1,8
ffffffff84009be8:	03c6fb63          	bgeu	a3,t3,ffffffff84009c1e <invokeTCB_WriteRegisters+0x82>
ffffffff84009bec:	00054783          	lbu	a5,0(a0)
ffffffff84009bf0:	2781                	sext.w	a5,a5
ffffffff84009bf2:	00379893          	sll	a7,a5,0x3
ffffffff84009bf6:	00268813          	add	a6,a3,2
ffffffff84009bfa:	98a2                	add	a7,a7,s0
ffffffff84009bfc:	fd0eede3          	bltu	t4,a6,ffffffff84009bd6 <invokeTCB_WriteRegisters+0x3a>
ffffffff84009c00:	01f68833          	add	a6,a3,t6
ffffffff84009c04:	00284803          	lbu	a6,2(a6)
ffffffff84009c08:	0685                	add	a3,a3,1
ffffffff84009c0a:	0505                	add	a0,a0,1
ffffffff84009c0c:	080e                	sll	a6,a6,0x3
ffffffff84009c0e:	9816                	add	a6,a6,t0
ffffffff84009c10:	00083803          	ld	a6,0(a6)
ffffffff84009c14:	0321                	add	t1,t1,8
ffffffff84009c16:	0108b023          	sd	a6,0(a7)
ffffffff84009c1a:	fdc6e9e3          	bltu	a3,t3,ffffffff84009bec <invokeTCB_WriteRegisters+0x50>
ffffffff84009c1e:	4541                	li	a0,16
ffffffff84009c20:	02c57863          	bgeu	a0,a2,ffffffff84009c50 <invokeTCB_WriteRegisters+0xb4>
ffffffff84009c24:	87018693          	add	a3,gp,-1936 # ffffffff8400ab20 <gpRegisters>
ffffffff84009c28:	09870713          	add	a4,a4,152
ffffffff84009c2c:	87f18813          	add	a6,gp,-1921 # ffffffff8400ab2f <gpRegisters+0xf>
ffffffff84009c30:	8d15                	sub	a0,a0,a3
ffffffff84009c32:	a031                	j	ffffffff84009c3e <invokeTCB_WriteRegisters+0xa2>
ffffffff84009c34:	0685                	add	a3,a3,1
ffffffff84009c36:	00d507b3          	add	a5,a0,a3
ffffffff84009c3a:	01c7fb63          	bgeu	a5,t3,ffffffff84009c50 <invokeTCB_WriteRegisters+0xb4>
ffffffff84009c3e:	0006c783          	lbu	a5,0(a3)
ffffffff84009c42:	6310                	ld	a2,0(a4)
ffffffff84009c44:	0721                	add	a4,a4,8
ffffffff84009c46:	078e                	sll	a5,a5,0x3
ffffffff84009c48:	97a2                	add	a5,a5,s0
ffffffff84009c4a:	e390                	sd	a2,0(a5)
ffffffff84009c4c:	fed814e3          	bne	a6,a3,ffffffff84009c34 <invokeTCB_WriteRegisters+0x98>
ffffffff84009c50:	10843783          	ld	a5,264(s0)
ffffffff84009c54:	10f43823          	sd	a5,272(s0)
ffffffff84009c58:	e991                	bnez	a1,ffffffff84009c6c <invokeTCB_WriteRegisters+0xd0>
ffffffff84009c5a:	609c                	ld	a5,0(s1)
ffffffff84009c5c:	00878e63          	beq	a5,s0,ffffffff84009c78 <invokeTCB_WriteRegisters+0xdc>
ffffffff84009c60:	60e2                	ld	ra,24(sp)
ffffffff84009c62:	6442                	ld	s0,16(sp)
ffffffff84009c64:	64a2                	ld	s1,8(sp)
ffffffff84009c66:	4501                	li	a0,0
ffffffff84009c68:	6105                	add	sp,sp,32
ffffffff84009c6a:	8082                	ret
ffffffff84009c6c:	8522                	mv	a0,s0
ffffffff84009c6e:	f4dfd0ef          	jal	ffffffff84007bba <restart>
ffffffff84009c72:	609c                	ld	a5,0(s1)
ffffffff84009c74:	fe8796e3          	bne	a5,s0,ffffffff84009c60 <invokeTCB_WriteRegisters+0xc4>
ffffffff84009c78:	a9018413          	add	s0,gp,-1392 # ffffffff8400ad40 <ksSchedulerAction>
ffffffff84009c7c:	6008                	ld	a0,0(s0)
ffffffff84009c7e:	4785                	li	a5,1
ffffffff84009c80:	00a7ea63          	bltu	a5,a0,ffffffff84009c94 <invokeTCB_WriteRegisters+0xf8>
ffffffff84009c84:	4785                	li	a5,1
ffffffff84009c86:	60e2                	ld	ra,24(sp)
ffffffff84009c88:	e01c                	sd	a5,0(s0)
ffffffff84009c8a:	6442                	ld	s0,16(sp)
ffffffff84009c8c:	64a2                	ld	s1,8(sp)
ffffffff84009c8e:	4501                	li	a0,0
ffffffff84009c90:	6105                	add	sp,sp,32
ffffffff84009c92:	8082                	ret
ffffffff84009c94:	f71fb0ef          	jal	ffffffff84005c04 <tcbSchedEnqueue>
ffffffff84009c98:	b7f5                	j	ffffffff84009c84 <invokeTCB_WriteRegisters+0xe8>

ffffffff84009c9a <decodeWriteRegisters>:
ffffffff84009c9a:	7139                	add	sp,sp,-64
ffffffff84009c9c:	e42e                	sd	a1,8(sp)
ffffffff84009c9e:	fc06                	sd	ra,56(sp)
ffffffff84009ca0:	f822                	sd	s0,48(sp)
ffffffff84009ca2:	f426                	sd	s1,40(sp)
ffffffff84009ca4:	f04a                	sd	s2,32(sp)
ffffffff84009ca6:	ec4e                	sd	s3,24(sp)
ffffffff84009ca8:	e02a                	sd	a0,0(sp)
ffffffff84009caa:	4585                	li	a1,1
ffffffff84009cac:	06c5f163          	bgeu	a1,a2,ffffffff84009d0e <decodeWriteRegisters+0x74>
ffffffff84009cb0:	aa01b803          	ld	a6,-1376(gp) # ffffffff8400ad50 <ksCurThread>
ffffffff84009cb4:	06083903          	ld	s2,96(a6)
ffffffff84009cb8:	ffe60793          	add	a5,a2,-2
ffffffff84009cbc:	0527e963          	bltu	a5,s2,ffffffff84009d0e <decodeWriteRegisters+0x74>
ffffffff84009cc0:	57fd                	li	a5,-1
ffffffff84009cc2:	159a                	sll	a1,a1,0x26
ffffffff84009cc4:	0197d713          	srl	a4,a5,0x19
ffffffff84009cc8:	8de9                	and	a1,a1,a0
ffffffff84009cca:	84b6                	mv	s1,a3
ffffffff84009ccc:	00e57433          	and	s0,a0,a4
ffffffff84009cd0:	c199                	beqz	a1,ffffffff84009cd6 <decodeWriteRegisters+0x3c>
ffffffff84009cd2:	179e                	sll	a5,a5,0x27
ffffffff84009cd4:	8c5d                	or	s0,s0,a5
ffffffff84009cd6:	05883983          	ld	s3,88(a6)
ffffffff84009cda:	478d                	li	a5,3
ffffffff84009cdc:	03040a63          	beq	s0,a6,ffffffff84009d10 <decodeWriteRegisters+0x76>
ffffffff84009ce0:	11883783          	ld	a5,280(a6)
ffffffff84009ce4:	8542                	mv	a0,a6
ffffffff84009ce6:	9bc1                	and	a5,a5,-16
ffffffff84009ce8:	0027e793          	or	a5,a5,2
ffffffff84009cec:	10f83c23          	sd	a5,280(a6)
ffffffff84009cf0:	876fc0ef          	jal	ffffffff84005d66 <scheduleTCB>
ffffffff84009cf4:	8522                	mv	a0,s0
ffffffff84009cf6:	7442                	ld	s0,48(sp)
ffffffff84009cf8:	70e2                	ld	ra,56(sp)
ffffffff84009cfa:	8726                	mv	a4,s1
ffffffff84009cfc:	864a                	mv	a2,s2
ffffffff84009cfe:	74a2                	ld	s1,40(sp)
ffffffff84009d00:	7902                	ld	s2,32(sp)
ffffffff84009d02:	0019f593          	and	a1,s3,1
ffffffff84009d06:	69e2                	ld	s3,24(sp)
ffffffff84009d08:	4681                	li	a3,0
ffffffff84009d0a:	6121                	add	sp,sp,64
ffffffff84009d0c:	bd41                	j	ffffffff84009b9c <invokeTCB_WriteRegisters>
ffffffff84009d0e:	479d                	li	a5,7
ffffffff84009d10:	70e2                	ld	ra,56(sp)
ffffffff84009d12:	7442                	ld	s0,48(sp)
ffffffff84009d14:	d6f1b023          	sd	a5,-672(gp) # ffffffff8400b010 <current_syscall_error+0x30>
ffffffff84009d18:	74a2                	ld	s1,40(sp)
ffffffff84009d1a:	7902                	ld	s2,32(sp)
ffffffff84009d1c:	69e2                	ld	s3,24(sp)
ffffffff84009d1e:	450d                	li	a0,3
ffffffff84009d20:	6121                	add	sp,sp,64
ffffffff84009d22:	8082                	ret

ffffffff84009d24 <decodeTCBInvocation>:
ffffffff84009d24:	7139                	add	sp,sp,-64
ffffffff84009d26:	fc06                	sd	ra,56(sp)
ffffffff84009d28:	f822                	sd	s0,48(sp)
ffffffff84009d2a:	f426                	sd	s1,40(sp)
ffffffff84009d2c:	e832                	sd	a2,16(sp)
ffffffff84009d2e:	ec36                	sd	a3,24(sp)
ffffffff84009d30:	48bd                	li	a7,15
ffffffff84009d32:	1ca8e563          	bltu	a7,a0,ffffffff84009efc <decodeTCBInvocation+0x1d8>
ffffffff84009d36:	86ba                	mv	a3,a4
ffffffff84009d38:	050a                	sll	a0,a0,0x2
ffffffff84009d3a:	00002717          	auipc	a4,0x2
ffffffff84009d3e:	87e70713          	add	a4,a4,-1922 # ffffffff8400b5b8 <platform_interrupt_t+0x178>
ffffffff84009d42:	953a                	add	a0,a0,a4
ffffffff84009d44:	00052883          	lw	a7,0(a0)
ffffffff84009d48:	8332                	mv	t1,a2
ffffffff84009d4a:	862e                	mv	a2,a1
ffffffff84009d4c:	98ba                	add	a7,a7,a4
ffffffff84009d4e:	8882                	jr	a7
ffffffff84009d50:	1a058b63          	beqz	a1,ffffffff84009f06 <decodeTCBInvocation+0x1e2>
ffffffff84009d54:	aa018413          	add	s0,gp,-1376 # ffffffff8400ad50 <ksCurThread>
ffffffff84009d58:	6008                	ld	a0,0(s0)
ffffffff84009d5a:	e41a                	sd	t1,8(sp)
ffffffff84009d5c:	11853783          	ld	a5,280(a0)
ffffffff84009d60:	6d24                	ld	s1,88(a0)
ffffffff84009d62:	9bc1                	and	a5,a5,-16
ffffffff84009d64:	0027e793          	or	a5,a5,2
ffffffff84009d68:	10f53c23          	sd	a5,280(a0)
ffffffff84009d6c:	ffbfb0ef          	jal	ffffffff84005d66 <scheduleTCB>
ffffffff84009d70:	6322                	ld	t1,8(sp)
ffffffff84009d72:	57fd                	li	a5,-1
ffffffff84009d74:	0197d693          	srl	a3,a5,0x19
ffffffff84009d78:	02635713          	srl	a4,t1,0x26
ffffffff84009d7c:	8b05                	and	a4,a4,1
ffffffff84009d7e:	00d37333          	and	t1,t1,a3
ffffffff84009d82:	c701                	beqz	a4,ffffffff84009d8a <decodeTCBInvocation+0x66>
ffffffff84009d84:	179e                	sll	a5,a5,0x27
ffffffff84009d86:	00f36333          	or	t1,t1,a5
ffffffff84009d8a:	601c                	ld	a5,0(s0)
ffffffff84009d8c:	00933c23          	sd	s1,24(t1)
ffffffff84009d90:	00f31a63          	bne	t1,a5,ffffffff84009da4 <decodeTCBInvocation+0x80>
ffffffff84009d94:	a9018413          	add	s0,gp,-1392 # ffffffff8400ad40 <ksSchedulerAction>
ffffffff84009d98:	6008                	ld	a0,0(s0)
ffffffff84009d9a:	4785                	li	a5,1
ffffffff84009d9c:	16a7ef63          	bltu	a5,a0,ffffffff84009f1a <decodeTCBInvocation+0x1f6>
ffffffff84009da0:	4785                	li	a5,1
ffffffff84009da2:	e01c                	sd	a5,0(s0)
ffffffff84009da4:	4501                	li	a0,0
ffffffff84009da6:	70e2                	ld	ra,56(sp)
ffffffff84009da8:	7442                	ld	s0,48(sp)
ffffffff84009daa:	74a2                	ld	s1,40(sp)
ffffffff84009dac:	6121                	add	sp,sp,64
ffffffff84009dae:	8082                	ret
ffffffff84009db0:	7442                	ld	s0,48(sp)
ffffffff84009db2:	6542                	ld	a0,16(sp)
ffffffff84009db4:	65e2                	ld	a1,24(sp)
ffffffff84009db6:	70e2                	ld	ra,56(sp)
ffffffff84009db8:	74a2                	ld	s1,40(sp)
ffffffff84009dba:	8742                	mv	a4,a6
ffffffff84009dbc:	86be                	mv	a3,a5
ffffffff84009dbe:	6121                	add	sp,sp,64
ffffffff84009dc0:	bb31                	j	ffffffff84009adc <decodeReadRegisters>
ffffffff84009dc2:	7442                	ld	s0,48(sp)
ffffffff84009dc4:	6542                	ld	a0,16(sp)
ffffffff84009dc6:	65e2                	ld	a1,24(sp)
ffffffff84009dc8:	70e2                	ld	ra,56(sp)
ffffffff84009dca:	74a2                	ld	s1,40(sp)
ffffffff84009dcc:	86c2                	mv	a3,a6
ffffffff84009dce:	6121                	add	sp,sp,64
ffffffff84009dd0:	b5e9                	j	ffffffff84009c9a <decodeWriteRegisters>
ffffffff84009dd2:	7442                	ld	s0,48(sp)
ffffffff84009dd4:	6542                	ld	a0,16(sp)
ffffffff84009dd6:	65e2                	ld	a1,24(sp)
ffffffff84009dd8:	70e2                	ld	ra,56(sp)
ffffffff84009dda:	74a2                	ld	s1,40(sp)
ffffffff84009ddc:	86c2                	mv	a3,a6
ffffffff84009dde:	6121                	add	sp,sp,64
ffffffff84009de0:	b615                	j	ffffffff84009904 <decodeCopyRegisters>
ffffffff84009de2:	7442                	ld	s0,48(sp)
ffffffff84009de4:	6542                	ld	a0,16(sp)
ffffffff84009de6:	65e2                	ld	a1,24(sp)
ffffffff84009de8:	70e2                	ld	ra,56(sp)
ffffffff84009dea:	74a2                	ld	s1,40(sp)
ffffffff84009dec:	8742                	mv	a4,a6
ffffffff84009dee:	6121                	add	sp,sp,64
ffffffff84009df0:	e94ff06f          	j	ffffffff84009484 <decodeTCBConfigure>
ffffffff84009df4:	7442                	ld	s0,48(sp)
ffffffff84009df6:	6542                	ld	a0,16(sp)
ffffffff84009df8:	65e2                	ld	a1,24(sp)
ffffffff84009dfa:	70e2                	ld	ra,56(sp)
ffffffff84009dfc:	74a2                	ld	s1,40(sp)
ffffffff84009dfe:	86c2                	mv	a3,a6
ffffffff84009e00:	6121                	add	sp,sp,64
ffffffff84009e02:	e87fe06f          	j	ffffffff84008c88 <decodeSetPriority>
ffffffff84009e06:	7442                	ld	s0,48(sp)
ffffffff84009e08:	6542                	ld	a0,16(sp)
ffffffff84009e0a:	65e2                	ld	a1,24(sp)
ffffffff84009e0c:	70e2                	ld	ra,56(sp)
ffffffff84009e0e:	74a2                	ld	s1,40(sp)
ffffffff84009e10:	86c2                	mv	a3,a6
ffffffff84009e12:	6121                	add	sp,sp,64
ffffffff84009e14:	f5bfe06f          	j	ffffffff84008d6e <decodeSetMCPriority>
ffffffff84009e18:	7442                	ld	s0,48(sp)
ffffffff84009e1a:	6542                	ld	a0,16(sp)
ffffffff84009e1c:	65e2                	ld	a1,24(sp)
ffffffff84009e1e:	70e2                	ld	ra,56(sp)
ffffffff84009e20:	74a2                	ld	s1,40(sp)
ffffffff84009e22:	86c2                	mv	a3,a6
ffffffff84009e24:	6121                	add	sp,sp,64
ffffffff84009e26:	ff1fe06f          	j	ffffffff84008e16 <decodeSetSchedParams>
ffffffff84009e2a:	7442                	ld	s0,48(sp)
ffffffff84009e2c:	6542                	ld	a0,16(sp)
ffffffff84009e2e:	65e2                	ld	a1,24(sp)
ffffffff84009e30:	70e2                	ld	ra,56(sp)
ffffffff84009e32:	74a2                	ld	s1,40(sp)
ffffffff84009e34:	8742                	mv	a4,a6
ffffffff84009e36:	6121                	add	sp,sp,64
ffffffff84009e38:	8d4ff06f          	j	ffffffff84008f0c <decodeSetIPCBuffer>
ffffffff84009e3c:	7442                	ld	s0,48(sp)
ffffffff84009e3e:	6542                	ld	a0,16(sp)
ffffffff84009e40:	65e2                	ld	a1,24(sp)
ffffffff84009e42:	70e2                	ld	ra,56(sp)
ffffffff84009e44:	74a2                	ld	s1,40(sp)
ffffffff84009e46:	8742                	mv	a4,a6
ffffffff84009e48:	6121                	add	sp,sp,64
ffffffff84009e4a:	843ff06f          	j	ffffffff8400968c <decodeSetSpace>
ffffffff84009e4e:	aa01b503          	ld	a0,-1376(gp) # ffffffff8400ad50 <ksCurThread>
ffffffff84009e52:	11853783          	ld	a5,280(a0)
ffffffff84009e56:	e41a                	sd	t1,8(sp)
ffffffff84009e58:	9bc1                	and	a5,a5,-16
ffffffff84009e5a:	0027e793          	or	a5,a5,2
ffffffff84009e5e:	10f53c23          	sd	a5,280(a0)
ffffffff84009e62:	f05fb0ef          	jal	ffffffff84005d66 <scheduleTCB>
ffffffff84009e66:	6322                	ld	t1,8(sp)
ffffffff84009e68:	57fd                	li	a5,-1
ffffffff84009e6a:	0197d413          	srl	s0,a5,0x19
ffffffff84009e6e:	02635713          	srl	a4,t1,0x26
ffffffff84009e72:	8b05                	and	a4,a4,1
ffffffff84009e74:	00837433          	and	s0,t1,s0
ffffffff84009e78:	c319                	beqz	a4,ffffffff84009e7e <decodeTCBInvocation+0x15a>
ffffffff84009e7a:	179e                	sll	a5,a5,0x27
ffffffff84009e7c:	8c5d                	or	s0,s0,a5
ffffffff84009e7e:	8522                	mv	a0,s0
ffffffff84009e80:	c17fd0ef          	jal	ffffffff84007a96 <cancelIPC>
ffffffff84009e84:	11843783          	ld	a5,280(s0)
ffffffff84009e88:	4705                	li	a4,1
ffffffff84009e8a:	00f7f693          	and	a3,a5,15
ffffffff84009e8e:	08e68163          	beq	a3,a4,ffffffff84009f10 <decodeTCBInvocation+0x1ec>
ffffffff84009e92:	9bc1                	and	a5,a5,-16
ffffffff84009e94:	8522                	mv	a0,s0
ffffffff84009e96:	10f43c23          	sd	a5,280(s0)
ffffffff84009e9a:	ecdfb0ef          	jal	ffffffff84005d66 <scheduleTCB>
ffffffff84009e9e:	8522                	mv	a0,s0
ffffffff84009ea0:	d35fc0ef          	jal	ffffffff84006bd4 <tcbSchedDequeue>
ffffffff84009ea4:	b701                	j	ffffffff84009da4 <decodeTCBInvocation+0x80>
ffffffff84009ea6:	aa01b503          	ld	a0,-1376(gp) # ffffffff8400ad50 <ksCurThread>
ffffffff84009eaa:	11853783          	ld	a5,280(a0)
ffffffff84009eae:	e41a                	sd	t1,8(sp)
ffffffff84009eb0:	9bc1                	and	a5,a5,-16
ffffffff84009eb2:	0027e793          	or	a5,a5,2
ffffffff84009eb6:	10f53c23          	sd	a5,280(a0)
ffffffff84009eba:	eadfb0ef          	jal	ffffffff84005d66 <scheduleTCB>
ffffffff84009ebe:	6322                	ld	t1,8(sp)
ffffffff84009ec0:	57fd                	li	a5,-1
ffffffff84009ec2:	0197d513          	srl	a0,a5,0x19
ffffffff84009ec6:	02635713          	srl	a4,t1,0x26
ffffffff84009eca:	8b05                	and	a4,a4,1
ffffffff84009ecc:	00a37533          	and	a0,t1,a0
ffffffff84009ed0:	c319                	beqz	a4,ffffffff84009ed6 <decodeTCBInvocation+0x1b2>
ffffffff84009ed2:	179e                	sll	a5,a5,0x27
ffffffff84009ed4:	8d5d                	or	a0,a0,a5
ffffffff84009ed6:	ce5fd0ef          	jal	ffffffff84007bba <restart>
ffffffff84009eda:	b5e9                	j	ffffffff84009da4 <decodeTCBInvocation+0x80>
ffffffff84009edc:	7442                	ld	s0,48(sp)
ffffffff84009ede:	6542                	ld	a0,16(sp)
ffffffff84009ee0:	65e2                	ld	a1,24(sp)
ffffffff84009ee2:	70e2                	ld	ra,56(sp)
ffffffff84009ee4:	74a2                	ld	s1,40(sp)
ffffffff84009ee6:	6121                	add	sp,sp,64
ffffffff84009ee8:	a6aff06f          	j	ffffffff84009152 <decodeBindNotification>
ffffffff84009eec:	7442                	ld	s0,48(sp)
ffffffff84009eee:	6542                	ld	a0,16(sp)
ffffffff84009ef0:	65e2                	ld	a1,24(sp)
ffffffff84009ef2:	70e2                	ld	ra,56(sp)
ffffffff84009ef4:	74a2                	ld	s1,40(sp)
ffffffff84009ef6:	6121                	add	sp,sp,64
ffffffff84009ef8:	b20ff06f          	j	ffffffff84009218 <decodeUnbindNotification>
ffffffff84009efc:	478d                	li	a5,3
ffffffff84009efe:	d6f1b023          	sd	a5,-672(gp) # ffffffff8400b010 <current_syscall_error+0x30>
ffffffff84009f02:	450d                	li	a0,3
ffffffff84009f04:	b54d                	j	ffffffff84009da6 <decodeTCBInvocation+0x82>
ffffffff84009f06:	479d                	li	a5,7
ffffffff84009f08:	d6f1b023          	sd	a5,-672(gp) # ffffffff8400b010 <current_syscall_error+0x30>
ffffffff84009f0c:	450d                	li	a0,3
ffffffff84009f0e:	bd61                	j	ffffffff84009da6 <decodeTCBInvocation+0x82>
ffffffff84009f10:	11043703          	ld	a4,272(s0)
ffffffff84009f14:	10e43423          	sd	a4,264(s0)
ffffffff84009f18:	bfad                	j	ffffffff84009e92 <decodeTCBInvocation+0x16e>
ffffffff84009f1a:	cebfb0ef          	jal	ffffffff84005c04 <tcbSchedEnqueue>
ffffffff84009f1e:	b549                	j	ffffffff84009da0 <decodeTCBInvocation+0x7c>

ffffffff84009f20 <invokeTCB_NotificationControl>:
ffffffff84009f20:	cd91                	beqz	a1,ffffffff84009f3c <invokeTCB_NotificationControl+0x1c>
ffffffff84009f22:	6d98                	ld	a4,24(a1)
ffffffff84009f24:	57fd                	li	a5,-1
ffffffff84009f26:	02779693          	sll	a3,a5,0x27
ffffffff84009f2a:	83e5                	srl	a5,a5,0x19
ffffffff84009f2c:	8f75                	and	a4,a4,a3
ffffffff84009f2e:	8fe9                	and	a5,a5,a0
ffffffff84009f30:	8fd9                	or	a5,a5,a4
ffffffff84009f32:	ed9c                	sd	a5,24(a1)
ffffffff84009f34:	12b53823          	sd	a1,304(a0)
ffffffff84009f38:	4501                	li	a0,0
ffffffff84009f3a:	8082                	ret
ffffffff84009f3c:	13053703          	ld	a4,304(a0)
ffffffff84009f40:	df65                	beqz	a4,ffffffff84009f38 <invokeTCB_NotificationControl+0x18>
ffffffff84009f42:	6f1c                	ld	a5,24(a4)
ffffffff84009f44:	939d                	srl	a5,a5,0x27
ffffffff84009f46:	179e                	sll	a5,a5,0x27
ffffffff84009f48:	ef1c                	sd	a5,24(a4)
ffffffff84009f4a:	12053823          	sd	zero,304(a0)
ffffffff84009f4e:	4501                	li	a0,0
ffffffff84009f50:	8082                	ret

ffffffff84009f52 <setMRs_syscall_error>:
ffffffff84009f52:	d3018693          	add	a3,gp,-720 # ffffffff8400afe0 <current_syscall_error>
ffffffff84009f56:	7a9c                	ld	a5,48(a3)
ffffffff84009f58:	1141                	add	sp,sp,-16
ffffffff84009f5a:	e406                	sd	ra,8(sp)
ffffffff84009f5c:	4729                	li	a4,10
ffffffff84009f5e:	06f76563          	bltu	a4,a5,ffffffff84009fc8 <setMRs_syscall_error+0x76>
ffffffff84009f62:	00001717          	auipc	a4,0x1
ffffffff84009f66:	69670713          	add	a4,a4,1686 # ffffffff8400b5f8 <platform_interrupt_t+0x1b8>
ffffffff84009f6a:	078a                	sll	a5,a5,0x2
ffffffff84009f6c:	97ba                	add	a5,a5,a4
ffffffff84009f6e:	439c                	lw	a5,0(a5)
ffffffff84009f70:	882a                	mv	a6,a0
ffffffff84009f72:	97ba                	add	a5,a5,a4
ffffffff84009f74:	8782                	jr	a5
ffffffff84009f76:	60a2                	ld	ra,8(sp)
ffffffff84009f78:	4501                	li	a0,0
ffffffff84009f7a:	0141                	add	sp,sp,16
ffffffff84009f7c:	8082                	ret
ffffffff84009f7e:	729c                	ld	a5,32(a3)
ffffffff84009f80:	60a2                	ld	ra,8(sp)
ffffffff84009f82:	04f83c23          	sd	a5,88(a6)
ffffffff84009f86:	4505                	li	a0,1
ffffffff84009f88:	0141                	add	sp,sp,16
ffffffff84009f8a:	8082                	ret
ffffffff84009f8c:	629c                	ld	a5,0(a3)
ffffffff84009f8e:	bfcd                	j	ffffffff84009f80 <setMRs_syscall_error+0x2e>
ffffffff84009f90:	669c                	ld	a5,8(a3)
ffffffff84009f92:	b7fd                	j	ffffffff84009f80 <setMRs_syscall_error+0x2e>
ffffffff84009f94:	6e98                	ld	a4,24(a3)
ffffffff84009f96:	6a9c                	ld	a5,16(a3)
ffffffff84009f98:	60a2                	ld	ra,8(sp)
ffffffff84009f9a:	06e83023          	sd	a4,96(a6)
ffffffff84009f9e:	04f83c23          	sd	a5,88(a6)
ffffffff84009fa2:	4509                	li	a0,2
ffffffff84009fa4:	0141                	add	sp,sp,16
ffffffff84009fa6:	8082                	ret
ffffffff84009fa8:	769c                	ld	a5,40(a3)
ffffffff84009faa:	d7818713          	add	a4,gp,-648 # ffffffff8400b028 <current_lookup_fault>
ffffffff84009fae:	6310                	ld	a2,0(a4)
ffffffff84009fb0:	6714                	ld	a3,8(a4)
ffffffff84009fb2:	00f037b3          	snez	a5,a5
ffffffff84009fb6:	ed3c                	sd	a5,88(a0)
ffffffff84009fb8:	4705                	li	a4,1
ffffffff84009fba:	92bf90ef          	jal	ffffffff840038e4 <setMRs_lookup_failure>
ffffffff84009fbe:	60a2                	ld	ra,8(sp)
ffffffff84009fc0:	1502                	sll	a0,a0,0x20
ffffffff84009fc2:	9101                	srl	a0,a0,0x20
ffffffff84009fc4:	0141                	add	sp,sp,16
ffffffff84009fc6:	8082                	ret
ffffffff84009fc8:	c6ff90ef          	jal	ffffffff84003c36 <halt>

ffffffff84009fcc <replyFromKernel_error>:
ffffffff84009fcc:	1141                	add	sp,sp,-16
ffffffff84009fce:	e022                	sd	s0,0(sp)
ffffffff84009fd0:	85aa                	mv	a1,a0
ffffffff84009fd2:	842a                	mv	s0,a0
ffffffff84009fd4:	4505                	li	a0,1
ffffffff84009fd6:	e406                	sd	ra,8(sp)
ffffffff84009fd8:	db9f90ef          	jal	ffffffff84003d90 <lookupIPCBuffer>
ffffffff84009fdc:	85aa                	mv	a1,a0
ffffffff84009fde:	04043423          	sd	zero,72(s0)
ffffffff84009fe2:	8522                	mv	a0,s0
ffffffff84009fe4:	f6fff0ef          	jal	ffffffff84009f52 <setMRs_syscall_error>
ffffffff84009fe8:	d601b783          	ld	a5,-672(gp) # ffffffff8400b010 <current_syscall_error+0x30>
ffffffff84009fec:	07b2                	sll	a5,a5,0xc
ffffffff84009fee:	07f57513          	and	a0,a0,127
ffffffff84009ff2:	8fc9                	or	a5,a5,a0
ffffffff84009ff4:	60a2                	ld	ra,8(sp)
ffffffff84009ff6:	e83c                	sd	a5,80(s0)
ffffffff84009ff8:	6402                	ld	s0,0(sp)
ffffffff84009ffa:	0141                	add	sp,sp,16
ffffffff84009ffc:	8082                	ret

ffffffff84009ffe <invokeUntyped_Retype>:
ffffffff84009ffe:	00053e83          	ld	t4,0(a0)
ffffffff8400a002:	715d                	add	sp,sp,-80
ffffffff8400a004:	e0a2                	sd	s0,64(sp)
ffffffff8400a006:	537d                	li	t1,-1
ffffffff8400a008:	842a                	mv	s0,a0
ffffffff8400a00a:	026ed513          	srl	a0,t4,0x26
ffffffff8400a00e:	fc26                	sd	s1,56(sp)
ffffffff8400a010:	f84a                	sd	s2,48(sp)
ffffffff8400a012:	f44e                	sd	s3,40(sp)
ffffffff8400a014:	f052                	sd	s4,32(sp)
ffffffff8400a016:	ec56                	sd	s5,24(sp)
ffffffff8400a018:	e85a                	sd	s6,16(sp)
ffffffff8400a01a:	e45e                	sd	s7,8(sp)
ffffffff8400a01c:	01935493          	srl	s1,t1,0x19
ffffffff8400a020:	e486                	sd	ra,72(sp)
ffffffff8400a022:	8905                	and	a0,a0,1
ffffffff8400a024:	8b32                	mv	s6,a2
ffffffff8400a026:	8a36                	mv	s4,a3
ffffffff8400a028:	8bba                	mv	s7,a4
ffffffff8400a02a:	893e                	mv	s2,a5
ffffffff8400a02c:	89c2                	mv	s3,a6
ffffffff8400a02e:	8ac6                	mv	s5,a7
ffffffff8400a030:	009ef4b3          	and	s1,t4,s1
ffffffff8400a034:	c501                	beqz	a0,ffffffff8400a03c <invokeUntyped_Retype+0x3e>
ffffffff8400a036:	131e                	sll	t1,t1,0x27
ffffffff8400a038:	0064e4b3          	or	s1,s1,t1
ffffffff8400a03c:	c1a1                	beqz	a1,ffffffff8400a07c <invokeUntyped_Retype+0x7e>
ffffffff8400a03e:	6418                	ld	a4,8(s0)
ffffffff8400a040:	01975693          	srl	a3,a4,0x19
ffffffff8400a044:	03f77613          	and	a2,a4,63
ffffffff8400a048:	00469793          	sll	a5,a3,0x4
ffffffff8400a04c:	ca85                	beqz	a3,ffffffff8400a07c <invokeUntyped_Retype+0x7e>
ffffffff8400a04e:	00675693          	srl	a3,a4,0x6
ffffffff8400a052:	02771593          	sll	a1,a4,0x27
ffffffff8400a056:	8a85                	and	a3,a3,1
ffffffff8400a058:	919d                	srl	a1,a1,0x27
ffffffff8400a05a:	ee91                	bnez	a3,ffffffff8400a076 <invokeUntyped_Retype+0x78>
ffffffff8400a05c:	03877713          	and	a4,a4,56
ffffffff8400a060:	eb2d                	bnez	a4,ffffffff8400a0d2 <invokeUntyped_Retype+0xd4>
ffffffff8400a062:	4705                	li	a4,1
ffffffff8400a064:	00c71733          	sll	a4,a4,a2
ffffffff8400a068:	87a6                	mv	a5,s1
ffffffff8400a06a:	9726                	add	a4,a4,s1
ffffffff8400a06c:	0007b023          	sd	zero,0(a5)
ffffffff8400a070:	07a1                	add	a5,a5,8
ffffffff8400a072:	fee79de3          	bne	a5,a4,ffffffff8400a06c <invokeUntyped_Retype+0x6e>
ffffffff8400a076:	01d43023          	sd	t4,0(s0)
ffffffff8400a07a:	e40c                	sd	a1,8(s0)
ffffffff8400a07c:	85de                	mv	a1,s7
ffffffff8400a07e:	8552                	mv	a0,s4
ffffffff8400a080:	986fb0ef          	jal	ffffffff84005206 <getObjectSize>
ffffffff8400a084:	00843e03          	ld	t3,8(s0)
ffffffff8400a088:	00aa9333          	sll	t1,s5,a0
ffffffff8400a08c:	409b04b3          	sub	s1,s6,s1
ffffffff8400a090:	9326                	add	t1,t1,s1
ffffffff8400a092:	00435313          	srl	t1,t1,0x4
ffffffff8400a096:	1e1e                	sll	t3,t3,0x27
ffffffff8400a098:	027e5e13          	srl	t3,t3,0x27
ffffffff8400a09c:	68c6                	ld	a7,80(sp)
ffffffff8400a09e:	0366                	sll	t1,t1,0x19
ffffffff8400a0a0:	01c36333          	or	t1,t1,t3
ffffffff8400a0a4:	8552                	mv	a0,s4
ffffffff8400a0a6:	00643423          	sd	t1,8(s0)
ffffffff8400a0aa:	885e                	mv	a6,s7
ffffffff8400a0ac:	87da                	mv	a5,s6
ffffffff8400a0ae:	8756                	mv	a4,s5
ffffffff8400a0b0:	86ce                	mv	a3,s3
ffffffff8400a0b2:	864a                	mv	a2,s2
ffffffff8400a0b4:	85a2                	mv	a1,s0
ffffffff8400a0b6:	c62fb0ef          	jal	ffffffff84005518 <createNewObjects>
ffffffff8400a0ba:	4501                	li	a0,0
ffffffff8400a0bc:	60a6                	ld	ra,72(sp)
ffffffff8400a0be:	6406                	ld	s0,64(sp)
ffffffff8400a0c0:	74e2                	ld	s1,56(sp)
ffffffff8400a0c2:	7942                	ld	s2,48(sp)
ffffffff8400a0c4:	79a2                	ld	s3,40(sp)
ffffffff8400a0c6:	7a02                	ld	s4,32(sp)
ffffffff8400a0c8:	6ae2                	ld	s5,24(sp)
ffffffff8400a0ca:	6b42                	ld	s6,16(sp)
ffffffff8400a0cc:	6ba2                	ld	s7,8(sp)
ffffffff8400a0ce:	6161                	add	sp,sp,80
ffffffff8400a0d0:	8082                	ret
ffffffff8400a0d2:	17fd                	add	a5,a5,-1
ffffffff8400a0d4:	f007f713          	and	a4,a5,-256
ffffffff8400a0d8:	10048613          	add	a2,s1,256
ffffffff8400a0dc:	963a                	add	a2,a2,a4
ffffffff8400a0de:	a8818513          	add	a0,gp,-1400 # ffffffff8400ad38 <ksWorkUnitsCompleted>
ffffffff8400a0e2:	06300813          	li	a6,99
ffffffff8400a0e6:	f0000893          	li	a7,-256
ffffffff8400a0ea:	8e32                	mv	t3,a2
ffffffff8400a0ec:	f0060613          	add	a2,a2,-256
ffffffff8400a0f0:	8332                	mv	t1,a2
ffffffff8400a0f2:	00033023          	sd	zero,0(t1)
ffffffff8400a0f6:	0321                	add	t1,t1,8
ffffffff8400a0f8:	ffc31de3          	bne	t1,t3,ffffffff8400a0f2 <invokeUntyped_Retype+0xf4>
ffffffff8400a0fc:	6114                	ld	a3,0(a0)
ffffffff8400a0fe:	00475793          	srl	a5,a4,0x4
ffffffff8400a102:	07e6                	sll	a5,a5,0x19
ffffffff8400a104:	8fcd                	or	a5,a5,a1
ffffffff8400a106:	e41c                	sd	a5,8(s0)
ffffffff8400a108:	01d43023          	sd	t4,0(s0)
ffffffff8400a10c:	00168793          	add	a5,a3,1
ffffffff8400a110:	00f86863          	bltu	a6,a5,ffffffff8400a120 <invokeUntyped_Retype+0x122>
ffffffff8400a114:	e11c                	sd	a5,0(a0)
ffffffff8400a116:	f0070713          	add	a4,a4,-256
ffffffff8400a11a:	fd1718e3          	bne	a4,a7,ffffffff8400a0ea <invokeUntyped_Retype+0xec>
ffffffff8400a11e:	bfb9                	j	ffffffff8400a07c <invokeUntyped_Retype+0x7e>
ffffffff8400a120:	a801b423          	sd	zero,-1400(gp) # ffffffff8400ad38 <ksWorkUnitsCompleted>
ffffffff8400a124:	144027f3          	csrr	a5,sip
ffffffff8400a128:	2207f793          	and	a5,a5,544
ffffffff8400a12c:	d7ed                	beqz	a5,ffffffff8400a116 <invokeUntyped_Retype+0x118>
ffffffff8400a12e:	4511                	li	a0,4
ffffffff8400a130:	b771                	j	ffffffff8400a0bc <invokeUntyped_Retype+0xbe>

ffffffff8400a132 <decodeUntypedInvocation>:
ffffffff8400a132:	7171                	add	sp,sp,-176
ffffffff8400a134:	f506                	sd	ra,168(sp)
ffffffff8400a136:	f122                	sd	s0,160(sp)
ffffffff8400a138:	ed26                	sd	s1,152(sp)
ffffffff8400a13a:	e94a                	sd	s2,144(sp)
ffffffff8400a13c:	e54e                	sd	s3,136(sp)
ffffffff8400a13e:	e152                	sd	s4,128(sp)
ffffffff8400a140:	fcd6                	sd	s5,120(sp)
ffffffff8400a142:	f8da                	sd	s6,112(sp)
ffffffff8400a144:	f4de                	sd	s7,104(sp)
ffffffff8400a146:	f0e2                	sd	s8,96(sp)
ffffffff8400a148:	ece6                	sd	s9,88(sp)
ffffffff8400a14a:	e8ea                	sd	s10,80(sp)
ffffffff8400a14c:	e4ee                	sd	s11,72(sp)
ffffffff8400a14e:	e836                	sd	a3,16(sp)
ffffffff8400a150:	ec3a                	sd	a4,24(sp)
ffffffff8400a152:	4785                	li	a5,1
ffffffff8400a154:	16f51463          	bne	a0,a5,ffffffff8400a2bc <decodeUntypedInvocation+0x18a>
ffffffff8400a158:	4795                	li	a5,5
ffffffff8400a15a:	18b7f463          	bgeu	a5,a1,ffffffff8400a2e2 <decodeUntypedInvocation+0x1b0>
ffffffff8400a15e:	8981b983          	ld	s3,-1896(gp) # ffffffff8400ab48 <current_extra_caps>
ffffffff8400a162:	18098063          	beqz	s3,ffffffff8400a2e2 <decodeUntypedInvocation+0x1b0>
ffffffff8400a166:	aa01b483          	ld	s1,-1376(gp) # ffffffff8400ad50 <ksCurThread>
ffffffff8400a16a:	0584bb83          	ld	s7,88(s1)
ffffffff8400a16e:	47a1                	li	a5,8
ffffffff8400a170:	0604bc83          	ld	s9,96(s1)
ffffffff8400a174:	0684bd03          	ld	s10,104(s1)
ffffffff8400a178:	0704bc03          	ld	s8,112(s1)
ffffffff8400a17c:	02883d83          	ld	s11,40(a6)
ffffffff8400a180:	03083b03          	ld	s6,48(a6)
ffffffff8400a184:	842a                	mv	s0,a0
ffffffff8400a186:	1777ec63          	bltu	a5,s7,ffffffff8400a2fe <decodeUntypedInvocation+0x1cc>
ffffffff8400a18a:	85e6                	mv	a1,s9
ffffffff8400a18c:	855e                	mv	a0,s7
ffffffff8400a18e:	8ab2                	mv	s5,a2
ffffffff8400a190:	893a                	mv	s2,a4
ffffffff8400a192:	874fb0ef          	jal	ffffffff84005206 <getObjectSize>
ffffffff8400a196:	03f00793          	li	a5,63
ffffffff8400a19a:	8a2a                	mv	s4,a0
ffffffff8400a19c:	1597e763          	bltu	a5,s9,ffffffff8400a2ea <decodeUntypedInvocation+0x1b8>
ffffffff8400a1a0:	02600793          	li	a5,38
ffffffff8400a1a4:	14a7e363          	bltu	a5,a0,ffffffff8400a2ea <decodeUntypedInvocation+0x1b8>
ffffffff8400a1a8:	4791                	li	a5,4
ffffffff8400a1aa:	14fb8f63          	beq	s7,a5,ffffffff8400a308 <decodeUntypedInvocation+0x1d6>
ffffffff8400a1ae:	000b9563          	bnez	s7,ffffffff8400a1b8 <decodeUntypedInvocation+0x86>
ffffffff8400a1b2:	478d                	li	a5,3
ffffffff8400a1b4:	1597fc63          	bgeu	a5,s9,ffffffff8400a30c <decodeUntypedInvocation+0x1da>
ffffffff8400a1b8:	0009b583          	ld	a1,0(s3)
ffffffff8400a1bc:	160c1563          	bnez	s8,ffffffff8400a326 <decodeUntypedInvocation+0x1f4>
ffffffff8400a1c0:	03b5d793          	srl	a5,a1,0x3b
ffffffff8400a1c4:	4729                	li	a4,10
ffffffff8400a1c6:	16e79e63          	bne	a5,a4,ffffffff8400a342 <decodeUntypedInvocation+0x210>
ffffffff8400a1ca:	02f5d793          	srl	a5,a1,0x2f
ffffffff8400a1ce:	4705                	li	a4,1
ffffffff8400a1d0:	00f717b3          	sll	a5,a4,a5
ffffffff8400a1d4:	fff78693          	add	a3,a5,-1
ffffffff8400a1d8:	19b6e963          	bltu	a3,s11,ffffffff8400a36a <decodeUntypedInvocation+0x238>
ffffffff8400a1dc:	fffb0693          	add	a3,s6,-1
ffffffff8400a1e0:	0ff00613          	li	a2,255
ffffffff8400a1e4:	18d66b63          	bltu	a2,a3,ffffffff8400a37a <decodeUntypedInvocation+0x248>
ffffffff8400a1e8:	41b787b3          	sub	a5,a5,s11
ffffffff8400a1ec:	1367e663          	bltu	a5,s6,ffffffff8400a318 <decodeUntypedInvocation+0x1e6>
ffffffff8400a1f0:	0586                	sll	a1,a1,0x1
ffffffff8400a1f2:	171a                	sll	a4,a4,0x26
ffffffff8400a1f4:	fc0007b7          	lui	a5,0xfc000
ffffffff8400a1f8:	83e5                	srl	a5,a5,0x19
ffffffff8400a1fa:	8f6d                	and	a4,a4,a1
ffffffff8400a1fc:	00f5f9b3          	and	s3,a1,a5
ffffffff8400a200:	c709                	beqz	a4,ffffffff8400a20a <decodeUntypedInvocation+0xd8>
ffffffff8400a202:	57fd                	li	a5,-1
ffffffff8400a204:	179e                	sll	a5,a5,0x27
ffffffff8400a206:	00f9e9b3          	or	s3,s3,a5
ffffffff8400a20a:	005d9713          	sll	a4,s11,0x5
ffffffff8400a20e:	01bb0633          	add	a2,s6,s11
ffffffff8400a212:	974e                	add	a4,a4,s3
ffffffff8400a214:	86ee                	mv	a3,s11
ffffffff8400a216:	631c                	ld	a5,0(a4)
ffffffff8400a218:	0685                	add	a3,a3,1
ffffffff8400a21a:	02070713          	add	a4,a4,32
ffffffff8400a21e:	93ed                	srl	a5,a5,0x3b
ffffffff8400a220:	14079163          	bnez	a5,ffffffff8400a362 <decodeUntypedInvocation+0x230>
ffffffff8400a224:	fed619e3          	bne	a2,a3,ffffffff8400a216 <decodeUntypedInvocation+0xe4>
ffffffff8400a228:	8556                	mv	a0,s5
ffffffff8400a22a:	ffefb0ef          	jal	ffffffff84005a28 <ensureNoChildren>
ffffffff8400a22e:	c509                	beqz	a0,ffffffff8400a238 <decodeUntypedInvocation+0x106>
ffffffff8400a230:	01995513          	srl	a0,s2,0x19
ffffffff8400a234:	0512                	sll	a0,a0,0x4
ffffffff8400a236:	4401                	li	s0,0
ffffffff8400a238:	67c2                	ld	a5,16(sp)
ffffffff8400a23a:	577d                	li	a4,-1
ffffffff8400a23c:	01975613          	srl	a2,a4,0x19
ffffffff8400a240:	0267d693          	srl	a3,a5,0x26
ffffffff8400a244:	8a85                	and	a3,a3,1
ffffffff8400a246:	8ff1                	and	a5,a5,a2
ffffffff8400a248:	c299                	beqz	a3,ffffffff8400a24e <decodeUntypedInvocation+0x11c>
ffffffff8400a24a:	171e                	sll	a4,a4,0x27
ffffffff8400a24c:	8fd9                	or	a5,a5,a4
ffffffff8400a24e:	4705                	li	a4,1
ffffffff8400a250:	01271733          	sll	a4,a4,s2
ffffffff8400a254:	8f09                	sub	a4,a4,a0
ffffffff8400a256:	014756b3          	srl	a3,a4,s4
ffffffff8400a25a:	2a01                	sext.w	s4,s4
ffffffff8400a25c:	1366e863          	bltu	a3,s6,ffffffff8400a38c <decodeUntypedInvocation+0x25a>
ffffffff8400a260:	00695913          	srl	s2,s2,0x6
ffffffff8400a264:	00197913          	and	s2,s2,1
ffffffff8400a268:	00090963          	beqz	s2,ffffffff8400a27a <decodeUntypedInvocation+0x148>
ffffffff8400a26c:	ffbb8713          	add	a4,s7,-5
ffffffff8400a270:	4689                	li	a3,2
ffffffff8400a272:	00e6f463          	bgeu	a3,a4,ffffffff8400a27a <decodeUntypedInvocation+0x148>
ffffffff8400a276:	080b9b63          	bnez	s7,ffffffff8400a30c <decodeUntypedInvocation+0x1da>
ffffffff8400a27a:	1184b603          	ld	a2,280(s1)
ffffffff8400a27e:	4685                	li	a3,1
ffffffff8400a280:	014696b3          	sll	a3,a3,s4
ffffffff8400a284:	fff68713          	add	a4,a3,-1
ffffffff8400a288:	9a41                	and	a2,a2,-16
ffffffff8400a28a:	972a                	add	a4,a4,a0
ffffffff8400a28c:	00266613          	or	a2,a2,2
ffffffff8400a290:	97ba                	add	a5,a5,a4
ffffffff8400a292:	40d006b3          	neg	a3,a3
ffffffff8400a296:	8526                	mv	a0,s1
ffffffff8400a298:	10c4bc23          	sd	a2,280(s1)
ffffffff8400a29c:	00d7f4b3          	and	s1,a5,a3
ffffffff8400a2a0:	ac7fb0ef          	jal	ffffffff84005d66 <scheduleTCB>
ffffffff8400a2a4:	88da                	mv	a7,s6
ffffffff8400a2a6:	e04a                	sd	s2,0(sp)
ffffffff8400a2a8:	886e                	mv	a6,s11
ffffffff8400a2aa:	87ce                	mv	a5,s3
ffffffff8400a2ac:	8766                	mv	a4,s9
ffffffff8400a2ae:	86de                	mv	a3,s7
ffffffff8400a2b0:	8626                	mv	a2,s1
ffffffff8400a2b2:	85a2                	mv	a1,s0
ffffffff8400a2b4:	8556                	mv	a0,s5
ffffffff8400a2b6:	d49ff0ef          	jal	ffffffff84009ffe <invokeUntyped_Retype>
ffffffff8400a2ba:	a029                	j	ffffffff8400a2c4 <decodeUntypedInvocation+0x192>
ffffffff8400a2bc:	478d                	li	a5,3
ffffffff8400a2be:	d6f1b023          	sd	a5,-672(gp) # ffffffff8400b010 <current_syscall_error+0x30>
ffffffff8400a2c2:	450d                	li	a0,3
ffffffff8400a2c4:	70aa                	ld	ra,168(sp)
ffffffff8400a2c6:	740a                	ld	s0,160(sp)
ffffffff8400a2c8:	64ea                	ld	s1,152(sp)
ffffffff8400a2ca:	694a                	ld	s2,144(sp)
ffffffff8400a2cc:	69aa                	ld	s3,136(sp)
ffffffff8400a2ce:	6a0a                	ld	s4,128(sp)
ffffffff8400a2d0:	7ae6                	ld	s5,120(sp)
ffffffff8400a2d2:	7b46                	ld	s6,112(sp)
ffffffff8400a2d4:	7ba6                	ld	s7,104(sp)
ffffffff8400a2d6:	7c06                	ld	s8,96(sp)
ffffffff8400a2d8:	6ce6                	ld	s9,88(sp)
ffffffff8400a2da:	6d46                	ld	s10,80(sp)
ffffffff8400a2dc:	6da6                	ld	s11,72(sp)
ffffffff8400a2de:	614d                	add	sp,sp,176
ffffffff8400a2e0:	8082                	ret
ffffffff8400a2e2:	479d                	li	a5,7
ffffffff8400a2e4:	d6f1b023          	sd	a5,-672(gp) # ffffffff8400b010 <current_syscall_error+0x30>
ffffffff8400a2e8:	bfe9                	j	ffffffff8400a2c2 <decodeUntypedInvocation+0x190>
ffffffff8400a2ea:	4711                	li	a4,4
ffffffff8400a2ec:	d3018793          	add	a5,gp,-720 # ffffffff8400afe0 <current_syscall_error>
ffffffff8400a2f0:	fb98                	sd	a4,48(a5)
ffffffff8400a2f2:	d401b023          	sd	zero,-704(gp) # ffffffff8400aff0 <current_syscall_error+0x10>
ffffffff8400a2f6:	02600713          	li	a4,38
ffffffff8400a2fa:	ef98                	sd	a4,24(a5)
ffffffff8400a2fc:	b7d9                	j	ffffffff8400a2c2 <decodeUntypedInvocation+0x190>
ffffffff8400a2fe:	d6a1b023          	sd	a0,-672(gp) # ffffffff8400b010 <current_syscall_error+0x30>
ffffffff8400a302:	d201b823          	sd	zero,-720(gp) # ffffffff8400afe0 <current_syscall_error>
ffffffff8400a306:	bf75                	j	ffffffff8400a2c2 <decodeUntypedInvocation+0x190>
ffffffff8400a308:	ea0c98e3          	bnez	s9,ffffffff8400a1b8 <decodeUntypedInvocation+0x86>
ffffffff8400a30c:	d3018793          	add	a5,gp,-720 # ffffffff8400afe0 <current_syscall_error>
ffffffff8400a310:	4705                	li	a4,1
ffffffff8400a312:	fb98                	sd	a4,48(a5)
ffffffff8400a314:	e398                	sd	a4,0(a5)
ffffffff8400a316:	b775                	j	ffffffff8400a2c2 <decodeUntypedInvocation+0x190>
ffffffff8400a318:	d3018693          	add	a3,gp,-720 # ffffffff8400afe0 <current_syscall_error>
ffffffff8400a31c:	4611                	li	a2,4
ffffffff8400a31e:	fa90                	sd	a2,48(a3)
ffffffff8400a320:	ea98                	sd	a4,16(a3)
ffffffff8400a322:	ee9c                	sd	a5,24(a3)
ffffffff8400a324:	bf79                	j	ffffffff8400a2c2 <decodeUntypedInvocation+0x190>
ffffffff8400a326:	0089b603          	ld	a2,8(s3)
ffffffff8400a32a:	8762                	mv	a4,s8
ffffffff8400a32c:	86ea                	mv	a3,s10
ffffffff8400a32e:	4501                	li	a0,0
ffffffff8400a330:	f02e                	sd	a1,32(sp)
ffffffff8400a332:	f432                	sd	a2,40(sp)
ffffffff8400a334:	e3efa0ef          	jal	ffffffff84004972 <lookupSlotForCNodeOp>
ffffffff8400a338:	f82a                	sd	a0,48(sp)
ffffffff8400a33a:	fc2e                	sd	a1,56(sp)
ffffffff8400a33c:	f541                	bnez	a0,ffffffff8400a2c4 <decodeUntypedInvocation+0x192>
ffffffff8400a33e:	618c                	ld	a1,0(a1)
ffffffff8400a340:	b541                	j	ffffffff8400a1c0 <decodeUntypedInvocation+0x8e>
ffffffff8400a342:	002c1793          	sll	a5,s8,0x2
ffffffff8400a346:	1fc7f793          	and	a5,a5,508
ffffffff8400a34a:	4719                	li	a4,6
ffffffff8400a34c:	0017e793          	or	a5,a5,1
ffffffff8400a350:	d6e1b023          	sd	a4,-672(gp) # ffffffff8400b010 <current_syscall_error+0x30>
ffffffff8400a354:	d6f1bc23          	sd	a5,-648(gp) # ffffffff8400b028 <current_lookup_fault>
ffffffff8400a358:	d401bc23          	sd	zero,-680(gp) # ffffffff8400b008 <current_syscall_error+0x28>
ffffffff8400a35c:	d801b023          	sd	zero,-640(gp) # ffffffff8400b030 <current_lookup_fault+0x8>
ffffffff8400a360:	b78d                	j	ffffffff8400a2c2 <decodeUntypedInvocation+0x190>
ffffffff8400a362:	47a1                	li	a5,8
ffffffff8400a364:	d6f1b023          	sd	a5,-672(gp) # ffffffff8400b010 <current_syscall_error+0x30>
ffffffff8400a368:	bfa9                	j	ffffffff8400a2c2 <decodeUntypedInvocation+0x190>
ffffffff8400a36a:	d3018793          	add	a5,gp,-720 # ffffffff8400afe0 <current_syscall_error>
ffffffff8400a36e:	4711                	li	a4,4
ffffffff8400a370:	fb98                	sd	a4,48(a5)
ffffffff8400a372:	ef94                	sd	a3,24(a5)
ffffffff8400a374:	d401b023          	sd	zero,-704(gp) # ffffffff8400aff0 <current_syscall_error+0x10>
ffffffff8400a378:	b7a9                	j	ffffffff8400a2c2 <decodeUntypedInvocation+0x190>
ffffffff8400a37a:	d3018793          	add	a5,gp,-720 # ffffffff8400afe0 <current_syscall_error>
ffffffff8400a37e:	4691                	li	a3,4
ffffffff8400a380:	eb98                	sd	a4,16(a5)
ffffffff8400a382:	10000713          	li	a4,256
ffffffff8400a386:	fb94                	sd	a3,48(a5)
ffffffff8400a388:	ef98                	sd	a4,24(a5)
ffffffff8400a38a:	bf25                	j	ffffffff8400a2c2 <decodeUntypedInvocation+0x190>
ffffffff8400a38c:	d3018793          	add	a5,gp,-720 # ffffffff8400afe0 <current_syscall_error>
ffffffff8400a390:	46a9                	li	a3,10
ffffffff8400a392:	fb94                	sd	a3,48(a5)
ffffffff8400a394:	f398                	sd	a4,32(a5)
ffffffff8400a396:	b735                	j	ffffffff8400a2c2 <decodeUntypedInvocation+0x190>

ffffffff8400a398 <decodeInvocation>:
ffffffff8400a398:	711d                	add	sp,sp,-96
ffffffff8400a39a:	03b75313          	srl	t1,a4,0x3b
ffffffff8400a39e:	e0ca                	sd	s2,64(sp)
ffffffff8400a3a0:	f852                	sd	s4,48(sp)
ffffffff8400a3a2:	ec86                	sd	ra,88(sp)
ffffffff8400a3a4:	e8a2                	sd	s0,80(sp)
ffffffff8400a3a6:	e4a6                	sd	s1,72(sp)
ffffffff8400a3a8:	fc4e                	sd	s3,56(sp)
ffffffff8400a3aa:	f456                	sd	s5,40(sp)
ffffffff8400a3ac:	e03a                	sd	a4,0(sp)
ffffffff8400a3ae:	e43e                	sd	a5,8(sp)
ffffffff8400a3b0:	00137a13          	and	s4,t1,1
ffffffff8400a3b4:	7f06                	ld	t5,96(sp)
ffffffff8400a3b6:	8946                	mv	s2,a7
ffffffff8400a3b8:	020a1263          	bnez	s4,ffffffff8400a3dc <decodeInvocation+0x44>
ffffffff8400a3bc:	84be                	mv	s1,a5
ffffffff8400a3be:	47d1                	li	a5,20
ffffffff8400a3c0:	1a67e563          	bltu	a5,t1,ffffffff8400a56a <decodeInvocation+0x1d2>
ffffffff8400a3c4:	00001797          	auipc	a5,0x1
ffffffff8400a3c8:	26078793          	add	a5,a5,608 # ffffffff8400b624 <platform_interrupt_t+0x1e4>
ffffffff8400a3cc:	030a                	sll	t1,t1,0x2
ffffffff8400a3ce:	933e                	add	t1,t1,a5
ffffffff8400a3d0:	00032303          	lw	t1,0(t1)
ffffffff8400a3d4:	843a                	mv	s0,a4
ffffffff8400a3d6:	8ab6                	mv	s5,a3
ffffffff8400a3d8:	933e                	add	t1,t1,a5
ffffffff8400a3da:	8302                	jr	t1
ffffffff8400a3dc:	6446                	ld	s0,80(sp)
ffffffff8400a3de:	60e6                	ld	ra,88(sp)
ffffffff8400a3e0:	64a6                	ld	s1,72(sp)
ffffffff8400a3e2:	79e2                	ld	s3,56(sp)
ffffffff8400a3e4:	7a42                	ld	s4,48(sp)
ffffffff8400a3e6:	7aa2                	ld	s5,40(sp)
ffffffff8400a3e8:	884a                	mv	a6,s2
ffffffff8400a3ea:	6906                	ld	s2,64(sp)
ffffffff8400a3ec:	88fa                	mv	a7,t5
ffffffff8400a3ee:	6125                	add	sp,sp,96
ffffffff8400a3f0:	df5fb06f          	j	ffffffff840061e4 <decodeRISCVMMUInvocation>
ffffffff8400a3f4:	6446                	ld	s0,80(sp)
ffffffff8400a3f6:	60e6                	ld	ra,88(sp)
ffffffff8400a3f8:	64a6                	ld	s1,72(sp)
ffffffff8400a3fa:	6906                	ld	s2,64(sp)
ffffffff8400a3fc:	79e2                	ld	s3,56(sp)
ffffffff8400a3fe:	7a42                	ld	s4,48(sp)
ffffffff8400a400:	7aa2                	ld	s5,40(sp)
ffffffff8400a402:	867a                	mv	a2,t5
ffffffff8400a404:	6125                	add	sp,sp,96
ffffffff8400a406:	c5ffe06f          	j	ffffffff84009064 <decodeDomainInvocation>
ffffffff8400a40a:	00177793          	and	a5,a4,1
ffffffff8400a40e:	16079063          	bnez	a5,ffffffff8400a56e <decodeInvocation+0x1d6>
ffffffff8400a412:	aa018913          	add	s2,gp,-1376 # ffffffff8400ad50 <ksCurThread>
ffffffff8400a416:	00093503          	ld	a0,0(s2)
ffffffff8400a41a:	8005                	srl	s0,s0,0x1
ffffffff8400a41c:	11853783          	ld	a5,280(a0)
ffffffff8400a420:	9bc1                	and	a5,a5,-16
ffffffff8400a422:	0027e793          	or	a5,a5,2
ffffffff8400a426:	10f53c23          	sd	a5,280(a0)
ffffffff8400a42a:	93dfb0ef          	jal	ffffffff84005d66 <scheduleTCB>
ffffffff8400a42e:	00093503          	ld	a0,0(s2)
ffffffff8400a432:	00147693          	and	a3,s0,1
ffffffff8400a436:	8656                	mv	a2,s5
ffffffff8400a438:	85a6                	mv	a1,s1
ffffffff8400a43a:	86afe0ef          	jal	ffffffff840084a4 <doReplyTransfer>
ffffffff8400a43e:	60e6                	ld	ra,88(sp)
ffffffff8400a440:	6446                	ld	s0,80(sp)
ffffffff8400a442:	64a6                	ld	s1,72(sp)
ffffffff8400a444:	6906                	ld	s2,64(sp)
ffffffff8400a446:	79e2                	ld	s3,56(sp)
ffffffff8400a448:	7aa2                	ld	s5,40(sp)
ffffffff8400a44a:	8552                	mv	a0,s4
ffffffff8400a44c:	7a42                	ld	s4,48(sp)
ffffffff8400a44e:	6125                	add	sp,sp,96
ffffffff8400a450:	8082                	ret
ffffffff8400a452:	6446                	ld	s0,80(sp)
ffffffff8400a454:	6602                	ld	a2,0(sp)
ffffffff8400a456:	66a2                	ld	a3,8(sp)
ffffffff8400a458:	60e6                	ld	ra,88(sp)
ffffffff8400a45a:	64a6                	ld	s1,72(sp)
ffffffff8400a45c:	6906                	ld	s2,64(sp)
ffffffff8400a45e:	79e2                	ld	s3,56(sp)
ffffffff8400a460:	7a42                	ld	s4,48(sp)
ffffffff8400a462:	7aa2                	ld	s5,40(sp)
ffffffff8400a464:	877a                	mv	a4,t5
ffffffff8400a466:	6125                	add	sp,sp,96
ffffffff8400a468:	9aafd06f          	j	ffffffff84007612 <decodeCNodeInvocation>
ffffffff8400a46c:	6446                	ld	s0,80(sp)
ffffffff8400a46e:	6682                	ld	a3,0(sp)
ffffffff8400a470:	6722                	ld	a4,8(sp)
ffffffff8400a472:	60e6                	ld	ra,88(sp)
ffffffff8400a474:	64a6                	ld	s1,72(sp)
ffffffff8400a476:	6906                	ld	s2,64(sp)
ffffffff8400a478:	79e2                	ld	s3,56(sp)
ffffffff8400a47a:	7a42                	ld	s4,48(sp)
ffffffff8400a47c:	8656                	mv	a2,s5
ffffffff8400a47e:	7aa2                	ld	s5,40(sp)
ffffffff8400a480:	887a                	mv	a6,t5
ffffffff8400a482:	87c6                	mv	a5,a7
ffffffff8400a484:	6125                	add	sp,sp,96
ffffffff8400a486:	b175                	j	ffffffff8400a132 <decodeUntypedInvocation>
ffffffff8400a488:	6446                	ld	s0,80(sp)
ffffffff8400a48a:	60e6                	ld	ra,88(sp)
ffffffff8400a48c:	6906                	ld	s2,64(sp)
ffffffff8400a48e:	79e2                	ld	s3,56(sp)
ffffffff8400a490:	7a42                	ld	s4,48(sp)
ffffffff8400a492:	7aa2                	ld	s5,40(sp)
ffffffff8400a494:	03449593          	sll	a1,s1,0x34
ffffffff8400a498:	64a6                	ld	s1,72(sp)
ffffffff8400a49a:	91d1                	srl	a1,a1,0x34
ffffffff8400a49c:	6125                	add	sp,sp,96
ffffffff8400a49e:	a67fd06f          	j	ffffffff84007f04 <decodeIRQHandlerInvocation>
ffffffff8400a4a2:	6446                	ld	s0,80(sp)
ffffffff8400a4a4:	6602                	ld	a2,0(sp)
ffffffff8400a4a6:	66a2                	ld	a3,8(sp)
ffffffff8400a4a8:	60e6                	ld	ra,88(sp)
ffffffff8400a4aa:	64a6                	ld	s1,72(sp)
ffffffff8400a4ac:	6906                	ld	s2,64(sp)
ffffffff8400a4ae:	79e2                	ld	s3,56(sp)
ffffffff8400a4b0:	7a42                	ld	s4,48(sp)
ffffffff8400a4b2:	8756                	mv	a4,s5
ffffffff8400a4b4:	7aa2                	ld	s5,40(sp)
ffffffff8400a4b6:	887a                	mv	a6,t5
ffffffff8400a4b8:	87c6                	mv	a5,a7
ffffffff8400a4ba:	6125                	add	sp,sp,96
ffffffff8400a4bc:	869ff06f          	j	ffffffff84009d24 <decodeTCBInvocation>
ffffffff8400a4c0:	6446                	ld	s0,80(sp)
ffffffff8400a4c2:	60e6                	ld	ra,88(sp)
ffffffff8400a4c4:	64a6                	ld	s1,72(sp)
ffffffff8400a4c6:	6906                	ld	s2,64(sp)
ffffffff8400a4c8:	79e2                	ld	s3,56(sp)
ffffffff8400a4ca:	7a42                	ld	s4,48(sp)
ffffffff8400a4cc:	8656                	mv	a2,s5
ffffffff8400a4ce:	7aa2                	ld	s5,40(sp)
ffffffff8400a4d0:	86fa                	mv	a3,t5
ffffffff8400a4d2:	6125                	add	sp,sp,96
ffffffff8400a4d4:	993fb06f          	j	ffffffff84005e66 <decodeIRQControlInvocation>
ffffffff8400a4d8:	03775793          	srl	a5,a4,0x37
ffffffff8400a4dc:	8b85                	and	a5,a5,1
ffffffff8400a4de:	cbc1                	beqz	a5,ffffffff8400a56e <decodeInvocation+0x1d6>
ffffffff8400a4e0:	aa018a93          	add	s5,gp,-1376 # ffffffff8400ad50 <ksCurThread>
ffffffff8400a4e4:	000ab503          	ld	a0,0(s5)
ffffffff8400a4e8:	89c2                	mv	s3,a6
ffffffff8400a4ea:	11853783          	ld	a5,280(a0)
ffffffff8400a4ee:	9bc1                	and	a5,a5,-16
ffffffff8400a4f0:	0027e793          	or	a5,a5,2
ffffffff8400a4f4:	10f53c23          	sd	a5,280(a0)
ffffffff8400a4f8:	86ffb0ef          	jal	ffffffff84005d66 <scheduleTCB>
ffffffff8400a4fc:	577d                	li	a4,-1
ffffffff8400a4fe:	02645793          	srl	a5,s0,0x26
ffffffff8400a502:	01975813          	srl	a6,a4,0x19
ffffffff8400a506:	8b85                	and	a5,a5,1
ffffffff8400a508:	01047833          	and	a6,s0,a6
ffffffff8400a50c:	c781                	beqz	a5,ffffffff8400a514 <decodeInvocation+0x17c>
ffffffff8400a50e:	171e                	sll	a4,a4,0x27
ffffffff8400a510:	00e86833          	or	a6,a6,a4
ffffffff8400a514:	000ab783          	ld	a5,0(s5)
ffffffff8400a518:	03a45713          	srl	a4,s0,0x3a
ffffffff8400a51c:	03945693          	srl	a3,s0,0x39
ffffffff8400a520:	8b05                	and	a4,a4,1
ffffffff8400a522:	8a85                	and	a3,a3,1
ffffffff8400a524:	8626                	mv	a2,s1
ffffffff8400a526:	85ca                	mv	a1,s2
ffffffff8400a528:	854e                	mv	a0,s3
ffffffff8400a52a:	850fe0ef          	jal	ffffffff8400857a <sendIPC>
ffffffff8400a52e:	bf01                	j	ffffffff8400a43e <decodeInvocation+0xa6>
ffffffff8400a530:	03975793          	srl	a5,a4,0x39
ffffffff8400a534:	8b85                	and	a5,a5,1
ffffffff8400a536:	cf85                	beqz	a5,ffffffff8400a56e <decodeInvocation+0x1d6>
ffffffff8400a538:	aa01b503          	ld	a0,-1376(gp) # ffffffff8400ad50 <ksCurThread>
ffffffff8400a53c:	11853783          	ld	a5,280(a0)
ffffffff8400a540:	9bc1                	and	a5,a5,-16
ffffffff8400a542:	0027e793          	or	a5,a5,2
ffffffff8400a546:	10f53c23          	sd	a5,280(a0)
ffffffff8400a54a:	81dfb0ef          	jal	ffffffff84005d66 <scheduleTCB>
ffffffff8400a54e:	57fd                	li	a5,-1
ffffffff8400a550:	02645713          	srl	a4,s0,0x26
ffffffff8400a554:	0197d513          	srl	a0,a5,0x19
ffffffff8400a558:	8b05                	and	a4,a4,1
ffffffff8400a55a:	8d61                	and	a0,a0,s0
ffffffff8400a55c:	c319                	beqz	a4,ffffffff8400a562 <decodeInvocation+0x1ca>
ffffffff8400a55e:	179e                	sll	a5,a5,0x27
ffffffff8400a560:	8d5d                	or	a0,a0,a5
ffffffff8400a562:	85a6                	mv	a1,s1
ffffffff8400a564:	eb8fd0ef          	jal	ffffffff84007c1c <sendSignal>
ffffffff8400a568:	bdd9                	j	ffffffff8400a43e <decodeInvocation+0xa6>
ffffffff8400a56a:	eccf90ef          	jal	ffffffff84003c36 <halt>
ffffffff8400a56e:	4789                	li	a5,2
ffffffff8400a570:	d6f1b023          	sd	a5,-672(gp) # ffffffff8400b010 <current_syscall_error+0x30>
ffffffff8400a574:	4a0d                	li	s4,3
ffffffff8400a576:	d201bc23          	sd	zero,-712(gp) # ffffffff8400afe8 <current_syscall_error+0x8>
ffffffff8400a57a:	b5d1                	j	ffffffff8400a43e <decodeInvocation+0xa6>

ffffffff8400a57c <handleInvocation>:
ffffffff8400a57c:	7119                	add	sp,sp,-128
ffffffff8400a57e:	f8a2                	sd	s0,112(sp)
ffffffff8400a580:	aa01b403          	ld	s0,-1376(gp) # ffffffff8400ad50 <ksCurThread>
ffffffff8400a584:	f4a6                	sd	s1,104(sp)
ffffffff8400a586:	6824                	ld	s1,80(s0)
ffffffff8400a588:	ecce                	sd	s3,88(sp)
ffffffff8400a58a:	e8d2                	sd	s4,80(sp)
ffffffff8400a58c:	fc86                	sd	ra,120(sp)
ffffffff8400a58e:	f0ca                	sd	s2,96(sp)
ffffffff8400a590:	e4d6                	sd	s5,72(sp)
ffffffff8400a592:	e0da                	sd	s6,64(sp)
ffffffff8400a594:	07f4f713          	and	a4,s1,127
ffffffff8400a598:	07800793          	li	a5,120
ffffffff8400a59c:	8a2a                	mv	s4,a0
ffffffff8400a59e:	89ae                	mv	s3,a1
ffffffff8400a5a0:	00e7f663          	bgeu	a5,a4,ffffffff8400a5ac <handleInvocation+0x30>
ffffffff8400a5a4:	f804f493          	and	s1,s1,-128
ffffffff8400a5a8:	0784e493          	or	s1,s1,120
ffffffff8400a5ac:	c0047793          	and	a5,s0,-1024
ffffffff8400a5b0:	04843b03          	ld	s6,72(s0)
ffffffff8400a5b4:	638c                	ld	a1,0(a5)
ffffffff8400a5b6:	6790                	ld	a2,8(a5)
ffffffff8400a5b8:	04000713          	li	a4,64
ffffffff8400a5bc:	86da                	mv	a3,s6
ffffffff8400a5be:	1008                	add	a0,sp,32
ffffffff8400a5c0:	e82e                	sd	a1,16(sp)
ffffffff8400a5c2:	ec32                	sd	a2,24(sp)
ffffffff8400a5c4:	a94fa0ef          	jal	ffffffff84004858 <resolveAddressBits>
ffffffff8400a5c8:	7782                	ld	a5,32(sp)
ffffffff8400a5ca:	7aa2                	ld	s5,40(sp)
ffffffff8400a5cc:	ebd1                	bnez	a5,ffffffff8400a660 <handleInvocation+0xe4>
ffffffff8400a5ce:	008ab783          	ld	a5,8(s5)
ffffffff8400a5d2:	000ab703          	ld	a4,0(s5)
ffffffff8400a5d6:	85a2                	mv	a1,s0
ffffffff8400a5d8:	4501                	li	a0,0
ffffffff8400a5da:	f43a                	sd	a4,40(sp)
ffffffff8400a5dc:	f83e                	sd	a5,48(sp)
ffffffff8400a5de:	fb2f90ef          	jal	ffffffff84003d90 <lookupIPCBuffer>
ffffffff8400a5e2:	892a                	mv	s2,a0
ffffffff8400a5e4:	85aa                	mv	a1,a0
ffffffff8400a5e6:	8626                	mv	a2,s1
ffffffff8400a5e8:	8522                	mv	a0,s0
ffffffff8400a5ea:	bb7fd0ef          	jal	ffffffff840081a0 <lookupExtraCaps>
ffffffff8400a5ee:	ed59                	bnez	a0,ffffffff8400a68c <handleInvocation+0x110>
ffffffff8400a5f0:	07f4f593          	and	a1,s1,127
ffffffff8400a5f4:	4791                	li	a5,4
ffffffff8400a5f6:	08b7ef63          	bltu	a5,a1,ffffffff8400a694 <handleInvocation+0x118>
ffffffff8400a5fa:	77c2                	ld	a5,48(sp)
ffffffff8400a5fc:	7722                	ld	a4,40(sp)
ffffffff8400a5fe:	e04a                	sd	s2,0(sp)
ffffffff8400a600:	88d2                	mv	a7,s4
ffffffff8400a602:	884e                	mv	a6,s3
ffffffff8400a604:	86d6                	mv	a3,s5
ffffffff8400a606:	865a                	mv	a2,s6
ffffffff8400a608:	00c4d513          	srl	a0,s1,0xc
ffffffff8400a60c:	d8dff0ef          	jal	ffffffff8400a398 <decodeInvocation>
ffffffff8400a610:	4791                	li	a5,4
ffffffff8400a612:	00f50d63          	beq	a0,a5,ffffffff8400a62c <handleInvocation+0xb0>
ffffffff8400a616:	478d                	li	a5,3
ffffffff8400a618:	08f50263          	beq	a0,a5,ffffffff8400a69c <handleInvocation+0x120>
ffffffff8400a61c:	11843783          	ld	a5,280(s0)
ffffffff8400a620:	4709                	li	a4,2
ffffffff8400a622:	00f7f693          	and	a3,a5,15
ffffffff8400a626:	00e68d63          	beq	a3,a4,ffffffff8400a640 <handleInvocation+0xc4>
ffffffff8400a62a:	4501                	li	a0,0
ffffffff8400a62c:	70e6                	ld	ra,120(sp)
ffffffff8400a62e:	7446                	ld	s0,112(sp)
ffffffff8400a630:	74a6                	ld	s1,104(sp)
ffffffff8400a632:	7906                	ld	s2,96(sp)
ffffffff8400a634:	69e6                	ld	s3,88(sp)
ffffffff8400a636:	6a46                	ld	s4,80(sp)
ffffffff8400a638:	6aa6                	ld	s5,72(sp)
ffffffff8400a63a:	6b06                	ld	s6,64(sp)
ffffffff8400a63c:	6109                	add	sp,sp,128
ffffffff8400a63e:	8082                	ret
ffffffff8400a640:	000a0663          	beqz	s4,ffffffff8400a64c <handleInvocation+0xd0>
ffffffff8400a644:	04043423          	sd	zero,72(s0)
ffffffff8400a648:	04043823          	sd	zero,80(s0)
ffffffff8400a64c:	9bc1                	and	a5,a5,-16
ffffffff8400a64e:	0017e793          	or	a5,a5,1
ffffffff8400a652:	8522                	mv	a0,s0
ffffffff8400a654:	10f43c23          	sd	a5,280(s0)
ffffffff8400a658:	f0efb0ef          	jal	ffffffff84005d66 <scheduleTCB>
ffffffff8400a65c:	4501                	li	a0,0
ffffffff8400a65e:	b7f9                	j	ffffffff8400a62c <handleInvocation+0xb0>
ffffffff8400a660:	d6818793          	add	a5,gp,-664 # ffffffff8400b018 <current_fault>
ffffffff8400a664:	4705                	li	a4,1
ffffffff8400a666:	e398                	sd	a4,0(a5)
ffffffff8400a668:	0167b423          	sd	s6,8(a5)
ffffffff8400a66c:	fa098fe3          	beqz	s3,ffffffff8400a62a <handleInvocation+0xae>
ffffffff8400a670:	8522                	mv	a0,s0
ffffffff8400a672:	8c8fe0ef          	jal	ffffffff8400873a <sendFaultIPC>
ffffffff8400a676:	d955                	beqz	a0,ffffffff8400a62a <handleInvocation+0xae>
ffffffff8400a678:	11843783          	ld	a5,280(s0)
ffffffff8400a67c:	8522                	mv	a0,s0
ffffffff8400a67e:	9bc1                	and	a5,a5,-16
ffffffff8400a680:	10f43c23          	sd	a5,280(s0)
ffffffff8400a684:	ee2fb0ef          	jal	ffffffff84005d66 <scheduleTCB>
ffffffff8400a688:	4501                	li	a0,0
ffffffff8400a68a:	b74d                	j	ffffffff8400a62c <handleInvocation+0xb0>
ffffffff8400a68c:	fe0992e3          	bnez	s3,ffffffff8400a670 <handleInvocation+0xf4>
ffffffff8400a690:	4501                	li	a0,0
ffffffff8400a692:	bf69                	j	ffffffff8400a62c <handleInvocation+0xb0>
ffffffff8400a694:	f60913e3          	bnez	s2,ffffffff8400a5fa <handleInvocation+0x7e>
ffffffff8400a698:	4591                	li	a1,4
ffffffff8400a69a:	b785                	j	ffffffff8400a5fa <handleInvocation+0x7e>
ffffffff8400a69c:	f80a07e3          	beqz	s4,ffffffff8400a62a <handleInvocation+0xae>
ffffffff8400a6a0:	85a2                	mv	a1,s0
ffffffff8400a6a2:	4505                	li	a0,1
ffffffff8400a6a4:	eecf90ef          	jal	ffffffff84003d90 <lookupIPCBuffer>
ffffffff8400a6a8:	85aa                	mv	a1,a0
ffffffff8400a6aa:	04043423          	sd	zero,72(s0)
ffffffff8400a6ae:	8522                	mv	a0,s0
ffffffff8400a6b0:	8a3ff0ef          	jal	ffffffff84009f52 <setMRs_syscall_error>
ffffffff8400a6b4:	d601b783          	ld	a5,-672(gp) # ffffffff8400b010 <current_syscall_error+0x30>
ffffffff8400a6b8:	07f57513          	and	a0,a0,127
ffffffff8400a6bc:	07b2                	sll	a5,a5,0xc
ffffffff8400a6be:	8fc9                	or	a5,a5,a0
ffffffff8400a6c0:	e83c                	sd	a5,80(s0)
ffffffff8400a6c2:	4501                	li	a0,0
ffffffff8400a6c4:	b7a5                	j	ffffffff8400a62c <handleInvocation+0xb0>

ffffffff8400a6c6 <handleSyscall>:
ffffffff8400a6c6:	1101                	add	sp,sp,-32
ffffffff8400a6c8:	ec06                	sd	ra,24(sp)
ffffffff8400a6ca:	e822                	sd	s0,16(sp)
ffffffff8400a6cc:	e426                	sd	s1,8(sp)
ffffffff8400a6ce:	0521                	add	a0,a0,8
ffffffff8400a6d0:	479d                	li	a5,7
ffffffff8400a6d2:	0ca7e763          	bltu	a5,a0,ffffffff8400a7a0 <handleSyscall+0xda>
ffffffff8400a6d6:	00001717          	auipc	a4,0x1
ffffffff8400a6da:	fa270713          	add	a4,a4,-94 # ffffffff8400b678 <platform_interrupt_t+0x238>
ffffffff8400a6de:	050a                	sll	a0,a0,0x2
ffffffff8400a6e0:	953a                	add	a0,a0,a4
ffffffff8400a6e2:	411c                	lw	a5,0(a0)
ffffffff8400a6e4:	97ba                	add	a5,a5,a4
ffffffff8400a6e6:	8782                	jr	a5
ffffffff8400a6e8:	e45fd0ef          	jal	ffffffff8400852c <handleReply>
ffffffff8400a6ec:	4505                	li	a0,1
ffffffff8400a6ee:	c58fe0ef          	jal	ffffffff84008b46 <handleRecv>
ffffffff8400a6f2:	82bfc0ef          	jal	ffffffff84006f1c <schedule>
ffffffff8400a6f6:	b98fc0ef          	jal	ffffffff84006a8e <activateThread>
ffffffff8400a6fa:	60e2                	ld	ra,24(sp)
ffffffff8400a6fc:	6442                	ld	s0,16(sp)
ffffffff8400a6fe:	64a2                	ld	s1,8(sp)
ffffffff8400a700:	4501                	li	a0,0
ffffffff8400a702:	6105                	add	sp,sp,32
ffffffff8400a704:	8082                	ret
ffffffff8400a706:	e27fd0ef          	jal	ffffffff8400852c <handleReply>
ffffffff8400a70a:	b7e5                	j	ffffffff8400a6f2 <handleSyscall+0x2c>
ffffffff8400a70c:	4581                	li	a1,0
ffffffff8400a70e:	4501                	li	a0,0
ffffffff8400a710:	e6dff0ef          	jal	ffffffff8400a57c <handleInvocation>
ffffffff8400a714:	dd79                	beqz	a0,ffffffff8400a6f2 <handleSyscall+0x2c>
ffffffff8400a716:	18818793          	add	a5,gp,392 # ffffffff8400b438 <active_irq>
ffffffff8400a71a:	6388                	ld	a0,0(a5)
ffffffff8400a71c:	03500693          	li	a3,53
ffffffff8400a720:	fff50713          	add	a4,a0,-1
ffffffff8400a724:	02e6f163          	bgeu	a3,a4,ffffffff8400a746 <handleSyscall+0x80>
ffffffff8400a728:	14402773          	csrr	a4,sip
ffffffff8400a72c:	20077613          	and	a2,a4,512
ffffffff8400a730:	c235                	beqz	a2,ffffffff8400a794 <handleSyscall+0xce>
ffffffff8400a732:	c0402737          	lui	a4,0xc0402
ffffffff8400a736:	4348                	lw	a0,4(a4)
ffffffff8400a738:	1502                	sll	a0,a0,0x20
ffffffff8400a73a:	9101                	srl	a0,a0,0x20
ffffffff8400a73c:	fff50713          	add	a4,a0,-1
ffffffff8400a740:	fae6e9e3          	bltu	a3,a4,ffffffff8400a6f2 <handleSyscall+0x2c>
ffffffff8400a744:	e388                	sd	a0,0(a5)
ffffffff8400a746:	e0efd0ef          	jal	ffffffff84007d54 <handleInterrupt>
ffffffff8400a74a:	b765                	j	ffffffff8400a6f2 <handleSyscall+0x2c>
ffffffff8400a74c:	4585                	li	a1,1
ffffffff8400a74e:	4501                	li	a0,0
ffffffff8400a750:	e2dff0ef          	jal	ffffffff8400a57c <handleInvocation>
ffffffff8400a754:	dd59                	beqz	a0,ffffffff8400a6f2 <handleSyscall+0x2c>
ffffffff8400a756:	b7c1                	j	ffffffff8400a716 <handleSyscall+0x50>
ffffffff8400a758:	4585                	li	a1,1
ffffffff8400a75a:	4505                	li	a0,1
ffffffff8400a75c:	e21ff0ef          	jal	ffffffff8400a57c <handleInvocation>
ffffffff8400a760:	d949                	beqz	a0,ffffffff8400a6f2 <handleSyscall+0x2c>
ffffffff8400a762:	bf55                	j	ffffffff8400a716 <handleSyscall+0x50>
ffffffff8400a764:	4501                	li	a0,0
ffffffff8400a766:	be0fe0ef          	jal	ffffffff84008b46 <handleRecv>
ffffffff8400a76a:	b761                	j	ffffffff8400a6f2 <handleSyscall+0x2c>
ffffffff8400a76c:	aa018493          	add	s1,gp,-1376 # ffffffff8400ad50 <ksCurThread>
ffffffff8400a770:	6088                	ld	a0,0(s1)
ffffffff8400a772:	a9018413          	add	s0,gp,-1392 # ffffffff8400ad40 <ksSchedulerAction>
ffffffff8400a776:	c5efc0ef          	jal	ffffffff84006bd4 <tcbSchedDequeue>
ffffffff8400a77a:	6088                	ld	a0,0(s1)
ffffffff8400a77c:	b4efc0ef          	jal	ffffffff84006aca <tcbSchedAppend>
ffffffff8400a780:	6008                	ld	a0,0(s0)
ffffffff8400a782:	4785                	li	a5,1
ffffffff8400a784:	00a7e563          	bltu	a5,a0,ffffffff8400a78e <handleSyscall+0xc8>
ffffffff8400a788:	4785                	li	a5,1
ffffffff8400a78a:	e01c                	sd	a5,0(s0)
ffffffff8400a78c:	b79d                	j	ffffffff8400a6f2 <handleSyscall+0x2c>
ffffffff8400a78e:	c76fb0ef          	jal	ffffffff84005c04 <tcbSchedEnqueue>
ffffffff8400a792:	bfdd                	j	ffffffff8400a788 <handleSyscall+0xc2>
ffffffff8400a794:	02077713          	and	a4,a4,32
ffffffff8400a798:	df29                	beqz	a4,ffffffff8400a6f2 <handleSyscall+0x2c>
ffffffff8400a79a:	03600513          	li	a0,54
ffffffff8400a79e:	b75d                	j	ffffffff8400a744 <handleSyscall+0x7e>
ffffffff8400a7a0:	c96f90ef          	jal	ffffffff84003c36 <halt>

ffffffff8400a7a4 <slowpath>:
ffffffff8400a7a4:	1141                	add	sp,sp,-16
ffffffff8400a7a6:	e406                	sd	ra,8(sp)
ffffffff8400a7a8:	57dd                	li	a5,-9
ffffffff8400a7aa:	00a7f663          	bgeu	a5,a0,ffffffff8400a7b6 <slowpath+0x12>
ffffffff8400a7ae:	f19ff0ef          	jal	ffffffff8400a6c6 <handleSyscall>
ffffffff8400a7b2:	935f80ef          	jal	ffffffff840030e6 <restore_user_context>
ffffffff8400a7b6:	898fe0ef          	jal	ffffffff8400884e <handleUnknownSyscall>
ffffffff8400a7ba:	bfe5                	j	ffffffff8400a7b2 <slowpath+0xe>

ffffffff8400a7bc <strnlen>:
ffffffff8400a7bc:	4781                	li	a5,0
ffffffff8400a7be:	e589                	bnez	a1,ffffffff8400a7c8 <strnlen+0xc>
ffffffff8400a7c0:	a811                	j	ffffffff8400a7d4 <strnlen+0x18>
ffffffff8400a7c2:	0785                	add	a5,a5,1
ffffffff8400a7c4:	00f58863          	beq	a1,a5,ffffffff8400a7d4 <strnlen+0x18>
ffffffff8400a7c8:	00f50733          	add	a4,a0,a5
ffffffff8400a7cc:	00074703          	lbu	a4,0(a4) # ffffffffc0402000 <ki_end+0x3c3e0000>
ffffffff8400a7d0:	fb6d                	bnez	a4,ffffffff8400a7c2 <strnlen+0x6>
ffffffff8400a7d2:	85be                	mv	a1,a5
ffffffff8400a7d4:	852e                	mv	a0,a1
ffffffff8400a7d6:	8082                	ret

ffffffff8400a7d8 <strlcpy>:
ffffffff8400a7d8:	4685                	li	a3,1
ffffffff8400a7da:	88aa                	mv	a7,a0
ffffffff8400a7dc:	872a                	mv	a4,a0
ffffffff8400a7de:	fff60813          	add	a6,a2,-1
ffffffff8400a7e2:	4781                	li	a5,0
ffffffff8400a7e4:	00c6e963          	bltu	a3,a2,ffffffff8400a7f6 <strlcpy+0x1e>
ffffffff8400a7e8:	a805                	j	ffffffff8400a818 <strlcpy+0x40>
ffffffff8400a7ea:	00d70023          	sb	a3,0(a4)
ffffffff8400a7ee:	00160713          	add	a4,a2,1
ffffffff8400a7f2:	01078d63          	beq	a5,a6,ffffffff8400a80c <strlcpy+0x34>
ffffffff8400a7f6:	853e                	mv	a0,a5
ffffffff8400a7f8:	97ae                	add	a5,a5,a1
ffffffff8400a7fa:	0007c683          	lbu	a3,0(a5)
ffffffff8400a7fe:	863a                	mv	a2,a4
ffffffff8400a800:	00150793          	add	a5,a0,1
ffffffff8400a804:	f2fd                	bnez	a3,ffffffff8400a7ea <strlcpy+0x12>
ffffffff8400a806:	00060023          	sb	zero,0(a2)
ffffffff8400a80a:	8082                	ret
ffffffff8400a80c:	00f88633          	add	a2,a7,a5
ffffffff8400a810:	853e                	mv	a0,a5
ffffffff8400a812:	00060023          	sb	zero,0(a2)
ffffffff8400a816:	8082                	ret
ffffffff8400a818:	862a                	mv	a2,a0
ffffffff8400a81a:	4501                	li	a0,0
ffffffff8400a81c:	b7ed                	j	ffffffff8400a806 <strlcpy+0x2e>

ffffffff8400a81e <strlcat>:
ffffffff8400a81e:	4781                	li	a5,0
ffffffff8400a820:	e609                	bnez	a2,ffffffff8400a82a <strlcat+0xc>
ffffffff8400a822:	a0a9                	j	ffffffff8400a86c <strlcat+0x4e>
ffffffff8400a824:	0785                	add	a5,a5,1
ffffffff8400a826:	04f60363          	beq	a2,a5,ffffffff8400a86c <strlcat+0x4e>
ffffffff8400a82a:	00f50733          	add	a4,a0,a5
ffffffff8400a82e:	00074703          	lbu	a4,0(a4)
ffffffff8400a832:	fb6d                	bnez	a4,ffffffff8400a824 <strlcat+0x6>
ffffffff8400a834:	04c7f063          	bgeu	a5,a2,ffffffff8400a874 <strlcat+0x56>
ffffffff8400a838:	00178713          	add	a4,a5,1
ffffffff8400a83c:	00c76963          	bltu	a4,a2,ffffffff8400a84e <strlcat+0x30>
ffffffff8400a840:	863e                	mv	a2,a5
ffffffff8400a842:	a015                	j	ffffffff8400a866 <strlcat+0x48>
ffffffff8400a844:	fed88fa3          	sb	a3,-1(a7)
ffffffff8400a848:	02c87463          	bgeu	a6,a2,ffffffff8400a870 <strlcat+0x52>
ffffffff8400a84c:	8742                	mv	a4,a6
ffffffff8400a84e:	40f706b3          	sub	a3,a4,a5
ffffffff8400a852:	96ae                	add	a3,a3,a1
ffffffff8400a854:	fff6c683          	lbu	a3,-1(a3)
ffffffff8400a858:	00e508b3          	add	a7,a0,a4
ffffffff8400a85c:	00170813          	add	a6,a4,1
ffffffff8400a860:	f2f5                	bnez	a3,ffffffff8400a844 <strlcat+0x26>
ffffffff8400a862:	fff70613          	add	a2,a4,-1
ffffffff8400a866:	9532                	add	a0,a0,a2
ffffffff8400a868:	00050023          	sb	zero,0(a0)
ffffffff8400a86c:	8532                	mv	a0,a2
ffffffff8400a86e:	8082                	ret
ffffffff8400a870:	863a                	mv	a2,a4
ffffffff8400a872:	bfd5                	j	ffffffff8400a866 <strlcat+0x48>
ffffffff8400a874:	863e                	mv	a2,a5
ffffffff8400a876:	bfdd                	j	ffffffff8400a86c <strlcat+0x4e>

ffffffff8400a878 <memzero>:
ffffffff8400a878:	c599                	beqz	a1,ffffffff8400a886 <memzero+0xe>
ffffffff8400a87a:	95aa                	add	a1,a1,a0
ffffffff8400a87c:	00053023          	sd	zero,0(a0)
ffffffff8400a880:	0521                	add	a0,a0,8
ffffffff8400a882:	feb51de3          	bne	a0,a1,ffffffff8400a87c <memzero+0x4>
ffffffff8400a886:	8082                	ret

ffffffff8400a888 <memset>:
ffffffff8400a888:	00c567b3          	or	a5,a0,a2
ffffffff8400a88c:	8b9d                	and	a5,a5,7
ffffffff8400a88e:	8fcd                	or	a5,a5,a1
ffffffff8400a890:	eb91                	bnez	a5,ffffffff8400a8a4 <memset+0x1c>
ffffffff8400a892:	c605                	beqz	a2,ffffffff8400a8ba <memset+0x32>
ffffffff8400a894:	87aa                	mv	a5,a0
ffffffff8400a896:	962a                	add	a2,a2,a0
ffffffff8400a898:	0007b023          	sd	zero,0(a5)
ffffffff8400a89c:	07a1                	add	a5,a5,8
ffffffff8400a89e:	fec79de3          	bne	a5,a2,ffffffff8400a898 <memset+0x10>
ffffffff8400a8a2:	8082                	ret
ffffffff8400a8a4:	0ff5f713          	zext.b	a4,a1
ffffffff8400a8a8:	00c506b3          	add	a3,a0,a2
ffffffff8400a8ac:	87aa                	mv	a5,a0
ffffffff8400a8ae:	c619                	beqz	a2,ffffffff8400a8bc <memset+0x34>
ffffffff8400a8b0:	00e78023          	sb	a4,0(a5)
ffffffff8400a8b4:	0785                	add	a5,a5,1
ffffffff8400a8b6:	fef69de3          	bne	a3,a5,ffffffff8400a8b0 <memset+0x28>
ffffffff8400a8ba:	8082                	ret
ffffffff8400a8bc:	8082                	ret

ffffffff8400a8be <memcpy>:
ffffffff8400a8be:	ca19                	beqz	a2,ffffffff8400a8d4 <memcpy+0x16>
ffffffff8400a8c0:	962a                	add	a2,a2,a0
ffffffff8400a8c2:	87aa                	mv	a5,a0
ffffffff8400a8c4:	0005c703          	lbu	a4,0(a1)
ffffffff8400a8c8:	0785                	add	a5,a5,1
ffffffff8400a8ca:	0585                	add	a1,a1,1
ffffffff8400a8cc:	fee78fa3          	sb	a4,-1(a5)
ffffffff8400a8d0:	fec79ae3          	bne	a5,a2,ffffffff8400a8c4 <memcpy+0x6>
ffffffff8400a8d4:	8082                	ret

ffffffff8400a8d6 <strncmp>:
ffffffff8400a8d6:	c215                	beqz	a2,ffffffff8400a8fa <strncmp+0x24>
ffffffff8400a8d8:	87aa                	mv	a5,a0
ffffffff8400a8da:	962a                	add	a2,a2,a0
ffffffff8400a8dc:	a021                	j	ffffffff8400a8e4 <strncmp+0xe>
ffffffff8400a8de:	cf01                	beqz	a4,ffffffff8400a8f6 <strncmp+0x20>
ffffffff8400a8e0:	00c78c63          	beq	a5,a2,ffffffff8400a8f8 <strncmp+0x22>
ffffffff8400a8e4:	0007c703          	lbu	a4,0(a5)
ffffffff8400a8e8:	0005c503          	lbu	a0,0(a1)
ffffffff8400a8ec:	0785                	add	a5,a5,1
ffffffff8400a8ee:	0585                	add	a1,a1,1
ffffffff8400a8f0:	40a7053b          	subw	a0,a4,a0
ffffffff8400a8f4:	d56d                	beqz	a0,ffffffff8400a8de <strncmp+0x8>
ffffffff8400a8f6:	8082                	ret
ffffffff8400a8f8:	8082                	ret
ffffffff8400a8fa:	4501                	li	a0,0
ffffffff8400a8fc:	8082                	ret

ffffffff8400a8fe <char_to_long>:
ffffffff8400a8fe:	fd05079b          	addw	a5,a0,-48
ffffffff8400a902:	0ff7f693          	zext.b	a3,a5
ffffffff8400a906:	4725                	li	a4,9
ffffffff8400a908:	02d77563          	bgeu	a4,a3,ffffffff8400a932 <char_to_long+0x34>
ffffffff8400a90c:	fbf5079b          	addw	a5,a0,-65
ffffffff8400a910:	0ff7f793          	zext.b	a5,a5
ffffffff8400a914:	4715                	li	a4,5
ffffffff8400a916:	00f77b63          	bgeu	a4,a5,ffffffff8400a92c <char_to_long+0x2e>
ffffffff8400a91a:	f9f5079b          	addw	a5,a0,-97
ffffffff8400a91e:	0ff7f793          	zext.b	a5,a5
ffffffff8400a922:	00f76b63          	bltu	a4,a5,ffffffff8400a938 <char_to_long+0x3a>
ffffffff8400a926:	fa95051b          	addw	a0,a0,-87
ffffffff8400a92a:	8082                	ret
ffffffff8400a92c:	fc95051b          	addw	a0,a0,-55
ffffffff8400a930:	8082                	ret
ffffffff8400a932:	0007851b          	sext.w	a0,a5
ffffffff8400a936:	8082                	ret
ffffffff8400a938:	557d                	li	a0,-1
ffffffff8400a93a:	8082                	ret

ffffffff8400a93c <str_to_long>:
ffffffff8400a93c:	00054783          	lbu	a5,0(a0)
ffffffff8400a940:	03000713          	li	a4,48
ffffffff8400a944:	85aa                	mv	a1,a0
ffffffff8400a946:	48a9                	li	a7,10
ffffffff8400a948:	06e78263          	beq	a5,a4,ffffffff8400a9ac <str_to_long+0x70>
ffffffff8400a94c:	cfb1                	beqz	a5,ffffffff8400a9a8 <str_to_long+0x6c>
ffffffff8400a94e:	1882                	sll	a7,a7,0x20
ffffffff8400a950:	4501                	li	a0,0
ffffffff8400a952:	4e25                	li	t3,9
ffffffff8400a954:	4315                	li	t1,5
ffffffff8400a956:	0208d893          	srl	a7,a7,0x20
ffffffff8400a95a:	fd07861b          	addw	a2,a5,-48
ffffffff8400a95e:	fbf7871b          	addw	a4,a5,-65
ffffffff8400a962:	f9f7869b          	addw	a3,a5,-97
ffffffff8400a966:	0ff67813          	zext.b	a6,a2
ffffffff8400a96a:	0ff77713          	zext.b	a4,a4
ffffffff8400a96e:	0ff6f693          	zext.b	a3,a3
ffffffff8400a972:	030e7363          	bgeu	t3,a6,ffffffff8400a998 <str_to_long+0x5c>
ffffffff8400a976:	02e37563          	bgeu	t1,a4,ffffffff8400a9a0 <str_to_long+0x64>
ffffffff8400a97a:	02d36763          	bltu	t1,a3,ffffffff8400a9a8 <str_to_long+0x6c>
ffffffff8400a97e:	fa97871b          	addw	a4,a5,-87
ffffffff8400a982:	03175363          	bge	a4,a7,ffffffff8400a9a8 <str_to_long+0x6c>
ffffffff8400a986:	47c1                	li	a5,16
ffffffff8400a988:	02a78533          	mul	a0,a5,a0
ffffffff8400a98c:	0015c783          	lbu	a5,1(a1)
ffffffff8400a990:	0585                	add	a1,a1,1
ffffffff8400a992:	953a                	add	a0,a0,a4
ffffffff8400a994:	f3f9                	bnez	a5,ffffffff8400a95a <str_to_long+0x1e>
ffffffff8400a996:	8082                	ret
ffffffff8400a998:	0006071b          	sext.w	a4,a2
ffffffff8400a99c:	87c6                	mv	a5,a7
ffffffff8400a99e:	b7ed                	j	ffffffff8400a988 <str_to_long+0x4c>
ffffffff8400a9a0:	fc97871b          	addw	a4,a5,-55
ffffffff8400a9a4:	ff1741e3          	blt	a4,a7,ffffffff8400a986 <str_to_long+0x4a>
ffffffff8400a9a8:	557d                	li	a0,-1
ffffffff8400a9aa:	8082                	ret
ffffffff8400a9ac:	00154703          	lbu	a4,1(a0)
ffffffff8400a9b0:	05800693          	li	a3,88
ffffffff8400a9b4:	0df77713          	and	a4,a4,223
ffffffff8400a9b8:	f8d71be3          	bne	a4,a3,ffffffff8400a94e <str_to_long+0x12>
ffffffff8400a9bc:	00254783          	lbu	a5,2(a0)
ffffffff8400a9c0:	48c1                	li	a7,16
ffffffff8400a9c2:	00250593          	add	a1,a0,2
ffffffff8400a9c6:	b759                	j	ffffffff8400a94c <str_to_long+0x10>

ffffffff8400a9c8 <__clzdi2>:
ffffffff8400a9c8:	4705                	li	a4,1
ffffffff8400a9ca:	1702                	sll	a4,a4,0x20
ffffffff8400a9cc:	00e53733          	sltu	a4,a0,a4
ffffffff8400a9d0:	00174713          	xor	a4,a4,1
ffffffff8400a9d4:	0057171b          	sllw	a4,a4,0x5
ffffffff8400a9d8:	00e557b3          	srl	a5,a0,a4
ffffffff8400a9dc:	66c1                	lui	a3,0x10
ffffffff8400a9de:	00d7b6b3          	sltu	a3,a5,a3
ffffffff8400a9e2:	0016c693          	xor	a3,a3,1
ffffffff8400a9e6:	0046969b          	sllw	a3,a3,0x4
ffffffff8400a9ea:	00d7d7b3          	srl	a5,a5,a3
ffffffff8400a9ee:	1007b813          	sltiu	a6,a5,256
ffffffff8400a9f2:	00184813          	xor	a6,a6,1
ffffffff8400a9f6:	0038181b          	sllw	a6,a6,0x3
ffffffff8400a9fa:	0107d7b3          	srl	a5,a5,a6
ffffffff8400a9fe:	0107b593          	sltiu	a1,a5,16
ffffffff8400aa02:	0015c593          	xor	a1,a1,1
ffffffff8400aa06:	0025959b          	sllw	a1,a1,0x2
ffffffff8400aa0a:	00b7d7b3          	srl	a5,a5,a1
ffffffff8400aa0e:	0047b613          	sltiu	a2,a5,4
ffffffff8400aa12:	04000513          	li	a0,64
ffffffff8400aa16:	9d19                	subw	a0,a0,a4
ffffffff8400aa18:	00164713          	xor	a4,a2,1
ffffffff8400aa1c:	0017171b          	sllw	a4,a4,0x1
ffffffff8400aa20:	9d15                	subw	a0,a0,a3
ffffffff8400aa22:	00e7d7b3          	srl	a5,a5,a4
ffffffff8400aa26:	4105053b          	subw	a0,a0,a6
ffffffff8400aa2a:	9d0d                	subw	a0,a0,a1
ffffffff8400aa2c:	0027b693          	sltiu	a3,a5,2
ffffffff8400aa30:	0016c693          	xor	a3,a3,1
ffffffff8400aa34:	9d19                	subw	a0,a0,a4
ffffffff8400aa36:	9d15                	subw	a0,a0,a3
ffffffff8400aa38:	00d7d7b3          	srl	a5,a5,a3
ffffffff8400aa3c:	9d1d                	subw	a0,a0,a5
ffffffff8400aa3e:	8082                	ret

ffffffff8400aa40 <__ctzdi2>:
ffffffff8400aa40:	02051813          	sll	a6,a0,0x20
ffffffff8400aa44:	02085813          	srl	a6,a6,0x20
ffffffff8400aa48:	00183813          	seqz	a6,a6
ffffffff8400aa4c:	0058181b          	sllw	a6,a6,0x5
ffffffff8400aa50:	010557b3          	srl	a5,a0,a6
ffffffff8400aa54:	03079593          	sll	a1,a5,0x30
ffffffff8400aa58:	91c1                	srl	a1,a1,0x30
ffffffff8400aa5a:	0015b593          	seqz	a1,a1
ffffffff8400aa5e:	0045959b          	sllw	a1,a1,0x4
ffffffff8400aa62:	00b7d7b3          	srl	a5,a5,a1
ffffffff8400aa66:	0ff7f613          	zext.b	a2,a5
ffffffff8400aa6a:	00163613          	seqz	a2,a2
ffffffff8400aa6e:	0036161b          	sllw	a2,a2,0x3
ffffffff8400aa72:	00c7d7b3          	srl	a5,a5,a2
ffffffff8400aa76:	00f7f693          	and	a3,a5,15
ffffffff8400aa7a:	0016b693          	seqz	a3,a3
ffffffff8400aa7e:	0026969b          	sllw	a3,a3,0x2
ffffffff8400aa82:	00d7d7b3          	srl	a5,a5,a3
ffffffff8400aa86:	0037f713          	and	a4,a5,3
ffffffff8400aa8a:	00153513          	seqz	a0,a0
ffffffff8400aa8e:	0105053b          	addw	a0,a0,a6
ffffffff8400aa92:	00173713          	seqz	a4,a4
ffffffff8400aa96:	0017171b          	sllw	a4,a4,0x1
ffffffff8400aa9a:	9d2d                	addw	a0,a0,a1
ffffffff8400aa9c:	9d31                	addw	a0,a0,a2
ffffffff8400aa9e:	00e7d7b3          	srl	a5,a5,a4
ffffffff8400aaa2:	9d35                	addw	a0,a0,a3
ffffffff8400aaa4:	fff7c793          	not	a5,a5
ffffffff8400aaa8:	9d39                	addw	a0,a0,a4
ffffffff8400aaaa:	8b85                	and	a5,a5,1
ffffffff8400aaac:	9d3d                	addw	a0,a0,a5
ffffffff8400aaae:	8082                	ret
