
/nix/store/jdhcz6s4i6pc6ivyzckykzqvkldlkjmf-kernel/kernel.elf:     file format elf64-littleriscv


Disassembly of section .boot.text:

ffffffff84000000 <_start>:
ffffffff84000000:	0000100f          	fence.i
ffffffff84000004:	00009197          	auipc	gp,0x9
ffffffff84000008:	41418193          	add	gp,gp,1044 # ffffffff84009418 <__global_pointer$>
ffffffff8400000c:	0001b117          	auipc	sp,0x1b
ffffffff84000010:	7f410113          	add	sp,sp,2036 # ffffffff8401b800 <_breakpoint_stack_bottom>
ffffffff84000014:	14001073          	csrw	sscratch,zero
ffffffff84000018:	336010ef          	jal	ffffffff8400134e <init_kernel>
ffffffff8400001c:	00002097          	auipc	ra,0x2
ffffffff84000020:	0ca08093          	add	ra,ra,202 # ffffffff840020e6 <restore_user_context>
ffffffff84000024:	8082                	ret

ffffffff84000026 <merge_regions>:
ffffffff84000026:	00002517          	auipc	a0,0x2
ffffffff8400002a:	c7a53503          	ld	a0,-902(a0) # ffffffff84001ca0 <ndks_boot+0x340>
ffffffff8400002e:	4785                	li	a5,1
ffffffff84000030:	06a7fe63          	bgeu	a5,a0,ffffffff840000ac <merge_regions+0x86>
ffffffff84000034:	4801                	li	a6,0
ffffffff84000036:	4705                	li	a4,1
ffffffff84000038:	00002597          	auipc	a1,0x2
ffffffff8400003c:	92858593          	add	a1,a1,-1752 # ffffffff84001960 <ndks_boot>
ffffffff84000040:	4885                	li	a7,1
ffffffff84000042:	00002317          	auipc	t1,0x2
ffffffff84000046:	90e30313          	add	t1,t1,-1778 # ffffffff84001950 <avail_p_regs>
ffffffff8400004a:	a82d                	j	ffffffff84000084 <merge_regions+0x5e>
ffffffff8400004c:	00471793          	sll	a5,a4,0x4
ffffffff84000050:	97ae                	add	a5,a5,a1
ffffffff84000052:	679c                	ld	a5,8(a5)
ffffffff84000054:	0612                	sll	a2,a2,0x4
ffffffff84000056:	962e                	add	a2,a2,a1
ffffffff84000058:	e61c                	sd	a5,8(a2)
ffffffff8400005a:	00170793          	add	a5,a4,1
ffffffff8400005e:	00a7ff63          	bgeu	a5,a0,ffffffff8400007c <merge_regions+0x56>
ffffffff84000062:	00471793          	sll	a5,a4,0x4
ffffffff84000066:	97ae                	add	a5,a5,a1
ffffffff84000068:	00451613          	sll	a2,a0,0x4
ffffffff8400006c:	961a                	add	a2,a2,t1
ffffffff8400006e:	6b94                	ld	a3,16(a5)
ffffffff84000070:	e394                	sd	a3,0(a5)
ffffffff84000072:	6f94                	ld	a3,24(a5)
ffffffff84000074:	e794                	sd	a3,8(a5)
ffffffff84000076:	07c1                	add	a5,a5,16
ffffffff84000078:	fec79be3          	bne	a5,a2,ffffffff8400006e <merge_regions+0x48>
ffffffff8400007c:	157d                	add	a0,a0,-1
ffffffff8400007e:	8846                	mv	a6,a7
ffffffff84000080:	02a77063          	bgeu	a4,a0,ffffffff840000a0 <merge_regions+0x7a>
ffffffff84000084:	fff70613          	add	a2,a4,-1
ffffffff84000088:	00461693          	sll	a3,a2,0x4
ffffffff8400008c:	96ae                	add	a3,a3,a1
ffffffff8400008e:	00471793          	sll	a5,a4,0x4
ffffffff84000092:	97ae                	add	a5,a5,a1
ffffffff84000094:	6694                	ld	a3,8(a3)
ffffffff84000096:	639c                	ld	a5,0(a5)
ffffffff84000098:	faf68ae3          	beq	a3,a5,ffffffff8400004c <merge_regions+0x26>
ffffffff8400009c:	0705                	add	a4,a4,1
ffffffff8400009e:	b7cd                	j	ffffffff84000080 <merge_regions+0x5a>
ffffffff840000a0:	00080663          	beqz	a6,ffffffff840000ac <merge_regions+0x86>
ffffffff840000a4:	00002797          	auipc	a5,0x2
ffffffff840000a8:	bea7be23          	sd	a0,-1028(a5) # ffffffff84001ca0 <ndks_boot+0x340>
ffffffff840000ac:	8082                	ret

ffffffff840000ae <Arch_configureIdleThread>:
ffffffff840000ae:	00002797          	auipc	a5,0x2
ffffffff840000b2:	73078793          	add	a5,a5,1840 # ffffffff840027de <idle_thread>
ffffffff840000b6:	10f53823          	sd	a5,272(a0)
ffffffff840000ba:	12000793          	li	a5,288
ffffffff840000be:	10f53023          	sd	a5,256(a0)
ffffffff840000c2:	0001b797          	auipc	a5,0x1b
ffffffff840000c6:	73e78793          	add	a5,a5,1854 # ffffffff8401b800 <_breakpoint_stack_bottom>
ffffffff840000ca:	e51c                	sd	a5,8(a0)
ffffffff840000cc:	8082                	ret

ffffffff840000ce <map_kernel_frame>:
ffffffff840000ce:	1141                	add	sp,sp,-16
ffffffff840000d0:	e406                	sd	ra,8(sp)
ffffffff840000d2:	e022                	sd	s0,0(sp)
ffffffff840000d4:	c00007b7          	lui	a5,0xc0000
ffffffff840000d8:	02f5e663          	bltu	a1,a5,ffffffff84000104 <map_kernel_frame+0x36>
ffffffff840000dc:	81d5                	srl	a1,a1,0x15
ffffffff840000de:	1ff5f593          	and	a1,a1,511
ffffffff840000e2:	058e                	sll	a1,a1,0x3
ffffffff840000e4:	0001d417          	auipc	s0,0x1d
ffffffff840000e8:	f1c40413          	add	s0,s0,-228 # ffffffff8401d000 <kernel_image_level2_dev_pt>
ffffffff840000ec:	942e                	add	s0,s0,a1
ffffffff840000ee:	4585                	li	a1,1
ffffffff840000f0:	ffe007b7          	lui	a5,0xffe00
ffffffff840000f4:	8d7d                	and	a0,a0,a5
ffffffff840000f6:	6ee020ef          	jal	ffffffff840027e4 <pte_next>
ffffffff840000fa:	e008                	sd	a0,0(s0)
ffffffff840000fc:	60a2                	ld	ra,8(sp)
ffffffff840000fe:	6402                	ld	s0,0(sp)
ffffffff84000100:	0141                	add	sp,sp,16
ffffffff84000102:	8082                	ret
ffffffff84000104:	81f9                	srl	a1,a1,0x1e
ffffffff84000106:	1ff5f593          	and	a1,a1,511
ffffffff8400010a:	058e                	sll	a1,a1,0x3
ffffffff8400010c:	0001f417          	auipc	s0,0x1f
ffffffff84000110:	ef440413          	add	s0,s0,-268 # ffffffff8401f000 <kernel_root_pageTable>
ffffffff84000114:	942e                	add	s0,s0,a1
ffffffff84000116:	4585                	li	a1,1
ffffffff84000118:	c00007b7          	lui	a5,0xc0000
ffffffff8400011c:	8d7d                	and	a0,a0,a5
ffffffff8400011e:	6c6020ef          	jal	ffffffff840027e4 <pte_next>
ffffffff84000122:	e008                	sd	a0,0(s0)
ffffffff84000124:	bfe1                	j	ffffffff840000fc <map_kernel_frame+0x2e>

ffffffff84000126 <create_unmapped_it_frame_cap>:
ffffffff84000126:	1141                	add	sp,sp,-16
ffffffff84000128:	00951593          	sll	a1,a0,0x9
ffffffff8400012c:	4505                	li	a0,1
ffffffff8400012e:	156e                	sll	a0,a0,0x3b
ffffffff84000130:	fe0007b7          	lui	a5,0xfe000
ffffffff84000134:	83c1                	srl	a5,a5,0x10
ffffffff84000136:	8dfd                	and	a1,a1,a5
ffffffff84000138:	0141                	add	sp,sp,16
ffffffff8400013a:	8082                	ret

ffffffff8400013c <arch_get_n_paging>:
ffffffff8400013c:	1141                	add	sp,sp,-16
ffffffff8400013e:	15fd                	add	a1,a1,-1
ffffffff84000140:	0155d713          	srl	a4,a1,0x15
ffffffff84000144:	0705                	add	a4,a4,1
ffffffff84000146:	0756                	sll	a4,a4,0x15
ffffffff84000148:	ffe007b7          	lui	a5,0xffe00
ffffffff8400014c:	8fe9                	and	a5,a5,a0
ffffffff8400014e:	8f1d                	sub	a4,a4,a5
ffffffff84000150:	8355                	srl	a4,a4,0x15
ffffffff84000152:	01e5d793          	srl	a5,a1,0x1e
ffffffff84000156:	0785                	add	a5,a5,1 # ffffffffffe00001 <ki_end+0x7bde0001>
ffffffff84000158:	07fa                	sll	a5,a5,0x1e
ffffffff8400015a:	c00006b7          	lui	a3,0xc0000
ffffffff8400015e:	8d75                	and	a0,a0,a3
ffffffff84000160:	8f89                	sub	a5,a5,a0
ffffffff84000162:	83f9                	srl	a5,a5,0x1e
ffffffff84000164:	00f70533          	add	a0,a4,a5
ffffffff84000168:	0141                	add	sp,sp,16
ffffffff8400016a:	8082                	ret

ffffffff8400016c <activate_kernel_vspace>:
ffffffff8400016c:	0001f797          	auipc	a5,0x1f
ffffffff84000170:	e9478793          	add	a5,a5,-364 # ffffffff8401f000 <kernel_root_pageTable>
ffffffff84000174:	4705                	li	a4,1
ffffffff84000176:	1702                	sll	a4,a4,0x20
ffffffff84000178:	97ba                	add	a5,a5,a4
ffffffff8400017a:	83b1                	srl	a5,a5,0xc
ffffffff8400017c:	577d                	li	a4,-1
ffffffff8400017e:	01475693          	srl	a3,a4,0x14
ffffffff84000182:	8ff5                	and	a5,a5,a3
ffffffff84000184:	177e                	sll	a4,a4,0x3f
ffffffff84000186:	8fd9                	or	a5,a5,a4
ffffffff84000188:	18079073          	csrw	satp,a5
ffffffff8400018c:	12000073          	sfence.vma
ffffffff84000190:	8082                	ret

ffffffff84000192 <initTimer>:
ffffffff84000192:	c000c7b7          	lui	a5,0xc000c
ffffffff84000196:	ff87b503          	ld	a0,-8(a5) # ffffffffc000bff8 <ki_end+0x3bfebff8>
ffffffff8400019a:	7d050513          	add	a0,a0,2000
ffffffff8400019e:	4581                	li	a1,0
ffffffff840001a0:	4601                	li	a2,0
ffffffff840001a2:	4881                	li	a7,0
ffffffff840001a4:	00000073          	ecall
ffffffff840001a8:	8082                	ret

ffffffff840001aa <initLocalIRQController>:
ffffffff840001aa:	4605                	li	a2,1
ffffffff840001ac:	c02025b7          	lui	a1,0xc0202
ffffffff840001b0:	10058593          	add	a1,a1,256 # ffffffffc0202100 <ki_end+0x3c1e2100>
ffffffff840001b4:	4805                	li	a6,1
ffffffff840001b6:	03600513          	li	a0,54
ffffffff840001ba:	00565793          	srl	a5,a2,0x5
ffffffff840001be:	078a                	sll	a5,a5,0x2
ffffffff840001c0:	97ae                	add	a5,a5,a1
ffffffff840001c2:	4398                	lw	a4,0(a5)
ffffffff840001c4:	01f67693          	and	a3,a2,31
ffffffff840001c8:	00d816b3          	sll	a3,a6,a3
ffffffff840001cc:	fff6c693          	not	a3,a3
ffffffff840001d0:	8f75                	and	a4,a4,a3
ffffffff840001d2:	2701                	sext.w	a4,a4
ffffffff840001d4:	c398                	sw	a4,0(a5)
ffffffff840001d6:	0605                	add	a2,a2,1
ffffffff840001d8:	fea611e3          	bne	a2,a0,ffffffff840001ba <initLocalIRQController+0x10>
ffffffff840001dc:	c04027b7          	lui	a5,0xc0402
ffffffff840001e0:	0007a023          	sw	zero,0(a5) # ffffffffc0402000 <ki_end+0x3c3e2000>
ffffffff840001e4:	22000793          	li	a5,544
ffffffff840001e8:	1047a7f3          	csrrs	a5,sie,a5
ffffffff840001ec:	8082                	ret

ffffffff840001ee <initIRQController>:
ffffffff840001ee:	1601b423          	sd	zero,360(gp) # ffffffff84009580 <active_irq>
ffffffff840001f2:	4705                	li	a4,1
ffffffff840001f4:	c02015b7          	lui	a1,0xc0201
ffffffff840001f8:	c0402537          	lui	a0,0xc0402
ffffffff840001fc:	03600613          	li	a2,54
ffffffff84000200:	a021                	j	ffffffff84000208 <initIRQController+0x1a>
ffffffff84000202:	0705                	add	a4,a4,1
ffffffff84000204:	02c70463          	beq	a4,a2,ffffffff8400022c <initIRQController+0x3e>
ffffffff84000208:	00575793          	srl	a5,a4,0x5
ffffffff8400020c:	078a                	sll	a5,a5,0x2
ffffffff8400020e:	97ae                	add	a5,a5,a1
ffffffff84000210:	439c                	lw	a5,0(a5)
ffffffff84000212:	1782                	sll	a5,a5,0x20
ffffffff84000214:	9381                	srl	a5,a5,0x20
ffffffff84000216:	01f77693          	and	a3,a4,31
ffffffff8400021a:	00d7d7b3          	srl	a5,a5,a3
ffffffff8400021e:	8b85                	and	a5,a5,1
ffffffff84000220:	d3ed                	beqz	a5,ffffffff84000202 <initIRQController+0x14>
ffffffff84000222:	415c                	lw	a5,4(a0)
ffffffff84000224:	0007079b          	sext.w	a5,a4
ffffffff84000228:	c15c                	sw	a5,4(a0)
ffffffff8400022a:	bfe1                	j	ffffffff84000202 <initIRQController+0x14>
ffffffff8400022c:	c02007b7          	lui	a5,0xc0200
ffffffff84000230:	0791                	add	a5,a5,4 # ffffffffc0200004 <ki_end+0x3c1e0004>
ffffffff84000232:	4689                	li	a3,2
ffffffff84000234:	c0200737          	lui	a4,0xc0200
ffffffff84000238:	0dc70713          	add	a4,a4,220 # ffffffffc02000dc <ki_end+0x3c1e00dc>
ffffffff8400023c:	c394                	sw	a3,0(a5)
ffffffff8400023e:	0791                	add	a5,a5,4
ffffffff84000240:	fee79ee3          	bne	a5,a4,ffffffff8400023c <initIRQController+0x4e>
ffffffff84000244:	8082                	ret

ffffffff84000246 <get_p_reg_kernel_img_boot>:
ffffffff84000246:	1141                	add	sp,sp,-16
ffffffff84000248:	02100513          	li	a0,33
ffffffff8400024c:	056a                	sll	a0,a0,0x1a
ffffffff8400024e:	00002597          	auipc	a1,0x2
ffffffff84000252:	db258593          	add	a1,a1,-590 # ffffffff84002000 <ki_boot_end>
ffffffff84000256:	4785                	li	a5,1
ffffffff84000258:	1782                	sll	a5,a5,0x20
ffffffff8400025a:	95be                	add	a1,a1,a5
ffffffff8400025c:	0141                	add	sp,sp,16
ffffffff8400025e:	8082                	ret

ffffffff84000260 <get_p_reg_kernel_img>:
ffffffff84000260:	1141                	add	sp,sp,-16
ffffffff84000262:	02100513          	li	a0,33
ffffffff84000266:	056a                	sll	a0,a0,0x1a
ffffffff84000268:	00020597          	auipc	a1,0x20
ffffffff8400026c:	d9858593          	add	a1,a1,-616 # ffffffff84020000 <ki_end>
ffffffff84000270:	4785                	li	a5,1
ffffffff84000272:	1782                	sll	a5,a5,0x20
ffffffff84000274:	95be                	add	a1,a1,a5
ffffffff84000276:	0141                	add	sp,sp,16
ffffffff84000278:	8082                	ret

ffffffff8400027a <reserve_region>:
ffffffff8400027a:	0eb50463          	beq	a0,a1,ffffffff84000362 <reserve_region+0xe8>
ffffffff8400027e:	1101                	add	sp,sp,-32
ffffffff84000280:	ec06                	sd	ra,24(sp)
ffffffff84000282:	88aa                	mv	a7,a0
ffffffff84000284:	00002817          	auipc	a6,0x2
ffffffff84000288:	a1c83803          	ld	a6,-1508(a6) # ffffffff84001ca0 <ndks_boot+0x340>
ffffffff8400028c:	0c080963          	beqz	a6,ffffffff8400035e <reserve_region+0xe4>
ffffffff84000290:	00001317          	auipc	t1,0x1
ffffffff84000294:	6d030313          	add	t1,t1,1744 # ffffffff84001960 <ndks_boot>
ffffffff84000298:	879a                	mv	a5,t1
ffffffff8400029a:	4701                	li	a4,0
ffffffff8400029c:	6394                	ld	a3,0(a5)
ffffffff8400029e:	02b68e63          	beq	a3,a1,ffffffff840002da <reserve_region+0x60>
ffffffff840002a2:	6790                	ld	a2,8(a5)
ffffffff840002a4:	05160963          	beq	a2,a7,ffffffff840002f6 <reserve_region+0x7c>
ffffffff840002a8:	06d5e263          	bltu	a1,a3,ffffffff8400030c <reserve_region+0x92>
ffffffff840002ac:	0705                	add	a4,a4,1
ffffffff840002ae:	07c1                	add	a5,a5,16
ffffffff840002b0:	ff0716e3          	bne	a4,a6,ffffffff8400029c <reserve_region+0x22>
ffffffff840002b4:	03300793          	li	a5,51
ffffffff840002b8:	4501                	li	a0,0
ffffffff840002ba:	02f70b63          	beq	a4,a5,ffffffff840002f0 <reserve_region+0x76>
ffffffff840002be:	00001797          	auipc	a5,0x1
ffffffff840002c2:	6a278793          	add	a5,a5,1698 # ffffffff84001960 <ndks_boot>
ffffffff840002c6:	0712                	sll	a4,a4,0x4
ffffffff840002c8:	973e                	add	a4,a4,a5
ffffffff840002ca:	01173023          	sd	a7,0(a4)
ffffffff840002ce:	e70c                	sd	a1,8(a4)
ffffffff840002d0:	0805                	add	a6,a6,1
ffffffff840002d2:	3507b023          	sd	a6,832(a5)
ffffffff840002d6:	4505                	li	a0,1
ffffffff840002d8:	a821                	j	ffffffff840002f0 <reserve_region+0x76>
ffffffff840002da:	0712                	sll	a4,a4,0x4
ffffffff840002dc:	00001797          	auipc	a5,0x1
ffffffff840002e0:	68478793          	add	a5,a5,1668 # ffffffff84001960 <ndks_boot>
ffffffff840002e4:	97ba                	add	a5,a5,a4
ffffffff840002e6:	0117b023          	sd	a7,0(a5)
ffffffff840002ea:	d3dff0ef          	jal	ffffffff84000026 <merge_regions>
ffffffff840002ee:	4505                	li	a0,1
ffffffff840002f0:	60e2                	ld	ra,24(sp)
ffffffff840002f2:	6105                	add	sp,sp,32
ffffffff840002f4:	8082                	ret
ffffffff840002f6:	0712                	sll	a4,a4,0x4
ffffffff840002f8:	00001797          	auipc	a5,0x1
ffffffff840002fc:	66878793          	add	a5,a5,1640 # ffffffff84001960 <ndks_boot>
ffffffff84000300:	97ba                	add	a5,a5,a4
ffffffff84000302:	e78c                	sd	a1,8(a5)
ffffffff84000304:	d23ff0ef          	jal	ffffffff84000026 <merge_regions>
ffffffff84000308:	4505                	li	a0,1
ffffffff8400030a:	b7dd                	j	ffffffff840002f0 <reserve_region+0x76>
ffffffff8400030c:	00180e13          	add	t3,a6,1
ffffffff84000310:	03300793          	li	a5,51
ffffffff84000314:	4501                	li	a0,0
ffffffff84000316:	fdc7ede3          	bltu	a5,t3,ffffffff840002f0 <reserve_region+0x76>
ffffffff8400031a:	03077463          	bgeu	a4,a6,ffffffff84000342 <reserve_region+0xc8>
ffffffff8400031e:	0812                	sll	a6,a6,0x4
ffffffff84000320:	00001797          	auipc	a5,0x1
ffffffff84000324:	64078793          	add	a5,a5,1600 # ffffffff84001960 <ndks_boot>
ffffffff84000328:	97c2                	add	a5,a5,a6
ffffffff8400032a:	00471613          	sll	a2,a4,0x4
ffffffff8400032e:	961a                	add	a2,a2,t1
ffffffff84000330:	ff07b683          	ld	a3,-16(a5)
ffffffff84000334:	e394                	sd	a3,0(a5)
ffffffff84000336:	ff87b683          	ld	a3,-8(a5)
ffffffff8400033a:	e794                	sd	a3,8(a5)
ffffffff8400033c:	17c1                	add	a5,a5,-16
ffffffff8400033e:	fec799e3          	bne	a5,a2,ffffffff84000330 <reserve_region+0xb6>
ffffffff84000342:	00001697          	auipc	a3,0x1
ffffffff84000346:	61e68693          	add	a3,a3,1566 # ffffffff84001960 <ndks_boot>
ffffffff8400034a:	00471793          	sll	a5,a4,0x4
ffffffff8400034e:	97b6                	add	a5,a5,a3
ffffffff84000350:	0117b023          	sd	a7,0(a5)
ffffffff84000354:	e78c                	sd	a1,8(a5)
ffffffff84000356:	35c6b023          	sd	t3,832(a3)
ffffffff8400035a:	4505                	li	a0,1
ffffffff8400035c:	bf51                	j	ffffffff840002f0 <reserve_region+0x76>
ffffffff8400035e:	8742                	mv	a4,a6
ffffffff84000360:	bfb9                	j	ffffffff840002be <reserve_region+0x44>
ffffffff84000362:	4505                	li	a0,1
ffffffff84000364:	8082                	ret

ffffffff84000366 <map_kernel_devices>:
ffffffff84000366:	7139                	add	sp,sp,-64
ffffffff84000368:	fc06                	sd	ra,56(sp)
ffffffff8400036a:	f822                	sd	s0,48(sp)
ffffffff8400036c:	f426                	sd	s1,40(sp)
ffffffff8400036e:	f04a                	sd	s2,32(sp)
ffffffff84000370:	ec4e                	sd	s3,24(sp)
ffffffff84000372:	00001417          	auipc	s0,0x1
ffffffff84000376:	2c640413          	add	s0,s0,710 # ffffffff84001638 <kernel_device_frames>
ffffffff8400037a:	00001917          	auipc	s2,0x1
ffffffff8400037e:	5d690913          	add	s2,s2,1494 # ffffffff84001950 <avail_p_regs>
ffffffff84000382:	002009b7          	lui	s3,0x200
ffffffff84000386:	a021                	j	ffffffff8400038e <map_kernel_devices+0x28>
ffffffff84000388:	0461                	add	s0,s0,24
ffffffff8400038a:	03240063          	beq	s0,s2,ffffffff840003aa <map_kernel_devices+0x44>
ffffffff8400038e:	6004                	ld	s1,0(s0)
ffffffff84000390:	4605                	li	a2,1
ffffffff84000392:	640c                	ld	a1,8(s0)
ffffffff84000394:	8526                	mv	a0,s1
ffffffff84000396:	d39ff0ef          	jal	ffffffff840000ce <map_kernel_frame>
ffffffff8400039a:	481c                	lw	a5,16(s0)
ffffffff8400039c:	f7f5                	bnez	a5,ffffffff84000388 <map_kernel_devices+0x22>
ffffffff8400039e:	8526                	mv	a0,s1
ffffffff840003a0:	013485b3          	add	a1,s1,s3
ffffffff840003a4:	ed7ff0ef          	jal	ffffffff8400027a <reserve_region>
ffffffff840003a8:	b7c5                	j	ffffffff84000388 <map_kernel_devices+0x22>
ffffffff840003aa:	70e2                	ld	ra,56(sp)
ffffffff840003ac:	7442                	ld	s0,48(sp)
ffffffff840003ae:	74a2                	ld	s1,40(sp)
ffffffff840003b0:	7902                	ld	s2,32(sp)
ffffffff840003b2:	69e2                	ld	s3,24(sp)
ffffffff840003b4:	6121                	add	sp,sp,64
ffffffff840003b6:	8082                	ret

ffffffff840003b8 <map_kernel_window>:
ffffffff840003b8:	7139                	add	sp,sp,-64
ffffffff840003ba:	fc06                	sd	ra,56(sp)
ffffffff840003bc:	f822                	sd	s0,48(sp)
ffffffff840003be:	f426                	sd	s1,40(sp)
ffffffff840003c0:	f04a                	sd	s2,32(sp)
ffffffff840003c2:	ec4e                	sd	s3,24(sp)
ffffffff840003c4:	e852                	sd	s4,16(sp)
ffffffff840003c6:	e456                	sd	s5,8(sp)
ffffffff840003c8:	e05a                	sd	s6,0(sp)
ffffffff840003ca:	54fd                	li	s1,-1
ffffffff840003cc:	149a                	sll	s1,s1,0x26
ffffffff840003ce:	0001fb17          	auipc	s6,0x1f
ffffffff840003d2:	c32b0b13          	add	s6,s6,-974 # ffffffff8401f000 <kernel_root_pageTable>
ffffffff840003d6:	4905                	li	s2,1
ffffffff840003d8:	02691a93          	sll	s5,s2,0x26
ffffffff840003dc:	40000a37          	lui	s4,0x40000
ffffffff840003e0:	800009b7          	lui	s3,0x80000
ffffffff840003e4:	01e4d413          	srl	s0,s1,0x1e
ffffffff840003e8:	1ff47413          	and	s0,s0,511
ffffffff840003ec:	040e                	sll	s0,s0,0x3
ffffffff840003ee:	945a                	add	s0,s0,s6
ffffffff840003f0:	85ca                	mv	a1,s2
ffffffff840003f2:	01548533          	add	a0,s1,s5
ffffffff840003f6:	3ee020ef          	jal	ffffffff840027e4 <pte_next>
ffffffff840003fa:	e008                	sd	a0,0(s0)
ffffffff840003fc:	94d2                	add	s1,s1,s4
ffffffff840003fe:	ff3493e3          	bne	s1,s3,ffffffff840003e4 <map_kernel_window+0x2c>
ffffffff84000402:	4405                	li	s0,1
ffffffff84000404:	02041793          	sll	a5,s0,0x20
ffffffff84000408:	0001e497          	auipc	s1,0x1e
ffffffff8400040c:	bf848493          	add	s1,s1,-1032 # ffffffff8401e000 <kernel_image_level2_pt>
ffffffff84000410:	94be                	add	s1,s1,a5
ffffffff84000412:	00020917          	auipc	s2,0x20
ffffffff84000416:	bee90913          	add	s2,s2,-1042 # ffffffff84020000 <ki_end>
ffffffff8400041a:	4581                	li	a1,0
ffffffff8400041c:	8526                	mv	a0,s1
ffffffff8400041e:	3c6020ef          	jal	ffffffff840027e4 <pte_next>
ffffffff84000422:	80a93823          	sd	a0,-2032(s2)
ffffffff84000426:	4581                	li	a1,0
ffffffff84000428:	8526                	mv	a0,s1
ffffffff8400042a:	3ba020ef          	jal	ffffffff840027e4 <pte_next>
ffffffff8400042e:	fea93823          	sd	a0,-16(s2)
ffffffff84000432:	4901                	li	s2,0
ffffffff84000434:	047e                	sll	s0,s0,0x1f
ffffffff84000436:	0001ea97          	auipc	s5,0x1e
ffffffff8400043a:	bcaa8a93          	add	s5,s5,-1078 # ffffffff8401e000 <kernel_image_level2_pt>
ffffffff8400043e:	00200a37          	lui	s4,0x200
ffffffff84000442:	498d                	li	s3,3
ffffffff84000444:	09fa                	sll	s3,s3,0x1e
ffffffff84000446:	00391493          	sll	s1,s2,0x3
ffffffff8400044a:	94d6                	add	s1,s1,s5
ffffffff8400044c:	4585                	li	a1,1
ffffffff8400044e:	8522                	mv	a0,s0
ffffffff84000450:	394020ef          	jal	ffffffff840027e4 <pte_next>
ffffffff84000454:	e088                	sd	a0,0(s1)
ffffffff84000456:	0905                	add	s2,s2,1
ffffffff84000458:	9452                	add	s0,s0,s4
ffffffff8400045a:	ff3416e3          	bne	s0,s3,ffffffff84000446 <map_kernel_window+0x8e>
ffffffff8400045e:	4581                	li	a1,0
ffffffff84000460:	0001d517          	auipc	a0,0x1d
ffffffff84000464:	ba050513          	add	a0,a0,-1120 # ffffffff8401d000 <kernel_image_level2_dev_pt>
ffffffff84000468:	4785                	li	a5,1
ffffffff8400046a:	1782                	sll	a5,a5,0x20
ffffffff8400046c:	953e                	add	a0,a0,a5
ffffffff8400046e:	376020ef          	jal	ffffffff840027e4 <pte_next>
ffffffff84000472:	00020797          	auipc	a5,0x20
ffffffff84000476:	b8a7b323          	sd	a0,-1146(a5) # ffffffff8401fff8 <kernel_root_pageTable+0xff8>
ffffffff8400047a:	eedff0ef          	jal	ffffffff84000366 <map_kernel_devices>
ffffffff8400047e:	70e2                	ld	ra,56(sp)
ffffffff84000480:	7442                	ld	s0,48(sp)
ffffffff84000482:	74a2                	ld	s1,40(sp)
ffffffff84000484:	7902                	ld	s2,32(sp)
ffffffff84000486:	69e2                	ld	s3,24(sp)
ffffffff84000488:	6a42                	ld	s4,16(sp)
ffffffff8400048a:	6aa2                	ld	s5,8(sp)
ffffffff8400048c:	6b02                	ld	s6,0(sp)
ffffffff8400048e:	6121                	add	sp,sp,64
ffffffff84000490:	8082                	ret

ffffffff84000492 <insert_region>:
ffffffff84000492:	06a58263          	beq	a1,a0,ffffffff840004f6 <insert_region+0x64>
ffffffff84000496:	7139                	add	sp,sp,-64
ffffffff84000498:	fc06                	sd	ra,56(sp)
ffffffff8400049a:	f822                	sd	s0,48(sp)
ffffffff8400049c:	f426                	sd	s1,40(sp)
ffffffff8400049e:	f04a                	sd	s2,32(sp)
ffffffff840004a0:	892a                	mv	s2,a0
ffffffff840004a2:	84ae                	mv	s1,a1
ffffffff840004a4:	00002797          	auipc	a5,0x2
ffffffff840004a8:	80478793          	add	a5,a5,-2044 # ffffffff84001ca8 <ndks_boot+0x348>
ffffffff840004ac:	4401                	li	s0,0
ffffffff840004ae:	4641                	li	a2,16
ffffffff840004b0:	6394                	ld	a3,0(a5)
ffffffff840004b2:	6798                	ld	a4,8(a5)
ffffffff840004b4:	00e68d63          	beq	a3,a4,ffffffff840004ce <insert_region+0x3c>
ffffffff840004b8:	0405                	add	s0,s0,1
ffffffff840004ba:	07c1                	add	a5,a5,16
ffffffff840004bc:	fec41ae3          	bne	s0,a2,ffffffff840004b0 <insert_region+0x1e>
ffffffff840004c0:	4501                	li	a0,0
ffffffff840004c2:	70e2                	ld	ra,56(sp)
ffffffff840004c4:	7442                	ld	s0,48(sp)
ffffffff840004c6:	74a2                	ld	s1,40(sp)
ffffffff840004c8:	7902                	ld	s2,32(sp)
ffffffff840004ca:	6121                	add	sp,sp,64
ffffffff840004cc:	8082                	ret
ffffffff840004ce:	4585                	li	a1,1
ffffffff840004d0:	159a                	sll	a1,a1,0x26
ffffffff840004d2:	00b90533          	add	a0,s2,a1
ffffffff840004d6:	95a6                	add	a1,a1,s1
ffffffff840004d8:	da3ff0ef          	jal	ffffffff8400027a <reserve_region>
ffffffff840004dc:	03440413          	add	s0,s0,52
ffffffff840004e0:	0412                	sll	s0,s0,0x4
ffffffff840004e2:	00001797          	auipc	a5,0x1
ffffffff840004e6:	47e78793          	add	a5,a5,1150 # ffffffff84001960 <ndks_boot>
ffffffff840004ea:	97a2                	add	a5,a5,s0
ffffffff840004ec:	0127b423          	sd	s2,8(a5)
ffffffff840004f0:	eb84                	sd	s1,16(a5)
ffffffff840004f2:	4505                	li	a0,1
ffffffff840004f4:	b7f9                	j	ffffffff840004c2 <insert_region+0x30>
ffffffff840004f6:	4505                	li	a0,1
ffffffff840004f8:	8082                	ret

ffffffff840004fa <write_slot>:
ffffffff840004fa:	1141                	add	sp,sp,-16
ffffffff840004fc:	e10c                	sd	a1,0(a0)
ffffffff840004fe:	e510                	sd	a2,8(a0)
ffffffff84000500:	00053823          	sd	zero,16(a0)
ffffffff84000504:	478d                	li	a5,3
ffffffff84000506:	ed1c                	sd	a5,24(a0)
ffffffff84000508:	0141                	add	sp,sp,16
ffffffff8400050a:	8082                	ret

ffffffff8400050c <create_root_cnode>:
ffffffff8400050c:	1141                	add	sp,sp,-16
ffffffff8400050e:	00002717          	auipc	a4,0x2
ffffffff84000512:	8aa73703          	ld	a4,-1878(a4) # ffffffff84001db8 <rootserver>
ffffffff84000516:	01971513          	sll	a0,a4,0x19
ffffffff8400051a:	8169                	srl	a0,a0,0x1a
ffffffff8400051c:	0ab537b7          	lui	a5,0xab53
ffffffff84000520:	178e                	sll	a5,a5,0x23
ffffffff84000522:	8d5d                	or	a0,a0,a5
ffffffff84000524:	04070793          	add	a5,a4,64
ffffffff84000528:	e328                	sd	a0,64(a4)
ffffffff8400052a:	04073423          	sd	zero,72(a4)
ffffffff8400052e:	04073823          	sd	zero,80(a4)
ffffffff84000532:	470d                	li	a4,3
ffffffff84000534:	ef98                	sd	a4,24(a5)
ffffffff84000536:	4581                	li	a1,0
ffffffff84000538:	0141                	add	sp,sp,16
ffffffff8400053a:	8082                	ret

ffffffff8400053c <init_core_state>:
ffffffff8400053c:	a6a1b823          	sd	a0,-1424(gp) # ffffffff84008e88 <ksSchedulerAction>
ffffffff84000540:	a781b783          	ld	a5,-1416(gp) # ffffffff84008e90 <ksIdleThread>
ffffffff84000544:	a8f1b023          	sd	a5,-1408(gp) # ffffffff84008e98 <ksCurThread>
ffffffff84000548:	8082                	ret

ffffffff8400054a <bi_finalise>:
ffffffff8400054a:	00001717          	auipc	a4,0x1
ffffffff8400054e:	41670713          	add	a4,a4,1046 # ffffffff84001960 <ndks_boot>
ffffffff84000552:	44873783          	ld	a5,1096(a4)
ffffffff84000556:	45073703          	ld	a4,1104(a4)
ffffffff8400055a:	f798                	sd	a4,40(a5)
ffffffff8400055c:	00080737          	lui	a4,0x80
ffffffff84000560:	fb98                	sd	a4,48(a5)
ffffffff84000562:	8082                	ret

ffffffff84000564 <map_it_pt_cap>:
ffffffff84000564:	715d                	add	sp,sp,-80
ffffffff84000566:	e486                	sd	ra,72(sp)
ffffffff84000568:	e0a2                	sd	s0,64(sp)
ffffffff8400056a:	fc26                	sd	s1,56(sp)
ffffffff8400056c:	f84a                	sd	s2,48(sp)
ffffffff8400056e:	e82a                	sd	a0,16(sp)
ffffffff84000570:	ec2e                	sd	a1,24(sp)
ffffffff84000572:	e032                	sd	a2,0(sp)
ffffffff84000574:	e436                	sd	a3,8(sp)
ffffffff84000576:	01961493          	sll	s1,a2,0x19
ffffffff8400057a:	80e5                	srl	s1,s1,0x19
ffffffff8400057c:	9219                	srl	a2,a2,0x26
ffffffff8400057e:	8a05                	and	a2,a2,1
ffffffff84000580:	c601                	beqz	a2,ffffffff84000588 <map_it_pt_cap+0x24>
ffffffff84000582:	57fd                	li	a5,-1
ffffffff84000584:	179e                	sll	a5,a5,0x27
ffffffff84000586:	8cdd                	or	s1,s1,a5
ffffffff84000588:	6542                	ld	a0,16(sp)
ffffffff8400058a:	65e2                	ld	a1,24(sp)
ffffffff8400058c:	481030ef          	jal	ffffffff8400420c <cap_get_capPtr>
ffffffff84000590:	892a                	mv	s2,a0
ffffffff84000592:	6502                	ld	a0,0(sp)
ffffffff84000594:	65a2                	ld	a1,8(sp)
ffffffff84000596:	477030ef          	jal	ffffffff8400420c <cap_get_capPtr>
ffffffff8400059a:	842a                	mv	s0,a0
ffffffff8400059c:	85a6                	mv	a1,s1
ffffffff8400059e:	854a                	mv	a0,s2
ffffffff840005a0:	023020ef          	jal	ffffffff84002dc2 <lookupPTSlot>
ffffffff840005a4:	f02a                	sd	a0,32(sp)
ffffffff840005a6:	f42e                	sd	a1,40(sp)
ffffffff840005a8:	4785                	li	a5,1
ffffffff840005aa:	179a                	sll	a5,a5,0x26
ffffffff840005ac:	943e                	add	s0,s0,a5
ffffffff840005ae:	8009                	srl	s0,s0,0x2
ffffffff840005b0:	fff007b7          	lui	a5,0xfff00
ffffffff840005b4:	83a9                	srl	a5,a5,0xa
ffffffff840005b6:	8c7d                	and	s0,s0,a5
ffffffff840005b8:	00146413          	or	s0,s0,1
ffffffff840005bc:	e100                	sd	s0,0(a0)
ffffffff840005be:	12000073          	sfence.vma
ffffffff840005c2:	60a6                	ld	ra,72(sp)
ffffffff840005c4:	6406                	ld	s0,64(sp)
ffffffff840005c6:	74e2                	ld	s1,56(sp)
ffffffff840005c8:	7942                	ld	s2,48(sp)
ffffffff840005ca:	6161                	add	sp,sp,80
ffffffff840005cc:	8082                	ret

ffffffff840005ce <map_it_frame_cap>:
ffffffff840005ce:	711d                	add	sp,sp,-96
ffffffff840005d0:	ec86                	sd	ra,88(sp)
ffffffff840005d2:	e8a2                	sd	s0,80(sp)
ffffffff840005d4:	e4a6                	sd	s1,72(sp)
ffffffff840005d6:	e0ca                	sd	s2,64(sp)
ffffffff840005d8:	fc4e                	sd	s3,56(sp)
ffffffff840005da:	e82a                	sd	a0,16(sp)
ffffffff840005dc:	ec2e                	sd	a1,24(sp)
ffffffff840005de:	89b2                	mv	s3,a2
ffffffff840005e0:	e032                	sd	a2,0(sp)
ffffffff840005e2:	8436                	mv	s0,a3
ffffffff840005e4:	e436                	sd	a3,8(sp)
ffffffff840005e6:	427030ef          	jal	ffffffff8400420c <cap_get_capPtr>
ffffffff840005ea:	892a                	mv	s2,a0
ffffffff840005ec:	854e                	mv	a0,s3
ffffffff840005ee:	85a2                	mv	a1,s0
ffffffff840005f0:	41d030ef          	jal	ffffffff8400420c <cap_get_capPtr>
ffffffff840005f4:	842a                	mv	s0,a0
ffffffff840005f6:	01999593          	sll	a1,s3,0x19
ffffffff840005fa:	81e5                	srl	a1,a1,0x19
ffffffff840005fc:	0269d493          	srl	s1,s3,0x26
ffffffff84000600:	8885                	and	s1,s1,1
ffffffff84000602:	c481                	beqz	s1,ffffffff8400060a <map_it_frame_cap+0x3c>
ffffffff84000604:	57fd                	li	a5,-1
ffffffff84000606:	179e                	sll	a5,a5,0x27
ffffffff84000608:	8ddd                	or	a1,a1,a5
ffffffff8400060a:	854a                	mv	a0,s2
ffffffff8400060c:	7b6020ef          	jal	ffffffff84002dc2 <lookupPTSlot>
ffffffff84000610:	f02a                	sd	a0,32(sp)
ffffffff84000612:	f42e                	sd	a1,40(sp)
ffffffff84000614:	4785                	li	a5,1
ffffffff84000616:	179a                	sll	a5,a5,0x26
ffffffff84000618:	943e                	add	s0,s0,a5
ffffffff8400061a:	8009                	srl	s0,s0,0x2
ffffffff8400061c:	fff007b7          	lui	a5,0xfff00
ffffffff84000620:	83a9                	srl	a5,a5,0xa
ffffffff84000622:	8c7d                	and	s0,s0,a5
ffffffff84000624:	0df46413          	or	s0,s0,223
ffffffff84000628:	e100                	sd	s0,0(a0)
ffffffff8400062a:	12000073          	sfence.vma
ffffffff8400062e:	60e6                	ld	ra,88(sp)
ffffffff84000630:	6446                	ld	s0,80(sp)
ffffffff84000632:	64a6                	ld	s1,72(sp)
ffffffff84000634:	6906                	ld	s2,64(sp)
ffffffff84000636:	79e2                	ld	s3,56(sp)
ffffffff84000638:	6125                	add	sp,sp,96
ffffffff8400063a:	8082                	ret

ffffffff8400063c <create_mapped_it_frame_cap>:
ffffffff8400063c:	715d                	add	sp,sp,-80
ffffffff8400063e:	e486                	sd	ra,72(sp)
ffffffff84000640:	e0a2                	sd	s0,64(sp)
ffffffff84000642:	fc26                	sd	s1,56(sp)
ffffffff84000644:	00f03433          	snez	s0,a5
ffffffff84000648:	1466                	sll	s0,s0,0x39
ffffffff8400064a:	06e6                	sll	a3,a3,0x19
ffffffff8400064c:	82e5                	srl	a3,a3,0x19
ffffffff8400064e:	8c55                	or	s0,s0,a3
ffffffff84000650:	47cd                	li	a5,19
ffffffff84000652:	17de                	sll	a5,a5,0x37
ffffffff84000654:	8c5d                	or	s0,s0,a5
ffffffff84000656:	00961493          	sll	s1,a2,0x9
ffffffff8400065a:	fe0007b7          	lui	a5,0xfe000
ffffffff8400065e:	83c1                	srl	a5,a5,0x10
ffffffff84000660:	8cfd                	and	s1,s1,a5
ffffffff84000662:	1742                	sll	a4,a4,0x30
ffffffff84000664:	8cd9                	or	s1,s1,a4
ffffffff84000666:	8622                	mv	a2,s0
ffffffff84000668:	86a6                	mv	a3,s1
ffffffff8400066a:	f65ff0ef          	jal	ffffffff840005ce <map_it_frame_cap>
ffffffff8400066e:	8522                	mv	a0,s0
ffffffff84000670:	85a6                	mv	a1,s1
ffffffff84000672:	60a6                	ld	ra,72(sp)
ffffffff84000674:	6406                	ld	s0,64(sp)
ffffffff84000676:	74e2                	ld	s1,56(sp)
ffffffff84000678:	6161                	add	sp,sp,80
ffffffff8400067a:	8082                	ret

ffffffff8400067c <write_it_asid_pool>:
ffffffff8400067c:	7139                	add	sp,sp,-64
ffffffff8400067e:	fc06                	sd	ra,56(sp)
ffffffff84000680:	f822                	sd	s0,48(sp)
ffffffff84000682:	f426                	sd	s1,40(sp)
ffffffff84000684:	f04a                	sd	s2,32(sp)
ffffffff84000686:	8932                	mv	s2,a2
ffffffff84000688:	84b6                	mv	s1,a3
ffffffff8400068a:	383030ef          	jal	ffffffff8400420c <cap_get_capPtr>
ffffffff8400068e:	842a                	mv	s0,a0
ffffffff84000690:	854a                	mv	a0,s2
ffffffff84000692:	85a6                	mv	a1,s1
ffffffff84000694:	379030ef          	jal	ffffffff8400420c <cap_get_capPtr>
ffffffff84000698:	e408                	sd	a0,8(s0)
ffffffff8400069a:	d681b423          	sd	s0,-664(gp) # ffffffff84009180 <riscvKSASIDTable>
ffffffff8400069e:	70e2                	ld	ra,56(sp)
ffffffff840006a0:	7442                	ld	s0,48(sp)
ffffffff840006a2:	74a2                	ld	s1,40(sp)
ffffffff840006a4:	7902                	ld	s2,32(sp)
ffffffff840006a6:	6121                	add	sp,sp,64
ffffffff840006a8:	8082                	ret

ffffffff840006aa <create_domain_cap>:
ffffffff840006aa:	1101                	add	sp,sp,-32
ffffffff840006ac:	ec06                	sd	ra,24(sp)
ffffffff840006ae:	35f030ef          	jal	ffffffff8400420c <cap_get_capPtr>
ffffffff840006b2:	57f5                	li	a5,-3
ffffffff840006b4:	17f6                	sll	a5,a5,0x3d
ffffffff840006b6:	16f53023          	sd	a5,352(a0)
ffffffff840006ba:	16053423          	sd	zero,360(a0)
ffffffff840006be:	16053823          	sd	zero,368(a0)
ffffffff840006c2:	478d                	li	a5,3
ffffffff840006c4:	16f53c23          	sd	a5,376(a0)
ffffffff840006c8:	60e2                	ld	ra,24(sp)
ffffffff840006ca:	6105                	add	sp,sp,32
ffffffff840006cc:	8082                	ret

ffffffff840006ce <create_bi_frame_cap>:
ffffffff840006ce:	715d                	add	sp,sp,-80
ffffffff840006d0:	e486                	sd	ra,72(sp)
ffffffff840006d2:	e0a2                	sd	s0,64(sp)
ffffffff840006d4:	fc26                	sd	s1,56(sp)
ffffffff840006d6:	e82a                	sd	a0,16(sp)
ffffffff840006d8:	ec2e                	sd	a1,24(sp)
ffffffff840006da:	8532                	mv	a0,a2
ffffffff840006dc:	85b6                	mv	a1,a3
ffffffff840006de:	86ba                	mv	a3,a4
ffffffff840006e0:	4801                	li	a6,0
ffffffff840006e2:	4781                	li	a5,0
ffffffff840006e4:	4705                	li	a4,1
ffffffff840006e6:	00001617          	auipc	a2,0x1
ffffffff840006ea:	6f263603          	ld	a2,1778(a2) # ffffffff84001dd8 <rootserver+0x20>
ffffffff840006ee:	f4fff0ef          	jal	ffffffff8400063c <create_mapped_it_frame_cap>
ffffffff840006f2:	84aa                	mv	s1,a0
ffffffff840006f4:	842e                	mv	s0,a1
ffffffff840006f6:	6542                	ld	a0,16(sp)
ffffffff840006f8:	65e2                	ld	a1,24(sp)
ffffffff840006fa:	313030ef          	jal	ffffffff8400420c <cap_get_capPtr>
ffffffff840006fe:	12953023          	sd	s1,288(a0)
ffffffff84000702:	12853423          	sd	s0,296(a0)
ffffffff84000706:	12053823          	sd	zero,304(a0)
ffffffff8400070a:	478d                	li	a5,3
ffffffff8400070c:	12f53c23          	sd	a5,312(a0)
ffffffff84000710:	60a6                	ld	ra,72(sp)
ffffffff84000712:	6406                	ld	s0,64(sp)
ffffffff84000714:	74e2                	ld	s1,56(sp)
ffffffff84000716:	6161                	add	sp,sp,80
ffffffff84000718:	8082                	ret

ffffffff8400071a <provide_cap>:
ffffffff8400071a:	7179                	add	sp,sp,-48
ffffffff8400071c:	f406                	sd	ra,40(sp)
ffffffff8400071e:	f022                	sd	s0,32(sp)
ffffffff84000720:	e82a                	sd	a0,16(sp)
ffffffff84000722:	ec2e                	sd	a1,24(sp)
ffffffff84000724:	e032                	sd	a2,0(sp)
ffffffff84000726:	e436                	sd	a3,8(sp)
ffffffff84000728:	00001417          	auipc	s0,0x1
ffffffff8400072c:	68843403          	ld	s0,1672(s0) # ffffffff84001db0 <ndks_boot+0x450>
ffffffff84000730:	000807b7          	lui	a5,0x80
ffffffff84000734:	00f46763          	bltu	s0,a5,ffffffff84000742 <provide_cap+0x28>
ffffffff84000738:	4501                	li	a0,0
ffffffff8400073a:	70a2                	ld	ra,40(sp)
ffffffff8400073c:	7402                	ld	s0,32(sp)
ffffffff8400073e:	6145                	add	sp,sp,48
ffffffff84000740:	8082                	ret
ffffffff84000742:	2cb030ef          	jal	ffffffff8400420c <cap_get_capPtr>
ffffffff84000746:	0416                	sll	s0,s0,0x5
ffffffff84000748:	9522                	add	a0,a0,s0
ffffffff8400074a:	6782                	ld	a5,0(sp)
ffffffff8400074c:	e11c                	sd	a5,0(a0)
ffffffff8400074e:	67a2                	ld	a5,8(sp)
ffffffff84000750:	e51c                	sd	a5,8(a0)
ffffffff84000752:	00053823          	sd	zero,16(a0)
ffffffff84000756:	478d                	li	a5,3
ffffffff84000758:	ed1c                	sd	a5,24(a0)
ffffffff8400075a:	00001717          	auipc	a4,0x1
ffffffff8400075e:	20670713          	add	a4,a4,518 # ffffffff84001960 <ndks_boot>
ffffffff84000762:	45073783          	ld	a5,1104(a4)
ffffffff84000766:	0785                	add	a5,a5,1 # 80001 <KERNEL_OFFSET-0xfffffffefff7ffff>
ffffffff84000768:	44f73823          	sd	a5,1104(a4)
ffffffff8400076c:	4505                	li	a0,1
ffffffff8400076e:	b7f1                	j	ffffffff8400073a <provide_cap+0x20>

ffffffff84000770 <create_frames_of_region>:
ffffffff84000770:	7135                	add	sp,sp,-160
ffffffff84000772:	ed06                	sd	ra,152(sp)
ffffffff84000774:	e922                	sd	s0,144(sp)
ffffffff84000776:	e526                	sd	s1,136(sp)
ffffffff84000778:	e14a                	sd	s2,128(sp)
ffffffff8400077a:	fcce                	sd	s3,120(sp)
ffffffff8400077c:	f8d2                	sd	s4,112(sp)
ffffffff8400077e:	f4d6                	sd	s5,104(sp)
ffffffff84000780:	f0da                	sd	s6,96(sp)
ffffffff84000782:	ecde                	sd	s7,88(sp)
ffffffff84000784:	e8e2                	sd	s8,80(sp)
ffffffff84000786:	e4e6                	sd	s9,72(sp)
ffffffff84000788:	8b2a                	mv	s6,a0
ffffffff8400078a:	f02e                	sd	a1,32(sp)
ffffffff8400078c:	f432                	sd	a2,40(sp)
ffffffff8400078e:	e836                	sd	a3,16(sp)
ffffffff84000790:	ec3a                	sd	a4,24(sp)
ffffffff84000792:	00001c97          	auipc	s9,0x1
ffffffff84000796:	61ecbc83          	ld	s9,1566(s9) # ffffffff84001db0 <ndks_boot+0x450>
ffffffff8400079a:	0707f263          	bgeu	a5,a6,ffffffff840007fe <create_frames_of_region+0x8e>
ffffffff8400079e:	8946                	mv	s2,a7
ffffffff840007a0:	84c2                	mv	s1,a6
ffffffff840007a2:	843e                	mv	s0,a5
ffffffff840007a4:	4a85                	li	s5,1
ffffffff840007a6:	03ba9b93          	sll	s7,s5,0x3b
ffffffff840007aa:	fe000a37          	lui	s4,0xfe000
ffffffff840007ae:	010a5a13          	srl	s4,s4,0x10
ffffffff840007b2:	026a9c13          	sll	s8,s5,0x26
ffffffff840007b6:	778a                	ld	a5,160(sp)
ffffffff840007b8:	40fc0c33          	sub	s8,s8,a5
ffffffff840007bc:	6985                	lui	s3,0x1
ffffffff840007be:	a00d                	j	ffffffff840007e0 <create_frames_of_region+0x70>
ffffffff840007c0:	f85e                	sd	s7,48(sp)
ffffffff840007c2:	00941793          	sll	a5,s0,0x9
ffffffff840007c6:	0147f7b3          	and	a5,a5,s4
ffffffff840007ca:	fc3e                	sd	a5,56(sp)
ffffffff840007cc:	7642                	ld	a2,48(sp)
ffffffff840007ce:	76e2                	ld	a3,56(sp)
ffffffff840007d0:	7502                	ld	a0,32(sp)
ffffffff840007d2:	75a2                	ld	a1,40(sp)
ffffffff840007d4:	f47ff0ef          	jal	ffffffff8400071a <provide_cap>
ffffffff840007d8:	cd21                	beqz	a0,ffffffff84000830 <create_frames_of_region+0xc0>
ffffffff840007da:	944e                	add	s0,s0,s3
ffffffff840007dc:	02947163          	bgeu	s0,s1,ffffffff840007fe <create_frames_of_region+0x8e>
ffffffff840007e0:	fe0900e3          	beqz	s2,ffffffff840007c0 <create_frames_of_region+0x50>
ffffffff840007e4:	8856                	mv	a6,s5
ffffffff840007e6:	4781                	li	a5,0
ffffffff840007e8:	8756                	mv	a4,s5
ffffffff840007ea:	008c06b3          	add	a3,s8,s0
ffffffff840007ee:	8622                	mv	a2,s0
ffffffff840007f0:	6542                	ld	a0,16(sp)
ffffffff840007f2:	65e2                	ld	a1,24(sp)
ffffffff840007f4:	e49ff0ef          	jal	ffffffff8400063c <create_mapped_it_frame_cap>
ffffffff840007f8:	f82a                	sd	a0,48(sp)
ffffffff840007fa:	fc2e                	sd	a1,56(sp)
ffffffff840007fc:	bfc1                	j	ffffffff840007cc <create_frames_of_region+0x5c>
ffffffff840007fe:	00001797          	auipc	a5,0x1
ffffffff84000802:	5b27b783          	ld	a5,1458(a5) # ffffffff84001db0 <ndks_boot+0x450>
ffffffff84000806:	4505                	li	a0,1
ffffffff84000808:	019b3023          	sd	s9,0(s6)
ffffffff8400080c:	00fb3423          	sd	a5,8(s6)
ffffffff84000810:	00ab3823          	sd	a0,16(s6)
ffffffff84000814:	855a                	mv	a0,s6
ffffffff84000816:	60ea                	ld	ra,152(sp)
ffffffff84000818:	644a                	ld	s0,144(sp)
ffffffff8400081a:	64aa                	ld	s1,136(sp)
ffffffff8400081c:	690a                	ld	s2,128(sp)
ffffffff8400081e:	79e6                	ld	s3,120(sp)
ffffffff84000820:	7a46                	ld	s4,112(sp)
ffffffff84000822:	7aa6                	ld	s5,104(sp)
ffffffff84000824:	7b06                	ld	s6,96(sp)
ffffffff84000826:	6be6                	ld	s7,88(sp)
ffffffff84000828:	6c46                	ld	s8,80(sp)
ffffffff8400082a:	6ca6                	ld	s9,72(sp)
ffffffff8400082c:	610d                	add	sp,sp,160
ffffffff8400082e:	8082                	ret
ffffffff84000830:	8caa                	mv	s9,a0
ffffffff84000832:	87aa                	mv	a5,a0
ffffffff84000834:	bfd1                	j	ffffffff84000808 <create_frames_of_region+0x98>

ffffffff84000836 <create_it_address_space>:
ffffffff84000836:	7151                	add	sp,sp,-240
ffffffff84000838:	f586                	sd	ra,232(sp)
ffffffff8400083a:	f1a2                	sd	s0,224(sp)
ffffffff8400083c:	eda6                	sd	s1,216(sp)
ffffffff8400083e:	e9ca                	sd	s2,208(sp)
ffffffff84000840:	e5ce                	sd	s3,200(sp)
ffffffff84000842:	e1d2                	sd	s4,192(sp)
ffffffff84000844:	fd56                	sd	s5,184(sp)
ffffffff84000846:	f95a                	sd	s6,176(sp)
ffffffff84000848:	f55e                	sd	s7,168(sp)
ffffffff8400084a:	f162                	sd	s8,160(sp)
ffffffff8400084c:	ed66                	sd	s9,152(sp)
ffffffff8400084e:	e96a                	sd	s10,144(sp)
ffffffff84000850:	e56e                	sd	s11,136(sp)
ffffffff84000852:	f82a                	sd	a0,48(sp)
ffffffff84000854:	fc2e                	sd	a1,56(sp)
ffffffff84000856:	f032                	sd	a2,32(sp)
ffffffff84000858:	8b36                	mv	s6,a3
ffffffff8400085a:	00001417          	auipc	s0,0x1
ffffffff8400085e:	10640413          	add	s0,s0,262 # ffffffff84001960 <ndks_boot>
ffffffff84000862:	46043503          	ld	a0,1120(s0)
ffffffff84000866:	368020ef          	jal	ffffffff84002bce <copyGlobalMappings>
ffffffff8400086a:	46043783          	ld	a5,1120(s0)
ffffffff8400086e:	01979a13          	sll	s4,a5,0x19
ffffffff84000872:	019a5a13          	srl	s4,s4,0x19
ffffffff84000876:	00300737          	lui	a4,0x300
ffffffff8400087a:	0705                	add	a4,a4,1 # 300001 <KERNEL_OFFSET-0xfffffffeffcfffff>
ffffffff8400087c:	171e                	sll	a4,a4,0x27
ffffffff8400087e:	00ea6a33          	or	s4,s4,a4
ffffffff84000882:	07a6                	sll	a5,a5,0x9
ffffffff84000884:	fe000737          	lui	a4,0xfe000
ffffffff84000888:	8341                	srl	a4,a4,0x10
ffffffff8400088a:	8ff9                	and	a5,a5,a4
ffffffff8400088c:	4705                	li	a4,1
ffffffff8400088e:	1742                	sll	a4,a4,0x30
ffffffff84000890:	00e7e4b3          	or	s1,a5,a4
ffffffff84000894:	e426                	sd	s1,8(sp)
ffffffff84000896:	45043783          	ld	a5,1104(s0)
ffffffff8400089a:	ec3e                	sd	a5,24(sp)
ffffffff8400089c:	7542                	ld	a0,48(sp)
ffffffff8400089e:	75e2                	ld	a1,56(sp)
ffffffff840008a0:	16d030ef          	jal	ffffffff8400420c <cap_get_capPtr>
ffffffff840008a4:	07453023          	sd	s4,96(a0)
ffffffff840008a8:	f524                	sd	s1,104(a0)
ffffffff840008aa:	06053823          	sd	zero,112(a0)
ffffffff840008ae:	478d                	li	a5,3
ffffffff840008b0:	fd3c                	sd	a5,120(a0)
ffffffff840008b2:	47f9                	li	a5,30
ffffffff840008b4:	e83e                	sd	a5,16(sp)
ffffffff840008b6:	6742                	ld	a4,16(sp)
ffffffff840008b8:	0007079b          	sext.w	a5,a4
ffffffff840008bc:	7902                	ld	s2,32(sp)
ffffffff840008be:	00e95933          	srl	s2,s2,a4
ffffffff840008c2:	00e91933          	sll	s2,s2,a4
ffffffff840008c6:	07697663          	bgeu	s2,s6,ffffffff84000932 <create_it_address_space+0xfc>
ffffffff840008ca:	4d05                	li	s10,1
ffffffff840008cc:	00fd1d33          	sll	s10,s10,a5
ffffffff840008d0:	00001997          	auipc	s3,0x1
ffffffff840008d4:	09098993          	add	s3,s3,144 # ffffffff84001960 <ndks_boot>
ffffffff840008d8:	6d85                	lui	s11,0x1
ffffffff840008da:	5cfd                	li	s9,-1
ffffffff840008dc:	019cdc93          	srl	s9,s9,0x19
ffffffff840008e0:	00300ab7          	lui	s5,0x300
ffffffff840008e4:	0a85                	add	s5,s5,1 # 300001 <KERNEL_OFFSET-0xfffffffeffcfffff>
ffffffff840008e6:	1a9e                	sll	s5,s5,0x27
ffffffff840008e8:	fe000c37          	lui	s8,0xfe000
ffffffff840008ec:	010c5c13          	srl	s8,s8,0x10
ffffffff840008f0:	4b85                	li	s7,1
ffffffff840008f2:	1bc2                	sll	s7,s7,0x30
ffffffff840008f4:	4909b403          	ld	s0,1168(s3)
ffffffff840008f8:	01b407b3          	add	a5,s0,s11
ffffffff840008fc:	48f9b823          	sd	a5,1168(s3)
ffffffff84000900:	019974b3          	and	s1,s2,s9
ffffffff84000904:	0154e4b3          	or	s1,s1,s5
ffffffff84000908:	0426                	sll	s0,s0,0x9
ffffffff8400090a:	01847433          	and	s0,s0,s8
ffffffff8400090e:	01746433          	or	s0,s0,s7
ffffffff84000912:	8626                	mv	a2,s1
ffffffff84000914:	86a2                	mv	a3,s0
ffffffff84000916:	8552                	mv	a0,s4
ffffffff84000918:	65a2                	ld	a1,8(sp)
ffffffff8400091a:	c4bff0ef          	jal	ffffffff84000564 <map_it_pt_cap>
ffffffff8400091e:	8626                	mv	a2,s1
ffffffff84000920:	86a2                	mv	a3,s0
ffffffff84000922:	7542                	ld	a0,48(sp)
ffffffff84000924:	75e2                	ld	a1,56(sp)
ffffffff84000926:	df5ff0ef          	jal	ffffffff8400071a <provide_cap>
ffffffff8400092a:	c931                	beqz	a0,ffffffff8400097e <create_it_address_space+0x148>
ffffffff8400092c:	996a                	add	s2,s2,s10
ffffffff8400092e:	fd6963e3          	bltu	s2,s6,ffffffff840008f4 <create_it_address_space+0xbe>
ffffffff84000932:	67c2                	ld	a5,16(sp)
ffffffff84000934:	37dd                	addw	a5,a5,-9
ffffffff84000936:	873e                	mv	a4,a5
ffffffff84000938:	e83e                	sd	a5,16(sp)
ffffffff8400093a:	47b1                	li	a5,12
ffffffff8400093c:	f6f71de3          	bne	a4,a5,ffffffff840008b6 <create_it_address_space+0x80>
ffffffff84000940:	00001797          	auipc	a5,0x1
ffffffff84000944:	02078793          	add	a5,a5,32 # ffffffff84001960 <ndks_boot>
ffffffff84000948:	4507b703          	ld	a4,1104(a5)
ffffffff8400094c:	4487b783          	ld	a5,1096(a5)
ffffffff84000950:	66e2                	ld	a3,24(sp)
ffffffff84000952:	efb4                	sd	a3,88(a5)
ffffffff84000954:	f3b8                	sd	a4,96(a5)
ffffffff84000956:	f8d2                	sd	s4,112(sp)
ffffffff84000958:	67a2                	ld	a5,8(sp)
ffffffff8400095a:	fcbe                	sd	a5,120(sp)
ffffffff8400095c:	7546                	ld	a0,112(sp)
ffffffff8400095e:	75e6                	ld	a1,120(sp)
ffffffff84000960:	70ae                	ld	ra,232(sp)
ffffffff84000962:	740e                	ld	s0,224(sp)
ffffffff84000964:	64ee                	ld	s1,216(sp)
ffffffff84000966:	694e                	ld	s2,208(sp)
ffffffff84000968:	69ae                	ld	s3,200(sp)
ffffffff8400096a:	6a0e                	ld	s4,192(sp)
ffffffff8400096c:	7aea                	ld	s5,184(sp)
ffffffff8400096e:	7b4a                	ld	s6,176(sp)
ffffffff84000970:	7baa                	ld	s7,168(sp)
ffffffff84000972:	7c0a                	ld	s8,160(sp)
ffffffff84000974:	6cea                	ld	s9,152(sp)
ffffffff84000976:	6d4a                	ld	s10,144(sp)
ffffffff84000978:	6daa                	ld	s11,136(sp)
ffffffff8400097a:	616d                	add	sp,sp,240
ffffffff8400097c:	8082                	ret
ffffffff8400097e:	f882                	sd	zero,112(sp)
ffffffff84000980:	fc82                	sd	zero,120(sp)
ffffffff84000982:	bfe9                	j	ffffffff8400095c <create_it_address_space+0x126>

ffffffff84000984 <create_it_asid_pool>:
ffffffff84000984:	7179                	add	sp,sp,-48
ffffffff84000986:	f406                	sd	ra,40(sp)
ffffffff84000988:	f022                	sd	s0,32(sp)
ffffffff8400098a:	00001417          	auipc	s0,0x1
ffffffff8400098e:	43e43403          	ld	s0,1086(s0) # ffffffff84001dc8 <rootserver+0x10>
ffffffff84000992:	0466                	sll	s0,s0,0x19
ffffffff84000994:	806d                	srl	s0,s0,0x1b
ffffffff84000996:	47b5                	li	a5,13
ffffffff84000998:	17ee                	sll	a5,a5,0x3b
ffffffff8400099a:	8c5d                	or	s0,s0,a5
ffffffff8400099c:	071030ef          	jal	ffffffff8400420c <cap_get_capPtr>
ffffffff840009a0:	e160                	sd	s0,192(a0)
ffffffff840009a2:	0c053423          	sd	zero,200(a0)
ffffffff840009a6:	0c053823          	sd	zero,208(a0)
ffffffff840009aa:	470d                	li	a4,3
ffffffff840009ac:	ed78                	sd	a4,216(a0)
ffffffff840009ae:	47ad                	li	a5,11
ffffffff840009b0:	17ee                	sll	a5,a5,0x3b
ffffffff840009b2:	f15c                	sd	a5,160(a0)
ffffffff840009b4:	0a053423          	sd	zero,168(a0)
ffffffff840009b8:	0a053823          	sd	zero,176(a0)
ffffffff840009bc:	fd58                	sd	a4,184(a0)
ffffffff840009be:	8522                	mv	a0,s0
ffffffff840009c0:	4581                	li	a1,0
ffffffff840009c2:	70a2                	ld	ra,40(sp)
ffffffff840009c4:	7402                	ld	s0,32(sp)
ffffffff840009c6:	6145                	add	sp,sp,48
ffffffff840009c8:	8082                	ret

ffffffff840009ca <create_initial_thread>:
ffffffff840009ca:	7135                	add	sp,sp,-160
ffffffff840009cc:	e506                	sd	ra,136(sp)
ffffffff840009ce:	e122                	sd	s0,128(sp)
ffffffff840009d0:	fca6                	sd	s1,120(sp)
ffffffff840009d2:	f8ca                	sd	s2,112(sp)
ffffffff840009d4:	f4ce                	sd	s3,104(sp)
ffffffff840009d6:	f0d2                	sd	s4,96(sp)
ffffffff840009d8:	ecd6                	sd	s5,88(sp)
ffffffff840009da:	e8da                	sd	s6,80(sp)
ffffffff840009dc:	e4de                	sd	s7,72(sp)
ffffffff840009de:	e82a                	sd	a0,16(sp)
ffffffff840009e0:	ec2e                	sd	a1,24(sp)
ffffffff840009e2:	e032                	sd	a2,0(sp)
ffffffff840009e4:	e436                	sd	a3,8(sp)
ffffffff840009e6:	8a3a                	mv	s4,a4
ffffffff840009e8:	8abe                	mv	s5,a5
ffffffff840009ea:	8b42                	mv	s6,a6
ffffffff840009ec:	8946                	mv	s2,a7
ffffffff840009ee:	ed46                	sd	a7,152(sp)
ffffffff840009f0:	00001417          	auipc	s0,0x1
ffffffff840009f4:	3f843403          	ld	s0,1016(s0) # ffffffff84001de8 <rootserver+0x30>
ffffffff840009f8:	20040413          	add	s0,s0,512
ffffffff840009fc:	4795                	li	a5,5
ffffffff840009fe:	16f43823          	sd	a5,368(s0)
ffffffff84000a02:	02000793          	li	a5,32
ffffffff84000a06:	10f43023          	sd	a5,256(s0)
ffffffff84000a0a:	003030ef          	jal	ffffffff8400420c <cap_get_capPtr>
ffffffff84000a0e:	84aa                	mv	s1,a0
ffffffff84000a10:	14050b93          	add	s7,a0,320
ffffffff84000a14:	864a                	mv	a2,s2
ffffffff84000a16:	768a                	ld	a3,160(sp)
ffffffff84000a18:	85de                	mv	a1,s7
ffffffff84000a1a:	1028                	add	a0,sp,40
ffffffff84000a1c:	3d5030ef          	jal	ffffffff840045f0 <deriveCap>
ffffffff84000a20:	77a2                	ld	a5,40(sp)
ffffffff84000a22:	4981                	li	s3,0
ffffffff84000a24:	ebcd                	bnez	a5,ffffffff84000ad6 <create_initial_thread+0x10c>
ffffffff84000a26:	89a2                	mv	s3,s0
ffffffff84000a28:	00001917          	auipc	s2,0x1
ffffffff84000a2c:	f3890913          	add	s2,s2,-200 # ffffffff84001960 <ndks_boot>
ffffffff84000a30:	48893683          	ld	a3,1160(s2)
ffffffff84000a34:	04048613          	add	a2,s1,64
ffffffff84000a38:	6542                	ld	a0,16(sp)
ffffffff84000a3a:	65e2                	ld	a1,24(sp)
ffffffff84000a3c:	567030ef          	jal	ffffffff840047a2 <cteInsert>
ffffffff84000a40:	48893683          	ld	a3,1160(s2)
ffffffff84000a44:	02068693          	add	a3,a3,32
ffffffff84000a48:	06048613          	add	a2,s1,96
ffffffff84000a4c:	6502                	ld	a0,0(sp)
ffffffff84000a4e:	65a2                	ld	a1,8(sp)
ffffffff84000a50:	553030ef          	jal	ffffffff840047a2 <cteInsert>
ffffffff84000a54:	48893683          	ld	a3,1160(s2)
ffffffff84000a58:	08068693          	add	a3,a3,128
ffffffff84000a5c:	865e                	mv	a2,s7
ffffffff84000a5e:	7542                	ld	a0,48(sp)
ffffffff84000a60:	75e2                	ld	a1,56(sp)
ffffffff84000a62:	541030ef          	jal	ffffffff840047a2 <cteInsert>
ffffffff84000a66:	19643023          	sd	s6,384(s0)
ffffffff84000a6a:	05543423          	sd	s5,72(s0)
ffffffff84000a6e:	11443823          	sd	s4,272(s0)
ffffffff84000a72:	0ff00793          	li	a5,255
ffffffff84000a76:	16f43423          	sd	a5,360(s0)
ffffffff84000a7a:	16f43023          	sd	a5,352(s0)
ffffffff84000a7e:	00008917          	auipc	s2,0x8
ffffffff84000a82:	1a290913          	add	s2,s2,418 # ffffffff84008c20 <ksDomSchedule>
ffffffff84000a86:	89818a13          	add	s4,gp,-1896 # ffffffff84008cb0 <ksDomScheduleIdx>
ffffffff84000a8a:	000a3783          	ld	a5,0(s4) # fffffffffe000000 <ki_end+0x79fe0000>
ffffffff84000a8e:	0792                	sll	a5,a5,0x4
ffffffff84000a90:	97ca                	add	a5,a5,s2
ffffffff84000a92:	639c                	ld	a5,0(a5)
ffffffff84000a94:	14f43c23          	sd	a5,344(s0)
ffffffff84000a98:	8522                	mv	a0,s0
ffffffff84000a9a:	0ec030ef          	jal	ffffffff84003b86 <setupReplyMaster>
ffffffff84000a9e:	4585                	li	a1,1
ffffffff84000aa0:	8522                	mv	a0,s0
ffffffff84000aa2:	723030ef          	jal	ffffffff840049c4 <setThreadState>
ffffffff84000aa6:	000a3783          	ld	a5,0(s4)
ffffffff84000aaa:	0792                	sll	a5,a5,0x4
ffffffff84000aac:	993e                	add	s2,s2,a5
ffffffff84000aae:	00093783          	ld	a5,0(s2)
ffffffff84000ab2:	8af1b423          	sd	a5,-1880(gp) # ffffffff84008cc0 <ksCurDomain>
ffffffff84000ab6:	00893783          	ld	a5,8(s2)
ffffffff84000aba:	8af1b023          	sd	a5,-1888(gp) # ffffffff84008cb8 <ksDomainTime>
ffffffff84000abe:	0466                	sll	s0,s0,0x19
ffffffff84000ac0:	8065                	srl	s0,s0,0x19
ffffffff84000ac2:	478d                	li	a5,3
ffffffff84000ac4:	03d79713          	sll	a4,a5,0x3d
ffffffff84000ac8:	8c59                	or	s0,s0,a4
ffffffff84000aca:	f080                	sd	s0,32(s1)
ffffffff84000acc:	0204b423          	sd	zero,40(s1)
ffffffff84000ad0:	0204b823          	sd	zero,48(s1)
ffffffff84000ad4:	fc9c                	sd	a5,56(s1)
ffffffff84000ad6:	854e                	mv	a0,s3
ffffffff84000ad8:	60aa                	ld	ra,136(sp)
ffffffff84000ada:	640a                	ld	s0,128(sp)
ffffffff84000adc:	74e6                	ld	s1,120(sp)
ffffffff84000ade:	7946                	ld	s2,112(sp)
ffffffff84000ae0:	79a6                	ld	s3,104(sp)
ffffffff84000ae2:	7a06                	ld	s4,96(sp)
ffffffff84000ae4:	6ae6                	ld	s5,88(sp)
ffffffff84000ae6:	6b46                	ld	s6,80(sp)
ffffffff84000ae8:	6ba6                	ld	s7,72(sp)
ffffffff84000aea:	610d                	add	sp,sp,160
ffffffff84000aec:	8082                	ret

ffffffff84000aee <configureIdleThread>:
ffffffff84000aee:	1141                	add	sp,sp,-16
ffffffff84000af0:	e406                	sd	ra,8(sp)
ffffffff84000af2:	00002717          	auipc	a4,0x2
ffffffff84000af6:	cec70713          	add	a4,a4,-788 # ffffffff840027de <idle_thread>
ffffffff84000afa:	10e53823          	sd	a4,272(a0)
ffffffff84000afe:	12000713          	li	a4,288
ffffffff84000b02:	10e53023          	sd	a4,256(a0)
ffffffff84000b06:	0001b717          	auipc	a4,0x1b
ffffffff84000b0a:	cfa70713          	add	a4,a4,-774 # ffffffff8401b800 <_breakpoint_stack_bottom>
ffffffff84000b0e:	e518                	sd	a4,8(a0)
ffffffff84000b10:	459d                	li	a1,7
ffffffff84000b12:	6b3030ef          	jal	ffffffff840049c4 <setThreadState>
ffffffff84000b16:	60a2                	ld	ra,8(sp)
ffffffff84000b18:	0141                	add	sp,sp,16
ffffffff84000b1a:	8082                	ret

ffffffff84000b1c <create_idle_thread>:
ffffffff84000b1c:	1141                	add	sp,sp,-16
ffffffff84000b1e:	e406                	sd	ra,8(sp)
ffffffff84000b20:	00009517          	auipc	a0,0x9
ffffffff84000b24:	0e050513          	add	a0,a0,224 # ffffffff84009c00 <ksIdleThreadTCB+0x200>
ffffffff84000b28:	a6a1bc23          	sd	a0,-1416(gp) # ffffffff84008e90 <ksIdleThread>
ffffffff84000b2c:	fc3ff0ef          	jal	ffffffff84000aee <configureIdleThread>
ffffffff84000b30:	60a2                	ld	ra,8(sp)
ffffffff84000b32:	0141                	add	sp,sp,16
ffffffff84000b34:	8082                	ret

ffffffff84000b36 <create_ipcbuf_frame_cap>:
ffffffff84000b36:	711d                	add	sp,sp,-96
ffffffff84000b38:	ec86                	sd	ra,88(sp)
ffffffff84000b3a:	e8a2                	sd	s0,80(sp)
ffffffff84000b3c:	e4a6                	sd	s1,72(sp)
ffffffff84000b3e:	e82a                	sd	a0,16(sp)
ffffffff84000b40:	ec2e                	sd	a1,24(sp)
ffffffff84000b42:	e032                	sd	a2,0(sp)
ffffffff84000b44:	e436                	sd	a3,8(sp)
ffffffff84000b46:	843a                	mv	s0,a4
ffffffff84000b48:	00001497          	auipc	s1,0x1
ffffffff84000b4c:	e1848493          	add	s1,s1,-488 # ffffffff84001960 <ndks_boot>
ffffffff84000b50:	6585                	lui	a1,0x1
ffffffff84000b52:	4704b503          	ld	a0,1136(s1)
ffffffff84000b56:	3a1060ef          	jal	ffffffff840076f6 <memzero>
ffffffff84000b5a:	4801                	li	a6,0
ffffffff84000b5c:	4781                	li	a5,0
ffffffff84000b5e:	4705                	li	a4,1
ffffffff84000b60:	86a2                	mv	a3,s0
ffffffff84000b62:	4704b603          	ld	a2,1136(s1)
ffffffff84000b66:	6502                	ld	a0,0(sp)
ffffffff84000b68:	65a2                	ld	a1,8(sp)
ffffffff84000b6a:	ad3ff0ef          	jal	ffffffff8400063c <create_mapped_it_frame_cap>
ffffffff84000b6e:	84aa                	mv	s1,a0
ffffffff84000b70:	842e                	mv	s0,a1
ffffffff84000b72:	6542                	ld	a0,16(sp)
ffffffff84000b74:	65e2                	ld	a1,24(sp)
ffffffff84000b76:	696030ef          	jal	ffffffff8400420c <cap_get_capPtr>
ffffffff84000b7a:	14953023          	sd	s1,320(a0)
ffffffff84000b7e:	14853423          	sd	s0,328(a0)
ffffffff84000b82:	14053823          	sd	zero,336(a0)
ffffffff84000b86:	478d                	li	a5,3
ffffffff84000b88:	14f53c23          	sd	a5,344(a0)
ffffffff84000b8c:	8526                	mv	a0,s1
ffffffff84000b8e:	85a2                	mv	a1,s0
ffffffff84000b90:	60e6                	ld	ra,88(sp)
ffffffff84000b92:	6446                	ld	s0,80(sp)
ffffffff84000b94:	64a6                	ld	s1,72(sp)
ffffffff84000b96:	6125                	add	sp,sp,96
ffffffff84000b98:	8082                	ret

ffffffff84000b9a <alloc_rootserver_obj>:
ffffffff84000b9a:	1141                	add	sp,sp,-16
ffffffff84000b9c:	e406                	sd	ra,8(sp)
ffffffff84000b9e:	e022                	sd	s0,0(sp)
ffffffff84000ba0:	00001797          	auipc	a5,0x1
ffffffff84000ba4:	dc078793          	add	a5,a5,-576 # ffffffff84001960 <ndks_boot>
ffffffff84000ba8:	4a07b403          	ld	s0,1184(a5)
ffffffff84000bac:	00a595b3          	sll	a1,a1,a0
ffffffff84000bb0:	00858733          	add	a4,a1,s0
ffffffff84000bb4:	4ae7b023          	sd	a4,1184(a5)
ffffffff84000bb8:	8522                	mv	a0,s0
ffffffff84000bba:	33d060ef          	jal	ffffffff840076f6 <memzero>
ffffffff84000bbe:	8522                	mv	a0,s0
ffffffff84000bc0:	60a2                	ld	ra,8(sp)
ffffffff84000bc2:	6402                	ld	s0,0(sp)
ffffffff84000bc4:	0141                	add	sp,sp,16
ffffffff84000bc6:	8082                	ret

ffffffff84000bc8 <maybe_alloc_extra_bi>:
ffffffff84000bc8:	00a5e863          	bltu	a1,a0,ffffffff84000bd8 <maybe_alloc_extra_bi+0x10>
ffffffff84000bcc:	87ae                	mv	a5,a1
ffffffff84000bce:	00001717          	auipc	a4,0x1
ffffffff84000bd2:	21273703          	ld	a4,530(a4) # ffffffff84001de0 <rootserver+0x28>
ffffffff84000bd6:	c311                	beqz	a4,ffffffff84000bda <maybe_alloc_extra_bi+0x12>
ffffffff84000bd8:	8082                	ret
ffffffff84000bda:	1141                	add	sp,sp,-16
ffffffff84000bdc:	e406                	sd	ra,8(sp)
ffffffff84000bde:	4585                	li	a1,1
ffffffff84000be0:	853e                	mv	a0,a5
ffffffff84000be2:	fb9ff0ef          	jal	ffffffff84000b9a <alloc_rootserver_obj>
ffffffff84000be6:	00001797          	auipc	a5,0x1
ffffffff84000bea:	1ea7bd23          	sd	a0,506(a5) # ffffffff84001de0 <rootserver+0x28>
ffffffff84000bee:	60a2                	ld	ra,8(sp)
ffffffff84000bf0:	0141                	add	sp,sp,16
ffffffff84000bf2:	8082                	ret

ffffffff84000bf4 <init_freemem>:
ffffffff84000bf4:	7155                	add	sp,sp,-208
ffffffff84000bf6:	e586                	sd	ra,200(sp)
ffffffff84000bf8:	e1a2                	sd	s0,192(sp)
ffffffff84000bfa:	fd26                	sd	s1,184(sp)
ffffffff84000bfc:	f94a                	sd	s2,176(sp)
ffffffff84000bfe:	f54e                	sd	s3,168(sp)
ffffffff84000c00:	f152                	sd	s4,160(sp)
ffffffff84000c02:	ed56                	sd	s5,152(sp)
ffffffff84000c04:	e95a                	sd	s6,144(sp)
ffffffff84000c06:	e55e                	sd	s7,136(sp)
ffffffff84000c08:	e162                	sd	s8,128(sp)
ffffffff84000c0a:	fce6                	sd	s9,120(sp)
ffffffff84000c0c:	892a                	mv	s2,a0
ffffffff84000c0e:	e03a                	sd	a4,0(sp)
ffffffff84000c10:	e43e                	sd	a5,8(sp)
ffffffff84000c12:	30050363          	beqz	a0,ffffffff84000f18 <init_freemem+0x324>
ffffffff84000c16:	8a32                	mv	s4,a2
ffffffff84000c18:	8b36                	mv	s6,a3
ffffffff84000c1a:	8ac2                	mv	s5,a6
ffffffff84000c1c:	86ae                	mv	a3,a1
ffffffff84000c1e:	87ae                	mv	a5,a1
ffffffff84000c20:	4701                	li	a4,0
ffffffff84000c22:	a029                	j	ffffffff84000c2c <init_freemem+0x38>
ffffffff84000c24:	0705                	add	a4,a4,1
ffffffff84000c26:	07c1                	add	a5,a5,16
ffffffff84000c28:	3ae90263          	beq	s2,a4,ffffffff84000fcc <init_freemem+0x3d8>
ffffffff84000c2c:	6390                	ld	a2,0(a5)
ffffffff84000c2e:	6788                	ld	a0,8(a5)
ffffffff84000c30:	2ea67363          	bgeu	a2,a0,ffffffff84000f16 <init_freemem+0x322>
ffffffff84000c34:	db65                	beqz	a4,ffffffff84000c24 <init_freemem+0x30>
ffffffff84000c36:	ff87b503          	ld	a0,-8(a5)
ffffffff84000c3a:	fea675e3          	bgeu	a2,a0,ffffffff84000c24 <init_freemem+0x30>
ffffffff84000c3e:	4501                	li	a0,0
ffffffff84000c40:	ace1                	j	ffffffff84000f18 <init_freemem+0x324>
ffffffff84000c42:	0705                	add	a4,a4,1
ffffffff84000c44:	07c1                	add	a5,a5,16
ffffffff84000c46:	38ea0763          	beq	s4,a4,ffffffff84000fd4 <init_freemem+0x3e0>
ffffffff84000c4a:	6390                	ld	a2,0(a5)
ffffffff84000c4c:	6788                	ld	a0,8(a5)
ffffffff84000c4e:	2ec56263          	bltu	a0,a2,ffffffff84000f32 <init_freemem+0x33e>
ffffffff84000c52:	db65                	beqz	a4,ffffffff84000c42 <init_freemem+0x4e>
ffffffff84000c54:	ff87b503          	ld	a0,-8(a5)
ffffffff84000c58:	fea675e3          	bgeu	a2,a0,ffffffff84000c42 <init_freemem+0x4e>
ffffffff84000c5c:	4501                	li	a0,0
ffffffff84000c5e:	ac6d                	j	ffffffff84000f18 <init_freemem+0x324>
ffffffff84000c60:	87f6                	mv	a5,t4
ffffffff84000c62:	a01d                	j	ffffffff84000c88 <init_freemem+0x94>
ffffffff84000c64:	fef63c23          	sd	a5,-8(a2)
ffffffff84000c68:	06c1                	add	a3,a3,16
ffffffff84000c6a:	0741                	add	a4,a4,16
ffffffff84000c6c:	03c68763          	beq	a3,t3,ffffffff84000c9a <init_freemem+0xa6>
ffffffff84000c70:	0086b803          	ld	a6,8(a3)
ffffffff84000c74:	006807b3          	add	a5,a6,t1
ffffffff84000c78:	863a                	mv	a2,a4
ffffffff84000c7a:	6288                	ld	a0,0(a3)
ffffffff84000c7c:	951a                	add	a0,a0,t1
ffffffff84000c7e:	fea73c23          	sd	a0,-8(a4)
ffffffff84000c82:	e31c                	sd	a5,0(a4)
ffffffff84000c84:	fd08eee3          	bltu	a7,a6,ffffffff84000c60 <init_freemem+0x6c>
ffffffff84000c88:	e21c                	sd	a5,0(a2)
ffffffff84000c8a:	ff863783          	ld	a5,-8(a2)
ffffffff84000c8e:	00b78533          	add	a0,a5,a1
ffffffff84000c92:	fca8f9e3          	bgeu	a7,a0,ffffffff84000c64 <init_freemem+0x70>
ffffffff84000c96:	87f6                	mv	a5,t4
ffffffff84000c98:	b7f1                	j	ffffffff84000c64 <init_freemem+0x70>
ffffffff84000c9a:	140a0063          	beqz	s4,ffffffff84000dda <init_freemem+0x1e6>
ffffffff84000c9e:	4481                	li	s1,0
ffffffff84000ca0:	4401                	li	s0,0
ffffffff84000ca2:	00001b97          	auipc	s7,0x1
ffffffff84000ca6:	cbeb8b93          	add	s7,s7,-834 # ffffffff84001960 <ndks_boot>
ffffffff84000caa:	4c05                	li	s8,1
ffffffff84000cac:	1c1a                	sll	s8,s8,0x26
ffffffff84000cae:	a031                	j	ffffffff84000cba <init_freemem+0xc6>
ffffffff84000cb0:	0485                	add	s1,s1,1
ffffffff84000cb2:	29247663          	bgeu	s0,s2,ffffffff84000f3e <init_freemem+0x34a>
ffffffff84000cb6:	1144f463          	bgeu	s1,s4,ffffffff84000dbe <init_freemem+0x1ca>
ffffffff84000cba:	00449993          	sll	s3,s1,0x4
ffffffff84000cbe:	99da                	add	s3,s3,s6
ffffffff84000cc0:	0009b583          	ld	a1,0(s3)
ffffffff84000cc4:	0089b703          	ld	a4,8(s3)
ffffffff84000cc8:	fee584e3          	beq	a1,a4,ffffffff84000cb0 <init_freemem+0xbc>
ffffffff84000ccc:	00441793          	sll	a5,s0,0x4
ffffffff84000cd0:	97de                	add	a5,a5,s7
ffffffff84000cd2:	4b07b683          	ld	a3,1200(a5)
ffffffff84000cd6:	4b87b783          	ld	a5,1208(a5)
ffffffff84000cda:	00f6e463          	bltu	a3,a5,ffffffff84000ce2 <init_freemem+0xee>
ffffffff84000cde:	0405                	add	s0,s0,1
ffffffff84000ce0:	bfc9                	j	ffffffff84000cb2 <init_freemem+0xbe>
ffffffff84000ce2:	04e6f063          	bgeu	a3,a4,ffffffff84000d22 <init_freemem+0x12e>
ffffffff84000ce6:	04f5f863          	bgeu	a1,a5,ffffffff84000d36 <init_freemem+0x142>
ffffffff84000cea:	06b6e563          	bltu	a3,a1,ffffffff84000d54 <init_freemem+0x160>
ffffffff84000cee:	00441613          	sll	a2,s0,0x4
ffffffff84000cf2:	00001697          	auipc	a3,0x1
ffffffff84000cf6:	c6e68693          	add	a3,a3,-914 # ffffffff84001960 <ndks_boot>
ffffffff84000cfa:	96b2                	add	a3,a3,a2
ffffffff84000cfc:	00e7f363          	bgeu	a5,a4,ffffffff84000d02 <init_freemem+0x10e>
ffffffff84000d00:	873e                	mv	a4,a5
ffffffff84000d02:	4ae6b823          	sd	a4,1200(a3)
ffffffff84000d06:	0089b583          	ld	a1,8(s3)
ffffffff84000d0a:	4785                	li	a5,1
ffffffff84000d0c:	179a                	sll	a5,a5,0x26
ffffffff84000d0e:	95be                	add	a1,a1,a5
ffffffff84000d10:	0009b503          	ld	a0,0(s3)
ffffffff84000d14:	953e                	add	a0,a0,a5
ffffffff84000d16:	e0aa                	sd	a0,64(sp)
ffffffff84000d18:	e4ae                	sd	a1,72(sp)
ffffffff84000d1a:	d60ff0ef          	jal	ffffffff8400027a <reserve_region>
ffffffff84000d1e:	0485                	add	s1,s1,1
ffffffff84000d20:	bf49                	j	ffffffff84000cb2 <init_freemem+0xbe>
ffffffff84000d22:	01858533          	add	a0,a1,s8
ffffffff84000d26:	f82a                	sd	a0,48(sp)
ffffffff84000d28:	018705b3          	add	a1,a4,s8
ffffffff84000d2c:	fc2e                	sd	a1,56(sp)
ffffffff84000d2e:	d4cff0ef          	jal	ffffffff8400027a <reserve_region>
ffffffff84000d32:	0485                	add	s1,s1,1
ffffffff84000d34:	bfbd                	j	ffffffff84000cb2 <init_freemem+0xbe>
ffffffff84000d36:	00441713          	sll	a4,s0,0x4
ffffffff84000d3a:	00001797          	auipc	a5,0x1
ffffffff84000d3e:	c2678793          	add	a5,a5,-986 # ffffffff84001960 <ndks_boot>
ffffffff84000d42:	97ba                	add	a5,a5,a4
ffffffff84000d44:	4b07b503          	ld	a0,1200(a5)
ffffffff84000d48:	4b87b583          	ld	a1,1208(a5)
ffffffff84000d4c:	f46ff0ef          	jal	ffffffff84000492 <insert_region>
ffffffff84000d50:	0405                	add	s0,s0,1
ffffffff84000d52:	b785                	j	ffffffff84000cb2 <init_freemem+0xbe>
ffffffff84000d54:	00441793          	sll	a5,s0,0x4
ffffffff84000d58:	00001c97          	auipc	s9,0x1
ffffffff84000d5c:	c08c8c93          	add	s9,s9,-1016 # ffffffff84001960 <ndks_boot>
ffffffff84000d60:	9cbe                	add	s9,s9,a5
ffffffff84000d62:	4b0cb503          	ld	a0,1200(s9)
ffffffff84000d66:	f02a                	sd	a0,32(sp)
ffffffff84000d68:	f42e                	sd	a1,40(sp)
ffffffff84000d6a:	f28ff0ef          	jal	ffffffff84000492 <insert_region>
ffffffff84000d6e:	0089b783          	ld	a5,8(s3)
ffffffff84000d72:	4b8cb703          	ld	a4,1208(s9)
ffffffff84000d76:	00e7e463          	bltu	a5,a4,ffffffff84000d7e <init_freemem+0x18a>
ffffffff84000d7a:	0405                	add	s0,s0,1
ffffffff84000d7c:	bf1d                	j	ffffffff84000cb2 <init_freemem+0xbe>
ffffffff84000d7e:	4afcb823          	sd	a5,1200(s9)
ffffffff84000d82:	0009b503          	ld	a0,0(s3)
ffffffff84000d86:	4705                	li	a4,1
ffffffff84000d88:	171a                	sll	a4,a4,0x26
ffffffff84000d8a:	953a                	add	a0,a0,a4
ffffffff84000d8c:	e8aa                	sd	a0,80(sp)
ffffffff84000d8e:	00e785b3          	add	a1,a5,a4
ffffffff84000d92:	ecae                	sd	a1,88(sp)
ffffffff84000d94:	ce6ff0ef          	jal	ffffffff8400027a <reserve_region>
ffffffff84000d98:	0485                	add	s1,s1,1
ffffffff84000d9a:	bf21                	j	ffffffff84000cb2 <init_freemem+0xbe>
ffffffff84000d9c:	0485                	add	s1,s1,1
ffffffff84000d9e:	09c1                	add	s3,s3,16
ffffffff84000da0:	0144ff63          	bgeu	s1,s4,ffffffff84000dbe <init_freemem+0x1ca>
ffffffff84000da4:	0009b503          	ld	a0,0(s3)
ffffffff84000da8:	0089b583          	ld	a1,8(s3)
ffffffff84000dac:	feb578e3          	bgeu	a0,a1,ffffffff84000d9c <init_freemem+0x1a8>
ffffffff84000db0:	955a                	add	a0,a0,s6
ffffffff84000db2:	f0aa                	sd	a0,96(sp)
ffffffff84000db4:	95da                	add	a1,a1,s6
ffffffff84000db6:	f4ae                	sd	a1,104(sp)
ffffffff84000db8:	cc2ff0ef          	jal	ffffffff8400027a <reserve_region>
ffffffff84000dbc:	b7c5                	j	ffffffff84000d9c <init_freemem+0x1a8>
ffffffff84000dbe:	19247763          	bgeu	s0,s2,ffffffff84000f4c <init_freemem+0x358>
ffffffff84000dc2:	00441793          	sll	a5,s0,0x4
ffffffff84000dc6:	00001497          	auipc	s1,0x1
ffffffff84000dca:	04a48493          	add	s1,s1,74 # ffffffff84001e10 <avail_reg>
ffffffff84000dce:	94be                	add	s1,s1,a5
ffffffff84000dd0:	00001997          	auipc	s3,0x1
ffffffff84000dd4:	b9098993          	add	s3,s3,-1136 # ffffffff84001960 <ndks_boot>
ffffffff84000dd8:	a039                	j	ffffffff84000de6 <init_freemem+0x1f2>
ffffffff84000dda:	8452                	mv	s0,s4
ffffffff84000ddc:	b7dd                	j	ffffffff84000dc2 <init_freemem+0x1ce>
ffffffff84000dde:	0405                	add	s0,s0,1
ffffffff84000de0:	04c1                	add	s1,s1,16
ffffffff84000de2:	16890563          	beq	s2,s0,ffffffff84000f4c <init_freemem+0x358>
ffffffff84000de6:	6098                	ld	a4,0(s1)
ffffffff84000de8:	649c                	ld	a5,8(s1)
ffffffff84000dea:	fef77ae3          	bgeu	a4,a5,ffffffff84000dde <init_freemem+0x1ea>
ffffffff84000dee:	00441793          	sll	a5,s0,0x4
ffffffff84000df2:	97ce                	add	a5,a5,s3
ffffffff84000df4:	4b07b503          	ld	a0,1200(a5)
ffffffff84000df8:	4b87b583          	ld	a1,1208(a5)
ffffffff84000dfc:	e96ff0ef          	jal	ffffffff84000492 <insert_region>
ffffffff84000e00:	bff9                	j	ffffffff84000dde <init_freemem+0x1ea>
ffffffff84000e02:	6782                	ld	a5,0(sp)
ffffffff84000e04:	f03e                	sd	a5,32(sp)
ffffffff84000e06:	67a2                	ld	a5,8(sp)
ffffffff84000e08:	f43e                	sd	a5,40(sp)
ffffffff84000e0a:	89d6                	mv	s3,s5
ffffffff84000e0c:	180a8263          	beqz	s5,ffffffff84000f90 <init_freemem+0x39c>
ffffffff84000e10:	aaad                	j	ffffffff84000f8a <init_freemem+0x396>
ffffffff84000e12:	6394                	ld	a3,0(a5)
ffffffff84000e14:	eb94                	sd	a3,16(a5)
ffffffff84000e16:	6794                	ld	a3,8(a5)
ffffffff84000e18:	ef94                	sd	a3,24(a5)
ffffffff84000e1a:	0007b023          	sd	zero,0(a5)
ffffffff84000e1e:	0007b423          	sd	zero,8(a5)
ffffffff84000e22:	347d                	addw	s0,s0,-1
ffffffff84000e24:	1741                	add	a4,a4,-16
ffffffff84000e26:	0ea40663          	beq	s0,a0,ffffffff84000f12 <init_freemem+0x31e>
ffffffff84000e2a:	87ba                	mv	a5,a4
ffffffff84000e2c:	6710                	ld	a2,8(a4)
ffffffff84000e2e:	412606b3          	sub	a3,a2,s2
ffffffff84000e32:	fed660e3          	bltu	a2,a3,ffffffff84000e12 <init_freemem+0x21e>
ffffffff84000e36:	00b6d6b3          	srl	a3,a3,a1
ffffffff84000e3a:	00b694b3          	sll	s1,a3,a1
ffffffff84000e3e:	6314                	ld	a3,0(a4)
ffffffff84000e40:	fcd4e9e3          	bltu	s1,a3,ffffffff84000e12 <init_freemem+0x21e>
ffffffff84000e44:	00140b9b          	addw	s7,s0,1
ffffffff84000e48:	6502                	ld	a0,0(sp)
ffffffff84000e4a:	e82a                	sd	a0,16(sp)
ffffffff84000e4c:	65a2                	ld	a1,8(sp)
ffffffff84000e4e:	ec2e                	sd	a1,24(sp)
ffffffff84000e50:	f02a                	sd	a0,32(sp)
ffffffff84000e52:	f42e                	sd	a1,40(sp)
ffffffff84000e54:	ae8ff0ef          	jal	ffffffff8400013c <arch_get_n_paging>
ffffffff84000e58:	00001b17          	auipc	s6,0x1
ffffffff84000e5c:	b08b0b13          	add	s6,s6,-1272 # ffffffff84001960 <ndks_boot>
ffffffff84000e60:	4a9b3023          	sd	s1,1184(s6)
ffffffff84000e64:	99a6                	add	s3,s3,s1
ffffffff84000e66:	00c51793          	sll	a5,a0,0xc
ffffffff84000e6a:	99be                	add	s3,s3,a5
ffffffff84000e6c:	4b3b3423          	sd	s3,1192(s6)
ffffffff84000e70:	85d6                	mv	a1,s5
ffffffff84000e72:	8552                	mv	a0,s4
ffffffff84000e74:	d55ff0ef          	jal	ffffffff84000bc8 <maybe_alloc_extra_bi>
ffffffff84000e78:	4585                	li	a1,1
ffffffff84000e7a:	4561                	li	a0,24
ffffffff84000e7c:	d1fff0ef          	jal	ffffffff84000b9a <alloc_rootserver_obj>
ffffffff84000e80:	44ab3c23          	sd	a0,1112(s6)
ffffffff84000e84:	85d6                	mv	a1,s5
ffffffff84000e86:	4531                	li	a0,12
ffffffff84000e88:	d41ff0ef          	jal	ffffffff84000bc8 <maybe_alloc_extra_bi>
ffffffff84000e8c:	4585                	li	a1,1
ffffffff84000e8e:	4531                	li	a0,12
ffffffff84000e90:	d0bff0ef          	jal	ffffffff84000b9a <alloc_rootserver_obj>
ffffffff84000e94:	46ab3023          	sd	a0,1120(s6)
ffffffff84000e98:	85d6                	mv	a1,s5
ffffffff84000e9a:	4531                	li	a0,12
ffffffff84000e9c:	d2dff0ef          	jal	ffffffff84000bc8 <maybe_alloc_extra_bi>
ffffffff84000ea0:	4585                	li	a1,1
ffffffff84000ea2:	4531                	li	a0,12
ffffffff84000ea4:	cf7ff0ef          	jal	ffffffff84000b9a <alloc_rootserver_obj>
ffffffff84000ea8:	46ab3423          	sd	a0,1128(s6)
ffffffff84000eac:	4585                	li	a1,1
ffffffff84000eae:	4531                	li	a0,12
ffffffff84000eb0:	cebff0ef          	jal	ffffffff84000b9a <alloc_rootserver_obj>
ffffffff84000eb4:	46ab3823          	sd	a0,1136(s6)
ffffffff84000eb8:	4585                	li	a1,1
ffffffff84000eba:	4531                	li	a0,12
ffffffff84000ebc:	cdfff0ef          	jal	ffffffff84000b9a <alloc_rootserver_obj>
ffffffff84000ec0:	46ab3c23          	sd	a0,1144(s6)
ffffffff84000ec4:	6542                	ld	a0,16(sp)
ffffffff84000ec6:	65e2                	ld	a1,24(sp)
ffffffff84000ec8:	a74ff0ef          	jal	ffffffff8400013c <arch_get_n_paging>
ffffffff84000ecc:	89aa                	mv	s3,a0
ffffffff84000ece:	85aa                	mv	a1,a0
ffffffff84000ed0:	4531                	li	a0,12
ffffffff84000ed2:	cc9ff0ef          	jal	ffffffff84000b9a <alloc_rootserver_obj>
ffffffff84000ed6:	48ab3823          	sd	a0,1168(s6)
ffffffff84000eda:	00c99793          	sll	a5,s3,0xc
ffffffff84000ede:	97aa                	add	a5,a5,a0
ffffffff84000ee0:	48fb3c23          	sd	a5,1176(s6)
ffffffff84000ee4:	4585                	li	a1,1
ffffffff84000ee6:	4529                	li	a0,10
ffffffff84000ee8:	cb3ff0ef          	jal	ffffffff84000b9a <alloc_rootserver_obj>
ffffffff84000eec:	48ab3423          	sd	a0,1160(s6)
ffffffff84000ef0:	03440793          	add	a5,s0,52
ffffffff84000ef4:	0792                	sll	a5,a5,0x4
ffffffff84000ef6:	97da                	add	a5,a5,s6
ffffffff84000ef8:	6b94                	ld	a3,16(a5)
ffffffff84000efa:	034b8713          	add	a4,s7,52
ffffffff84000efe:	0712                	sll	a4,a4,0x4
ffffffff84000f00:	9b3a                	add	s6,s6,a4
ffffffff84000f02:	9926                	add	s2,s2,s1
ffffffff84000f04:	012b3423          	sd	s2,8(s6)
ffffffff84000f08:	00db3823          	sd	a3,16(s6)
ffffffff84000f0c:	eb84                	sd	s1,16(a5)
ffffffff84000f0e:	4505                	li	a0,1
ffffffff84000f10:	a021                	j	ffffffff84000f18 <init_freemem+0x324>
ffffffff84000f12:	4501                	li	a0,0
ffffffff84000f14:	a011                	j	ffffffff84000f18 <init_freemem+0x324>
ffffffff84000f16:	4501                	li	a0,0
ffffffff84000f18:	60ae                	ld	ra,200(sp)
ffffffff84000f1a:	640e                	ld	s0,192(sp)
ffffffff84000f1c:	74ea                	ld	s1,184(sp)
ffffffff84000f1e:	794a                	ld	s2,176(sp)
ffffffff84000f20:	79aa                	ld	s3,168(sp)
ffffffff84000f22:	7a0a                	ld	s4,160(sp)
ffffffff84000f24:	6aea                	ld	s5,152(sp)
ffffffff84000f26:	6b4a                	ld	s6,144(sp)
ffffffff84000f28:	6baa                	ld	s7,136(sp)
ffffffff84000f2a:	6c0a                	ld	s8,128(sp)
ffffffff84000f2c:	7ce6                	ld	s9,120(sp)
ffffffff84000f2e:	6169                	add	sp,sp,208
ffffffff84000f30:	8082                	ret
ffffffff84000f32:	4501                	li	a0,0
ffffffff84000f34:	b7d5                	j	ffffffff84000f18 <init_freemem+0x324>
ffffffff84000f36:	4501                	li	a0,0
ffffffff84000f38:	b7c5                	j	ffffffff84000f18 <init_freemem+0x324>
ffffffff84000f3a:	8556                	mv	a0,s5
ffffffff84000f3c:	bff1                	j	ffffffff84000f18 <init_freemem+0x324>
ffffffff84000f3e:	00449993          	sll	s3,s1,0x4
ffffffff84000f42:	99da                	add	s3,s3,s6
ffffffff84000f44:	4b05                	li	s6,1
ffffffff84000f46:	1b1a                	sll	s6,s6,0x26
ffffffff84000f48:	e544eee3          	bltu	s1,s4,ffffffff84000da4 <init_freemem+0x1b0>
ffffffff84000f4c:	00001797          	auipc	a5,0x1
ffffffff84000f50:	a1478793          	add	a5,a5,-1516 # ffffffff84001960 <ndks_boot>
ffffffff84000f54:	4387b703          	ld	a4,1080(a5)
ffffffff84000f58:	4407b783          	ld	a5,1088(a5)
ffffffff84000f5c:	4501                	li	a0,0
ffffffff84000f5e:	faf71de3          	bne	a4,a5,ffffffff84000f18 <init_freemem+0x324>
ffffffff84000f62:	00001797          	auipc	a5,0x1
ffffffff84000f66:	e3678793          	add	a5,a5,-458 # ffffffff84001d98 <ndks_boot+0x438>
ffffffff84000f6a:	443d                	li	s0,15
ffffffff84000f6c:	567d                	li	a2,-1
ffffffff84000f6e:	6394                	ld	a3,0(a5)
ffffffff84000f70:	6798                	ld	a4,8(a5)
ffffffff84000f72:	e8e698e3          	bne	a3,a4,ffffffff84000e02 <init_freemem+0x20e>
ffffffff84000f76:	347d                	addw	s0,s0,-1
ffffffff84000f78:	17c1                	add	a5,a5,-16
ffffffff84000f7a:	fec41ae3          	bne	s0,a2,ffffffff84000f6e <init_freemem+0x37a>
ffffffff84000f7e:	6782                	ld	a5,0(sp)
ffffffff84000f80:	f03e                	sd	a5,32(sp)
ffffffff84000f82:	67a2                	ld	a5,8(sp)
ffffffff84000f84:	f43e                	sd	a5,40(sp)
ffffffff84000f86:	fa0a8ae3          	beqz	s5,ffffffff84000f3a <init_freemem+0x346>
ffffffff84000f8a:	4985                	li	s3,1
ffffffff84000f8c:	015999b3          	sll	s3,s3,s5
ffffffff84000f90:	010047b7          	lui	a5,0x1004
ffffffff84000f94:	40078793          	add	a5,a5,1024 # 1004400 <KERNEL_OFFSET-0xfffffffefeffbc00>
ffffffff84000f98:	99be                	add	s3,s3,a5
ffffffff84000f9a:	7502                	ld	a0,32(sp)
ffffffff84000f9c:	75a2                	ld	a1,40(sp)
ffffffff84000f9e:	99eff0ef          	jal	ffffffff8400013c <arch_get_n_paging>
ffffffff84000fa2:	00c51913          	sll	s2,a0,0xc
ffffffff84000fa6:	994e                	add	s2,s2,s3
ffffffff84000fa8:	8a56                	mv	s4,s5
ffffffff84000faa:	47e1                	li	a5,24
ffffffff84000fac:	00faf363          	bgeu	s5,a5,ffffffff84000fb2 <init_freemem+0x3be>
ffffffff84000fb0:	4a61                	li	s4,24
ffffffff84000fb2:	f80442e3          	bltz	s0,ffffffff84000f36 <init_freemem+0x342>
ffffffff84000fb6:	00441713          	sll	a4,s0,0x4
ffffffff84000fba:	00001797          	auipc	a5,0x1
ffffffff84000fbe:	cee78793          	add	a5,a5,-786 # ffffffff84001ca8 <ndks_boot+0x348>
ffffffff84000fc2:	973e                	add	a4,a4,a5
ffffffff84000fc4:	000a059b          	sext.w	a1,s4
ffffffff84000fc8:	557d                	li	a0,-1
ffffffff84000fca:	b585                	j	ffffffff84000e2a <init_freemem+0x236>
ffffffff84000fcc:	87da                	mv	a5,s6
ffffffff84000fce:	4701                	li	a4,0
ffffffff84000fd0:	c60a1de3          	bnez	s4,ffffffff84000c4a <init_freemem+0x56>
ffffffff84000fd4:	00001797          	auipc	a5,0x1
ffffffff84000fd8:	cd478793          	add	a5,a5,-812 # ffffffff84001ca8 <ndks_boot+0x348>
ffffffff84000fdc:	00001717          	auipc	a4,0x1
ffffffff84000fe0:	dcc70713          	add	a4,a4,-564 # ffffffff84001da8 <ndks_boot+0x448>
ffffffff84000fe4:	0007b023          	sd	zero,0(a5)
ffffffff84000fe8:	0007b423          	sd	zero,8(a5)
ffffffff84000fec:	07c1                	add	a5,a5,16
ffffffff84000fee:	fee79be3          	bne	a5,a4,ffffffff84000fe4 <init_freemem+0x3f0>
ffffffff84000ff2:	00001717          	auipc	a4,0x1
ffffffff84000ff6:	e2670713          	add	a4,a4,-474 # ffffffff84001e18 <avail_reg+0x8>
ffffffff84000ffa:	00491e13          	sll	t3,s2,0x4
ffffffff84000ffe:	9e2e                	add	t3,t3,a1
ffffffff84001000:	537d                	li	t1,-1
ffffffff84001002:	131a                	sll	t1,t1,0x26
ffffffff84001004:	07f00893          	li	a7,127
ffffffff84001008:	08fe                	sll	a7,a7,0x1f
ffffffff8400100a:	80000eb7          	lui	t4,0x80000
ffffffff8400100e:	4585                	li	a1,1
ffffffff84001010:	159a                	sll	a1,a1,0x26
ffffffff84001012:	b9b9                	j	ffffffff84000c70 <init_freemem+0x7c>

ffffffff84001014 <calculate_extra_bi_size_bits>:
ffffffff84001014:	1141                	add	sp,sp,-16
ffffffff84001016:	e406                	sd	ra,8(sp)
ffffffff84001018:	e022                	sd	s0,0(sp)
ffffffff8400101a:	842a                	mv	s0,a0
ffffffff8400101c:	c50d                	beqz	a0,ffffffff84001046 <calculate_extra_bi_size_bits+0x32>
ffffffff8400101e:	157d                	add	a0,a0,-1
ffffffff84001020:	8131                	srl	a0,a0,0xc
ffffffff84001022:	0505                	add	a0,a0,1
ffffffff84001024:	0532                	sll	a0,a0,0xc
ffffffff84001026:	6ac070ef          	jal	ffffffff840086d2 <__clzdi2>
ffffffff8400102a:	872a                	mv	a4,a0
ffffffff8400102c:	03f00793          	li	a5,63
ffffffff84001030:	40a78533          	sub	a0,a5,a0
ffffffff84001034:	4785                	li	a5,1
ffffffff84001036:	00a797b3          	sll	a5,a5,a0
ffffffff8400103a:	0087f663          	bgeu	a5,s0,ffffffff84001046 <calculate_extra_bi_size_bits+0x32>
ffffffff8400103e:	04000793          	li	a5,64
ffffffff84001042:	40e78533          	sub	a0,a5,a4
ffffffff84001046:	60a2                	ld	ra,8(sp)
ffffffff84001048:	6402                	ld	s0,0(sp)
ffffffff8400104a:	0141                	add	sp,sp,16
ffffffff8400104c:	8082                	ret

ffffffff8400104e <populate_bi_frame>:
ffffffff8400104e:	7179                	add	sp,sp,-48
ffffffff84001050:	f406                	sd	ra,40(sp)
ffffffff84001052:	f022                	sd	s0,32(sp)
ffffffff84001054:	ec26                	sd	s1,24(sp)
ffffffff84001056:	e84a                	sd	s2,16(sp)
ffffffff84001058:	e44e                	sd	s3,8(sp)
ffffffff8400105a:	89aa                	mv	s3,a0
ffffffff8400105c:	892e                	mv	s2,a1
ffffffff8400105e:	84b2                	mv	s1,a2
ffffffff84001060:	8436                	mv	s0,a3
ffffffff84001062:	6585                	lui	a1,0x1
ffffffff84001064:	00001517          	auipc	a0,0x1
ffffffff84001068:	d7453503          	ld	a0,-652(a0) # ffffffff84001dd8 <rootserver+0x20>
ffffffff8400106c:	68a060ef          	jal	ffffffff840076f6 <memzero>
ffffffff84001070:	e439                	bnez	s0,ffffffff840010be <populate_bi_frame+0x70>
ffffffff84001072:	00001717          	auipc	a4,0x1
ffffffff84001076:	8ee70713          	add	a4,a4,-1810 # ffffffff84001960 <ndks_boot>
ffffffff8400107a:	47873783          	ld	a5,1144(a4)
ffffffff8400107e:	0137b423          	sd	s3,8(a5)
ffffffff84001082:	0127b823          	sd	s2,16(a5)
ffffffff84001086:	0007bc23          	sd	zero,24(a5)
ffffffff8400108a:	f384                	sd	s1,32(a5)
ffffffff8400108c:	46cd                	li	a3,19
ffffffff8400108e:	e7d4                	sd	a3,136(a5)
ffffffff84001090:	8981b603          	ld	a2,-1896(gp) # ffffffff84008cb0 <ksDomScheduleIdx>
ffffffff84001094:	0612                	sll	a2,a2,0x4
ffffffff84001096:	00008697          	auipc	a3,0x8
ffffffff8400109a:	b8a68693          	add	a3,a3,-1142 # ffffffff84008c20 <ksDomSchedule>
ffffffff8400109e:	96b2                	add	a3,a3,a2
ffffffff840010a0:	6294                	ld	a3,0(a3)
ffffffff840010a2:	ebd4                	sd	a3,144(a5)
ffffffff840010a4:	e380                	sd	s0,0(a5)
ffffffff840010a6:	44f73423          	sd	a5,1096(a4)
ffffffff840010aa:	47c1                	li	a5,16
ffffffff840010ac:	44f73823          	sd	a5,1104(a4)
ffffffff840010b0:	70a2                	ld	ra,40(sp)
ffffffff840010b2:	7402                	ld	s0,32(sp)
ffffffff840010b4:	64e2                	ld	s1,24(sp)
ffffffff840010b6:	6942                	ld	s2,16(sp)
ffffffff840010b8:	69a2                	ld	s3,8(sp)
ffffffff840010ba:	6145                	add	sp,sp,48
ffffffff840010bc:	8082                	ret
ffffffff840010be:	8522                	mv	a0,s0
ffffffff840010c0:	f55ff0ef          	jal	ffffffff84001014 <calculate_extra_bi_size_bits>
ffffffff840010c4:	4585                	li	a1,1
ffffffff840010c6:	00a595b3          	sll	a1,a1,a0
ffffffff840010ca:	00001517          	auipc	a0,0x1
ffffffff840010ce:	d1653503          	ld	a0,-746(a0) # ffffffff84001de0 <rootserver+0x28>
ffffffff840010d2:	624060ef          	jal	ffffffff840076f6 <memzero>
ffffffff840010d6:	bf71                	j	ffffffff84001072 <populate_bi_frame+0x24>

ffffffff840010d8 <create_untypeds_for_region>:
ffffffff840010d8:	7131                	add	sp,sp,-192
ffffffff840010da:	fd06                	sd	ra,184(sp)
ffffffff840010dc:	f922                	sd	s0,176(sp)
ffffffff840010de:	f526                	sd	s1,168(sp)
ffffffff840010e0:	f14a                	sd	s2,160(sp)
ffffffff840010e2:	ed4e                	sd	s3,152(sp)
ffffffff840010e4:	e952                	sd	s4,144(sp)
ffffffff840010e6:	e556                	sd	s5,136(sp)
ffffffff840010e8:	e15a                	sd	s6,128(sp)
ffffffff840010ea:	fcde                	sd	s7,120(sp)
ffffffff840010ec:	f8e2                	sd	s8,112(sp)
ffffffff840010ee:	f4e6                	sd	s9,104(sp)
ffffffff840010f0:	f0ea                	sd	s10,96(sp)
ffffffff840010f2:	ecee                	sd	s11,88(sp)
ffffffff840010f4:	f02a                	sd	a0,32(sp)
ffffffff840010f6:	f42e                	sd	a1,40(sp)
ffffffff840010f8:	e43e                	sd	a5,8(sp)
ffffffff840010fa:	04e68b63          	beq	a3,a4,ffffffff84001150 <create_untypeds_for_region+0x78>
ffffffff840010fe:	8bb2                	mv	s7,a2
ffffffff84001100:	84b6                	mv	s1,a3
ffffffff84001102:	89ba                	mv	s3,a4
ffffffff84001104:	00661c13          	sll	s8,a2,0x6
ffffffff84001108:	040c7c13          	and	s8,s8,64
ffffffff8400110c:	03f00b13          	li	s6,63
ffffffff84001110:	02600a93          	li	s5,38
ffffffff84001114:	00001c97          	auipc	s9,0x1
ffffffff84001118:	84cc8c93          	add	s9,s9,-1972 # ffffffff84001960 <ndks_boot>
ffffffff8400111c:	4a05                	li	s4,1
ffffffff8400111e:	026a1d93          	sll	s11,s4,0x26
ffffffff84001122:	57fd                	li	a5,-1
ffffffff84001124:	0197dd13          	srl	s10,a5,0x19
ffffffff84001128:	03ca1793          	sll	a5,s4,0x3c
ffffffff8400112c:	e03e                	sd	a5,0(sp)
ffffffff8400112e:	a87d                	j	ffffffff840011ec <create_untypeds_for_region+0x114>
ffffffff84001130:	4505                	li	a0,1
ffffffff84001132:	70ea                	ld	ra,184(sp)
ffffffff84001134:	744a                	ld	s0,176(sp)
ffffffff84001136:	74aa                	ld	s1,168(sp)
ffffffff84001138:	790a                	ld	s2,160(sp)
ffffffff8400113a:	69ea                	ld	s3,152(sp)
ffffffff8400113c:	6a4a                	ld	s4,144(sp)
ffffffff8400113e:	6aaa                	ld	s5,136(sp)
ffffffff84001140:	6b0a                	ld	s6,128(sp)
ffffffff84001142:	7be6                	ld	s7,120(sp)
ffffffff84001144:	7c46                	ld	s8,112(sp)
ffffffff84001146:	7ca6                	ld	s9,104(sp)
ffffffff84001148:	7d06                	ld	s10,96(sp)
ffffffff8400114a:	6de6                	ld	s11,88(sp)
ffffffff8400114c:	6129                	add	sp,sp,192
ffffffff8400114e:	8082                	ret
ffffffff84001150:	4505                	li	a0,1
ffffffff84001152:	b7c5                	j	ffffffff84001132 <create_untypeds_for_region+0x5a>
ffffffff84001154:	7782                	ld	a5,32(sp)
ffffffff84001156:	f83e                	sd	a5,48(sp)
ffffffff84001158:	77a2                	ld	a5,40(sp)
ffffffff8400115a:	fc3e                	sd	a5,56(sp)
ffffffff8400115c:	020b9663          	bnez	s7,ffffffff84001188 <create_untypeds_for_region+0xb0>
ffffffff84001160:	4785                	li	a5,1
ffffffff84001162:	179a                	sll	a5,a5,0x26
ffffffff84001164:	97a6                	add	a5,a5,s1
ffffffff84001166:	07f00713          	li	a4,127
ffffffff8400116a:	077e                	sll	a4,a4,0x1f
ffffffff8400116c:	0ce7f963          	bgeu	a5,a4,ffffffff8400123e <create_untypeds_for_region+0x166>
ffffffff84001170:	4785                	li	a5,1
ffffffff84001172:	008797b3          	sll	a5,a5,s0
ffffffff84001176:	577d                	li	a4,-1
ffffffff84001178:	8369                	srl	a4,a4,0x1a
ffffffff8400117a:	9726                	add	a4,a4,s1
ffffffff8400117c:	97ba                	add	a5,a5,a4
ffffffff8400117e:	07f00713          	li	a4,127
ffffffff84001182:	077e                	sll	a4,a4,0x1f
ffffffff84001184:	0ae7fd63          	bgeu	a5,a4,ffffffff8400123e <create_untypeds_for_region+0x166>
ffffffff84001188:	450cb703          	ld	a4,1104(s9)
ffffffff8400118c:	67a2                	ld	a5,8(sp)
ffffffff8400118e:	8f1d                	sub	a4,a4,a5
ffffffff84001190:	03100793          	li	a5,49
ffffffff84001194:	04e7e763          	bltu	a5,a4,ffffffff840011e2 <create_untypeds_for_region+0x10a>
ffffffff84001198:	0712                	sll	a4,a4,0x4
ffffffff8400119a:	448cb783          	ld	a5,1096(s9)
ffffffff8400119e:	97ba                	add	a5,a5,a4
ffffffff840011a0:	0a07b823          	sd	zero,176(a5)
ffffffff840011a4:	01b48733          	add	a4,s1,s11
ffffffff840011a8:	f7d8                	sd	a4,168(a5)
ffffffff840011aa:	0a878823          	sb	s0,176(a5)
ffffffff840011ae:	0b7788a3          	sb	s7,177(a5)
ffffffff840011b2:	01a4f633          	and	a2,s1,s10
ffffffff840011b6:	ffc4079b          	addw	a5,s0,-4
ffffffff840011ba:	00fa17b3          	sll	a5,s4,a5
ffffffff840011be:	07e6                	sll	a5,a5,0x19
ffffffff840011c0:	02041693          	sll	a3,s0,0x20
ffffffff840011c4:	9281                	srl	a3,a3,0x20
ffffffff840011c6:	0186e6b3          	or	a3,a3,s8
ffffffff840011ca:	6702                	ld	a4,0(sp)
ffffffff840011cc:	8e59                	or	a2,a2,a4
ffffffff840011ce:	8edd                	or	a3,a3,a5
ffffffff840011d0:	7542                	ld	a0,48(sp)
ffffffff840011d2:	75e2                	ld	a1,56(sp)
ffffffff840011d4:	d46ff0ef          	jal	ffffffff8400071a <provide_cap>
ffffffff840011d8:	e509                	bnez	a0,ffffffff840011e2 <create_untypeds_for_region+0x10a>
ffffffff840011da:	bfa1                	j	ffffffff84001132 <create_untypeds_for_region+0x5a>
ffffffff840011dc:	470d                	li	a4,3
ffffffff840011de:	f6f76be3          	bltu	a4,a5,ffffffff84001154 <create_untypeds_for_region+0x7c>
ffffffff840011e2:	008a1433          	sll	s0,s4,s0
ffffffff840011e6:	94a2                	add	s1,s1,s0
ffffffff840011e8:	f53484e3          	beq	s1,s3,ffffffff84001130 <create_untypeds_for_region+0x58>
ffffffff840011ec:	40998533          	sub	a0,s3,s1
ffffffff840011f0:	4e2070ef          	jal	ffffffff840086d2 <__clzdi2>
ffffffff840011f4:	40ab053b          	subw	a0,s6,a0
ffffffff840011f8:	0005079b          	sext.w	a5,a0
ffffffff840011fc:	892a                	mv	s2,a0
ffffffff840011fe:	00faf463          	bgeu	s5,a5,ffffffff84001206 <create_untypeds_for_region+0x12e>
ffffffff84001202:	02600913          	li	s2,38
ffffffff84001206:	0009041b          	sext.w	s0,s2
ffffffff8400120a:	d8e9                	beqz	s1,ffffffff840011dc <create_untypeds_for_region+0x104>
ffffffff8400120c:	8526                	mv	a0,s1
ffffffff8400120e:	199070ef          	jal	ffffffff84008ba6 <__ctzdi2>
ffffffff84001212:	842a                	mv	s0,a0
ffffffff84001214:	2501                	sext.w	a0,a0
ffffffff84001216:	0009079b          	sext.w	a5,s2
ffffffff8400121a:	00a7f363          	bgeu	a5,a0,ffffffff84001220 <create_untypeds_for_region+0x148>
ffffffff8400121e:	844a                	mv	s0,s2
ffffffff84001220:	2401                	sext.w	s0,s0
ffffffff84001222:	478d                	li	a5,3
ffffffff84001224:	fa87ffe3          	bgeu	a5,s0,ffffffff840011e2 <create_untypeds_for_region+0x10a>
ffffffff84001228:	7782                	ld	a5,32(sp)
ffffffff8400122a:	f83e                	sd	a5,48(sp)
ffffffff8400122c:	77a2                	ld	a5,40(sp)
ffffffff8400122e:	fc3e                	sd	a5,56(sp)
ffffffff84001230:	57fd                	li	a5,-1
ffffffff84001232:	008797b3          	sll	a5,a5,s0
ffffffff84001236:	fff7c793          	not	a5,a5
ffffffff8400123a:	8fe5                	and	a5,a5,s1
ffffffff8400123c:	d385                	beqz	a5,ffffffff8400115c <create_untypeds_for_region+0x84>
ffffffff8400123e:	4501                	li	a0,0
ffffffff84001240:	bdcd                	j	ffffffff84001132 <create_untypeds_for_region+0x5a>

ffffffff84001242 <create_untypeds>:
ffffffff84001242:	7159                	add	sp,sp,-112
ffffffff84001244:	f486                	sd	ra,104(sp)
ffffffff84001246:	f0a2                	sd	s0,96(sp)
ffffffff84001248:	eca6                	sd	s1,88(sp)
ffffffff8400124a:	e8ca                	sd	s2,80(sp)
ffffffff8400124c:	e4ce                	sd	s3,72(sp)
ffffffff8400124e:	e0d2                	sd	s4,64(sp)
ffffffff84001250:	fc56                	sd	s5,56(sp)
ffffffff84001252:	e02a                	sd	a0,0(sp)
ffffffff84001254:	e42e                	sd	a1,8(sp)
ffffffff84001256:	00000797          	auipc	a5,0x0
ffffffff8400125a:	70a78793          	add	a5,a5,1802 # ffffffff84001960 <ndks_boot>
ffffffff8400125e:	4507b903          	ld	s2,1104(a5)
ffffffff84001262:	3407b683          	ld	a3,832(a5)
ffffffff84001266:	c6e9                	beqz	a3,ffffffff84001330 <create_untypeds+0xee>
ffffffff84001268:	843e                	mv	s0,a5
ffffffff8400126a:	4481                	li	s1,0
ffffffff8400126c:	4681                	li	a3,0
ffffffff8400126e:	5afd                	li	s5,-1
ffffffff84001270:	1a9a                	sll	s5,s5,0x26
ffffffff84001272:	8a3e                	mv	s4,a5
ffffffff84001274:	a809                	j	ffffffff84001286 <create_untypeds+0x44>
ffffffff84001276:	0089b683          	ld	a3,8(s3)
ffffffff8400127a:	0485                	add	s1,s1,1
ffffffff8400127c:	0441                	add	s0,s0,16
ffffffff8400127e:	340a3783          	ld	a5,832(s4)
ffffffff84001282:	02f4fa63          	bgeu	s1,a5,ffffffff840012b6 <create_untypeds+0x74>
ffffffff84001286:	89a2                	mv	s3,s0
ffffffff84001288:	6018                	ld	a4,0(s0)
ffffffff8400128a:	fee6f6e3          	bgeu	a3,a4,ffffffff84001276 <create_untypeds+0x34>
ffffffff8400128e:	96d6                	add	a3,a3,s5
ffffffff84001290:	e836                	sd	a3,16(sp)
ffffffff84001292:	9756                	add	a4,a4,s5
ffffffff84001294:	ec3a                	sd	a4,24(sp)
ffffffff84001296:	87ca                	mv	a5,s2
ffffffff84001298:	4605                	li	a2,1
ffffffff8400129a:	6502                	ld	a0,0(sp)
ffffffff8400129c:	65a2                	ld	a1,8(sp)
ffffffff8400129e:	e3bff0ef          	jal	ffffffff840010d8 <create_untypeds_for_region>
ffffffff840012a2:	f971                	bnez	a0,ffffffff84001276 <create_untypeds+0x34>
ffffffff840012a4:	70a6                	ld	ra,104(sp)
ffffffff840012a6:	7406                	ld	s0,96(sp)
ffffffff840012a8:	64e6                	ld	s1,88(sp)
ffffffff840012aa:	6946                	ld	s2,80(sp)
ffffffff840012ac:	69a6                	ld	s3,72(sp)
ffffffff840012ae:	6a06                	ld	s4,64(sp)
ffffffff840012b0:	7ae2                	ld	s5,56(sp)
ffffffff840012b2:	6165                	add	sp,sp,112
ffffffff840012b4:	8082                	ret
ffffffff840012b6:	57fd                	li	a5,-1
ffffffff840012b8:	83e5                	srl	a5,a5,0x19
ffffffff840012ba:	06d7fb63          	bgeu	a5,a3,ffffffff84001330 <create_untypeds+0xee>
ffffffff840012be:	87ca                	mv	a5,s2
ffffffff840012c0:	ff0216b7          	lui	a3,0xff021
ffffffff840012c4:	06ba                	sll	a3,a3,0xe
ffffffff840012c6:	00001617          	auipc	a2,0x1
ffffffff840012ca:	d3a60613          	add	a2,a2,-710 # ffffffff84002000 <ki_boot_end>
ffffffff840012ce:	fc100713          	li	a4,-63
ffffffff840012d2:	1702                	sll	a4,a4,0x20
ffffffff840012d4:	9732                	add	a4,a4,a2
ffffffff840012d6:	4601                	li	a2,0
ffffffff840012d8:	6502                	ld	a0,0(sp)
ffffffff840012da:	65a2                	ld	a1,8(sp)
ffffffff840012dc:	dfdff0ef          	jal	ffffffff840010d8 <create_untypeds_for_region>
ffffffff840012e0:	d171                	beqz	a0,ffffffff840012a4 <create_untypeds+0x62>
ffffffff840012e2:	00001417          	auipc	s0,0x1
ffffffff840012e6:	9c640413          	add	s0,s0,-1594 # ffffffff84001ca8 <ndks_boot+0x348>
ffffffff840012ea:	00001497          	auipc	s1,0x1
ffffffff840012ee:	abe48493          	add	s1,s1,-1346 # ffffffff84001da8 <ndks_boot+0x448>
ffffffff840012f2:	6014                	ld	a3,0(s0)
ffffffff840012f4:	e836                	sd	a3,16(sp)
ffffffff840012f6:	6418                	ld	a4,8(s0)
ffffffff840012f8:	ec3a                	sd	a4,24(sp)
ffffffff840012fa:	00043023          	sd	zero,0(s0)
ffffffff840012fe:	00043423          	sd	zero,8(s0)
ffffffff84001302:	87ca                	mv	a5,s2
ffffffff84001304:	4601                	li	a2,0
ffffffff84001306:	6502                	ld	a0,0(sp)
ffffffff84001308:	65a2                	ld	a1,8(sp)
ffffffff8400130a:	dcfff0ef          	jal	ffffffff840010d8 <create_untypeds_for_region>
ffffffff8400130e:	d959                	beqz	a0,ffffffff840012a4 <create_untypeds+0x62>
ffffffff84001310:	0441                	add	s0,s0,16
ffffffff84001312:	fe8490e3          	bne	s1,s0,ffffffff840012f2 <create_untypeds+0xb0>
ffffffff84001316:	00000717          	auipc	a4,0x0
ffffffff8400131a:	64a70713          	add	a4,a4,1610 # ffffffff84001960 <ndks_boot>
ffffffff8400131e:	44873783          	ld	a5,1096(a4)
ffffffff84001322:	45073703          	ld	a4,1104(a4)
ffffffff84001326:	0927bc23          	sd	s2,152(a5)
ffffffff8400132a:	f3d8                	sd	a4,160(a5)
ffffffff8400132c:	4505                	li	a0,1
ffffffff8400132e:	bf9d                	j	ffffffff840012a4 <create_untypeds+0x62>
ffffffff84001330:	57fd                	li	a5,-1
ffffffff84001332:	179a                	sll	a5,a5,0x26
ffffffff84001334:	96be                	add	a3,a3,a5
ffffffff84001336:	e836                	sd	a3,16(sp)
ffffffff84001338:	4705                	li	a4,1
ffffffff8400133a:	171a                	sll	a4,a4,0x26
ffffffff8400133c:	ec3a                	sd	a4,24(sp)
ffffffff8400133e:	87ca                	mv	a5,s2
ffffffff84001340:	4605                	li	a2,1
ffffffff84001342:	6502                	ld	a0,0(sp)
ffffffff84001344:	65a2                	ld	a1,8(sp)
ffffffff84001346:	d93ff0ef          	jal	ffffffff840010d8 <create_untypeds_for_region>
ffffffff8400134a:	f935                	bnez	a0,ffffffff840012be <create_untypeds+0x7c>
ffffffff8400134c:	bfa1                	j	ffffffff840012a4 <create_untypeds+0x62>

ffffffff8400134e <init_kernel>:
ffffffff8400134e:	712d                	add	sp,sp,-288
ffffffff84001350:	ee06                	sd	ra,280(sp)
ffffffff84001352:	ea22                	sd	s0,272(sp)
ffffffff84001354:	e626                	sd	s1,264(sp)
ffffffff84001356:	e24a                	sd	s2,256(sp)
ffffffff84001358:	fdce                	sd	s3,248(sp)
ffffffff8400135a:	f9d2                	sd	s4,240(sp)
ffffffff8400135c:	f5d6                	sd	s5,232(sp)
ffffffff8400135e:	f1da                	sd	s6,224(sp)
ffffffff84001360:	edde                	sd	s7,216(sp)
ffffffff84001362:	e9e2                	sd	s8,208(sp)
ffffffff84001364:	e5e6                	sd	s9,200(sp)
ffffffff84001366:	e1ea                	sd	s10,192(sp)
ffffffff84001368:	fd6e                	sd	s11,184(sp)
ffffffff8400136a:	89aa                	mv	s3,a0
ffffffff8400136c:	842e                	mv	s0,a1
ffffffff8400136e:	8ab2                	mv	s5,a2
ffffffff84001370:	ec36                	sd	a3,24(sp)
ffffffff84001372:	8a3a                	mv	s4,a4
ffffffff84001374:	02079493          	sll	s1,a5,0x20
ffffffff84001378:	9081                	srl	s1,s1,0x20
ffffffff8400137a:	83eff0ef          	jal	ffffffff840003b8 <map_kernel_window>
ffffffff8400137e:	deffe0ef          	jal	ffffffff8400016c <activate_kernel_vspace>
ffffffff84001382:	00001797          	auipc	a5,0x1
ffffffff84001386:	c7e78793          	add	a5,a5,-898 # ffffffff84002000 <ki_boot_end>
ffffffff8400138a:	10579073          	csrw	stvec,a5
ffffffff8400138e:	e1dfe0ef          	jal	ffffffff840001aa <initLocalIRQController>
ffffffff84001392:	e01fe0ef          	jal	ffffffff84000192 <initTimer>
ffffffff84001396:	6799                	lui	a5,0x6
ffffffff84001398:	1007b073          	csrc	sstatus,a5
ffffffff8400139c:	e53fe0ef          	jal	ffffffff840001ee <initIRQController>
ffffffff840013a0:	cc91                	beqz	s1,ffffffff840013bc <init_kernel+0x6e>
ffffffff840013a2:	01448d33          	add	s10,s1,s4
ffffffff840013a6:	034d6f63          	bltu	s10,s4,ffffffff840013e4 <init_kernel+0x96>
ffffffff840013aa:	07f00793          	li	a5,127
ffffffff840013ae:	07fe                	sll	a5,a5,0x1f
ffffffff840013b0:	02fd7a63          	bgeu	s10,a5,ffffffff840013e4 <init_kernel+0x96>
ffffffff840013b4:	01048b93          	add	s7,s1,16
ffffffff840013b8:	8dd2                	mv	s11,s4
ffffffff840013ba:	a021                	j	ffffffff840013c2 <init_kernel+0x74>
ffffffff840013bc:	8d26                	mv	s10,s1
ffffffff840013be:	8da6                	mv	s11,s1
ffffffff840013c0:	8ba6                	mv	s7,s1
ffffffff840013c2:	41540c33          	sub	s8,s0,s5
ffffffff840013c6:	6b09                	lui	s6,0x2
ffffffff840013c8:	9b62                	add	s6,s6,s8
ffffffff840013ca:	855e                	mv	a0,s7
ffffffff840013cc:	c49ff0ef          	jal	ffffffff84001014 <calculate_extra_bi_size_bits>
ffffffff840013d0:	4905                	li	s2,1
ffffffff840013d2:	00a91933          	sll	s2,s2,a0
ffffffff840013d6:	995a                	add	s2,s2,s6
ffffffff840013d8:	fefff7b7          	lui	a5,0xfefff
ffffffff840013dc:	07ba                	sll	a5,a5,0xe
ffffffff840013de:	83e9                	srl	a5,a5,0x1a
ffffffff840013e0:	0127f463          	bgeu	a5,s2,ffffffff840013e8 <init_kernel+0x9a>
ffffffff840013e4:	46c010ef          	jal	ffffffff84002850 <halt>
ffffffff840013e8:	41598cb3          	sub	s9,s3,s5
ffffffff840013ec:	ed66                	sd	s9,152(sp)
ffffffff840013ee:	f14a                	sd	s2,160(sp)
ffffffff840013f0:	00000697          	auipc	a3,0x0
ffffffff840013f4:	57068693          	add	a3,a3,1392 # ffffffff84001960 <ndks_boot>
ffffffff840013f8:	ff0217b7          	lui	a5,0xff021
ffffffff840013fc:	07ba                	sll	a5,a5,0xe
ffffffff840013fe:	5af6b823          	sd	a5,1456(a3)
ffffffff84001402:	0001f797          	auipc	a5,0x1f
ffffffff84001406:	bfe78793          	add	a5,a5,-1026 # ffffffff84020000 <ki_end>
ffffffff8400140a:	fc100713          	li	a4,-63
ffffffff8400140e:	1702                	sll	a4,a4,0x20
ffffffff84001410:	97ba                	add	a5,a5,a4
ffffffff84001412:	5af6bc23          	sd	a5,1464(a3)
ffffffff84001416:	4605                	li	a2,1
ffffffff84001418:	000d8b63          	beqz	s11,ffffffff8400142e <init_kernel+0xe0>
ffffffff8400141c:	57fd                	li	a5,-1
ffffffff8400141e:	179a                	sll	a5,a5,0x26
ffffffff84001420:	9dbe                	add	s11,s11,a5
ffffffff84001422:	5db6b023          	sd	s11,1472(a3)
ffffffff84001426:	9d3e                	add	s10,s10,a5
ffffffff84001428:	5da6b423          	sd	s10,1480(a3)
ffffffff8400142c:	4609                	li	a2,2
ffffffff8400142e:	5d7d                	li	s10,-1
ffffffff84001430:	1d1a                	sll	s10,s10,0x26
ffffffff84001432:	99ea                	add	s3,s3,s10
ffffffff84001434:	9d22                	add	s10,s10,s0
ffffffff84001436:	00001697          	auipc	a3,0x1
ffffffff8400143a:	ada68693          	add	a3,a3,-1318 # ffffffff84001f10 <res_reg>
ffffffff8400143e:	00461793          	sll	a5,a2,0x4
ffffffff84001442:	97b6                	add	a5,a5,a3
ffffffff84001444:	0137b023          	sd	s3,0(a5)
ffffffff84001448:	01a7b423          	sd	s10,8(a5)
ffffffff8400144c:	882a                	mv	a6,a0
ffffffff8400144e:	676a                	ld	a4,152(sp)
ffffffff84001450:	778a                	ld	a5,160(sp)
ffffffff84001452:	0605                	add	a2,a2,1
ffffffff84001454:	00000597          	auipc	a1,0x0
ffffffff84001458:	4fc58593          	add	a1,a1,1276 # ffffffff84001950 <avail_p_regs>
ffffffff8400145c:	4505                	li	a0,1
ffffffff8400145e:	f96ff0ef          	jal	ffffffff84000bf4 <init_freemem>
ffffffff84001462:	d149                	beqz	a0,ffffffff840013e4 <init_kernel+0x96>
ffffffff84001464:	8a8ff0ef          	jal	ffffffff8400050c <create_root_cnode>
ffffffff84001468:	f02a                	sd	a0,32(sp)
ffffffff8400146a:	f42e                	sd	a1,40(sp)
ffffffff8400146c:	916d                	srl	a0,a0,0x3b
ffffffff8400146e:	d93d                	beqz	a0,ffffffff840013e4 <init_kernel+0x96>
ffffffff84001470:	7502                	ld	a0,32(sp)
ffffffff84001472:	a38ff0ef          	jal	ffffffff840006aa <create_domain_cap>
ffffffff84001476:	7782                	ld	a5,32(sp)
ffffffff84001478:	ed3e                	sd	a5,152(sp)
ffffffff8400147a:	77a2                	ld	a5,40(sp)
ffffffff8400147c:	f13e                	sd	a5,160(sp)
ffffffff8400147e:	4401                	li	s0,0
ffffffff84001480:	03700d93          	li	s11,55
ffffffff84001484:	a801                	j	ffffffff84001494 <init_kernel+0x146>
ffffffff84001486:	85a2                	mv	a1,s0
ffffffff84001488:	4501                	li	a0,0
ffffffff8400148a:	7c4020ef          	jal	ffffffff84003c4e <setIRQState>
ffffffff8400148e:	0405                	add	s0,s0,1
ffffffff84001490:	01b40563          	beq	s0,s11,ffffffff8400149a <init_kernel+0x14c>
ffffffff84001494:	f86d                	bnez	s0,ffffffff84001486 <init_kernel+0x138>
ffffffff84001496:	0405                	add	s0,s0,1
ffffffff84001498:	bff5                	j	ffffffff84001494 <init_kernel+0x146>
ffffffff8400149a:	03600593          	li	a1,54
ffffffff8400149e:	4509                	li	a0,2
ffffffff840014a0:	7ae020ef          	jal	ffffffff84003c4e <setIRQState>
ffffffff840014a4:	656a                	ld	a0,152(sp)
ffffffff840014a6:	758a                	ld	a1,160(sp)
ffffffff840014a8:	565020ef          	jal	ffffffff8400420c <cap_get_capPtr>
ffffffff840014ac:	479d                	li	a5,7
ffffffff840014ae:	17f2                	sll	a5,a5,0x3c
ffffffff840014b0:	e15c                	sd	a5,128(a0)
ffffffff840014b2:	08053423          	sd	zero,136(a0)
ffffffff840014b6:	08053823          	sd	zero,144(a0)
ffffffff840014ba:	478d                	li	a5,3
ffffffff840014bc:	ed5c                	sd	a5,152(a0)
ffffffff840014be:	86de                	mv	a3,s7
ffffffff840014c0:	8662                	mv	a2,s8
ffffffff840014c2:	4585                	li	a1,1
ffffffff840014c4:	4501                	li	a0,0
ffffffff840014c6:	b89ff0ef          	jal	ffffffff8400104e <populate_bi_frame>
ffffffff840014ca:	14049163          	bnez	s1,ffffffff8400160c <init_kernel+0x2be>
ffffffff840014ce:	8666                	mv	a2,s9
ffffffff840014d0:	86ca                	mv	a3,s2
ffffffff840014d2:	7502                	ld	a0,32(sp)
ffffffff840014d4:	75a2                	ld	a1,40(sp)
ffffffff840014d6:	b60ff0ef          	jal	ffffffff84000836 <create_it_address_space>
ffffffff840014da:	f82a                	sd	a0,48(sp)
ffffffff840014dc:	fc2e                	sd	a1,56(sp)
ffffffff840014de:	916d                	srl	a0,a0,0x3b
ffffffff840014e0:	f00502e3          	beqz	a0,ffffffff840013e4 <init_kernel+0x96>
ffffffff840014e4:	6405                	lui	s0,0x1
ffffffff840014e6:	9462                	add	s0,s0,s8
ffffffff840014e8:	8722                	mv	a4,s0
ffffffff840014ea:	7642                	ld	a2,48(sp)
ffffffff840014ec:	86ae                	mv	a3,a1
ffffffff840014ee:	7502                	ld	a0,32(sp)
ffffffff840014f0:	75a2                	ld	a1,40(sp)
ffffffff840014f2:	9dcff0ef          	jal	ffffffff840006ce <create_bi_frame_cap>
ffffffff840014f6:	040b8363          	beqz	s7,ffffffff8400153c <init_kernel+0x1ee>
ffffffff840014fa:	00001797          	auipc	a5,0x1
ffffffff840014fe:	8e67b783          	ld	a5,-1818(a5) # ffffffff84001de0 <rootserver+0x28>
ffffffff84001502:	00fb8833          	add	a6,s7,a5
ffffffff84001506:	e542                	sd	a6,136(sp)
ffffffff84001508:	e13e                	sd	a5,128(sp)
ffffffff8400150a:	4705                	li	a4,1
ffffffff8400150c:	171a                	sll	a4,a4,0x26
ffffffff8400150e:	973e                	add	a4,a4,a5
ffffffff84001510:	41670733          	sub	a4,a4,s6
ffffffff84001514:	e03a                	sd	a4,0(sp)
ffffffff84001516:	4885                	li	a7,1
ffffffff84001518:	76c2                	ld	a3,48(sp)
ffffffff8400151a:	7762                	ld	a4,56(sp)
ffffffff8400151c:	7582                	ld	a1,32(sp)
ffffffff8400151e:	7622                	ld	a2,40(sp)
ffffffff84001520:	0928                	add	a0,sp,152
ffffffff84001522:	a4eff0ef          	jal	ffffffff84000770 <create_frames_of_region>
ffffffff84001526:	77aa                	ld	a5,168(sp)
ffffffff84001528:	ea078ee3          	beqz	a5,ffffffff840013e4 <init_kernel+0x96>
ffffffff8400152c:	00001797          	auipc	a5,0x1
ffffffff84001530:	87c7b783          	ld	a5,-1924(a5) # ffffffff84001da8 <ndks_boot+0x448>
ffffffff84001534:	676a                	ld	a4,152(sp)
ffffffff84001536:	ffb8                	sd	a4,120(a5)
ffffffff84001538:	770a                	ld	a4,160(sp)
ffffffff8400153a:	e3d8                	sd	a4,128(a5)
ffffffff8400153c:	8762                	mv	a4,s8
ffffffff8400153e:	7642                	ld	a2,48(sp)
ffffffff84001540:	76e2                	ld	a3,56(sp)
ffffffff84001542:	7502                	ld	a0,32(sp)
ffffffff84001544:	75a2                	ld	a1,40(sp)
ffffffff84001546:	df0ff0ef          	jal	ffffffff84000b36 <create_ipcbuf_frame_cap>
ffffffff8400154a:	e8aa                	sd	a0,80(sp)
ffffffff8400154c:	ecae                	sd	a1,88(sp)
ffffffff8400154e:	916d                	srl	a0,a0,0x3b
ffffffff84001550:	e8050ae3          	beqz	a0,ffffffff840013e4 <init_kernel+0x96>
ffffffff84001554:	e056                	sd	s5,0(sp)
ffffffff84001556:	4885                	li	a7,1
ffffffff84001558:	87ce                	mv	a5,s3
ffffffff8400155a:	886a                	mv	a6,s10
ffffffff8400155c:	76c2                	ld	a3,48(sp)
ffffffff8400155e:	7762                	ld	a4,56(sp)
ffffffff84001560:	7582                	ld	a1,32(sp)
ffffffff84001562:	7622                	ld	a2,40(sp)
ffffffff84001564:	0108                	add	a0,sp,128
ffffffff84001566:	a0aff0ef          	jal	ffffffff84000770 <create_frames_of_region>
ffffffff8400156a:	67ca                	ld	a5,144(sp)
ffffffff8400156c:	e6078ce3          	beqz	a5,ffffffff840013e4 <init_kernel+0x96>
ffffffff84001570:	00001797          	auipc	a5,0x1
ffffffff84001574:	8387b783          	ld	a5,-1992(a5) # ffffffff84001da8 <ndks_boot+0x448>
ffffffff84001578:	670a                	ld	a4,128(sp)
ffffffff8400157a:	e7b8                	sd	a4,72(a5)
ffffffff8400157c:	672a                	ld	a4,136(sp)
ffffffff8400157e:	ebb8                	sd	a4,80(a5)
ffffffff84001580:	7502                	ld	a0,32(sp)
ffffffff84001582:	75a2                	ld	a1,40(sp)
ffffffff84001584:	c00ff0ef          	jal	ffffffff84000984 <create_it_asid_pool>
ffffffff84001588:	e0aa                	sd	a0,64(sp)
ffffffff8400158a:	e4ae                	sd	a1,72(sp)
ffffffff8400158c:	03b55793          	srl	a5,a0,0x3b
ffffffff84001590:	e4078ae3          	beqz	a5,ffffffff840013e4 <init_kernel+0x96>
ffffffff84001594:	7642                	ld	a2,48(sp)
ffffffff84001596:	76e2                	ld	a3,56(sp)
ffffffff84001598:	8e4ff0ef          	jal	ffffffff8400067c <write_it_asid_pool>
ffffffff8400159c:	d80ff0ef          	jal	ffffffff84000b1c <create_idle_thread>
ffffffff840015a0:	67e6                	ld	a5,88(sp)
ffffffff840015a2:	e03e                	sd	a5,0(sp)
ffffffff840015a4:	68c6                	ld	a7,80(sp)
ffffffff840015a6:	8862                	mv	a6,s8
ffffffff840015a8:	87a2                	mv	a5,s0
ffffffff840015aa:	6762                	ld	a4,24(sp)
ffffffff840015ac:	7642                	ld	a2,48(sp)
ffffffff840015ae:	76e2                	ld	a3,56(sp)
ffffffff840015b0:	7502                	ld	a0,32(sp)
ffffffff840015b2:	75a2                	ld	a1,40(sp)
ffffffff840015b4:	c16ff0ef          	jal	ffffffff840009ca <create_initial_thread>
ffffffff840015b8:	e20506e3          	beqz	a0,ffffffff840013e4 <init_kernel+0x96>
ffffffff840015bc:	f81fe0ef          	jal	ffffffff8400053c <init_core_state>
ffffffff840015c0:	7502                	ld	a0,32(sp)
ffffffff840015c2:	75a2                	ld	a1,40(sp)
ffffffff840015c4:	c7fff0ef          	jal	ffffffff84001242 <create_untypeds>
ffffffff840015c8:	e0050ee3          	beqz	a0,ffffffff840013e4 <init_kernel+0x96>
ffffffff840015cc:	00000797          	auipc	a5,0x0
ffffffff840015d0:	7dc7b783          	ld	a5,2012(a5) # ffffffff84001da8 <ndks_boot+0x448>
ffffffff840015d4:	0207bc23          	sd	zero,56(a5)
ffffffff840015d8:	0407b023          	sd	zero,64(a5)
ffffffff840015dc:	f6ffe0ef          	jal	ffffffff8400054a <bi_finalise>
ffffffff840015e0:	4785                	li	a5,1
ffffffff840015e2:	d0f1b423          	sd	a5,-760(gp) # ffffffff84009120 <ksNumCPUs>
ffffffff840015e6:	212070ef          	jal	ffffffff840087f8 <schedule>
ffffffff840015ea:	4b2030ef          	jal	ffffffff84004a9c <activateThread>
ffffffff840015ee:	60f2                	ld	ra,280(sp)
ffffffff840015f0:	6452                	ld	s0,272(sp)
ffffffff840015f2:	64b2                	ld	s1,264(sp)
ffffffff840015f4:	6912                	ld	s2,256(sp)
ffffffff840015f6:	79ee                	ld	s3,248(sp)
ffffffff840015f8:	7a4e                	ld	s4,240(sp)
ffffffff840015fa:	7aae                	ld	s5,232(sp)
ffffffff840015fc:	7b0e                	ld	s6,224(sp)
ffffffff840015fe:	6bee                	ld	s7,216(sp)
ffffffff84001600:	6c4e                	ld	s8,208(sp)
ffffffff84001602:	6cae                	ld	s9,200(sp)
ffffffff84001604:	6d0e                	ld	s10,192(sp)
ffffffff84001606:	7dea                	ld	s11,184(sp)
ffffffff84001608:	6115                	add	sp,sp,288
ffffffff8400160a:	8082                	ret
ffffffff8400160c:	00000797          	auipc	a5,0x0
ffffffff84001610:	35478793          	add	a5,a5,852 # ffffffff84001960 <ndks_boot>
ffffffff84001614:	4807b703          	ld	a4,1152(a5)
ffffffff84001618:	4699                	li	a3,6
ffffffff8400161a:	e314                	sd	a3,0(a4)
ffffffff8400161c:	01048693          	add	a3,s1,16
ffffffff84001620:	e714                	sd	a3,8(a4)
ffffffff84001622:	4807b503          	ld	a0,1152(a5)
ffffffff84001626:	8626                	mv	a2,s1
ffffffff84001628:	55fd                	li	a1,-1
ffffffff8400162a:	159a                	sll	a1,a1,0x26
ffffffff8400162c:	95d2                	add	a1,a1,s4
ffffffff8400162e:	0541                	add	a0,a0,16
ffffffff84001630:	7b1060ef          	jal	ffffffff840085e0 <memcpy>
ffffffff84001634:	bd69                	j	ffffffff840014ce <init_kernel+0x180>

Disassembly of section .text:

ffffffff84002000 <ki_boot_end>:
ffffffff84002000:	140292f3          	csrrw	t0,sscratch,t0
ffffffff84002004:	0012b023          	sd	ra,0(t0)
ffffffff84002008:	0022b423          	sd	sp,8(t0)
ffffffff8400200c:	0032b823          	sd	gp,16(t0)
ffffffff84002010:	0042bc23          	sd	tp,24(t0)
ffffffff84002014:	0262b423          	sd	t1,40(t0)
ffffffff84002018:	0272b823          	sd	t2,48(t0)
ffffffff8400201c:	0282bc23          	sd	s0,56(t0)
ffffffff84002020:	0492b023          	sd	s1,64(t0)
ffffffff84002024:	04a2b423          	sd	a0,72(t0)
ffffffff84002028:	04b2b823          	sd	a1,80(t0)
ffffffff8400202c:	04c2bc23          	sd	a2,88(t0)
ffffffff84002030:	06d2b023          	sd	a3,96(t0)
ffffffff84002034:	06e2b423          	sd	a4,104(t0)
ffffffff84002038:	06f2b823          	sd	a5,112(t0)
ffffffff8400203c:	0702bc23          	sd	a6,120(t0)
ffffffff84002040:	0912b023          	sd	a7,128(t0)
ffffffff84002044:	0922b423          	sd	s2,136(t0)
ffffffff84002048:	0932b823          	sd	s3,144(t0)
ffffffff8400204c:	0942bc23          	sd	s4,152(t0)
ffffffff84002050:	0b52b023          	sd	s5,160(t0)
ffffffff84002054:	0b62b423          	sd	s6,168(t0)
ffffffff84002058:	0b72b823          	sd	s7,176(t0)
ffffffff8400205c:	0b82bc23          	sd	s8,184(t0)
ffffffff84002060:	0d92b023          	sd	s9,192(t0)
ffffffff84002064:	0da2b423          	sd	s10,200(t0)
ffffffff84002068:	0db2b823          	sd	s11,208(t0)
ffffffff8400206c:	0dc2bc23          	sd	t3,216(t0)
ffffffff84002070:	0fd2b023          	sd	t4,224(t0)
ffffffff84002074:	0fe2b423          	sd	t5,232(t0)
ffffffff84002078:	0ff2b823          	sd	t6,240(t0)
ffffffff8400207c:	140020f3          	csrr	ra,sscratch
ffffffff84002080:	0212b023          	sd	ra,32(t0)
ffffffff84002084:	100020f3          	csrr	ra,sstatus
ffffffff84002088:	1012b023          	sd	ra,256(t0)
ffffffff8400208c:	14202473          	csrr	s0,scause
ffffffff84002090:	0e82bc23          	sd	s0,248(t0)
ffffffff84002094:	00007197          	auipc	gp,0x7
ffffffff84002098:	38418193          	add	gp,gp,900 # ffffffff84009418 <__global_pointer$>
ffffffff8400209c:	00019117          	auipc	sp,0x19
ffffffff840020a0:	76410113          	add	sp,sp,1892 # ffffffff8401b800 <_breakpoint_stack_bottom>
ffffffff840020a4:	141020f3          	csrr	ra,sepc
ffffffff840020a8:	1012b423          	sd	ra,264(t0)
ffffffff840020ac:	02044963          	bltz	s0,ffffffff840020de <interrupt>
ffffffff840020b0:	4a21                	li	s4,8
ffffffff840020b2:	03441263          	bne	s0,s4,ffffffff840020d6 <exception>

ffffffff840020b6 <handle_syscall>:
ffffffff840020b6:	0091                	add	ra,ra,4
ffffffff840020b8:	1012b823          	sd	ra,272(t0)
ffffffff840020bc:	5e7d                	li	t3,-1
ffffffff840020be:	01c89463          	bne	a7,t3,ffffffff840020c6 <handle_syscall+0x10>
ffffffff840020c2:	43e0006f          	j	ffffffff84002500 <c_handle_fastpath_call>
ffffffff840020c6:	5e79                	li	t3,-2
ffffffff840020c8:	01c89463          	bne	a7,t3,ffffffff840020d0 <handle_syscall+0x1a>
ffffffff840020cc:	1340006f          	j	ffffffff84002200 <c_handle_fastpath_reply_recv>
ffffffff840020d0:	8646                	mv	a2,a7
ffffffff840020d2:	0ee0006f          	j	ffffffff840021c0 <c_handle_syscall>

ffffffff840020d6 <exception>:
ffffffff840020d6:	1012b823          	sd	ra,272(t0)
ffffffff840020da:	0ba0006f          	j	ffffffff84002194 <c_handle_exception>

ffffffff840020de <interrupt>:
ffffffff840020de:	1012b823          	sd	ra,272(t0)
ffffffff840020e2:	0a60006f          	j	ffffffff84002188 <c_handle_interrupt>

ffffffff840020e6 <restore_user_context>:
ffffffff840020e6:	a801b783          	ld	a5,-1408(gp) # ffffffff84008e98 <ksCurThread>
ffffffff840020ea:	82be                	mv	t0,a5
ffffffff840020ec:	0002b083          	ld	ra,0(t0)
ffffffff840020f0:	0082b103          	ld	sp,8(t0)
ffffffff840020f4:	0102b183          	ld	gp,16(t0)
ffffffff840020f8:	1802a02f          	sc.w	zero,zero,(t0)
ffffffff840020fc:	0302b383          	ld	t2,48(t0)
ffffffff84002100:	0382b403          	ld	s0,56(t0)
ffffffff84002104:	0402b483          	ld	s1,64(t0)
ffffffff84002108:	0482b503          	ld	a0,72(t0)
ffffffff8400210c:	0502b583          	ld	a1,80(t0)
ffffffff84002110:	0582b603          	ld	a2,88(t0)
ffffffff84002114:	0602b683          	ld	a3,96(t0)
ffffffff84002118:	0682b703          	ld	a4,104(t0)
ffffffff8400211c:	0702b783          	ld	a5,112(t0)
ffffffff84002120:	0782b803          	ld	a6,120(t0)
ffffffff84002124:	0802b883          	ld	a7,128(t0)
ffffffff84002128:	0882b903          	ld	s2,136(t0)
ffffffff8400212c:	0902b983          	ld	s3,144(t0)
ffffffff84002130:	0982ba03          	ld	s4,152(t0)
ffffffff84002134:	0a02ba83          	ld	s5,160(t0)
ffffffff84002138:	0a82bb03          	ld	s6,168(t0)
ffffffff8400213c:	0b02bb83          	ld	s7,176(t0)
ffffffff84002140:	0b82bc03          	ld	s8,184(t0)
ffffffff84002144:	0c02bc83          	ld	s9,192(t0)
ffffffff84002148:	0c82bd03          	ld	s10,200(t0)
ffffffff8400214c:	0d02bd83          	ld	s11,208(t0)
ffffffff84002150:	0d82be03          	ld	t3,216(t0)
ffffffff84002154:	0e02be83          	ld	t4,224(t0)
ffffffff84002158:	0e82bf03          	ld	t5,232(t0)
ffffffff8400215c:	0f02bf83          	ld	t6,240(t0)
ffffffff84002160:	0182b303          	ld	t1,24(t0)
ffffffff84002164:	00030233          	add	tp,t1,zero
ffffffff84002168:	1102b303          	ld	t1,272(t0)
ffffffff8400216c:	14131073          	csrw	sepc,t1
ffffffff84002170:	14029073          	csrw	sscratch,t0
ffffffff84002174:	1002b303          	ld	t1,256(t0)
ffffffff84002178:	10031073          	csrw	sstatus,t1
ffffffff8400217c:	0282b303          	ld	t1,40(t0)
ffffffff84002180:	0202b283          	ld	t0,32(t0)
ffffffff84002184:	10200073          	sret

ffffffff84002188 <c_handle_interrupt>:
ffffffff84002188:	1141                	add	sp,sp,-16
ffffffff8400218a:	e406                	sd	ra,8(sp)
ffffffff8400218c:	764060ef          	jal	ffffffff840088f0 <handleInterruptEntry>
ffffffff84002190:	f57ff0ef          	jal	ffffffff840020e6 <restore_user_context>

ffffffff84002194 <c_handle_exception>:
ffffffff84002194:	1141                	add	sp,sp,-16
ffffffff84002196:	e406                	sd	ra,8(sp)
ffffffff84002198:	14202573          	csrr	a0,scause
ffffffff8400219c:	47bd                	li	a5,15
ffffffff8400219e:	00a7e963          	bltu	a5,a0,ffffffff840021b0 <c_handle_exception+0x1c>
ffffffff840021a2:	67ad                	lui	a5,0xb
ffffffff840021a4:	0a278793          	add	a5,a5,162 # b0a2 <KERNEL_OFFSET-0xfffffffeffff4f5e>
ffffffff840021a8:	00a7d7b3          	srl	a5,a5,a0
ffffffff840021ac:	8b85                	and	a5,a5,1
ffffffff840021ae:	e789                	bnez	a5,ffffffff840021b8 <c_handle_exception+0x24>
ffffffff840021b0:	4581                	li	a1,0
ffffffff840021b2:	7bc060ef          	jal	ffffffff8400896e <handleUserLevelFault>
ffffffff840021b6:	a019                	j	ffffffff840021bc <c_handle_exception+0x28>
ffffffff840021b8:	7ec060ef          	jal	ffffffff840089a4 <handleVMFaultEvent>
ffffffff840021bc:	f2bff0ef          	jal	ffffffff840020e6 <restore_user_context>

ffffffff840021c0 <c_handle_syscall>:
ffffffff840021c0:	1141                	add	sp,sp,-16
ffffffff840021c2:	e406                	sd	ra,8(sp)
ffffffff840021c4:	8532                	mv	a0,a2
ffffffff840021c6:	167060ef          	jal	ffffffff84008b2c <slowpath>
ffffffff840021ca:	0000                	unimp
ffffffff840021cc:	0000                	unimp
ffffffff840021ce:	0000                	unimp
ffffffff840021d0:	0000                	unimp
ffffffff840021d2:	0000                	unimp
ffffffff840021d4:	0000                	unimp
ffffffff840021d6:	0000                	unimp
ffffffff840021d8:	0000                	unimp
ffffffff840021da:	0000                	unimp
ffffffff840021dc:	0000                	unimp
ffffffff840021de:	0000                	unimp
ffffffff840021e0:	0000                	unimp
ffffffff840021e2:	0000                	unimp
ffffffff840021e4:	0000                	unimp
ffffffff840021e6:	0000                	unimp
ffffffff840021e8:	0000                	unimp
ffffffff840021ea:	0000                	unimp
ffffffff840021ec:	0000                	unimp
ffffffff840021ee:	0000                	unimp
ffffffff840021f0:	0000                	unimp
ffffffff840021f2:	0000                	unimp
ffffffff840021f4:	0000                	unimp
ffffffff840021f6:	0000                	unimp
ffffffff840021f8:	0000                	unimp
ffffffff840021fa:	0000                	unimp
ffffffff840021fc:	0000                	unimp
ffffffff840021fe:	0000                	unimp

ffffffff84002200 <c_handle_fastpath_reply_recv>:
ffffffff84002200:	711d                	add	sp,sp,-96
ffffffff84002202:	ec86                	sd	ra,88(sp)
ffffffff84002204:	e8a2                	sd	s0,80(sp)
ffffffff84002206:	e4a6                	sd	s1,72(sp)
ffffffff84002208:	e0ca                	sd	s2,64(sp)
ffffffff8400220a:	fc4e                	sd	s3,56(sp)
ffffffff8400220c:	f852                	sd	s4,48(sp)
ffffffff8400220e:	f456                	sd	s5,40(sp)
ffffffff84002210:	f05a                	sd	s6,32(sp)
ffffffff84002212:	ec5e                	sd	s7,24(sp)
ffffffff84002214:	e862                	sd	s8,16(sp)
ffffffff84002216:	e466                	sd	s9,8(sp)
ffffffff84002218:	e06a                	sd	s10,0(sp)
ffffffff8400221a:	a801b903          	ld	s2,-1408(gp) # ffffffff84008e98 <ksCurThread>
ffffffff8400221e:	13893703          	ld	a4,312(s2)
ffffffff84002222:	1ff5f693          	and	a3,a1,511
ffffffff84002226:	4791                	li	a5,4
ffffffff84002228:	10d7ea63          	bltu	a5,a3,ffffffff8400233c <c_handle_fastpath_reply_recv+0x13c>
ffffffff8400222c:	84ae                	mv	s1,a1
ffffffff8400222e:	8b3d                	and	a4,a4,15
ffffffff84002230:	10071663          	bnez	a4,ffffffff8400233c <c_handle_fastpath_reply_recv+0x13c>
ffffffff84002234:	c0097993          	and	s3,s2,-1024
ffffffff84002238:	0009b403          	ld	s0,0(s3)
ffffffff8400223c:	0089b803          	ld	a6,8(s3)
ffffffff84002240:	03b45693          	srl	a3,s0,0x3b
ffffffff84002244:	47a9                	li	a5,10
ffffffff84002246:	10f69663          	bne	a3,a5,ffffffff84002352 <c_handle_fastpath_reply_recv+0x152>
ffffffff8400224a:	03545693          	srl	a3,s0,0x35
ffffffff8400224e:	03f6f693          	and	a3,a3,63
ffffffff84002252:	02f45593          	srl	a1,s0,0x2f
ffffffff84002256:	03f5f593          	and	a1,a1,63
ffffffff8400225a:	00e517b3          	sll	a5,a0,a4
ffffffff8400225e:	ca81                	beqz	a3,ffffffff8400226e <c_handle_fastpath_reply_recv+0x6e>
ffffffff84002260:	04000613          	li	a2,64
ffffffff84002264:	9e15                	subw	a2,a2,a3
ffffffff84002266:	00c7d633          	srl	a2,a5,a2
ffffffff8400226a:	0f061463          	bne	a2,a6,ffffffff84002352 <c_handle_fastpath_reply_recv+0x152>
ffffffff8400226e:	00d797b3          	sll	a5,a5,a3
ffffffff84002272:	04000613          	li	a2,64
ffffffff84002276:	9e0d                	subw	a2,a2,a1
ffffffff84002278:	00c7d7b3          	srl	a5,a5,a2
ffffffff8400227c:	0796                	sll	a5,a5,0x5
ffffffff8400227e:	0406                	sll	s0,s0,0x1
ffffffff84002280:	fc000637          	lui	a2,0xfc000
ffffffff84002284:	8265                	srl	a2,a2,0x19
ffffffff84002286:	8e61                	and	a2,a2,s0
ffffffff84002288:	9019                	srl	s0,s0,0x26
ffffffff8400228a:	8805                	and	s0,s0,1
ffffffff8400228c:	c409                	beqz	s0,ffffffff84002296 <c_handle_fastpath_reply_recv+0x96>
ffffffff8400228e:	587d                	li	a6,-1
ffffffff84002290:	181e                	sll	a6,a6,0x27
ffffffff84002292:	01066633          	or	a2,a2,a6
ffffffff84002296:	97b2                	add	a5,a5,a2
ffffffff84002298:	6380                	ld	s0,0(a5)
ffffffff8400229a:	96ae                	add	a3,a3,a1
ffffffff8400229c:	9736                	add	a4,a4,a3
ffffffff8400229e:	03f00693          	li	a3,63
ffffffff840022a2:	0ae6f063          	bgeu	a3,a4,ffffffff84002342 <c_handle_fastpath_reply_recv+0x142>
ffffffff840022a6:	04000793          	li	a5,64
ffffffff840022aa:	0ae7e463          	bltu	a5,a4,ffffffff84002352 <c_handle_fastpath_reply_recv+0x152>
ffffffff840022ae:	03b45793          	srl	a5,s0,0x3b
ffffffff840022b2:	4711                	li	a4,4
ffffffff840022b4:	08e79f63          	bne	a5,a4,ffffffff84002352 <c_handle_fastpath_reply_recv+0x152>
ffffffff840022b8:	03845793          	srl	a5,s0,0x38
ffffffff840022bc:	8b85                	and	a5,a5,1
ffffffff840022be:	cbd1                	beqz	a5,ffffffff84002352 <c_handle_fastpath_reply_recv+0x152>
ffffffff840022c0:	13093783          	ld	a5,304(s2)
ffffffff840022c4:	ebd1                	bnez	a5,ffffffff84002358 <c_handle_fastpath_reply_recv+0x158>
ffffffff840022c6:	01941c93          	sll	s9,s0,0x19
ffffffff840022ca:	019cdc93          	srl	s9,s9,0x19
ffffffff840022ce:	02645793          	srl	a5,s0,0x26
ffffffff840022d2:	8b85                	and	a5,a5,1
ffffffff840022d4:	c789                	beqz	a5,ffffffff840022de <c_handle_fastpath_reply_recv+0xde>
ffffffff840022d6:	57fd                	li	a5,-1
ffffffff840022d8:	179e                	sll	a5,a5,0x27
ffffffff840022da:	00fcecb3          	or	s9,s9,a5
ffffffff840022de:	8c66                	mv	s8,s9
ffffffff840022e0:	000cb783          	ld	a5,0(s9)
ffffffff840022e4:	8b8d                	and	a5,a5,3
ffffffff840022e6:	4705                	li	a4,1
ffffffff840022e8:	08e78063          	beq	a5,a4,ffffffff84002368 <c_handle_fastpath_reply_recv+0x168>
ffffffff840022ec:	06098b93          	add	s7,s3,96
ffffffff840022f0:	008bba83          	ld	s5,8(s7)
ffffffff840022f4:	0609b783          	ld	a5,96(s3)
ffffffff840022f8:	93ed                	srl	a5,a5,0x3b
ffffffff840022fa:	4721                	li	a4,8
ffffffff840022fc:	06e79963          	bne	a5,a4,ffffffff8400236e <c_handle_fastpath_reply_recv+0x16e>
ffffffff84002300:	138ab783          	ld	a5,312(s5)
ffffffff84002304:	8bbd                	and	a5,a5,15
ffffffff84002306:	e7bd                	bnez	a5,ffffffff84002374 <c_handle_fastpath_reply_recv+0x174>
ffffffff84002308:	c00af793          	and	a5,s5,-1024
ffffffff8400230c:	7398                	ld	a4,32(a5)
ffffffff8400230e:	0287bb03          	ld	s6,40(a5)
ffffffff84002312:	009b5793          	srl	a5,s6,0x9
ffffffff84002316:	01979a13          	sll	s4,a5,0x19
ffffffff8400231a:	019a5a13          	srl	s4,s4,0x19
ffffffff8400231e:	9399                	srl	a5,a5,0x26
ffffffff84002320:	8b85                	and	a5,a5,1
ffffffff84002322:	c789                	beqz	a5,ffffffff8400232c <c_handle_fastpath_reply_recv+0x12c>
ffffffff84002324:	57fd                	li	a5,-1
ffffffff84002326:	179e                	sll	a5,a5,0x27
ffffffff84002328:	00fa6a33          	or	s4,s4,a5
ffffffff8400232c:	03b75793          	srl	a5,a4,0x3b
ffffffff84002330:	468d                	li	a3,3
ffffffff84002332:	04d78463          	beq	a5,a3,ffffffff8400237a <c_handle_fastpath_reply_recv+0x17a>
ffffffff84002336:	5579                	li	a0,-2
ffffffff84002338:	7f4060ef          	jal	ffffffff84008b2c <slowpath>
ffffffff8400233c:	5579                	li	a0,-2
ffffffff8400233e:	7ee060ef          	jal	ffffffff84008b2c <slowpath>
ffffffff84002342:	03b45693          	srl	a3,s0,0x3b
ffffffff84002346:	4629                	li	a2,10
ffffffff84002348:	f6c693e3          	bne	a3,a2,ffffffff840022ae <c_handle_fastpath_reply_recv+0xae>
ffffffff8400234c:	0087b803          	ld	a6,8(a5)
ffffffff84002350:	bded                	j	ffffffff8400224a <c_handle_fastpath_reply_recv+0x4a>
ffffffff84002352:	5579                	li	a0,-2
ffffffff84002354:	7d8060ef          	jal	ffffffff84008b2c <slowpath>
ffffffff84002358:	639c                	ld	a5,0(a5)
ffffffff8400235a:	8b8d                	and	a5,a5,3
ffffffff8400235c:	4709                	li	a4,2
ffffffff8400235e:	f6e794e3          	bne	a5,a4,ffffffff840022c6 <c_handle_fastpath_reply_recv+0xc6>
ffffffff84002362:	5579                	li	a0,-2
ffffffff84002364:	7c8060ef          	jal	ffffffff84008b2c <slowpath>
ffffffff84002368:	5579                	li	a0,-2
ffffffff8400236a:	7c2060ef          	jal	ffffffff84008b2c <slowpath>
ffffffff8400236e:	5579                	li	a0,-2
ffffffff84002370:	7bc060ef          	jal	ffffffff84008b2c <slowpath>
ffffffff84002374:	5579                	li	a0,-2
ffffffff84002376:	7b6060ef          	jal	ffffffff84008b2c <slowpath>
ffffffff8400237a:	931d                	srl	a4,a4,0x27
ffffffff8400237c:	8b05                	and	a4,a4,1
ffffffff8400237e:	df45                	beqz	a4,ffffffff84002336 <c_handle_fastpath_reply_recv+0x136>
ffffffff84002380:	030b5b13          	srl	s6,s6,0x30
ffffffff84002384:	8a81bd03          	ld	s10,-1880(gp) # ffffffff84008cc0 <ksCurDomain>
ffffffff84002388:	168ab583          	ld	a1,360(s5)
ffffffff8400238c:	856a                	mv	a0,s10
ffffffff8400238e:	7b6060ef          	jal	ffffffff84008b44 <isHighestPrio>
ffffffff84002392:	c531                	beqz	a0,ffffffff840023de <c_handle_fastpath_reply_recv+0x1de>
ffffffff84002394:	158ab783          	ld	a5,344(s5)
ffffffff84002398:	04fd1663          	bne	s10,a5,ffffffff840023e4 <c_handle_fastpath_reply_recv+0x1e4>
ffffffff8400239c:	003cec93          	or	s9,s9,3
ffffffff840023a0:	11993c23          	sd	s9,280(s2)
ffffffff840023a4:	9059                	srl	s0,s0,0x36
ffffffff840023a6:	8821                	and	s0,s0,8
ffffffff840023a8:	12093783          	ld	a5,288(s2)
ffffffff840023ac:	9bdd                	and	a5,a5,-9
ffffffff840023ae:	8c5d                	or	s0,s0,a5
ffffffff840023b0:	12893023          	sd	s0,288(s2)
ffffffff840023b4:	000c3703          	ld	a4,0(s8) # fffffffffe000000 <ki_end+0x79fe0000>
ffffffff840023b8:	f80007b7          	lui	a5,0xf8000
ffffffff840023bc:	83e5                	srl	a5,a5,0x19
ffffffff840023be:	8ff9                	and	a5,a5,a4
ffffffff840023c0:	9319                	srl	a4,a4,0x26
ffffffff840023c2:	8b05                	and	a4,a4,1
ffffffff840023c4:	c31d                	beqz	a4,ffffffff840023ea <c_handle_fastpath_reply_recv+0x1ea>
ffffffff840023c6:	577d                	li	a4,-1
ffffffff840023c8:	171e                	sll	a4,a4,0x27
ffffffff840023ca:	8fd9                	or	a5,a5,a4
ffffffff840023cc:	1927bc23          	sd	s2,408(a5) # fffffffff8000198 <ki_end+0x73fe0198>
ffffffff840023d0:	1af93023          	sd	a5,416(s2)
ffffffff840023d4:	18093c23          	sd	zero,408(s2)
ffffffff840023d8:	00296913          	or	s2,s2,2
ffffffff840023dc:	a005                	j	ffffffff840023fc <c_handle_fastpath_reply_recv+0x1fc>
ffffffff840023de:	5579                	li	a0,-2
ffffffff840023e0:	74c060ef          	jal	ffffffff84008b2c <slowpath>
ffffffff840023e4:	5579                	li	a0,-2
ffffffff840023e6:	746060ef          	jal	ffffffff84008b2c <slowpath>
ffffffff840023ea:	f3ed                	bnez	a5,ffffffff840023cc <c_handle_fastpath_reply_recv+0x1cc>
ffffffff840023ec:	1a093023          	sd	zero,416(s2)
ffffffff840023f0:	18093c23          	sd	zero,408(s2)
ffffffff840023f4:	012c3423          	sd	s2,8(s8)
ffffffff840023f8:	00296913          	or	s2,s2,2
ffffffff840023fc:	07f4f693          	and	a3,s1,127
ffffffff84002400:	012c3023          	sd	s2,0(s8)
ffffffff84002404:	010bb783          	ld	a5,16(s7)
ffffffff84002408:	470d                	li	a4,3
ffffffff8400240a:	ef98                	sd	a4,24(a5)
ffffffff8400240c:	0609b023          	sd	zero,96(s3)
ffffffff84002410:	000bb423          	sd	zero,8(s7)
ffffffff84002414:	000bb823          	sd	zero,16(s7)
ffffffff84002418:	000bbc23          	sd	zero,24(s7)
ffffffff8400241c:	a801b603          	ld	a2,-1408(gp) # ffffffff84008e98 <ksCurThread>
ffffffff84002420:	ce81                	beqz	a3,ffffffff84002438 <c_handle_fastpath_reply_recv+0x238>
ffffffff84002422:	87b2                	mv	a5,a2
ffffffff84002424:	058a8713          	add	a4,s5,88
ffffffff84002428:	068e                	sll	a3,a3,0x3
ffffffff8400242a:	9636                	add	a2,a2,a3
ffffffff8400242c:	6fb4                	ld	a3,88(a5)
ffffffff8400242e:	e314                	sd	a3,0(a4)
ffffffff84002430:	07a1                	add	a5,a5,8
ffffffff84002432:	0721                	add	a4,a4,8
ffffffff84002434:	fef61ce3          	bne	a2,a5,ffffffff8400242c <c_handle_fastpath_reply_recv+0x22c>
ffffffff84002438:	4785                	li	a5,1
ffffffff8400243a:	10fabc23          	sd	a5,280(s5)
ffffffff8400243e:	179a                	sll	a5,a5,0x26
ffffffff84002440:	97d2                	add	a5,a5,s4
ffffffff84002442:	83b1                	srl	a5,a5,0xc
ffffffff84002444:	577d                	li	a4,-1
ffffffff84002446:	01475693          	srl	a3,a4,0x14
ffffffff8400244a:	8ff5                	and	a5,a5,a3
ffffffff8400244c:	1b32                	sll	s6,s6,0x2c
ffffffff8400244e:	0167e7b3          	or	a5,a5,s6
ffffffff84002452:	177e                	sll	a4,a4,0x3f
ffffffff84002454:	8fd9                	or	a5,a5,a4
ffffffff84002456:	18079073          	csrw	satp,a5
ffffffff8400245a:	12000073          	sfence.vma
ffffffff8400245e:	a951b023          	sd	s5,-1408(gp) # ffffffff84008e98 <ksCurThread>
ffffffff84002462:	4501                	li	a0,0
ffffffff84002464:	75fd                	lui	a1,0xfffff
ffffffff84002466:	1ff58593          	add	a1,a1,511 # fffffffffffff1ff <ki_end+0x7bfdf1ff>
ffffffff8400246a:	8de5                	and	a1,a1,s1
ffffffff8400246c:	82d6                	mv	t0,s5
ffffffff8400246e:	0002b083          	ld	ra,0(t0)
ffffffff84002472:	0082b103          	ld	sp,8(t0)
ffffffff84002476:	0102b183          	ld	gp,16(t0)
ffffffff8400247a:	0302b383          	ld	t2,48(t0)
ffffffff8400247e:	0382b403          	ld	s0,56(t0)
ffffffff84002482:	0402b483          	ld	s1,64(t0)
ffffffff84002486:	0582b603          	ld	a2,88(t0)
ffffffff8400248a:	0602b683          	ld	a3,96(t0)
ffffffff8400248e:	0682b703          	ld	a4,104(t0)
ffffffff84002492:	0702b783          	ld	a5,112(t0)
ffffffff84002496:	0782b803          	ld	a6,120(t0)
ffffffff8400249a:	0802b883          	ld	a7,128(t0)
ffffffff8400249e:	0882b903          	ld	s2,136(t0)
ffffffff840024a2:	0902b983          	ld	s3,144(t0)
ffffffff840024a6:	0982ba03          	ld	s4,152(t0)
ffffffff840024aa:	0a02ba83          	ld	s5,160(t0)
ffffffff840024ae:	0a82bb03          	ld	s6,168(t0)
ffffffff840024b2:	0b02bb83          	ld	s7,176(t0)
ffffffff840024b6:	0b82bc03          	ld	s8,184(t0)
ffffffff840024ba:	0c02bc83          	ld	s9,192(t0)
ffffffff840024be:	0c82bd03          	ld	s10,200(t0)
ffffffff840024c2:	0d02bd83          	ld	s11,208(t0)
ffffffff840024c6:	0d82be03          	ld	t3,216(t0)
ffffffff840024ca:	0e02be83          	ld	t4,224(t0)
ffffffff840024ce:	0e82bf03          	ld	t5,232(t0)
ffffffff840024d2:	0f02bf83          	ld	t6,240(t0)
ffffffff840024d6:	0182b303          	ld	t1,24(t0)
ffffffff840024da:	00030233          	add	tp,t1,zero
ffffffff840024de:	1102b303          	ld	t1,272(t0)
ffffffff840024e2:	14131073          	csrw	sepc,t1
ffffffff840024e6:	14029073          	csrw	sscratch,t0
ffffffff840024ea:	1002b303          	ld	t1,256(t0)
ffffffff840024ee:	10031073          	csrw	sstatus,t1
ffffffff840024f2:	0282b303          	ld	t1,40(t0)
ffffffff840024f6:	0202b283          	ld	t0,32(t0)
ffffffff840024fa:	10200073          	sret
ffffffff840024fe:	0001                	nop

ffffffff84002500 <c_handle_fastpath_call>:
ffffffff84002500:	715d                	add	sp,sp,-80
ffffffff84002502:	e486                	sd	ra,72(sp)
ffffffff84002504:	e0a2                	sd	s0,64(sp)
ffffffff84002506:	fc26                	sd	s1,56(sp)
ffffffff84002508:	f84a                	sd	s2,48(sp)
ffffffff8400250a:	f44e                	sd	s3,40(sp)
ffffffff8400250c:	f052                	sd	s4,32(sp)
ffffffff8400250e:	ec56                	sd	s5,24(sp)
ffffffff84002510:	e85a                	sd	s6,16(sp)
ffffffff84002512:	e45e                	sd	s7,8(sp)
ffffffff84002514:	e062                	sd	s8,0(sp)
ffffffff84002516:	a801b803          	ld	a6,-1408(gp) # ffffffff84008e98 <ksCurThread>
ffffffff8400251a:	13883703          	ld	a4,312(a6)
ffffffff8400251e:	1ff5f693          	and	a3,a1,511
ffffffff84002522:	4791                	li	a5,4
ffffffff84002524:	0ed7e763          	bltu	a5,a3,ffffffff84002612 <c_handle_fastpath_call+0x112>
ffffffff84002528:	892e                	mv	s2,a1
ffffffff8400252a:	8b3d                	and	a4,a4,15
ffffffff8400252c:	e37d                	bnez	a4,ffffffff84002612 <c_handle_fastpath_call+0x112>
ffffffff8400252e:	c0087793          	and	a5,a6,-1024
ffffffff84002532:	6380                	ld	s0,0(a5)
ffffffff84002534:	0087b983          	ld	s3,8(a5)
ffffffff84002538:	03b45693          	srl	a3,s0,0x3b
ffffffff8400253c:	47a9                	li	a5,10
ffffffff8400253e:	0ef69363          	bne	a3,a5,ffffffff84002624 <c_handle_fastpath_call+0x124>
ffffffff84002542:	03545693          	srl	a3,s0,0x35
ffffffff84002546:	03f6f693          	and	a3,a3,63
ffffffff8400254a:	02f45593          	srl	a1,s0,0x2f
ffffffff8400254e:	03f5f593          	and	a1,a1,63
ffffffff84002552:	00e517b3          	sll	a5,a0,a4
ffffffff84002556:	ca81                	beqz	a3,ffffffff84002566 <c_handle_fastpath_call+0x66>
ffffffff84002558:	04000613          	li	a2,64
ffffffff8400255c:	9e15                	subw	a2,a2,a3
ffffffff8400255e:	00c7d633          	srl	a2,a5,a2
ffffffff84002562:	0d361163          	bne	a2,s3,ffffffff84002624 <c_handle_fastpath_call+0x124>
ffffffff84002566:	00d797b3          	sll	a5,a5,a3
ffffffff8400256a:	04000613          	li	a2,64
ffffffff8400256e:	9e0d                	subw	a2,a2,a1
ffffffff84002570:	00c7d7b3          	srl	a5,a5,a2
ffffffff84002574:	0796                	sll	a5,a5,0x5
ffffffff84002576:	0406                	sll	s0,s0,0x1
ffffffff84002578:	fc000637          	lui	a2,0xfc000
ffffffff8400257c:	8265                	srl	a2,a2,0x19
ffffffff8400257e:	8e61                	and	a2,a2,s0
ffffffff84002580:	9019                	srl	s0,s0,0x26
ffffffff84002582:	8805                	and	s0,s0,1
ffffffff84002584:	c409                	beqz	s0,ffffffff8400258e <c_handle_fastpath_call+0x8e>
ffffffff84002586:	58fd                	li	a7,-1
ffffffff84002588:	189e                	sll	a7,a7,0x27
ffffffff8400258a:	01166633          	or	a2,a2,a7
ffffffff8400258e:	97b2                	add	a5,a5,a2
ffffffff84002590:	6380                	ld	s0,0(a5)
ffffffff84002592:	0087b983          	ld	s3,8(a5)
ffffffff84002596:	96ae                	add	a3,a3,a1
ffffffff84002598:	9736                	add	a4,a4,a3
ffffffff8400259a:	03f00793          	li	a5,63
ffffffff8400259e:	06e7fd63          	bgeu	a5,a4,ffffffff84002618 <c_handle_fastpath_call+0x118>
ffffffff840025a2:	04000793          	li	a5,64
ffffffff840025a6:	06e7ef63          	bltu	a5,a4,ffffffff84002624 <c_handle_fastpath_call+0x124>
ffffffff840025aa:	03b45793          	srl	a5,s0,0x3b
ffffffff840025ae:	4711                	li	a4,4
ffffffff840025b0:	06e79a63          	bne	a5,a4,ffffffff84002624 <c_handle_fastpath_call+0x124>
ffffffff840025b4:	03745793          	srl	a5,s0,0x37
ffffffff840025b8:	8b85                	and	a5,a5,1
ffffffff840025ba:	c7ad                	beqz	a5,ffffffff84002624 <c_handle_fastpath_call+0x124>
ffffffff840025bc:	01941793          	sll	a5,s0,0x19
ffffffff840025c0:	83e5                	srl	a5,a5,0x19
ffffffff840025c2:	02645713          	srl	a4,s0,0x26
ffffffff840025c6:	8b05                	and	a4,a4,1
ffffffff840025c8:	c701                	beqz	a4,ffffffff840025d0 <c_handle_fastpath_call+0xd0>
ffffffff840025ca:	577d                	li	a4,-1
ffffffff840025cc:	171e                	sll	a4,a4,0x27
ffffffff840025ce:	8fd9                	or	a5,a5,a4
ffffffff840025d0:	8b3e                	mv	s6,a5
ffffffff840025d2:	0087ba03          	ld	s4,8(a5)
ffffffff840025d6:	639c                	ld	a5,0(a5)
ffffffff840025d8:	8b8d                	and	a5,a5,3
ffffffff840025da:	4709                	li	a4,2
ffffffff840025dc:	04e79763          	bne	a5,a4,ffffffff8400262a <c_handle_fastpath_call+0x12a>
ffffffff840025e0:	c00a7b93          	and	s7,s4,-1024
ffffffff840025e4:	020bb703          	ld	a4,32(s7)
ffffffff840025e8:	028bba83          	ld	s5,40(s7)
ffffffff840025ec:	009ad793          	srl	a5,s5,0x9
ffffffff840025f0:	01979493          	sll	s1,a5,0x19
ffffffff840025f4:	80e5                	srl	s1,s1,0x19
ffffffff840025f6:	9399                	srl	a5,a5,0x26
ffffffff840025f8:	8b85                	and	a5,a5,1
ffffffff840025fa:	c781                	beqz	a5,ffffffff84002602 <c_handle_fastpath_call+0x102>
ffffffff840025fc:	57fd                	li	a5,-1
ffffffff840025fe:	179e                	sll	a5,a5,0x27
ffffffff84002600:	8cdd                	or	s1,s1,a5
ffffffff84002602:	03b75793          	srl	a5,a4,0x3b
ffffffff84002606:	468d                	li	a3,3
ffffffff84002608:	02d78463          	beq	a5,a3,ffffffff84002630 <c_handle_fastpath_call+0x130>
ffffffff8400260c:	557d                	li	a0,-1
ffffffff8400260e:	51e060ef          	jal	ffffffff84008b2c <slowpath>
ffffffff84002612:	557d                	li	a0,-1
ffffffff84002614:	518060ef          	jal	ffffffff84008b2c <slowpath>
ffffffff84002618:	03b45793          	srl	a5,s0,0x3b
ffffffff8400261c:	46a9                	li	a3,10
ffffffff8400261e:	f8d796e3          	bne	a5,a3,ffffffff840025aa <c_handle_fastpath_call+0xaa>
ffffffff84002622:	b705                	j	ffffffff84002542 <c_handle_fastpath_call+0x42>
ffffffff84002624:	557d                	li	a0,-1
ffffffff84002626:	506060ef          	jal	ffffffff84008b2c <slowpath>
ffffffff8400262a:	557d                	li	a0,-1
ffffffff8400262c:	500060ef          	jal	ffffffff84008b2c <slowpath>
ffffffff84002630:	931d                	srl	a4,a4,0x27
ffffffff84002632:	8b05                	and	a4,a4,1
ffffffff84002634:	df61                	beqz	a4,ffffffff8400260c <c_handle_fastpath_call+0x10c>
ffffffff84002636:	030ada93          	srl	s5,s5,0x30
ffffffff8400263a:	8a81bc03          	ld	s8,-1880(gp) # ffffffff84008cc0 <ksCurDomain>
ffffffff8400263e:	168a3583          	ld	a1,360(s4)
ffffffff84002642:	16883783          	ld	a5,360(a6)
ffffffff84002646:	14f5e663          	bltu	a1,a5,ffffffff84002792 <c_handle_fastpath_call+0x292>
ffffffff8400264a:	03945793          	srl	a5,s0,0x39
ffffffff8400264e:	9069                	srl	s0,s0,0x3a
ffffffff84002650:	8fc1                	or	a5,a5,s0
ffffffff84002652:	8b85                	and	a5,a5,1
ffffffff84002654:	14078763          	beqz	a5,ffffffff840027a2 <c_handle_fastpath_call+0x2a2>
ffffffff84002658:	158a3783          	ld	a5,344(s4)
ffffffff8400265c:	14fc1663          	bne	s8,a5,ffffffff840027a8 <c_handle_fastpath_call+0x2a8>
ffffffff84002660:	198a3783          	ld	a5,408(s4)
ffffffff84002664:	00fb3423          	sd	a5,8(s6) # 2008 <KERNEL_OFFSET-0xfffffffeffffdff8>
ffffffff84002668:	198a3783          	ld	a5,408(s4)
ffffffff8400266c:	14079163          	bnez	a5,ffffffff840027ae <c_handle_fastpath_call+0x2ae>
ffffffff84002670:	000b3023          	sd	zero,0(s6)
ffffffff84002674:	07f97593          	and	a1,s2,127
ffffffff84002678:	a8018513          	add	a0,gp,-1408 # ffffffff84008e98 <ksCurThread>
ffffffff8400267c:	6110                	ld	a2,0(a0)
ffffffff8400267e:	4795                	li	a5,5
ffffffff84002680:	10f63c23          	sd	a5,280(a2) # fffffffffc000118 <ki_end+0x77fe0118>
ffffffff84002684:	c0067693          	and	a3,a2,-1024
ffffffff84002688:	04068693          	add	a3,a3,64
ffffffff8400268c:	060b8713          	add	a4,s7,96
ffffffff84002690:	120a3783          	ld	a5,288(s4)
ffffffff84002694:	06cbb423          	sd	a2,104(s7)
ffffffff84002698:	8389                	srl	a5,a5,0x2
ffffffff8400269a:	8b89                	and	a5,a5,2
ffffffff8400269c:	4605                	li	a2,1
ffffffff8400269e:	167a                	sll	a2,a2,0x3e
ffffffff840026a0:	8fd1                	or	a5,a5,a2
ffffffff840026a2:	06fbb023          	sd	a5,96(s7)
ffffffff840026a6:	06dbb823          	sd	a3,112(s7)
ffffffff840026aa:	00376713          	or	a4,a4,3
ffffffff840026ae:	ee98                	sd	a4,24(a3)
ffffffff840026b0:	6110                	ld	a2,0(a0)
ffffffff840026b2:	cd81                	beqz	a1,ffffffff840026ca <c_handle_fastpath_call+0x1ca>
ffffffff840026b4:	87b2                	mv	a5,a2
ffffffff840026b6:	058a0713          	add	a4,s4,88
ffffffff840026ba:	058e                	sll	a1,a1,0x3
ffffffff840026bc:	962e                	add	a2,a2,a1
ffffffff840026be:	6fb4                	ld	a3,88(a5)
ffffffff840026c0:	e314                	sd	a3,0(a4)
ffffffff840026c2:	07a1                	add	a5,a5,8
ffffffff840026c4:	0721                	add	a4,a4,8
ffffffff840026c6:	fec79ce3          	bne	a5,a2,ffffffff840026be <c_handle_fastpath_call+0x1be>
ffffffff840026ca:	4785                	li	a5,1
ffffffff840026cc:	10fa3c23          	sd	a5,280(s4)
ffffffff840026d0:	179a                	sll	a5,a5,0x26
ffffffff840026d2:	97a6                	add	a5,a5,s1
ffffffff840026d4:	83b1                	srl	a5,a5,0xc
ffffffff840026d6:	577d                	li	a4,-1
ffffffff840026d8:	01475693          	srl	a3,a4,0x14
ffffffff840026dc:	8ff5                	and	a5,a5,a3
ffffffff840026de:	1ab2                	sll	s5,s5,0x2c
ffffffff840026e0:	0157e7b3          	or	a5,a5,s5
ffffffff840026e4:	177e                	sll	a4,a4,0x3f
ffffffff840026e6:	8fd9                	or	a5,a5,a4
ffffffff840026e8:	18079073          	csrw	satp,a5
ffffffff840026ec:	12000073          	sfence.vma
ffffffff840026f0:	a941b023          	sd	s4,-1408(gp) # ffffffff84008e98 <ksCurThread>
ffffffff840026f4:	854e                	mv	a0,s3
ffffffff840026f6:	75fd                	lui	a1,0xfffff
ffffffff840026f8:	1ff58593          	add	a1,a1,511 # fffffffffffff1ff <ki_end+0x7bfdf1ff>
ffffffff840026fc:	00b975b3          	and	a1,s2,a1
ffffffff84002700:	82d2                	mv	t0,s4
ffffffff84002702:	0002b083          	ld	ra,0(t0)
ffffffff84002706:	0082b103          	ld	sp,8(t0)
ffffffff8400270a:	0102b183          	ld	gp,16(t0)
ffffffff8400270e:	0302b383          	ld	t2,48(t0)
ffffffff84002712:	0382b403          	ld	s0,56(t0)
ffffffff84002716:	0402b483          	ld	s1,64(t0)
ffffffff8400271a:	0582b603          	ld	a2,88(t0)
ffffffff8400271e:	0602b683          	ld	a3,96(t0)
ffffffff84002722:	0682b703          	ld	a4,104(t0)
ffffffff84002726:	0702b783          	ld	a5,112(t0)
ffffffff8400272a:	0782b803          	ld	a6,120(t0)
ffffffff8400272e:	0802b883          	ld	a7,128(t0)
ffffffff84002732:	0882b903          	ld	s2,136(t0)
ffffffff84002736:	0902b983          	ld	s3,144(t0)
ffffffff8400273a:	0982ba03          	ld	s4,152(t0)
ffffffff8400273e:	0a02ba83          	ld	s5,160(t0)
ffffffff84002742:	0a82bb03          	ld	s6,168(t0)
ffffffff84002746:	0b02bb83          	ld	s7,176(t0)
ffffffff8400274a:	0b82bc03          	ld	s8,184(t0)
ffffffff8400274e:	0c02bc83          	ld	s9,192(t0)
ffffffff84002752:	0c82bd03          	ld	s10,200(t0)
ffffffff84002756:	0d02bd83          	ld	s11,208(t0)
ffffffff8400275a:	0d82be03          	ld	t3,216(t0)
ffffffff8400275e:	0e02be83          	ld	t4,224(t0)
ffffffff84002762:	0e82bf03          	ld	t5,232(t0)
ffffffff84002766:	0f02bf83          	ld	t6,240(t0)
ffffffff8400276a:	0182b303          	ld	t1,24(t0)
ffffffff8400276e:	00030233          	add	tp,t1,zero
ffffffff84002772:	1102b303          	ld	t1,272(t0)
ffffffff84002776:	14131073          	csrw	sepc,t1
ffffffff8400277a:	14029073          	csrw	sscratch,t0
ffffffff8400277e:	1002b303          	ld	t1,256(t0)
ffffffff84002782:	10031073          	csrw	sstatus,t1
ffffffff84002786:	0282b303          	ld	t1,40(t0)
ffffffff8400278a:	0202b283          	ld	t0,32(t0)
ffffffff8400278e:	10200073          	sret
ffffffff84002792:	8562                	mv	a0,s8
ffffffff84002794:	3b0060ef          	jal	ffffffff84008b44 <isHighestPrio>
ffffffff84002798:	ea0519e3          	bnez	a0,ffffffff8400264a <c_handle_fastpath_call+0x14a>
ffffffff8400279c:	557d                	li	a0,-1
ffffffff8400279e:	38e060ef          	jal	ffffffff84008b2c <slowpath>
ffffffff840027a2:	557d                	li	a0,-1
ffffffff840027a4:	388060ef          	jal	ffffffff84008b2c <slowpath>
ffffffff840027a8:	557d                	li	a0,-1
ffffffff840027aa:	382060ef          	jal	ffffffff84008b2c <slowpath>
ffffffff840027ae:	1a07b023          	sd	zero,416(a5)
ffffffff840027b2:	b5c9                	j	ffffffff84002674 <c_handle_fastpath_call+0x174>
ffffffff840027b4:	0000                	unimp
ffffffff840027b6:	0000                	unimp
ffffffff840027b8:	0000                	unimp
ffffffff840027ba:	0000                	unimp
ffffffff840027bc:	0000                	unimp
ffffffff840027be:	0000                	unimp
ffffffff840027c0:	0000                	unimp
ffffffff840027c2:	0000                	unimp
ffffffff840027c4:	0000                	unimp
ffffffff840027c6:	0000                	unimp
ffffffff840027c8:	0000                	unimp
ffffffff840027ca:	0000                	unimp
ffffffff840027cc:	0000                	unimp
ffffffff840027ce:	0000                	unimp
ffffffff840027d0:	0000                	unimp
ffffffff840027d2:	0000                	unimp
ffffffff840027d4:	0000                	unimp
ffffffff840027d6:	0000                	unimp
ffffffff840027d8:	0000                	unimp
ffffffff840027da:	0000                	unimp
ffffffff840027dc:	0000                	unimp

ffffffff840027de <idle_thread>:
ffffffff840027de:	10500073          	wfi
ffffffff840027e2:	bff5                	j	ffffffff840027de <idle_thread>

ffffffff840027e4 <pte_next>:
ffffffff840027e4:	00b035b3          	snez	a1,a1
ffffffff840027e8:	8109                	srl	a0,a0,0x2
ffffffff840027ea:	fff007b7          	lui	a5,0xfff00
ffffffff840027ee:	83a9                	srl	a5,a5,0xa
ffffffff840027f0:	8d7d                	and	a0,a0,a5
ffffffff840027f2:	0c800793          	li	a5,200
ffffffff840027f6:	02f587b3          	mul	a5,a1,a5
ffffffff840027fa:	8d5d                	or	a0,a0,a5
ffffffff840027fc:	00259793          	sll	a5,a1,0x2
ffffffff84002800:	8d5d                	or	a0,a0,a5
ffffffff84002802:	0586                	sll	a1,a1,0x1
ffffffff84002804:	8d4d                	or	a0,a0,a1
ffffffff84002806:	02156513          	or	a0,a0,33
ffffffff8400280a:	8082                	ret

ffffffff8400280c <findVSpaceForASID>:
ffffffff8400280c:	1141                	add	sp,sp,-16
ffffffff8400280e:	00955713          	srl	a4,a0,0x9
ffffffff84002812:	070e                	sll	a4,a4,0x3
ffffffff84002814:	d6818793          	add	a5,gp,-664 # ffffffff84009180 <riscvKSASIDTable>
ffffffff84002818:	97ba                	add	a5,a5,a4
ffffffff8400281a:	638c                	ld	a1,0(a5)
ffffffff8400281c:	c991                	beqz	a1,ffffffff84002830 <findVSpaceForASID+0x24>
ffffffff8400281e:	1ff57513          	and	a0,a0,511
ffffffff84002822:	050e                	sll	a0,a0,0x3
ffffffff84002824:	95aa                	add	a1,a1,a0
ffffffff84002826:	618c                	ld	a1,0(a1)
ffffffff84002828:	4501                	li	a0,0
ffffffff8400282a:	c999                	beqz	a1,ffffffff84002840 <findVSpaceForASID+0x34>
ffffffff8400282c:	0141                	add	sp,sp,16
ffffffff8400282e:	8082                	ret
ffffffff84002830:	d5818793          	add	a5,gp,-680 # ffffffff84009170 <current_lookup_fault>
ffffffff84002834:	0007b023          	sd	zero,0(a5) # fffffffffff00000 <ki_end+0x7bee0000>
ffffffff84002838:	0007b423          	sd	zero,8(a5)
ffffffff8400283c:	4509                	li	a0,2
ffffffff8400283e:	b7fd                	j	ffffffff8400282c <findVSpaceForASID+0x20>
ffffffff84002840:	d5818793          	add	a5,gp,-680 # ffffffff84009170 <current_lookup_fault>
ffffffff84002844:	0007b023          	sd	zero,0(a5)
ffffffff84002848:	0007b423          	sd	zero,8(a5)
ffffffff8400284c:	4509                	li	a0,2
ffffffff8400284e:	bff9                	j	ffffffff8400282c <findVSpaceForASID+0x20>

ffffffff84002850 <halt>:
ffffffff84002850:	4501                	li	a0,0
ffffffff84002852:	4581                	li	a1,0
ffffffff84002854:	4601                	li	a2,0
ffffffff84002856:	48a1                	li	a7,8
ffffffff84002858:	00000073          	ecall

ffffffff8400285c <setMRs_lookup_failure>:
ffffffff8400285c:	1101                	add	sp,sp,-32
ffffffff8400285e:	ec06                	sd	ra,24(sp)
ffffffff84002860:	882a                	mv	a6,a0
ffffffff84002862:	e436                	sd	a3,8(sp)
ffffffff84002864:	00367793          	and	a5,a2,3
ffffffff84002868:	00178893          	add	a7,a5,1
ffffffff8400286c:	468d                	li	a3,3
ffffffff8400286e:	04e6ff63          	bgeu	a3,a4,ffffffff840028cc <setMRs_lookup_failure+0x70>
ffffffff84002872:	cda5                	beqz	a1,ffffffff840028ea <setMRs_lookup_failure+0x8e>
ffffffff84002874:	0017069b          	addw	a3,a4,1
ffffffff84002878:	0006851b          	sext.w	a0,a3
ffffffff8400287c:	02069313          	sll	t1,a3,0x20
ffffffff84002880:	01d35693          	srl	a3,t1,0x1d
ffffffff84002884:	96ae                	add	a3,a3,a1
ffffffff84002886:	0116b023          	sd	a7,0(a3)
ffffffff8400288a:	4689                	li	a3,2
ffffffff8400288c:	06d78e63          	beq	a5,a3,ffffffff84002908 <setMRs_lookup_failure+0xac>
ffffffff84002890:	0ef6e863          	bltu	a3,a5,ffffffff84002980 <setMRs_lookup_failure+0x124>
ffffffff84002894:	cb8d                	beqz	a5,ffffffff840028c6 <setMRs_lookup_failure+0x6a>
ffffffff84002896:	4685                	li	a3,1
ffffffff84002898:	1ad79063          	bne	a5,a3,ffffffff84002a38 <setMRs_lookup_failure+0x1dc>
ffffffff8400289c:	0017079b          	addw	a5,a4,1
ffffffff840028a0:	0007851b          	sext.w	a0,a5
ffffffff840028a4:	8209                	srl	a2,a2,0x2
ffffffff840028a6:	07f67613          	and	a2,a2,127
ffffffff840028aa:	468d                	li	a3,3
ffffffff840028ac:	04a6f163          	bgeu	a3,a0,ffffffff840028ee <setMRs_lookup_failure+0x92>
ffffffff840028b0:	18058663          	beqz	a1,ffffffff84002a3c <setMRs_lookup_failure+0x1e0>
ffffffff840028b4:	2709                	addw	a4,a4,2
ffffffff840028b6:	0007051b          	sext.w	a0,a4
ffffffff840028ba:	02071793          	sll	a5,a4,0x20
ffffffff840028be:	01d7d713          	srl	a4,a5,0x1d
ffffffff840028c2:	972e                	add	a4,a4,a1
ffffffff840028c4:	e310                	sd	a2,0(a4)
ffffffff840028c6:	60e2                	ld	ra,24(sp)
ffffffff840028c8:	6105                	add	sp,sp,32
ffffffff840028ca:	8082                	ret
ffffffff840028cc:	02071513          	sll	a0,a4,0x20
ffffffff840028d0:	9101                	srl	a0,a0,0x20
ffffffff840028d2:	87018693          	add	a3,gp,-1936 # ffffffff84008c88 <msgRegisters>
ffffffff840028d6:	96aa                	add	a3,a3,a0
ffffffff840028d8:	0006c683          	lbu	a3,0(a3)
ffffffff840028dc:	068e                	sll	a3,a3,0x3
ffffffff840028de:	96c2                	add	a3,a3,a6
ffffffff840028e0:	0116b023          	sd	a7,0(a3)
ffffffff840028e4:	0017051b          	addw	a0,a4,1
ffffffff840028e8:	b74d                	j	ffffffff8400288a <setMRs_lookup_failure+0x2e>
ffffffff840028ea:	4511                	li	a0,4
ffffffff840028ec:	bf79                	j	ffffffff8400288a <setMRs_lookup_failure+0x2e>
ffffffff840028ee:	1782                	sll	a5,a5,0x20
ffffffff840028f0:	9381                	srl	a5,a5,0x20
ffffffff840028f2:	87018693          	add	a3,gp,-1936 # ffffffff84008c88 <msgRegisters>
ffffffff840028f6:	97b6                	add	a5,a5,a3
ffffffff840028f8:	0007c783          	lbu	a5,0(a5)
ffffffff840028fc:	078e                	sll	a5,a5,0x3
ffffffff840028fe:	97c2                	add	a5,a5,a6
ffffffff84002900:	e390                	sd	a2,0(a5)
ffffffff84002902:	0027051b          	addw	a0,a4,2
ffffffff84002906:	b7c1                	j	ffffffff840028c6 <setMRs_lookup_failure+0x6a>
ffffffff84002908:	0017069b          	addw	a3,a4,1
ffffffff8400290c:	0006889b          	sext.w	a7,a3
ffffffff84002910:	00265793          	srl	a5,a2,0x2
ffffffff84002914:	07f7f793          	and	a5,a5,127
ffffffff84002918:	450d                	li	a0,3
ffffffff8400291a:	03157e63          	bgeu	a0,a7,ffffffff84002956 <setMRs_lookup_failure+0xfa>
ffffffff8400291e:	12058163          	beqz	a1,ffffffff84002a40 <setMRs_lookup_failure+0x1e4>
ffffffff84002922:	0027069b          	addw	a3,a4,2
ffffffff84002926:	0006889b          	sext.w	a7,a3
ffffffff8400292a:	02069513          	sll	a0,a3,0x20
ffffffff8400292e:	01d55693          	srl	a3,a0,0x1d
ffffffff84002932:	96ae                	add	a3,a3,a1
ffffffff84002934:	e29c                	sd	a5,0(a3)
ffffffff84002936:	8225                	srl	a2,a2,0x9
ffffffff84002938:	07f67613          	and	a2,a2,127
ffffffff8400293c:	478d                	li	a5,3
ffffffff8400293e:	1117fa63          	bgeu	a5,a7,ffffffff84002a52 <setMRs_lookup_failure+0x1f6>
ffffffff84002942:	270d                	addw	a4,a4,3
ffffffff84002944:	0007051b          	sext.w	a0,a4
ffffffff84002948:	02071793          	sll	a5,a4,0x20
ffffffff8400294c:	01d7d713          	srl	a4,a5,0x1d
ffffffff84002950:	972e                	add	a4,a4,a1
ffffffff84002952:	e310                	sd	a2,0(a4)
ffffffff84002954:	bf8d                	j	ffffffff840028c6 <setMRs_lookup_failure+0x6a>
ffffffff84002956:	1682                	sll	a3,a3,0x20
ffffffff84002958:	9281                	srl	a3,a3,0x20
ffffffff8400295a:	87018513          	add	a0,gp,-1936 # ffffffff84008c88 <msgRegisters>
ffffffff8400295e:	96aa                	add	a3,a3,a0
ffffffff84002960:	0006c683          	lbu	a3,0(a3)
ffffffff84002964:	068e                	sll	a3,a3,0x3
ffffffff84002966:	96c2                	add	a3,a3,a6
ffffffff84002968:	e29c                	sd	a5,0(a3)
ffffffff8400296a:	0027089b          	addw	a7,a4,2
ffffffff8400296e:	8225                	srl	a2,a2,0x9
ffffffff84002970:	07f67613          	and	a2,a2,127
ffffffff84002974:	478d                	li	a5,3
ffffffff84002976:	0d17fe63          	bgeu	a5,a7,ffffffff84002a52 <setMRs_lookup_failure+0x1f6>
ffffffff8400297a:	f5e1                	bnez	a1,ffffffff84002942 <setMRs_lookup_failure+0xe6>
ffffffff8400297c:	4511                	li	a0,4
ffffffff8400297e:	b7a1                	j	ffffffff840028c6 <setMRs_lookup_failure+0x6a>
ffffffff84002980:	0017069b          	addw	a3,a4,1
ffffffff84002984:	0006889b          	sext.w	a7,a3
ffffffff84002988:	00965793          	srl	a5,a2,0x9
ffffffff8400298c:	07f7f793          	and	a5,a5,127
ffffffff84002990:	450d                	li	a0,3
ffffffff84002992:	05157c63          	bgeu	a0,a7,ffffffff840029ea <setMRs_lookup_failure+0x18e>
ffffffff84002996:	10058b63          	beqz	a1,ffffffff84002aac <setMRs_lookup_failure+0x250>
ffffffff8400299a:	0027069b          	addw	a3,a4,2
ffffffff8400299e:	0006889b          	sext.w	a7,a3
ffffffff840029a2:	02069313          	sll	t1,a3,0x20
ffffffff840029a6:	01d35513          	srl	a0,t1,0x1d
ffffffff840029aa:	952e                	add	a0,a0,a1
ffffffff840029ac:	e11c                	sd	a5,0(a0)
ffffffff840029ae:	6522                	ld	a0,8(sp)
ffffffff840029b0:	478d                	li	a5,3
ffffffff840029b2:	0b17fe63          	bgeu	a5,a7,ffffffff84002a6e <setMRs_lookup_failure+0x212>
ffffffff840029b6:	0037079b          	addw	a5,a4,3
ffffffff840029ba:	0007869b          	sext.w	a3,a5
ffffffff840029be:	02079893          	sll	a7,a5,0x20
ffffffff840029c2:	01d8d793          	srl	a5,a7,0x1d
ffffffff840029c6:	97ae                	add	a5,a5,a1
ffffffff840029c8:	e388                	sd	a0,0(a5)
ffffffff840029ca:	8209                	srl	a2,a2,0x2
ffffffff840029cc:	07f67613          	and	a2,a2,127
ffffffff840029d0:	478d                	li	a5,3
ffffffff840029d2:	0cd7f063          	bgeu	a5,a3,ffffffff84002a92 <setMRs_lookup_failure+0x236>
ffffffff840029d6:	2711                	addw	a4,a4,4
ffffffff840029d8:	0007051b          	sext.w	a0,a4
ffffffff840029dc:	02071793          	sll	a5,a4,0x20
ffffffff840029e0:	01d7d713          	srl	a4,a5,0x1d
ffffffff840029e4:	972e                	add	a4,a4,a1
ffffffff840029e6:	e310                	sd	a2,0(a4)
ffffffff840029e8:	bdf9                	j	ffffffff840028c6 <setMRs_lookup_failure+0x6a>
ffffffff840029ea:	1682                	sll	a3,a3,0x20
ffffffff840029ec:	9281                	srl	a3,a3,0x20
ffffffff840029ee:	87018513          	add	a0,gp,-1936 # ffffffff84008c88 <msgRegisters>
ffffffff840029f2:	96aa                	add	a3,a3,a0
ffffffff840029f4:	0006c683          	lbu	a3,0(a3)
ffffffff840029f8:	068e                	sll	a3,a3,0x3
ffffffff840029fa:	96c2                	add	a3,a3,a6
ffffffff840029fc:	e29c                	sd	a5,0(a3)
ffffffff840029fe:	0027079b          	addw	a5,a4,2
ffffffff84002a02:	6522                	ld	a0,8(sp)
ffffffff84002a04:	468d                	li	a3,3
ffffffff84002a06:	00f6f463          	bgeu	a3,a5,ffffffff84002a0e <setMRs_lookup_failure+0x1b2>
ffffffff84002a0a:	f5d5                	bnez	a1,ffffffff840029b6 <setMRs_lookup_failure+0x15a>
ffffffff84002a0c:	a075                	j	ffffffff84002ab8 <setMRs_lookup_failure+0x25c>
ffffffff84002a0e:	1782                	sll	a5,a5,0x20
ffffffff84002a10:	9381                	srl	a5,a5,0x20
ffffffff84002a12:	87018693          	add	a3,gp,-1936 # ffffffff84008c88 <msgRegisters>
ffffffff84002a16:	97b6                	add	a5,a5,a3
ffffffff84002a18:	0007c783          	lbu	a5,0(a5)
ffffffff84002a1c:	078e                	sll	a5,a5,0x3
ffffffff84002a1e:	97c2                	add	a5,a5,a6
ffffffff84002a20:	e388                	sd	a0,0(a5)
ffffffff84002a22:	0037069b          	addw	a3,a4,3
ffffffff84002a26:	8209                	srl	a2,a2,0x2
ffffffff84002a28:	07f67613          	and	a2,a2,127
ffffffff84002a2c:	478d                	li	a5,3
ffffffff84002a2e:	06d7f263          	bgeu	a5,a3,ffffffff84002a92 <setMRs_lookup_failure+0x236>
ffffffff84002a32:	4511                	li	a0,4
ffffffff84002a34:	f1cd                	bnez	a1,ffffffff840029d6 <setMRs_lookup_failure+0x17a>
ffffffff84002a36:	bd41                	j	ffffffff840028c6 <setMRs_lookup_failure+0x6a>
ffffffff84002a38:	e19ff0ef          	jal	ffffffff84002850 <halt>
ffffffff84002a3c:	4511                	li	a0,4
ffffffff84002a3e:	b561                	j	ffffffff840028c6 <setMRs_lookup_failure+0x6a>
ffffffff84002a40:	0027089b          	addw	a7,a4,2
ffffffff84002a44:	478d                	li	a5,3
ffffffff84002a46:	4511                	li	a0,4
ffffffff84002a48:	8225                	srl	a2,a2,0x9
ffffffff84002a4a:	07f67613          	and	a2,a2,127
ffffffff84002a4e:	e717ece3          	bltu	a5,a7,ffffffff840028c6 <setMRs_lookup_failure+0x6a>
ffffffff84002a52:	1882                	sll	a7,a7,0x20
ffffffff84002a54:	0208d893          	srl	a7,a7,0x20
ffffffff84002a58:	87018793          	add	a5,gp,-1936 # ffffffff84008c88 <msgRegisters>
ffffffff84002a5c:	97c6                	add	a5,a5,a7
ffffffff84002a5e:	0007c783          	lbu	a5,0(a5)
ffffffff84002a62:	078e                	sll	a5,a5,0x3
ffffffff84002a64:	97c2                	add	a5,a5,a6
ffffffff84002a66:	e390                	sd	a2,0(a5)
ffffffff84002a68:	0037051b          	addw	a0,a4,3
ffffffff84002a6c:	bda9                	j	ffffffff840028c6 <setMRs_lookup_failure+0x6a>
ffffffff84002a6e:	1682                	sll	a3,a3,0x20
ffffffff84002a70:	9281                	srl	a3,a3,0x20
ffffffff84002a72:	87018793          	add	a5,gp,-1936 # ffffffff84008c88 <msgRegisters>
ffffffff84002a76:	97b6                	add	a5,a5,a3
ffffffff84002a78:	0007c783          	lbu	a5,0(a5)
ffffffff84002a7c:	078e                	sll	a5,a5,0x3
ffffffff84002a7e:	97c2                	add	a5,a5,a6
ffffffff84002a80:	e388                	sd	a0,0(a5)
ffffffff84002a82:	0037069b          	addw	a3,a4,3
ffffffff84002a86:	8209                	srl	a2,a2,0x2
ffffffff84002a88:	07f67613          	and	a2,a2,127
ffffffff84002a8c:	478d                	li	a5,3
ffffffff84002a8e:	f4d7e4e3          	bltu	a5,a3,ffffffff840029d6 <setMRs_lookup_failure+0x17a>
ffffffff84002a92:	1682                	sll	a3,a3,0x20
ffffffff84002a94:	9281                	srl	a3,a3,0x20
ffffffff84002a96:	87018793          	add	a5,gp,-1936 # ffffffff84008c88 <msgRegisters>
ffffffff84002a9a:	97b6                	add	a5,a5,a3
ffffffff84002a9c:	0007c783          	lbu	a5,0(a5)
ffffffff84002aa0:	078e                	sll	a5,a5,0x3
ffffffff84002aa2:	97c2                	add	a5,a5,a6
ffffffff84002aa4:	e390                	sd	a2,0(a5)
ffffffff84002aa6:	0047051b          	addw	a0,a4,4
ffffffff84002aaa:	bd31                	j	ffffffff840028c6 <setMRs_lookup_failure+0x6a>
ffffffff84002aac:	0027079b          	addw	a5,a4,2
ffffffff84002ab0:	6522                	ld	a0,8(sp)
ffffffff84002ab2:	468d                	li	a3,3
ffffffff84002ab4:	f4f6fde3          	bgeu	a3,a5,ffffffff84002a0e <setMRs_lookup_failure+0x1b2>
ffffffff84002ab8:	0037069b          	addw	a3,a4,3
ffffffff84002abc:	478d                	li	a5,3
ffffffff84002abe:	4511                	li	a0,4
ffffffff84002ac0:	8209                	srl	a2,a2,0x2
ffffffff84002ac2:	07f67613          	and	a2,a2,127
ffffffff84002ac6:	e0d7e0e3          	bltu	a5,a3,ffffffff840028c6 <setMRs_lookup_failure+0x6a>
ffffffff84002aca:	b7e1                	j	ffffffff84002a92 <setMRs_lookup_failure+0x236>

ffffffff84002acc <Arch_handleFaultReply>:
ffffffff84002acc:	4795                	li	a5,5
ffffffff84002ace:	00f61463          	bne	a2,a5,ffffffff84002ad6 <Arch_handleFaultReply+0xa>
ffffffff84002ad2:	4505                	li	a0,1
ffffffff84002ad4:	8082                	ret
ffffffff84002ad6:	1141                	add	sp,sp,-16
ffffffff84002ad8:	e406                	sd	ra,8(sp)
ffffffff84002ada:	d77ff0ef          	jal	ffffffff84002850 <halt>

ffffffff84002ade <Arch_setMRs_fault>:
ffffffff84002ade:	4795                	li	a5,5
ffffffff84002ae0:	02f69463          	bne	a3,a5,ffffffff84002b08 <Arch_setMRs_fault+0x2a>
ffffffff84002ae4:	10853783          	ld	a5,264(a0)
ffffffff84002ae8:	edbc                	sd	a5,88(a1)
ffffffff84002aea:	14053783          	ld	a5,320(a0)
ffffffff84002aee:	f1bc                	sd	a5,96(a1)
ffffffff84002af0:	13853783          	ld	a5,312(a0)
ffffffff84002af4:	83cd                	srl	a5,a5,0x13
ffffffff84002af6:	8b85                	and	a5,a5,1
ffffffff84002af8:	f5bc                	sd	a5,104(a1)
ffffffff84002afa:	13853783          	ld	a5,312(a0)
ffffffff84002afe:	01b7d79b          	srlw	a5,a5,0x1b
ffffffff84002b02:	f9bc                	sd	a5,112(a1)
ffffffff84002b04:	4511                	li	a0,4
ffffffff84002b06:	8082                	ret
ffffffff84002b08:	1141                	add	sp,sp,-16
ffffffff84002b0a:	e406                	sd	ra,8(sp)
ffffffff84002b0c:	d45ff0ef          	jal	ffffffff84002850 <halt>

ffffffff84002b10 <setMRs_fault>:
ffffffff84002b10:	87aa                	mv	a5,a0
ffffffff84002b12:	852e                	mv	a0,a1
ffffffff84002b14:	85b2                	mv	a1,a2
ffffffff84002b16:	1387b683          	ld	a3,312(a5)
ffffffff84002b1a:	8abd                	and	a3,a3,15
ffffffff84002b1c:	4709                	li	a4,2
ffffffff84002b1e:	04e68563          	beq	a3,a4,ffffffff84002b68 <setMRs_fault+0x58>
ffffffff84002b22:	470d                	li	a4,3
ffffffff84002b24:	08e68463          	beq	a3,a4,ffffffff84002bac <setMRs_fault+0x9c>
ffffffff84002b28:	1141                	add	sp,sp,-16
ffffffff84002b2a:	e406                	sd	ra,8(sp)
ffffffff84002b2c:	4705                	li	a4,1
ffffffff84002b2e:	00e68763          	beq	a3,a4,ffffffff84002b3c <setMRs_fault+0x2c>
ffffffff84002b32:	85aa                	mv	a1,a0
ffffffff84002b34:	853e                	mv	a0,a5
ffffffff84002b36:	fa9ff0ef          	jal	ffffffff84002ade <Arch_setMRs_fault>
ffffffff84002b3a:	a025                	j	ffffffff84002b62 <setMRs_fault+0x52>
ffffffff84002b3c:	1087b703          	ld	a4,264(a5)
ffffffff84002b40:	ed38                	sd	a4,88(a0)
ffffffff84002b42:	1407b703          	ld	a4,320(a5)
ffffffff84002b46:	f138                	sd	a4,96(a0)
ffffffff84002b48:	1387b703          	ld	a4,312(a5)
ffffffff84002b4c:	937d                	srl	a4,a4,0x3f
ffffffff84002b4e:	f538                	sd	a4,104(a0)
ffffffff84002b50:	470d                	li	a4,3
ffffffff84002b52:	1487b603          	ld	a2,328(a5)
ffffffff84002b56:	1507b683          	ld	a3,336(a5)
ffffffff84002b5a:	d03ff0ef          	jal	ffffffff8400285c <setMRs_lookup_failure>
ffffffff84002b5e:	1502                	sll	a0,a0,0x20
ffffffff84002b60:	9101                	srl	a0,a0,0x20
ffffffff84002b62:	60a2                	ld	ra,8(sp)
ffffffff84002b64:	0141                	add	sp,sp,16
ffffffff84002b66:	8082                	ret
ffffffff84002b68:	1087b703          	ld	a4,264(a5)
ffffffff84002b6c:	ed38                	sd	a4,88(a0)
ffffffff84002b6e:	6798                	ld	a4,8(a5)
ffffffff84002b70:	f138                	sd	a4,96(a0)
ffffffff84002b72:	6398                	ld	a4,0(a5)
ffffffff84002b74:	f538                	sd	a4,104(a0)
ffffffff84002b76:	67b8                	ld	a4,72(a5)
ffffffff84002b78:	f938                	sd	a4,112(a0)
ffffffff84002b7a:	4511                	li	a0,4
ffffffff84002b7c:	c60d                	beqz	a2,ffffffff84002ba6 <setMRs_fault+0x96>
ffffffff84002b7e:	83818513          	add	a0,gp,-1992 # ffffffff84008c50 <fault_messages>
ffffffff84002b82:	02860693          	add	a3,a2,40
ffffffff84002b86:	05860613          	add	a2,a2,88
ffffffff84002b8a:	00454703          	lbu	a4,4(a0)
ffffffff84002b8e:	070e                	sll	a4,a4,0x3
ffffffff84002b90:	973e                	add	a4,a4,a5
ffffffff84002b92:	6318                	ld	a4,0(a4)
ffffffff84002b94:	e298                	sd	a4,0(a3)
ffffffff84002b96:	0505                	add	a0,a0,1
ffffffff84002b98:	06a1                	add	a3,a3,8
ffffffff84002b9a:	fed618e3          	bne	a2,a3,ffffffff84002b8a <setMRs_fault+0x7a>
ffffffff84002b9e:	1407b783          	ld	a5,320(a5)
ffffffff84002ba2:	edbc                	sd	a5,88(a1)
ffffffff84002ba4:	452d                	li	a0,11
ffffffff84002ba6:	1502                	sll	a0,a0,0x20
ffffffff84002ba8:	9101                	srl	a0,a0,0x20
ffffffff84002baa:	8082                	ret
ffffffff84002bac:	1087b703          	ld	a4,264(a5)
ffffffff84002bb0:	ed38                	sd	a4,88(a0)
ffffffff84002bb2:	6798                	ld	a4,8(a5)
ffffffff84002bb4:	f138                	sd	a4,96(a0)
ffffffff84002bb6:	13c7e703          	lwu	a4,316(a5)
ffffffff84002bba:	f538                	sd	a4,104(a0)
ffffffff84002bbc:	1387b783          	ld	a5,312(a5)
ffffffff84002bc0:	0047d79b          	srlw	a5,a5,0x4
ffffffff84002bc4:	f93c                	sd	a5,112(a0)
ffffffff84002bc6:	4511                	li	a0,4
ffffffff84002bc8:	8082                	ret

ffffffff84002bca <Arch_activateIdleThread>:
ffffffff84002bca:	8082                	ret

ffffffff84002bcc <Arch_postModifyRegisters>:
ffffffff84002bcc:	8082                	ret

ffffffff84002bce <copyGlobalMappings>:
ffffffff84002bce:	0001d797          	auipc	a5,0x1d
ffffffff84002bd2:	c3278793          	add	a5,a5,-974 # ffffffff8401f800 <kernel_root_pageTable+0x800>
ffffffff84002bd6:	6705                	lui	a4,0x1
ffffffff84002bd8:	80070713          	add	a4,a4,-2048 # 800 <KERNEL_OFFSET-0xfffffffefffff800>
ffffffff84002bdc:	972a                	add	a4,a4,a0
ffffffff84002bde:	0001d617          	auipc	a2,0x1d
ffffffff84002be2:	42260613          	add	a2,a2,1058 # ffffffff84020000 <ki_end>
ffffffff84002be6:	6394                	ld	a3,0(a5)
ffffffff84002be8:	e314                	sd	a3,0(a4)
ffffffff84002bea:	07a1                	add	a5,a5,8
ffffffff84002bec:	0721                	add	a4,a4,8
ffffffff84002bee:	fec79ce3          	bne	a5,a2,ffffffff84002be6 <copyGlobalMappings+0x18>
ffffffff84002bf2:	8082                	ret

ffffffff84002bf4 <lookupIPCBuffer>:
ffffffff84002bf4:	c005f793          	and	a5,a1,-1024
ffffffff84002bf8:	08078613          	add	a2,a5,128
ffffffff84002bfc:	63dc                	ld	a5,128(a5)
ffffffff84002bfe:	03b7d693          	srl	a3,a5,0x3b
ffffffff84002c02:	4705                	li	a4,1
ffffffff84002c04:	06e69963          	bne	a3,a4,ffffffff84002c76 <lookupIPCBuffer+0x82>
ffffffff84002c08:	0367d713          	srl	a4,a5,0x36
ffffffff84002c0c:	8b05                	and	a4,a4,1
ffffffff84002c0e:	e735                	bnez	a4,ffffffff84002c7a <lookupIPCBuffer+0x86>
ffffffff84002c10:	0377d713          	srl	a4,a5,0x37
ffffffff84002c14:	8b0d                	and	a4,a4,3
ffffffff84002c16:	468d                	li	a3,3
ffffffff84002c18:	02d71a63          	bne	a4,a3,ffffffff84002c4c <lookupIPCBuffer+0x58>
ffffffff84002c1c:	6618                	ld	a4,8(a2)
ffffffff84002c1e:	8325                	srl	a4,a4,0x9
ffffffff84002c20:	01971693          	sll	a3,a4,0x19
ffffffff84002c24:	82e5                	srl	a3,a3,0x19
ffffffff84002c26:	9319                	srl	a4,a4,0x26
ffffffff84002c28:	8b05                	and	a4,a4,1
ffffffff84002c2a:	c701                	beqz	a4,ffffffff84002c32 <lookupIPCBuffer+0x3e>
ffffffff84002c2c:	577d                	li	a4,-1
ffffffff84002c2e:	171e                	sll	a4,a4,0x27
ffffffff84002c30:	8ed9                	or	a3,a3,a4
ffffffff84002c32:	93e5                	srl	a5,a5,0x39
ffffffff84002c34:	8b8d                	and	a5,a5,3
ffffffff84002c36:	4705                	li	a4,1
ffffffff84002c38:	02e78063          	beq	a5,a4,ffffffff84002c58 <lookupIPCBuffer+0x64>
ffffffff84002c3c:	4709                	li	a4,2
ffffffff84002c3e:	00e78f63          	beq	a5,a4,ffffffff84002c5c <lookupIPCBuffer+0x68>
ffffffff84002c42:	cb85                	beqz	a5,ffffffff84002c72 <lookupIPCBuffer+0x7e>
ffffffff84002c44:	1141                	add	sp,sp,-16
ffffffff84002c46:	e406                	sd	ra,8(sp)
ffffffff84002c48:	c09ff0ef          	jal	ffffffff84002850 <halt>
ffffffff84002c4c:	e90d                	bnez	a0,ffffffff84002c7e <lookupIPCBuffer+0x8a>
ffffffff84002c4e:	4689                	li	a3,2
ffffffff84002c50:	fcd706e3          	beq	a4,a3,ffffffff84002c1c <lookupIPCBuffer+0x28>
ffffffff84002c54:	4501                	li	a0,0
ffffffff84002c56:	8082                	ret
ffffffff84002c58:	47d5                	li	a5,21
ffffffff84002c5a:	a011                	j	ffffffff84002c5e <lookupIPCBuffer+0x6a>
ffffffff84002c5c:	47f9                	li	a5,30
ffffffff84002c5e:	557d                	li	a0,-1
ffffffff84002c60:	00f51533          	sll	a0,a0,a5
ffffffff84002c64:	fff54513          	not	a0,a0
ffffffff84002c68:	1805b783          	ld	a5,384(a1)
ffffffff84002c6c:	8d7d                	and	a0,a0,a5
ffffffff84002c6e:	9536                	add	a0,a0,a3
ffffffff84002c70:	8082                	ret
ffffffff84002c72:	47b1                	li	a5,12
ffffffff84002c74:	b7ed                	j	ffffffff84002c5e <lookupIPCBuffer+0x6a>
ffffffff84002c76:	4501                	li	a0,0
ffffffff84002c78:	8082                	ret
ffffffff84002c7a:	4501                	li	a0,0
ffffffff84002c7c:	8082                	ret
ffffffff84002c7e:	4501                	li	a0,0
ffffffff84002c80:	8082                	ret

ffffffff84002c82 <handleFaultReply>:
ffffffff84002c82:	7179                	add	sp,sp,-48
ffffffff84002c84:	f406                	sd	ra,40(sp)
ffffffff84002c86:	f022                	sd	s0,32(sp)
ffffffff84002c88:	ec26                	sd	s1,24(sp)
ffffffff84002c8a:	e84a                	sd	s2,16(sp)
ffffffff84002c8c:	e44e                	sd	s3,8(sp)
ffffffff84002c8e:	842a                	mv	s0,a0
ffffffff84002c90:	69b8                	ld	a4,80(a1)
ffffffff84002c92:	07f77693          	and	a3,a4,127
ffffffff84002c96:	07800793          	li	a5,120
ffffffff84002c9a:	00d7f663          	bgeu	a5,a3,ffffffff84002ca6 <handleFaultReply+0x24>
ffffffff84002c9e:	f8077713          	and	a4,a4,-128
ffffffff84002ca2:	07876713          	or	a4,a4,120
ffffffff84002ca6:	00c75493          	srl	s1,a4,0xc
ffffffff84002caa:	07f77813          	and	a6,a4,127
ffffffff84002cae:	13843783          	ld	a5,312(s0) # 1138 <KERNEL_OFFSET-0xfffffffeffffeec8>
ffffffff84002cb2:	00f7f513          	and	a0,a5,15
ffffffff84002cb6:	4789                	li	a5,2
ffffffff84002cb8:	00f50d63          	beq	a0,a5,ffffffff84002cd2 <handleFaultReply+0x50>
ffffffff84002cbc:	478d                	li	a5,3
ffffffff84002cbe:	08f50f63          	beq	a0,a5,ffffffff84002d5c <handleFaultReply+0xda>
ffffffff84002cc2:	4785                	li	a5,1
ffffffff84002cc4:	08f50563          	beq	a0,a5,ffffffff84002d4e <handleFaultReply+0xcc>
ffffffff84002cc8:	4795                	li	a5,5
ffffffff84002cca:	0ef51a63          	bne	a0,a5,ffffffff84002dbe <handleFaultReply+0x13c>
ffffffff84002cce:	4505                	li	a0,1
ffffffff84002cd0:	a8bd                	j	ffffffff84002d4e <handleFaultReply+0xcc>
ffffffff84002cd2:	89c2                	mv	s3,a6
ffffffff84002cd4:	47a9                	li	a5,10
ffffffff84002cd6:	0107f363          	bgeu	a5,a6,ffffffff84002cdc <handleFaultReply+0x5a>
ffffffff84002cda:	49a9                	li	s3,10
ffffffff84002cdc:	88ce                	mv	a7,s3
ffffffff84002cde:	4791                	li	a5,4
ffffffff84002ce0:	0137f363          	bgeu	a5,s3,ffffffff84002ce6 <handleFaultReply+0x64>
ffffffff84002ce4:	4891                	li	a7,4
ffffffff84002ce6:	06080263          	beqz	a6,ffffffff84002d4a <handleFaultReply+0xc8>
ffffffff84002cea:	83818613          	add	a2,gp,-1992 # ffffffff84008c50 <fault_messages>
ffffffff84002cee:	87018693          	add	a3,gp,-1936 # ffffffff84008c88 <msgRegisters>
ffffffff84002cf2:	4701                	li	a4,0
ffffffff84002cf4:	0006c783          	lbu	a5,0(a3)
ffffffff84002cf8:	078e                	sll	a5,a5,0x3
ffffffff84002cfa:	97ae                	add	a5,a5,a1
ffffffff84002cfc:	6388                	ld	a0,0(a5)
ffffffff84002cfe:	00064783          	lbu	a5,0(a2)
ffffffff84002d02:	078e                	sll	a5,a5,0x3
ffffffff84002d04:	97a2                	add	a5,a5,s0
ffffffff84002d06:	e388                	sd	a0,0(a5)
ffffffff84002d08:	0705                	add	a4,a4,1
ffffffff84002d0a:	0605                	add	a2,a2,1
ffffffff84002d0c:	0685                	add	a3,a3,1
ffffffff84002d0e:	ff1763e3          	bltu	a4,a7,ffffffff84002cf4 <handleFaultReply+0x72>
ffffffff84002d12:	4905                	li	s2,1
ffffffff84002d14:	00080363          	beqz	a6,ffffffff84002d1a <handleFaultReply+0x98>
ffffffff84002d18:	8946                	mv	s2,a7
ffffffff84002d1a:	03397863          	bgeu	s2,s3,ffffffff84002d4a <handleFaultReply+0xc8>
ffffffff84002d1e:	4501                	li	a0,0
ffffffff84002d20:	ed5ff0ef          	jal	ffffffff84002bf4 <lookupIPCBuffer>
ffffffff84002d24:	c11d                	beqz	a0,ffffffff84002d4a <handleFaultReply+0xc8>
ffffffff84002d26:	83818693          	add	a3,gp,-1992 # ffffffff84008c50 <fault_messages>
ffffffff84002d2a:	96ca                	add	a3,a3,s2
ffffffff84002d2c:	00391713          	sll	a4,s2,0x3
ffffffff84002d30:	972a                	add	a4,a4,a0
ffffffff84002d32:	098e                	sll	s3,s3,0x3
ffffffff84002d34:	954e                	add	a0,a0,s3
ffffffff84002d36:	6710                	ld	a2,8(a4)
ffffffff84002d38:	0006c783          	lbu	a5,0(a3)
ffffffff84002d3c:	078e                	sll	a5,a5,0x3
ffffffff84002d3e:	97a2                	add	a5,a5,s0
ffffffff84002d40:	e390                	sd	a2,0(a5)
ffffffff84002d42:	0685                	add	a3,a3,1
ffffffff84002d44:	0721                	add	a4,a4,8
ffffffff84002d46:	fea718e3          	bne	a4,a0,ffffffff84002d36 <handleFaultReply+0xb4>
ffffffff84002d4a:	0014b513          	seqz	a0,s1
ffffffff84002d4e:	70a2                	ld	ra,40(sp)
ffffffff84002d50:	7402                	ld	s0,32(sp)
ffffffff84002d52:	64e2                	ld	s1,24(sp)
ffffffff84002d54:	6942                	ld	s2,16(sp)
ffffffff84002d56:	69a2                	ld	s3,8(sp)
ffffffff84002d58:	6145                	add	sp,sp,48
ffffffff84002d5a:	8082                	ret
ffffffff84002d5c:	00080a63          	beqz	a6,ffffffff84002d70 <handleFaultReply+0xee>
ffffffff84002d60:	6dbc                	ld	a5,88(a1)
ffffffff84002d62:	10f43423          	sd	a5,264(s0)
ffffffff84002d66:	07e77713          	and	a4,a4,126
ffffffff84002d6a:	c711                	beqz	a4,ffffffff84002d76 <handleFaultReply+0xf4>
ffffffff84002d6c:	71bc                	ld	a5,96(a1)
ffffffff84002d6e:	e41c                	sd	a5,8(s0)
ffffffff84002d70:	0014b513          	seqz	a0,s1
ffffffff84002d74:	bfe9                	j	ffffffff84002d4e <handleFaultReply+0xcc>
ffffffff84002d76:	89c2                	mv	s3,a6
ffffffff84002d78:	4789                	li	a5,2
ffffffff84002d7a:	0107f363          	bgeu	a5,a6,ffffffff84002d80 <handleFaultReply+0xfe>
ffffffff84002d7e:	4989                	li	s3,2
ffffffff84002d80:	4905                	li	s2,1
ffffffff84002d82:	00080763          	beqz	a6,ffffffff84002d90 <handleFaultReply+0x10e>
ffffffff84002d86:	894e                	mv	s2,s3
ffffffff84002d88:	4791                	li	a5,4
ffffffff84002d8a:	0137f363          	bgeu	a5,s3,ffffffff84002d90 <handleFaultReply+0x10e>
ffffffff84002d8e:	4911                	li	s2,4
ffffffff84002d90:	ff3970e3          	bgeu	s2,s3,ffffffff84002d70 <handleFaultReply+0xee>
ffffffff84002d94:	4501                	li	a0,0
ffffffff84002d96:	e5fff0ef          	jal	ffffffff84002bf4 <lookupIPCBuffer>
ffffffff84002d9a:	d979                	beqz	a0,ffffffff84002d70 <handleFaultReply+0xee>
ffffffff84002d9c:	83818613          	add	a2,gp,-1992 # ffffffff84008c50 <fault_messages>
ffffffff84002da0:	00c906b3          	add	a3,s2,a2
ffffffff84002da4:	0905                	add	s2,s2,1
ffffffff84002da6:	00391793          	sll	a5,s2,0x3
ffffffff84002daa:	97aa                	add	a5,a5,a0
ffffffff84002dac:	6398                	ld	a4,0(a5)
ffffffff84002dae:	00a6c783          	lbu	a5,10(a3)
ffffffff84002db2:	078e                	sll	a5,a5,0x3
ffffffff84002db4:	97a2                	add	a5,a5,s0
ffffffff84002db6:	e398                	sd	a4,0(a5)
ffffffff84002db8:	ff2994e3          	bne	s3,s2,ffffffff84002da0 <handleFaultReply+0x11e>
ffffffff84002dbc:	bf55                	j	ffffffff84002d70 <handleFaultReply+0xee>
ffffffff84002dbe:	a93ff0ef          	jal	ffffffff84002850 <halt>

ffffffff84002dc2 <lookupPTSlot>:
ffffffff84002dc2:	1141                	add	sp,sp,-16
ffffffff84002dc4:	862e                	mv	a2,a1
ffffffff84002dc6:	01e5d793          	srl	a5,a1,0x1e
ffffffff84002dca:	1ff7f793          	and	a5,a5,511
ffffffff84002dce:	078e                	sll	a5,a5,0x3
ffffffff84002dd0:	953e                	add	a0,a0,a5
ffffffff84002dd2:	45f9                	li	a1,30
ffffffff84002dd4:	430d                	li	t1,3
ffffffff84002dd6:	fff008b7          	lui	a7,0xfff00
ffffffff84002dda:	0088d893          	srl	a7,a7,0x8
ffffffff84002dde:	587d                	li	a6,-1
ffffffff84002de0:	181a                	sll	a6,a6,0x26
ffffffff84002de2:	a815                	j	ffffffff84002e16 <lookupPTSlot+0x54>
ffffffff84002de4:	0017d713          	srl	a4,a5,0x1
ffffffff84002de8:	0027d693          	srl	a3,a5,0x2
ffffffff84002dec:	8f55                	or	a4,a4,a3
ffffffff84002dee:	0037d693          	srl	a3,a5,0x3
ffffffff84002df2:	8f55                	or	a4,a4,a3
ffffffff84002df4:	8b05                	and	a4,a4,1
ffffffff84002df6:	e705                	bnez	a4,ffffffff84002e1e <lookupPTSlot+0x5c>
ffffffff84002df8:	ff758713          	add	a4,a1,-9
ffffffff84002dfc:	02670163          	beq	a4,t1,ffffffff84002e1e <lookupPTSlot+0x5c>
ffffffff84002e00:	078a                	sll	a5,a5,0x2
ffffffff84002e02:	0117f7b3          	and	a5,a5,a7
ffffffff84002e06:	97c2                	add	a5,a5,a6
ffffffff84002e08:	00e65533          	srl	a0,a2,a4
ffffffff84002e0c:	1ff57513          	and	a0,a0,511
ffffffff84002e10:	050e                	sll	a0,a0,0x3
ffffffff84002e12:	953e                	add	a0,a0,a5
ffffffff84002e14:	85ba                	mv	a1,a4
ffffffff84002e16:	611c                	ld	a5,0(a0)
ffffffff84002e18:	0017f713          	and	a4,a5,1
ffffffff84002e1c:	f761                	bnez	a4,ffffffff84002de4 <lookupPTSlot+0x22>
ffffffff84002e1e:	0141                	add	sp,sp,16
ffffffff84002e20:	8082                	ret

ffffffff84002e22 <handleVMFault>:
ffffffff84002e22:	14302773          	csrr	a4,stval
ffffffff84002e26:	47bd                	li	a5,15
ffffffff84002e28:	02b7e363          	bltu	a5,a1,ffffffff84002e4e <handleVMFault+0x2c>
ffffffff84002e2c:	4785                	li	a5,1
ffffffff84002e2e:	00b795b3          	sll	a1,a5,a1
ffffffff84002e32:	6789                	lui	a5,0x2
ffffffff84002e34:	02078793          	add	a5,a5,32 # 2020 <KERNEL_OFFSET-0xfffffffeffffdfe0>
ffffffff84002e38:	8fed                	and	a5,a5,a1
ffffffff84002e3a:	ef91                	bnez	a5,ffffffff84002e56 <handleVMFault+0x34>
ffffffff84002e3c:	6785                	lui	a5,0x1
ffffffff84002e3e:	0789                	add	a5,a5,2 # 1002 <KERNEL_OFFSET-0xfffffffeffffeffe>
ffffffff84002e40:	8fed                	and	a5,a5,a1
ffffffff84002e42:	e39d                	bnez	a5,ffffffff84002e68 <handleVMFault+0x46>
ffffffff84002e44:	67a1                	lui	a5,0x8
ffffffff84002e46:	08078793          	add	a5,a5,128 # 8080 <KERNEL_OFFSET-0xfffffffeffff7f80>
ffffffff84002e4a:	8dfd                	and	a1,a1,a5
ffffffff84002e4c:	e195                	bnez	a1,ffffffff84002e70 <handleVMFault+0x4e>
ffffffff84002e4e:	1141                	add	sp,sp,-16
ffffffff84002e50:	e406                	sd	ra,8(sp)
ffffffff84002e52:	9ffff0ef          	jal	ffffffff84002850 <halt>
ffffffff84002e56:	280006b7          	lui	a3,0x28000
ffffffff84002e5a:	0695                	add	a3,a3,5 # 28000005 <KERNEL_OFFSET-0xfffffffed7fffffb>
ffffffff84002e5c:	d4818793          	add	a5,gp,-696 # ffffffff84009160 <current_fault>
ffffffff84002e60:	e394                	sd	a3,0(a5)
ffffffff84002e62:	e798                	sd	a4,8(a5)
ffffffff84002e64:	4505                	li	a0,1
ffffffff84002e66:	8082                	ret
ffffffff84002e68:	080806b7          	lui	a3,0x8080
ffffffff84002e6c:	0695                	add	a3,a3,5 # 8080005 <KERNEL_OFFSET-0xfffffffef7f7fffb>
ffffffff84002e6e:	b7fd                	j	ffffffff84002e5c <handleVMFault+0x3a>
ffffffff84002e70:	380006b7          	lui	a3,0x38000
ffffffff84002e74:	0695                	add	a3,a3,5 # 38000005 <KERNEL_OFFSET-0xfffffffec7fffffb>
ffffffff84002e76:	b7dd                	j	ffffffff84002e5c <handleVMFault+0x3a>

ffffffff84002e78 <unmapPageTable>:
ffffffff84002e78:	7179                	add	sp,sp,-48
ffffffff84002e7a:	f406                	sd	ra,40(sp)
ffffffff84002e7c:	f022                	sd	s0,32(sp)
ffffffff84002e7e:	ec26                	sd	s1,24(sp)
ffffffff84002e80:	842e                	mv	s0,a1
ffffffff84002e82:	84b2                	mv	s1,a2
ffffffff84002e84:	989ff0ef          	jal	ffffffff8400280c <findVSpaceForASID>
ffffffff84002e88:	e02a                	sd	a0,0(sp)
ffffffff84002e8a:	e42e                	sd	a1,8(sp)
ffffffff84002e8c:	e141                	bnez	a0,ffffffff84002f0c <unmapPageTable+0x94>
ffffffff84002e8e:	08958463          	beq	a1,s1,ffffffff84002f16 <unmapPageTable+0x9e>
ffffffff84002e92:	01e45793          	srl	a5,s0,0x1e
ffffffff84002e96:	1ff7f793          	and	a5,a5,511
ffffffff84002e9a:	078e                	sll	a5,a5,0x3
ffffffff84002e9c:	00f586b3          	add	a3,a1,a5
ffffffff84002ea0:	629c                	ld	a5,0(a3)
ffffffff84002ea2:	0017f713          	and	a4,a5,1
ffffffff84002ea6:	c33d                	beqz	a4,ffffffff84002f0c <unmapPageTable+0x94>
ffffffff84002ea8:	0027d713          	srl	a4,a5,0x2
ffffffff84002eac:	0017d613          	srl	a2,a5,0x1
ffffffff84002eb0:	8f51                	or	a4,a4,a2
ffffffff84002eb2:	0037d613          	srl	a2,a5,0x3
ffffffff84002eb6:	8f51                	or	a4,a4,a2
ffffffff84002eb8:	8b05                	and	a4,a4,1
ffffffff84002eba:	eb29                	bnez	a4,ffffffff84002f0c <unmapPageTable+0x94>
ffffffff84002ebc:	078a                	sll	a5,a5,0x2
ffffffff84002ebe:	fff00737          	lui	a4,0xfff00
ffffffff84002ec2:	8321                	srl	a4,a4,0x8
ffffffff84002ec4:	8ff9                	and	a5,a5,a4
ffffffff84002ec6:	577d                	li	a4,-1
ffffffff84002ec8:	171a                	sll	a4,a4,0x26
ffffffff84002eca:	97ba                	add	a5,a5,a4
ffffffff84002ecc:	04f48663          	beq	s1,a5,ffffffff84002f18 <unmapPageTable+0xa0>
ffffffff84002ed0:	8055                	srl	s0,s0,0x15
ffffffff84002ed2:	1ff47413          	and	s0,s0,511
ffffffff84002ed6:	040e                	sll	s0,s0,0x3
ffffffff84002ed8:	008786b3          	add	a3,a5,s0
ffffffff84002edc:	629c                	ld	a5,0(a3)
ffffffff84002ede:	0017f713          	and	a4,a5,1
ffffffff84002ee2:	c70d                	beqz	a4,ffffffff84002f0c <unmapPageTable+0x94>
ffffffff84002ee4:	0017d713          	srl	a4,a5,0x1
ffffffff84002ee8:	0027d613          	srl	a2,a5,0x2
ffffffff84002eec:	8f51                	or	a4,a4,a2
ffffffff84002eee:	0037d613          	srl	a2,a5,0x3
ffffffff84002ef2:	8f51                	or	a4,a4,a2
ffffffff84002ef4:	8b05                	and	a4,a4,1
ffffffff84002ef6:	eb19                	bnez	a4,ffffffff84002f0c <unmapPageTable+0x94>
ffffffff84002ef8:	078a                	sll	a5,a5,0x2
ffffffff84002efa:	fff00737          	lui	a4,0xfff00
ffffffff84002efe:	8321                	srl	a4,a4,0x8
ffffffff84002f00:	8ff9                	and	a5,a5,a4
ffffffff84002f02:	577d                	li	a4,-1
ffffffff84002f04:	171a                	sll	a4,a4,0x26
ffffffff84002f06:	97ba                	add	a5,a5,a4
ffffffff84002f08:	00f48863          	beq	s1,a5,ffffffff84002f18 <unmapPageTable+0xa0>
ffffffff84002f0c:	70a2                	ld	ra,40(sp)
ffffffff84002f0e:	7402                	ld	s0,32(sp)
ffffffff84002f10:	64e2                	ld	s1,24(sp)
ffffffff84002f12:	6145                	add	sp,sp,48
ffffffff84002f14:	8082                	ret
ffffffff84002f16:	4681                	li	a3,0
ffffffff84002f18:	0006b023          	sd	zero,0(a3)
ffffffff84002f1c:	12000073          	sfence.vma
ffffffff84002f20:	b7f5                	j	ffffffff84002f0c <unmapPageTable+0x94>

ffffffff84002f22 <unmapPage>:
ffffffff84002f22:	7139                	add	sp,sp,-64
ffffffff84002f24:	fc06                	sd	ra,56(sp)
ffffffff84002f26:	f822                	sd	s0,48(sp)
ffffffff84002f28:	f426                	sd	s1,40(sp)
ffffffff84002f2a:	f04a                	sd	s2,32(sp)
ffffffff84002f2c:	842a                	mv	s0,a0
ffffffff84002f2e:	8932                	mv	s2,a2
ffffffff84002f30:	84b6                	mv	s1,a3
ffffffff84002f32:	852e                	mv	a0,a1
ffffffff84002f34:	8d9ff0ef          	jal	ffffffff8400280c <findVSpaceForASID>
ffffffff84002f38:	e82a                	sd	a0,16(sp)
ffffffff84002f3a:	ec2e                	sd	a1,24(sp)
ffffffff84002f3c:	c519                	beqz	a0,ffffffff84002f4a <unmapPage+0x28>
ffffffff84002f3e:	70e2                	ld	ra,56(sp)
ffffffff84002f40:	7442                	ld	s0,48(sp)
ffffffff84002f42:	74a2                	ld	s1,40(sp)
ffffffff84002f44:	7902                	ld	s2,32(sp)
ffffffff84002f46:	6121                	add	sp,sp,64
ffffffff84002f48:	8082                	ret
ffffffff84002f4a:	85ca                	mv	a1,s2
ffffffff84002f4c:	6562                	ld	a0,24(sp)
ffffffff84002f4e:	e75ff0ef          	jal	ffffffff84002dc2 <lookupPTSlot>
ffffffff84002f52:	e02a                	sd	a0,0(sp)
ffffffff84002f54:	e42e                	sd	a1,8(sp)
ffffffff84002f56:	4785                	li	a5,1
ffffffff84002f58:	00f40863          	beq	s0,a5,ffffffff84002f68 <unmapPage+0x46>
ffffffff84002f5c:	4789                	li	a5,2
ffffffff84002f5e:	00f40763          	beq	s0,a5,ffffffff84002f6c <unmapPage+0x4a>
ffffffff84002f62:	c429                	beqz	s0,ffffffff84002fac <unmapPage+0x8a>
ffffffff84002f64:	8edff0ef          	jal	ffffffff84002850 <halt>
ffffffff84002f68:	47d5                	li	a5,21
ffffffff84002f6a:	a011                	j	ffffffff84002f6e <unmapPage+0x4c>
ffffffff84002f6c:	47f9                	li	a5,30
ffffffff84002f6e:	fcf598e3          	bne	a1,a5,ffffffff84002f3e <unmapPage+0x1c>
ffffffff84002f72:	6118                	ld	a4,0(a0)
ffffffff84002f74:	00177793          	and	a5,a4,1
ffffffff84002f78:	d3f9                	beqz	a5,ffffffff84002f3e <unmapPage+0x1c>
ffffffff84002f7a:	00175793          	srl	a5,a4,0x1
ffffffff84002f7e:	00275693          	srl	a3,a4,0x2
ffffffff84002f82:	8fd5                	or	a5,a5,a3
ffffffff84002f84:	00375693          	srl	a3,a4,0x3
ffffffff84002f88:	8fd5                	or	a5,a5,a3
ffffffff84002f8a:	8b85                	and	a5,a5,1
ffffffff84002f8c:	dbcd                	beqz	a5,ffffffff84002f3e <unmapPage+0x1c>
ffffffff84002f8e:	070a                	sll	a4,a4,0x2
ffffffff84002f90:	fff007b7          	lui	a5,0xfff00
ffffffff84002f94:	83a1                	srl	a5,a5,0x8
ffffffff84002f96:	8f7d                	and	a4,a4,a5
ffffffff84002f98:	4785                	li	a5,1
ffffffff84002f9a:	179a                	sll	a5,a5,0x26
ffffffff84002f9c:	94be                	add	s1,s1,a5
ffffffff84002f9e:	fa9710e3          	bne	a4,s1,ffffffff84002f3e <unmapPage+0x1c>
ffffffff84002fa2:	00053023          	sd	zero,0(a0)
ffffffff84002fa6:	12000073          	sfence.vma
ffffffff84002faa:	bf51                	j	ffffffff84002f3e <unmapPage+0x1c>
ffffffff84002fac:	47b1                	li	a5,12
ffffffff84002fae:	b7c1                	j	ffffffff84002f6e <unmapPage+0x4c>

ffffffff84002fb0 <setVMRoot>:
ffffffff84002fb0:	c0057513          	and	a0,a0,-1024
ffffffff84002fb4:	7518                	ld	a4,40(a0)
ffffffff84002fb6:	711c                	ld	a5,32(a0)
ffffffff84002fb8:	93ed                	srl	a5,a5,0x3b
ffffffff84002fba:	468d                	li	a3,3
ffffffff84002fbc:	02d78563          	beq	a5,a3,ffffffff84002fe6 <setVMRoot+0x36>
ffffffff84002fc0:	0001c797          	auipc	a5,0x1c
ffffffff84002fc4:	04078793          	add	a5,a5,64 # ffffffff8401f000 <kernel_root_pageTable>
ffffffff84002fc8:	4705                	li	a4,1
ffffffff84002fca:	1702                	sll	a4,a4,0x20
ffffffff84002fcc:	97ba                	add	a5,a5,a4
ffffffff84002fce:	83b1                	srl	a5,a5,0xc
ffffffff84002fd0:	577d                	li	a4,-1
ffffffff84002fd2:	01475693          	srl	a3,a4,0x14
ffffffff84002fd6:	8ff5                	and	a5,a5,a3
ffffffff84002fd8:	177e                	sll	a4,a4,0x3f
ffffffff84002fda:	8fd9                	or	a5,a5,a4
ffffffff84002fdc:	18079073          	csrw	satp,a5
ffffffff84002fe0:	12000073          	sfence.vma
ffffffff84002fe4:	8082                	ret
ffffffff84002fe6:	7179                	add	sp,sp,-48
ffffffff84002fe8:	f406                	sd	ra,40(sp)
ffffffff84002fea:	f022                	sd	s0,32(sp)
ffffffff84002fec:	ec26                	sd	s1,24(sp)
ffffffff84002fee:	e84a                	sd	s2,16(sp)
ffffffff84002ff0:	00975793          	srl	a5,a4,0x9
ffffffff84002ff4:	01979413          	sll	s0,a5,0x19
ffffffff84002ff8:	8065                	srl	s0,s0,0x19
ffffffff84002ffa:	9399                	srl	a5,a5,0x26
ffffffff84002ffc:	8b85                	and	a5,a5,1
ffffffff84002ffe:	c781                	beqz	a5,ffffffff84003006 <setVMRoot+0x56>
ffffffff84003000:	57fd                	li	a5,-1
ffffffff84003002:	179e                	sll	a5,a5,0x27
ffffffff84003004:	8c5d                	or	s0,s0,a5
ffffffff84003006:	03075493          	srl	s1,a4,0x30
ffffffff8400300a:	8526                	mv	a0,s1
ffffffff8400300c:	801ff0ef          	jal	ffffffff8400280c <findVSpaceForASID>
ffffffff84003010:	e02a                	sd	a0,0(sp)
ffffffff84003012:	e42e                	sd	a1,8(sp)
ffffffff84003014:	e915                	bnez	a0,ffffffff84003048 <setVMRoot+0x98>
ffffffff84003016:	02859963          	bne	a1,s0,ffffffff84003048 <setVMRoot+0x98>
ffffffff8400301a:	4785                	li	a5,1
ffffffff8400301c:	179a                	sll	a5,a5,0x26
ffffffff8400301e:	97a2                	add	a5,a5,s0
ffffffff84003020:	83b1                	srl	a5,a5,0xc
ffffffff84003022:	577d                	li	a4,-1
ffffffff84003024:	01475693          	srl	a3,a4,0x14
ffffffff84003028:	8ff5                	and	a5,a5,a3
ffffffff8400302a:	02c49513          	sll	a0,s1,0x2c
ffffffff8400302e:	8fc9                	or	a5,a5,a0
ffffffff84003030:	177e                	sll	a4,a4,0x3f
ffffffff84003032:	8fd9                	or	a5,a5,a4
ffffffff84003034:	18079073          	csrw	satp,a5
ffffffff84003038:	12000073          	sfence.vma
ffffffff8400303c:	70a2                	ld	ra,40(sp)
ffffffff8400303e:	7402                	ld	s0,32(sp)
ffffffff84003040:	64e2                	ld	s1,24(sp)
ffffffff84003042:	6942                	ld	s2,16(sp)
ffffffff84003044:	6145                	add	sp,sp,48
ffffffff84003046:	8082                	ret
ffffffff84003048:	0001c797          	auipc	a5,0x1c
ffffffff8400304c:	fb878793          	add	a5,a5,-72 # ffffffff8401f000 <kernel_root_pageTable>
ffffffff84003050:	4705                	li	a4,1
ffffffff84003052:	1702                	sll	a4,a4,0x20
ffffffff84003054:	97ba                	add	a5,a5,a4
ffffffff84003056:	83b1                	srl	a5,a5,0xc
ffffffff84003058:	577d                	li	a4,-1
ffffffff8400305a:	01475693          	srl	a3,a4,0x14
ffffffff8400305e:	8ff5                	and	a5,a5,a3
ffffffff84003060:	177e                	sll	a4,a4,0x3f
ffffffff84003062:	8fd9                	or	a5,a5,a4
ffffffff84003064:	18079073          	csrw	satp,a5
ffffffff84003068:	12000073          	sfence.vma
ffffffff8400306c:	bfc1                	j	ffffffff8400303c <setVMRoot+0x8c>

ffffffff8400306e <Arch_switchToThread>:
ffffffff8400306e:	1141                	add	sp,sp,-16
ffffffff84003070:	e406                	sd	ra,8(sp)
ffffffff84003072:	f3fff0ef          	jal	ffffffff84002fb0 <setVMRoot>
ffffffff84003076:	60a2                	ld	ra,8(sp)
ffffffff84003078:	0141                	add	sp,sp,16
ffffffff8400307a:	8082                	ret

ffffffff8400307c <Arch_switchToIdleThread>:
ffffffff8400307c:	1141                	add	sp,sp,-16
ffffffff8400307e:	e406                	sd	ra,8(sp)
ffffffff84003080:	a781b503          	ld	a0,-1416(gp) # ffffffff84008e90 <ksIdleThread>
ffffffff84003084:	f2dff0ef          	jal	ffffffff84002fb0 <setVMRoot>
ffffffff84003088:	60a2                	ld	ra,8(sp)
ffffffff8400308a:	0141                	add	sp,sp,16
ffffffff8400308c:	8082                	ret

ffffffff8400308e <deleteASIDPool>:
ffffffff8400308e:	8125                	srl	a0,a0,0x9
ffffffff84003090:	00351713          	sll	a4,a0,0x3
ffffffff84003094:	d6818793          	add	a5,gp,-664 # ffffffff84009180 <riscvKSASIDTable>
ffffffff84003098:	97ba                	add	a5,a5,a4
ffffffff8400309a:	639c                	ld	a5,0(a5)
ffffffff8400309c:	00b78363          	beq	a5,a1,ffffffff840030a2 <deleteASIDPool+0x14>
ffffffff840030a0:	8082                	ret
ffffffff840030a2:	1141                	add	sp,sp,-16
ffffffff840030a4:	e406                	sd	ra,8(sp)
ffffffff840030a6:	d6818793          	add	a5,gp,-664 # ffffffff84009180 <riscvKSASIDTable>
ffffffff840030aa:	97ba                	add	a5,a5,a4
ffffffff840030ac:	0007b023          	sd	zero,0(a5)
ffffffff840030b0:	a801b503          	ld	a0,-1408(gp) # ffffffff84008e98 <ksCurThread>
ffffffff840030b4:	efdff0ef          	jal	ffffffff84002fb0 <setVMRoot>
ffffffff840030b8:	60a2                	ld	ra,8(sp)
ffffffff840030ba:	0141                	add	sp,sp,16
ffffffff840030bc:	8082                	ret

ffffffff840030be <deleteASID>:
ffffffff840030be:	00955713          	srl	a4,a0,0x9
ffffffff840030c2:	070e                	sll	a4,a4,0x3
ffffffff840030c4:	d6818793          	add	a5,gp,-664 # ffffffff84009180 <riscvKSASIDTable>
ffffffff840030c8:	97ba                	add	a5,a5,a4
ffffffff840030ca:	639c                	ld	a5,0(a5)
ffffffff840030cc:	cb81                	beqz	a5,ffffffff840030dc <deleteASID+0x1e>
ffffffff840030ce:	1ff57713          	and	a4,a0,511
ffffffff840030d2:	070e                	sll	a4,a4,0x3
ffffffff840030d4:	97ba                	add	a5,a5,a4
ffffffff840030d6:	6398                	ld	a4,0(a5)
ffffffff840030d8:	00b70363          	beq	a4,a1,ffffffff840030de <deleteASID+0x20>
ffffffff840030dc:	8082                	ret
ffffffff840030de:	1141                	add	sp,sp,-16
ffffffff840030e0:	e406                	sd	ra,8(sp)
ffffffff840030e2:	12a00073          	sfence.vma	zero,a0
ffffffff840030e6:	0007b023          	sd	zero,0(a5)
ffffffff840030ea:	a801b503          	ld	a0,-1408(gp) # ffffffff84008e98 <ksCurThread>
ffffffff840030ee:	ec3ff0ef          	jal	ffffffff84002fb0 <setVMRoot>
ffffffff840030f2:	60a2                	ld	ra,8(sp)
ffffffff840030f4:	0141                	add	sp,sp,16
ffffffff840030f6:	8082                	ret

ffffffff840030f8 <isValidVTableRoot>:
ffffffff840030f8:	1141                	add	sp,sp,-16
ffffffff840030fa:	03b55713          	srl	a4,a0,0x3b
ffffffff840030fe:	478d                	li	a5,3
ffffffff84003100:	911d                	srl	a0,a0,0x27
ffffffff84003102:	8905                	and	a0,a0,1
ffffffff84003104:	00f70363          	beq	a4,a5,ffffffff8400310a <isValidVTableRoot+0x12>
ffffffff84003108:	4501                	li	a0,0
ffffffff8400310a:	0141                	add	sp,sp,16
ffffffff8400310c:	8082                	ret

ffffffff8400310e <checkValidIPCBuffer>:
ffffffff8400310e:	1141                	add	sp,sp,-16
ffffffff84003110:	03b5d713          	srl	a4,a1,0x3b
ffffffff84003114:	4785                	li	a5,1
ffffffff84003116:	00f71a63          	bne	a4,a5,ffffffff8400312a <checkValidIPCBuffer+0x1c>
ffffffff8400311a:	91d9                	srl	a1,a1,0x36
ffffffff8400311c:	8985                	and	a1,a1,1
ffffffff8400311e:	e999                	bnez	a1,ffffffff84003134 <checkValidIPCBuffer+0x26>
ffffffff84003120:	3ff57513          	and	a0,a0,1023
ffffffff84003124:	ed09                	bnez	a0,ffffffff8400313e <checkValidIPCBuffer+0x30>
ffffffff84003126:	0141                	add	sp,sp,16
ffffffff84003128:	8082                	ret
ffffffff8400312a:	478d                	li	a5,3
ffffffff8400312c:	d4f1b023          	sd	a5,-704(gp) # ffffffff84009158 <current_syscall_error+0x30>
ffffffff84003130:	450d                	li	a0,3
ffffffff84003132:	bfd5                	j	ffffffff84003126 <checkValidIPCBuffer+0x18>
ffffffff84003134:	478d                	li	a5,3
ffffffff84003136:	d4f1b023          	sd	a5,-704(gp) # ffffffff84009158 <current_syscall_error+0x30>
ffffffff8400313a:	450d                	li	a0,3
ffffffff8400313c:	b7ed                	j	ffffffff84003126 <checkValidIPCBuffer+0x18>
ffffffff8400313e:	4795                	li	a5,5
ffffffff84003140:	d4f1b023          	sd	a5,-704(gp) # ffffffff84009158 <current_syscall_error+0x30>
ffffffff84003144:	450d                	li	a0,3
ffffffff84003146:	b7c5                	j	ffffffff84003126 <checkValidIPCBuffer+0x18>

ffffffff84003148 <maskVMRights>:
ffffffff84003148:	87aa                	mv	a5,a0
ffffffff8400314a:	4709                	li	a4,2
ffffffff8400314c:	00e50763          	beq	a0,a4,ffffffff8400315a <maskVMRights+0x12>
ffffffff84003150:	470d                	li	a4,3
ffffffff84003152:	4505                	li	a0,1
ffffffff84003154:	00e78863          	beq	a5,a4,ffffffff84003164 <maskVMRights+0x1c>
ffffffff84003158:	8082                	ret
ffffffff8400315a:	8185                	srl	a1,a1,0x1
ffffffff8400315c:	8985                	and	a1,a1,1
ffffffff8400315e:	00158513          	add	a0,a1,1
ffffffff84003162:	8082                	ret
ffffffff84003164:	0015d793          	srl	a5,a1,0x1
ffffffff84003168:	8b85                	and	a5,a5,1
ffffffff8400316a:	d7fd                	beqz	a5,ffffffff84003158 <maskVMRights+0x10>
ffffffff8400316c:	8985                	and	a1,a1,1
ffffffff8400316e:	00258513          	add	a0,a1,2
ffffffff84003172:	b7dd                	j	ffffffff84003158 <maskVMRights+0x10>

ffffffff84003174 <performPageTableInvocationMap>:
ffffffff84003174:	1141                	add	sp,sp,-16
ffffffff84003176:	e02a                	sd	a0,0(sp)
ffffffff84003178:	e42e                	sd	a1,8(sp)
ffffffff8400317a:	e208                	sd	a0,0(a2)
ffffffff8400317c:	e60c                	sd	a1,8(a2)
ffffffff8400317e:	e314                	sd	a3,0(a4)
ffffffff84003180:	12000073          	sfence.vma
ffffffff84003184:	4501                	li	a0,0
ffffffff84003186:	0141                	add	sp,sp,16
ffffffff84003188:	8082                	ret

ffffffff8400318a <performPageInvocationMapPTE>:
ffffffff8400318a:	1141                	add	sp,sp,-16
ffffffff8400318c:	e02a                	sd	a0,0(sp)
ffffffff8400318e:	e42e                	sd	a1,8(sp)
ffffffff84003190:	e208                	sd	a0,0(a2)
ffffffff84003192:	e60c                	sd	a1,8(a2)
ffffffff84003194:	e314                	sd	a3,0(a4)
ffffffff84003196:	12000073          	sfence.vma
ffffffff8400319a:	4501                	li	a0,0
ffffffff8400319c:	0141                	add	sp,sp,16
ffffffff8400319e:	8082                	ret

ffffffff840031a0 <performPageInvocationUnmap>:
ffffffff840031a0:	1101                	add	sp,sp,-32
ffffffff840031a2:	ec06                	sd	ra,24(sp)
ffffffff840031a4:	e822                	sd	s0,16(sp)
ffffffff840031a6:	e02a                	sd	a0,0(sp)
ffffffff840031a8:	8432                	mv	s0,a2
ffffffff840031aa:	87ae                	mv	a5,a1
ffffffff840031ac:	91c1                	srl	a1,a1,0x30
ffffffff840031ae:	c98d                	beqz	a1,ffffffff840031e0 <performPageInvocationUnmap+0x40>
ffffffff840031b0:	872a                	mv	a4,a0
ffffffff840031b2:	9165                	srl	a0,a0,0x39
ffffffff840031b4:	890d                	and	a0,a0,3
ffffffff840031b6:	01971613          	sll	a2,a4,0x19
ffffffff840031ba:	8265                	srl	a2,a2,0x19
ffffffff840031bc:	9319                	srl	a4,a4,0x26
ffffffff840031be:	8b05                	and	a4,a4,1
ffffffff840031c0:	c701                	beqz	a4,ffffffff840031c8 <performPageInvocationUnmap+0x28>
ffffffff840031c2:	577d                	li	a4,-1
ffffffff840031c4:	171e                	sll	a4,a4,0x27
ffffffff840031c6:	8e59                	or	a2,a2,a4
ffffffff840031c8:	83a5                	srl	a5,a5,0x9
ffffffff840031ca:	01979693          	sll	a3,a5,0x19
ffffffff840031ce:	82e5                	srl	a3,a3,0x19
ffffffff840031d0:	9399                	srl	a5,a5,0x26
ffffffff840031d2:	8b85                	and	a5,a5,1
ffffffff840031d4:	c781                	beqz	a5,ffffffff840031dc <performPageInvocationUnmap+0x3c>
ffffffff840031d6:	57fd                	li	a5,-1
ffffffff840031d8:	179e                	sll	a5,a5,0x27
ffffffff840031da:	8edd                	or	a3,a3,a5
ffffffff840031dc:	d47ff0ef          	jal	ffffffff84002f22 <unmapPage>
ffffffff840031e0:	6418                	ld	a4,8(s0)
ffffffff840031e2:	57fd                	li	a5,-1
ffffffff840031e4:	0107d693          	srl	a3,a5,0x10
ffffffff840031e8:	8f75                	and	a4,a4,a3
ffffffff840031ea:	6014                	ld	a3,0(s0)
ffffffff840031ec:	179e                	sll	a5,a5,0x27
ffffffff840031ee:	8ff5                	and	a5,a5,a3
ffffffff840031f0:	e01c                	sd	a5,0(s0)
ffffffff840031f2:	e418                	sd	a4,8(s0)
ffffffff840031f4:	4501                	li	a0,0
ffffffff840031f6:	60e2                	ld	ra,24(sp)
ffffffff840031f8:	6442                	ld	s0,16(sp)
ffffffff840031fa:	6105                	add	sp,sp,32
ffffffff840031fc:	8082                	ret

ffffffff840031fe <getRestartPC>:
ffffffff840031fe:	10853503          	ld	a0,264(a0)
ffffffff84003202:	8082                	ret

ffffffff84003204 <setNextPC>:
ffffffff84003204:	10b53823          	sd	a1,272(a0)
ffffffff84003208:	8082                	ret

ffffffff8400320a <setIRQTrigger>:
ffffffff8400320a:	8082                	ret

ffffffff8400320c <Arch_checkIRQ>:
ffffffff8400320c:	157d                	add	a0,a0,-1
ffffffff8400320e:	03500793          	li	a5,53
ffffffff84003212:	00a7e463          	bltu	a5,a0,ffffffff8400321a <Arch_checkIRQ+0xe>
ffffffff84003216:	4501                	li	a0,0
ffffffff84003218:	8082                	ret
ffffffff8400321a:	d1018793          	add	a5,gp,-752 # ffffffff84009128 <current_syscall_error>
ffffffff8400321e:	4711                	li	a4,4
ffffffff84003220:	fb98                	sd	a4,48(a5)
ffffffff84003222:	4705                	li	a4,1
ffffffff84003224:	eb98                	sd	a4,16(a5)
ffffffff84003226:	03600713          	li	a4,54
ffffffff8400322a:	ef98                	sd	a4,24(a5)
ffffffff8400322c:	450d                	li	a0,3
ffffffff8400322e:	8082                	ret

ffffffff84003230 <Arch_deriveCap>:
ffffffff84003230:	03b65793          	srl	a5,a2,0x3b
ffffffff84003234:	470d                	li	a4,3
ffffffff84003236:	02e78963          	beq	a5,a4,ffffffff84003268 <Arch_deriveCap+0x38>
ffffffff8400323a:	00f77963          	bgeu	a4,a5,ffffffff8400324c <Arch_deriveCap+0x1c>
ffffffff8400323e:	17d5                	add	a5,a5,-11
ffffffff84003240:	9bf5                	and	a5,a5,-3
ffffffff84003242:	cf99                	beqz	a5,ffffffff84003260 <Arch_deriveCap+0x30>
ffffffff84003244:	1101                	add	sp,sp,-32
ffffffff84003246:	ec06                	sd	ra,24(sp)
ffffffff84003248:	e08ff0ef          	jal	ffffffff84002850 <halt>
ffffffff8400324c:	4705                	li	a4,1
ffffffff8400324e:	fee79be3          	bne	a5,a4,ffffffff84003244 <Arch_deriveCap+0x14>
ffffffff84003252:	57fd                	li	a5,-1
ffffffff84003254:	02779713          	sll	a4,a5,0x27
ffffffff84003258:	8e79                	and	a2,a2,a4
ffffffff8400325a:	83c1                	srl	a5,a5,0x10
ffffffff8400325c:	8efd                	and	a3,a3,a5
ffffffff8400325e:	4781                	li	a5,0
ffffffff84003260:	e11c                	sd	a5,0(a0)
ffffffff84003262:	e510                	sd	a2,8(a0)
ffffffff84003264:	e914                	sd	a3,16(a0)
ffffffff84003266:	8082                	ret
ffffffff84003268:	02765713          	srl	a4,a2,0x27
ffffffff8400326c:	8b05                	and	a4,a4,1
ffffffff8400326e:	e719                	bnez	a4,ffffffff8400327c <Arch_deriveCap+0x4c>
ffffffff84003270:	468d                	li	a3,3
ffffffff84003272:	d4d1b023          	sd	a3,-704(gp) # ffffffff84009158 <current_syscall_error+0x30>
ffffffff84003276:	86ba                	mv	a3,a4
ffffffff84003278:	863a                	mv	a2,a4
ffffffff8400327a:	b7dd                	j	ffffffff84003260 <Arch_deriveCap+0x30>
ffffffff8400327c:	4781                	li	a5,0
ffffffff8400327e:	b7cd                	j	ffffffff84003260 <Arch_deriveCap+0x30>

ffffffff84003280 <Arch_updateCapData>:
ffffffff84003280:	1101                	add	sp,sp,-32
ffffffff84003282:	8532                	mv	a0,a2
ffffffff84003284:	85b6                	mv	a1,a3
ffffffff84003286:	6105                	add	sp,sp,32
ffffffff84003288:	8082                	ret

ffffffff8400328a <Arch_maskCapRights>:
ffffffff8400328a:	7139                	add	sp,sp,-64
ffffffff8400328c:	fc06                	sd	ra,56(sp)
ffffffff8400328e:	f822                	sd	s0,48(sp)
ffffffff84003290:	f426                	sd	s1,40(sp)
ffffffff84003292:	842e                	mv	s0,a1
ffffffff84003294:	84b2                	mv	s1,a2
ffffffff84003296:	03b5d713          	srl	a4,a1,0x3b
ffffffff8400329a:	4785                	li	a5,1
ffffffff8400329c:	00f70a63          	beq	a4,a5,ffffffff840032b0 <Arch_maskCapRights+0x26>
ffffffff840032a0:	e82e                	sd	a1,16(sp)
ffffffff840032a2:	6542                	ld	a0,16(sp)
ffffffff840032a4:	85a6                	mv	a1,s1
ffffffff840032a6:	70e2                	ld	ra,56(sp)
ffffffff840032a8:	7442                	ld	s0,48(sp)
ffffffff840032aa:	74a2                	ld	s1,40(sp)
ffffffff840032ac:	6121                	add	sp,sp,64
ffffffff840032ae:	8082                	ret
ffffffff840032b0:	0375d793          	srl	a5,a1,0x37
ffffffff840032b4:	85aa                	mv	a1,a0
ffffffff840032b6:	0037f513          	and	a0,a5,3
ffffffff840032ba:	e8fff0ef          	jal	ffffffff84003148 <maskVMRights>
ffffffff840032be:	890d                	and	a0,a0,3
ffffffff840032c0:	155e                	sll	a0,a0,0x37
ffffffff840032c2:	57f5                	li	a5,-3
ffffffff840032c4:	17de                	sll	a5,a5,0x37
ffffffff840032c6:	17fd                	add	a5,a5,-1
ffffffff840032c8:	8fe1                	and	a5,a5,s0
ffffffff840032ca:	8d5d                	or	a0,a0,a5
ffffffff840032cc:	e82a                	sd	a0,16(sp)
ffffffff840032ce:	bfd1                	j	ffffffff840032a2 <Arch_maskCapRights+0x18>

ffffffff840032d0 <Arch_finaliseCap>:
ffffffff840032d0:	715d                	add	sp,sp,-80
ffffffff840032d2:	e486                	sd	ra,72(sp)
ffffffff840032d4:	e0a2                	sd	s0,64(sp)
ffffffff840032d6:	fc26                	sd	s1,56(sp)
ffffffff840032d8:	f84a                	sd	s2,48(sp)
ffffffff840032da:	f44e                	sd	s3,40(sp)
ffffffff840032dc:	842a                	mv	s0,a0
ffffffff840032de:	8932                	mv	s2,a2
ffffffff840032e0:	84ae                	mv	s1,a1
ffffffff840032e2:	03b5d793          	srl	a5,a1,0x3b
ffffffff840032e6:	470d                	li	a4,3
ffffffff840032e8:	06e78863          	beq	a5,a4,ffffffff84003358 <Arch_finaliseCap+0x88>
ffffffff840032ec:	4735                	li	a4,13
ffffffff840032ee:	0ce78663          	beq	a5,a4,ffffffff840033ba <Arch_finaliseCap+0xea>
ffffffff840032f2:	4705                	li	a4,1
ffffffff840032f4:	02e78263          	beq	a5,a4,ffffffff84003318 <Arch_finaliseCap+0x48>
ffffffff840032f8:	00043023          	sd	zero,0(s0)
ffffffff840032fc:	00043423          	sd	zero,8(s0)
ffffffff84003300:	00043823          	sd	zero,16(s0)
ffffffff84003304:	00043c23          	sd	zero,24(s0)
ffffffff84003308:	8522                	mv	a0,s0
ffffffff8400330a:	60a6                	ld	ra,72(sp)
ffffffff8400330c:	6406                	ld	s0,64(sp)
ffffffff8400330e:	74e2                	ld	s1,56(sp)
ffffffff84003310:	7942                	ld	s2,48(sp)
ffffffff84003312:	79a2                	ld	s3,40(sp)
ffffffff84003314:	6161                	add	sp,sp,80
ffffffff84003316:	8082                	ret
ffffffff84003318:	03065593          	srl	a1,a2,0x30
ffffffff8400331c:	ddf1                	beqz	a1,ffffffff840032f8 <Arch_finaliseCap+0x28>
ffffffff8400331e:	0394d513          	srl	a0,s1,0x39
ffffffff84003322:	890d                	and	a0,a0,3
ffffffff84003324:	01949613          	sll	a2,s1,0x19
ffffffff84003328:	8265                	srl	a2,a2,0x19
ffffffff8400332a:	9099                	srl	s1,s1,0x26
ffffffff8400332c:	8885                	and	s1,s1,1
ffffffff8400332e:	c481                	beqz	s1,ffffffff84003336 <Arch_finaliseCap+0x66>
ffffffff84003330:	57fd                	li	a5,-1
ffffffff84003332:	179e                	sll	a5,a5,0x27
ffffffff84003334:	8e5d                	or	a2,a2,a5
ffffffff84003336:	00995913          	srl	s2,s2,0x9
ffffffff8400333a:	01991693          	sll	a3,s2,0x19
ffffffff8400333e:	82e5                	srl	a3,a3,0x19
ffffffff84003340:	02695913          	srl	s2,s2,0x26
ffffffff84003344:	00197913          	and	s2,s2,1
ffffffff84003348:	00090563          	beqz	s2,ffffffff84003352 <Arch_finaliseCap+0x82>
ffffffff8400334c:	57fd                	li	a5,-1
ffffffff8400334e:	179e                	sll	a5,a5,0x27
ffffffff84003350:	8edd                	or	a3,a3,a5
ffffffff84003352:	bd1ff0ef          	jal	ffffffff84002f22 <unmapPage>
ffffffff84003356:	b74d                	j	ffffffff840032f8 <Arch_finaliseCap+0x28>
ffffffff84003358:	d2c5                	beqz	a3,ffffffff840032f8 <Arch_finaliseCap+0x28>
ffffffff8400335a:	0275d793          	srl	a5,a1,0x27
ffffffff8400335e:	8b85                	and	a5,a5,1
ffffffff84003360:	dfc1                	beqz	a5,ffffffff840032f8 <Arch_finaliseCap+0x28>
ffffffff84003362:	03065993          	srl	s3,a2,0x30
ffffffff84003366:	854e                	mv	a0,s3
ffffffff84003368:	ca4ff0ef          	jal	ffffffff8400280c <findVSpaceForASID>
ffffffff8400336c:	e82a                	sd	a0,16(sp)
ffffffff8400336e:	ec2e                	sd	a1,24(sp)
ffffffff84003370:	00995913          	srl	s2,s2,0x9
ffffffff84003374:	01991613          	sll	a2,s2,0x19
ffffffff84003378:	8265                	srl	a2,a2,0x19
ffffffff8400337a:	02695913          	srl	s2,s2,0x26
ffffffff8400337e:	00197913          	and	s2,s2,1
ffffffff84003382:	00090563          	beqz	s2,ffffffff8400338c <Arch_finaliseCap+0xbc>
ffffffff84003386:	57fd                	li	a5,-1
ffffffff84003388:	179e                	sll	a5,a5,0x27
ffffffff8400338a:	8e5d                	or	a2,a2,a5
ffffffff8400338c:	67c2                	ld	a5,16(sp)
ffffffff8400338e:	e781                	bnez	a5,ffffffff84003396 <Arch_finaliseCap+0xc6>
ffffffff84003390:	67e2                	ld	a5,24(sp)
ffffffff84003392:	00c78f63          	beq	a5,a2,ffffffff840033b0 <Arch_finaliseCap+0xe0>
ffffffff84003396:	01949593          	sll	a1,s1,0x19
ffffffff8400339a:	81e5                	srl	a1,a1,0x19
ffffffff8400339c:	9099                	srl	s1,s1,0x26
ffffffff8400339e:	8885                	and	s1,s1,1
ffffffff840033a0:	c481                	beqz	s1,ffffffff840033a8 <Arch_finaliseCap+0xd8>
ffffffff840033a2:	57fd                	li	a5,-1
ffffffff840033a4:	179e                	sll	a5,a5,0x27
ffffffff840033a6:	8ddd                	or	a1,a1,a5
ffffffff840033a8:	854e                	mv	a0,s3
ffffffff840033aa:	acfff0ef          	jal	ffffffff84002e78 <unmapPageTable>
ffffffff840033ae:	b7a9                	j	ffffffff840032f8 <Arch_finaliseCap+0x28>
ffffffff840033b0:	85b2                	mv	a1,a2
ffffffff840033b2:	854e                	mv	a0,s3
ffffffff840033b4:	d0bff0ef          	jal	ffffffff840030be <deleteASID>
ffffffff840033b8:	b781                	j	ffffffff840032f8 <Arch_finaliseCap+0x28>
ffffffff840033ba:	de9d                	beqz	a3,ffffffff840032f8 <Arch_finaliseCap+0x28>
ffffffff840033bc:	02b5d513          	srl	a0,a1,0x2b
ffffffff840033c0:	1542                	sll	a0,a0,0x30
ffffffff840033c2:	9141                	srl	a0,a0,0x30
ffffffff840033c4:	00259493          	sll	s1,a1,0x2
ffffffff840033c8:	f80005b7          	lui	a1,0xf8000
ffffffff840033cc:	81e5                	srl	a1,a1,0x19
ffffffff840033ce:	8de5                	and	a1,a1,s1
ffffffff840033d0:	9099                	srl	s1,s1,0x26
ffffffff840033d2:	8885                	and	s1,s1,1
ffffffff840033d4:	c481                	beqz	s1,ffffffff840033dc <Arch_finaliseCap+0x10c>
ffffffff840033d6:	57fd                	li	a5,-1
ffffffff840033d8:	179e                	sll	a5,a5,0x27
ffffffff840033da:	8ddd                	or	a1,a1,a5
ffffffff840033dc:	cb3ff0ef          	jal	ffffffff8400308e <deleteASIDPool>
ffffffff840033e0:	bf21                	j	ffffffff840032f8 <Arch_finaliseCap+0x28>

ffffffff840033e2 <Arch_sameRegionAs>:
ffffffff840033e2:	872a                	mv	a4,a0
ffffffff840033e4:	03b55793          	srl	a5,a0,0x3b
ffffffff840033e8:	452d                	li	a0,11
ffffffff840033ea:	14a78363          	beq	a5,a0,ffffffff84003530 <Arch_sameRegionAs+0x14e>
ffffffff840033ee:	04f56763          	bltu	a0,a5,ffffffff8400343c <Arch_sameRegionAs+0x5a>
ffffffff840033f2:	4505                	li	a0,1
ffffffff840033f4:	08a78963          	beq	a5,a0,ffffffff84003486 <Arch_sameRegionAs+0xa4>
ffffffff840033f8:	470d                	li	a4,3
ffffffff840033fa:	02e79f63          	bne	a5,a4,ffffffff84003438 <Arch_sameRegionAs+0x56>
ffffffff840033fe:	926d                	srl	a2,a2,0x3b
ffffffff84003400:	478d                	li	a5,3
ffffffff84003402:	4501                	li	a0,0
ffffffff84003404:	08f61763          	bne	a2,a5,ffffffff84003492 <Arch_sameRegionAs+0xb0>
ffffffff84003408:	81a5                	srl	a1,a1,0x9
ffffffff8400340a:	01959793          	sll	a5,a1,0x19
ffffffff8400340e:	83e5                	srl	a5,a5,0x19
ffffffff84003410:	9199                	srl	a1,a1,0x26
ffffffff84003412:	8985                	and	a1,a1,1
ffffffff84003414:	c581                	beqz	a1,ffffffff8400341c <Arch_sameRegionAs+0x3a>
ffffffff84003416:	577d                	li	a4,-1
ffffffff84003418:	171e                	sll	a4,a4,0x27
ffffffff8400341a:	8fd9                	or	a5,a5,a4
ffffffff8400341c:	82a5                	srl	a3,a3,0x9
ffffffff8400341e:	01969513          	sll	a0,a3,0x19
ffffffff84003422:	8165                	srl	a0,a0,0x19
ffffffff84003424:	9299                	srl	a3,a3,0x26
ffffffff84003426:	8a85                	and	a3,a3,1
ffffffff84003428:	c681                	beqz	a3,ffffffff84003430 <Arch_sameRegionAs+0x4e>
ffffffff8400342a:	577d                	li	a4,-1
ffffffff8400342c:	171e                	sll	a4,a4,0x27
ffffffff8400342e:	8d59                	or	a0,a0,a4
ffffffff84003430:	8d1d                	sub	a0,a0,a5
ffffffff84003432:	00153513          	seqz	a0,a0
ffffffff84003436:	8082                	ret
ffffffff84003438:	4501                	li	a0,0
ffffffff8400343a:	8082                	ret
ffffffff8400343c:	46b5                	li	a3,13
ffffffff8400343e:	04d79263          	bne	a5,a3,ffffffff84003482 <Arch_sameRegionAs+0xa0>
ffffffff84003442:	03b65793          	srl	a5,a2,0x3b
ffffffff84003446:	46b5                	li	a3,13
ffffffff84003448:	4501                	li	a0,0
ffffffff8400344a:	04d79463          	bne	a5,a3,ffffffff84003492 <Arch_sameRegionAs+0xb0>
ffffffff8400344e:	070a                	sll	a4,a4,0x2
ffffffff84003450:	f80007b7          	lui	a5,0xf8000
ffffffff84003454:	83e5                	srl	a5,a5,0x19
ffffffff84003456:	8ff9                	and	a5,a5,a4
ffffffff84003458:	9319                	srl	a4,a4,0x26
ffffffff8400345a:	8b05                	and	a4,a4,1
ffffffff8400345c:	c701                	beqz	a4,ffffffff84003464 <Arch_sameRegionAs+0x82>
ffffffff8400345e:	577d                	li	a4,-1
ffffffff84003460:	171e                	sll	a4,a4,0x27
ffffffff84003462:	8fd9                	or	a5,a5,a4
ffffffff84003464:	060a                	sll	a2,a2,0x2
ffffffff84003466:	f8000537          	lui	a0,0xf8000
ffffffff8400346a:	8165                	srl	a0,a0,0x19
ffffffff8400346c:	8d71                	and	a0,a0,a2
ffffffff8400346e:	9219                	srl	a2,a2,0x26
ffffffff84003470:	8a05                	and	a2,a2,1
ffffffff84003472:	c601                	beqz	a2,ffffffff8400347a <Arch_sameRegionAs+0x98>
ffffffff84003474:	577d                	li	a4,-1
ffffffff84003476:	171e                	sll	a4,a4,0x27
ffffffff84003478:	8d59                	or	a0,a0,a4
ffffffff8400347a:	8d1d                	sub	a0,a0,a5
ffffffff8400347c:	00153513          	seqz	a0,a0
ffffffff84003480:	8082                	ret
ffffffff84003482:	4501                	li	a0,0
ffffffff84003484:	8082                	ret
ffffffff84003486:	03b65793          	srl	a5,a2,0x3b
ffffffff8400348a:	4805                	li	a6,1
ffffffff8400348c:	4501                	li	a0,0
ffffffff8400348e:	01078363          	beq	a5,a6,ffffffff84003494 <Arch_sameRegionAs+0xb2>
ffffffff84003492:	8082                	ret
ffffffff84003494:	7179                	add	sp,sp,-48
ffffffff84003496:	f406                	sd	ra,40(sp)
ffffffff84003498:	81a5                	srl	a1,a1,0x9
ffffffff8400349a:	01959793          	sll	a5,a1,0x19
ffffffff8400349e:	83e5                	srl	a5,a5,0x19
ffffffff840034a0:	9199                	srl	a1,a1,0x26
ffffffff840034a2:	8985                	and	a1,a1,1
ffffffff840034a4:	c581                	beqz	a1,ffffffff840034ac <Arch_sameRegionAs+0xca>
ffffffff840034a6:	55fd                	li	a1,-1
ffffffff840034a8:	159e                	sll	a1,a1,0x27
ffffffff840034aa:	8fcd                	or	a5,a5,a1
ffffffff840034ac:	82a5                	srl	a3,a3,0x9
ffffffff840034ae:	01969593          	sll	a1,a3,0x19
ffffffff840034b2:	81e5                	srl	a1,a1,0x19
ffffffff840034b4:	9299                	srl	a3,a3,0x26
ffffffff840034b6:	8a85                	and	a3,a3,1
ffffffff840034b8:	c681                	beqz	a3,ffffffff840034c0 <Arch_sameRegionAs+0xde>
ffffffff840034ba:	56fd                	li	a3,-1
ffffffff840034bc:	169e                	sll	a3,a3,0x27
ffffffff840034be:	8dd5                	or	a1,a1,a3
ffffffff840034c0:	9365                	srl	a4,a4,0x39
ffffffff840034c2:	8b0d                	and	a4,a4,3
ffffffff840034c4:	4685                	li	a3,1
ffffffff840034c6:	00d70863          	beq	a4,a3,ffffffff840034d6 <Arch_sameRegionAs+0xf4>
ffffffff840034ca:	4689                	li	a3,2
ffffffff840034cc:	00d70763          	beq	a4,a3,ffffffff840034da <Arch_sameRegionAs+0xf8>
ffffffff840034d0:	c30d                	beqz	a4,ffffffff840034f2 <Arch_sameRegionAs+0x110>
ffffffff840034d2:	b7eff0ef          	jal	ffffffff84002850 <halt>
ffffffff840034d6:	4855                	li	a6,21
ffffffff840034d8:	a011                	j	ffffffff840034dc <Arch_sameRegionAs+0xfa>
ffffffff840034da:	4879                	li	a6,30
ffffffff840034dc:	9265                	srl	a2,a2,0x39
ffffffff840034de:	8a0d                	and	a2,a2,3
ffffffff840034e0:	4705                	li	a4,1
ffffffff840034e2:	00e60a63          	beq	a2,a4,ffffffff840034f6 <Arch_sameRegionAs+0x114>
ffffffff840034e6:	4709                	li	a4,2
ffffffff840034e8:	00e60963          	beq	a2,a4,ffffffff840034fa <Arch_sameRegionAs+0x118>
ffffffff840034ec:	c221                	beqz	a2,ffffffff8400352c <Arch_sameRegionAs+0x14a>
ffffffff840034ee:	b62ff0ef          	jal	ffffffff84002850 <halt>
ffffffff840034f2:	4831                	li	a6,12
ffffffff840034f4:	b7e5                	j	ffffffff840034dc <Arch_sameRegionAs+0xfa>
ffffffff840034f6:	4755                	li	a4,21
ffffffff840034f8:	a011                	j	ffffffff840034fc <Arch_sameRegionAs+0x11a>
ffffffff840034fa:	4779                	li	a4,30
ffffffff840034fc:	4501                	li	a0,0
ffffffff840034fe:	02f5e463          	bltu	a1,a5,ffffffff84003526 <Arch_sameRegionAs+0x144>
ffffffff84003502:	4685                	li	a3,1
ffffffff84003504:	00e69733          	sll	a4,a3,a4
ffffffff84003508:	fff58613          	add	a2,a1,-1 # fffffffff7ffffff <ki_end+0x73fdffff>
ffffffff8400350c:	9732                	add	a4,a4,a2
ffffffff8400350e:	010696b3          	sll	a3,a3,a6
ffffffff84003512:	17fd                	add	a5,a5,-1 # fffffffff7ffffff <ki_end+0x73fdffff>
ffffffff84003514:	96be                	add	a3,a3,a5
ffffffff84003516:	00e6e863          	bltu	a3,a4,ffffffff84003526 <Arch_sameRegionAs+0x144>
ffffffff8400351a:	00b737b3          	sltu	a5,a4,a1
ffffffff8400351e:	0017c793          	xor	a5,a5,1
ffffffff84003522:	0007851b          	sext.w	a0,a5
ffffffff84003526:	70a2                	ld	ra,40(sp)
ffffffff84003528:	6145                	add	sp,sp,48
ffffffff8400352a:	8082                	ret
ffffffff8400352c:	4731                	li	a4,12
ffffffff8400352e:	b7f9                	j	ffffffff840034fc <Arch_sameRegionAs+0x11a>
ffffffff84003530:	03b65513          	srl	a0,a2,0x3b
ffffffff84003534:	1555                	add	a0,a0,-11 # fffffffff7fffff5 <ki_end+0x73fdfff5>
ffffffff84003536:	00153513          	seqz	a0,a0
ffffffff8400353a:	8082                	ret

ffffffff8400353c <Arch_sameObjectAs>:
ffffffff8400353c:	7179                	add	sp,sp,-48
ffffffff8400353e:	f406                	sd	ra,40(sp)
ffffffff84003540:	e82a                	sd	a0,16(sp)
ffffffff84003542:	ec2e                	sd	a1,24(sp)
ffffffff84003544:	e032                	sd	a2,0(sp)
ffffffff84003546:	e436                	sd	a3,8(sp)
ffffffff84003548:	03b55713          	srl	a4,a0,0x3b
ffffffff8400354c:	4785                	li	a5,1
ffffffff8400354e:	00f70b63          	beq	a4,a5,ffffffff84003564 <Arch_sameObjectAs+0x28>
ffffffff84003552:	6602                	ld	a2,0(sp)
ffffffff84003554:	66a2                	ld	a3,8(sp)
ffffffff84003556:	6542                	ld	a0,16(sp)
ffffffff84003558:	65e2                	ld	a1,24(sp)
ffffffff8400355a:	e89ff0ef          	jal	ffffffff840033e2 <Arch_sameRegionAs>
ffffffff8400355e:	70a2                	ld	ra,40(sp)
ffffffff84003560:	6145                	add	sp,sp,48
ffffffff84003562:	8082                	ret
ffffffff84003564:	8732                	mv	a4,a2
ffffffff84003566:	03b65693          	srl	a3,a2,0x3b
ffffffff8400356a:	fef694e3          	bne	a3,a5,ffffffff84003552 <Arch_sameObjectAs+0x16>
ffffffff8400356e:	0095d793          	srl	a5,a1,0x9
ffffffff84003572:	01979613          	sll	a2,a5,0x19
ffffffff84003576:	8265                	srl	a2,a2,0x19
ffffffff84003578:	9399                	srl	a5,a5,0x26
ffffffff8400357a:	8b85                	and	a5,a5,1
ffffffff8400357c:	c785                	beqz	a5,ffffffff840035a4 <Arch_sameObjectAs+0x68>
ffffffff8400357e:	56fd                	li	a3,-1
ffffffff84003580:	02769793          	sll	a5,a3,0x27
ffffffff84003584:	8e5d                	or	a2,a2,a5
ffffffff84003586:	67a2                	ld	a5,8(sp)
ffffffff84003588:	83a5                	srl	a5,a5,0x9
ffffffff8400358a:	82e5                	srl	a3,a3,0x19
ffffffff8400358c:	8efd                	and	a3,a3,a5
ffffffff8400358e:	9399                	srl	a5,a5,0x26
ffffffff84003590:	8b85                	and	a5,a5,1
ffffffff84003592:	c799                	beqz	a5,ffffffff840035a0 <Arch_sameObjectAs+0x64>
ffffffff84003594:	57fd                	li	a5,-1
ffffffff84003596:	179e                	sll	a5,a5,0x27
ffffffff84003598:	8edd                	or	a3,a3,a5
ffffffff8400359a:	4781                	li	a5,0
ffffffff8400359c:	00d60d63          	beq	a2,a3,ffffffff840035b6 <Arch_sameObjectAs+0x7a>
ffffffff840035a0:	853e                	mv	a0,a5
ffffffff840035a2:	bf75                	j	ffffffff8400355e <Arch_sameObjectAs+0x22>
ffffffff840035a4:	67a2                	ld	a5,8(sp)
ffffffff840035a6:	83a5                	srl	a5,a5,0x9
ffffffff840035a8:	01979693          	sll	a3,a5,0x19
ffffffff840035ac:	82e5                	srl	a3,a3,0x19
ffffffff840035ae:	9399                	srl	a5,a5,0x26
ffffffff840035b0:	8b85                	and	a5,a5,1
ffffffff840035b2:	f3ed                	bnez	a5,ffffffff84003594 <Arch_sameObjectAs+0x58>
ffffffff840035b4:	b7dd                	j	ffffffff8400359a <Arch_sameObjectAs+0x5e>
ffffffff840035b6:	03975613          	srl	a2,a4,0x39
ffffffff840035ba:	03955693          	srl	a3,a0,0x39
ffffffff840035be:	fed611e3          	bne	a2,a3,ffffffff840035a0 <Arch_sameObjectAs+0x64>
ffffffff840035c2:	03655793          	srl	a5,a0,0x36
ffffffff840035c6:	9359                	srl	a4,a4,0x36
ffffffff840035c8:	00174713          	xor	a4,a4,1
ffffffff840035cc:	8b85                	and	a5,a5,1
ffffffff840035ce:	8b05                	and	a4,a4,1
ffffffff840035d0:	8f99                	sub	a5,a5,a4
ffffffff840035d2:	00f037b3          	snez	a5,a5
ffffffff840035d6:	b7e9                	j	ffffffff840035a0 <Arch_sameObjectAs+0x64>

ffffffff840035d8 <Arch_getObjectSize>:
ffffffff840035d8:	471d                	li	a4,7
ffffffff840035da:	02e50663          	beq	a0,a4,ffffffff84003606 <Arch_getObjectSize+0x2e>
ffffffff840035de:	87aa                	mv	a5,a0
ffffffff840035e0:	00a76b63          	bltu	a4,a0,ffffffff840035f6 <Arch_getObjectSize+0x1e>
ffffffff840035e4:	4715                	li	a4,5
ffffffff840035e6:	4579                	li	a0,30
ffffffff840035e8:	00e78663          	beq	a5,a4,ffffffff840035f4 <Arch_getObjectSize+0x1c>
ffffffff840035ec:	4719                	li	a4,6
ffffffff840035ee:	4531                	li	a0,12
ffffffff840035f0:	00e79763          	bne	a5,a4,ffffffff840035fe <Arch_getObjectSize+0x26>
ffffffff840035f4:	8082                	ret
ffffffff840035f6:	4721                	li	a4,8
ffffffff840035f8:	4531                	li	a0,12
ffffffff840035fa:	fee78de3          	beq	a5,a4,ffffffff840035f4 <Arch_getObjectSize+0x1c>
ffffffff840035fe:	1141                	add	sp,sp,-16
ffffffff84003600:	e406                	sd	ra,8(sp)
ffffffff84003602:	a4eff0ef          	jal	ffffffff84002850 <halt>
ffffffff84003606:	4555                	li	a0,21
ffffffff84003608:	b7f5                	j	ffffffff840035f4 <Arch_getObjectSize+0x1c>

ffffffff8400360a <Arch_createObject>:
ffffffff8400360a:	479d                	li	a5,7
ffffffff8400360c:	04f50163          	beq	a0,a5,ffffffff8400364e <Arch_createObject+0x44>
ffffffff84003610:	02a7e463          	bltu	a5,a0,ffffffff84003638 <Arch_createObject+0x2e>
ffffffff84003614:	4795                	li	a5,5
ffffffff84003616:	04f50863          	beq	a0,a5,ffffffff84003666 <Arch_createObject+0x5c>
ffffffff8400361a:	4799                	li	a5,6
ffffffff8400361c:	06f51163          	bne	a0,a5,ffffffff8400367e <Arch_createObject+0x74>
ffffffff84003620:	8a85                	and	a3,a3,1
ffffffff84003622:	03669513          	sll	a0,a3,0x36
ffffffff84003626:	47cd                	li	a5,19
ffffffff84003628:	17de                	sll	a5,a5,0x37
ffffffff8400362a:	8d5d                	or	a0,a0,a5
ffffffff8400362c:	05a6                	sll	a1,a1,0x9
ffffffff8400362e:	fe0007b7          	lui	a5,0xfe000
ffffffff84003632:	83c1                	srl	a5,a5,0x10
ffffffff84003634:	8dfd                	and	a1,a1,a5
ffffffff84003636:	8082                	ret
ffffffff84003638:	47a1                	li	a5,8
ffffffff8400363a:	04f51263          	bne	a0,a5,ffffffff8400367e <Arch_createObject+0x74>
ffffffff8400363e:	05a6                	sll	a1,a1,0x9
ffffffff84003640:	fe0007b7          	lui	a5,0xfe000
ffffffff84003644:	83c1                	srl	a5,a5,0x10
ffffffff84003646:	8dfd                	and	a1,a1,a5
ffffffff84003648:	450d                	li	a0,3
ffffffff8400364a:	156e                	sll	a0,a0,0x3b
ffffffff8400364c:	8082                	ret
ffffffff8400364e:	8a85                	and	a3,a3,1
ffffffff84003650:	03669513          	sll	a0,a3,0x36
ffffffff84003654:	47dd                	li	a5,23
ffffffff84003656:	17de                	sll	a5,a5,0x37
ffffffff84003658:	8d5d                	or	a0,a0,a5
ffffffff8400365a:	05a6                	sll	a1,a1,0x9
ffffffff8400365c:	fe0007b7          	lui	a5,0xfe000
ffffffff84003660:	83c1                	srl	a5,a5,0x10
ffffffff84003662:	8dfd                	and	a1,a1,a5
ffffffff84003664:	8082                	ret
ffffffff84003666:	8a85                	and	a3,a3,1
ffffffff84003668:	03669513          	sll	a0,a3,0x36
ffffffff8400366c:	47ed                	li	a5,27
ffffffff8400366e:	17de                	sll	a5,a5,0x37
ffffffff84003670:	8d5d                	or	a0,a0,a5
ffffffff84003672:	05a6                	sll	a1,a1,0x9
ffffffff84003674:	fe0007b7          	lui	a5,0xfe000
ffffffff84003678:	83c1                	srl	a5,a5,0x10
ffffffff8400367a:	8dfd                	and	a1,a1,a5
ffffffff8400367c:	8082                	ret
ffffffff8400367e:	1101                	add	sp,sp,-32
ffffffff84003680:	ec06                	sd	ra,24(sp)
ffffffff84003682:	9ceff0ef          	jal	ffffffff84002850 <halt>

ffffffff84003686 <Arch_prepareThreadDelete>:
ffffffff84003686:	8082                	ret

ffffffff84003688 <Arch_isFrameType>:
ffffffff84003688:	156d                	add	a0,a0,-5
ffffffff8400368a:	00353513          	sltiu	a0,a0,3
ffffffff8400368e:	8082                	ret

ffffffff84003690 <Arch_decodeTransfer>:
ffffffff84003690:	4501                	li	a0,0
ffffffff84003692:	8082                	ret

ffffffff84003694 <Arch_performTransfer>:
ffffffff84003694:	4501                	li	a0,0
ffffffff84003696:	8082                	ret

ffffffff84003698 <resolveAddressBits>:
ffffffff84003698:	1141                	add	sp,sp,-16
ffffffff8400369a:	e02e                	sd	a1,0(sp)
ffffffff8400369c:	e432                	sd	a2,8(sp)
ffffffff8400369e:	03b5d813          	srl	a6,a1,0x3b
ffffffff840036a2:	47a9                	li	a5,10
ffffffff840036a4:	833a                	mv	t1,a4
ffffffff840036a6:	5efd                	li	t4,-1
ffffffff840036a8:	06f81e63          	bne	a6,a5,ffffffff84003724 <resolveAddressBits+0x8c>
ffffffff840036ac:	02f5de13          	srl	t3,a1,0x2f
ffffffff840036b0:	03fe7e13          	and	t3,t3,63
ffffffff840036b4:	0355d813          	srl	a6,a1,0x35
ffffffff840036b8:	03f87813          	and	a6,a6,63
ffffffff840036bc:	01c80f33          	add	t5,a6,t3
ffffffff840036c0:	0003079b          	sext.w	a5,t1
ffffffff840036c4:	410308bb          	subw	a7,t1,a6
ffffffff840036c8:	0116d8b3          	srl	a7,a3,a7
ffffffff840036cc:	010e9fb3          	sll	t6,t4,a6
ffffffff840036d0:	ffffcf93          	not	t6,t6
ffffffff840036d4:	01f8f8b3          	and	a7,a7,t6
ffffffff840036d8:	05036f63          	bltu	t1,a6,ffffffff84003736 <resolveAddressBits+0x9e>
ffffffff840036dc:	05161d63          	bne	a2,a7,ffffffff84003736 <resolveAddressBits+0x9e>
ffffffff840036e0:	07e36c63          	bltu	t1,t5,ffffffff84003758 <resolveAddressBits+0xc0>
ffffffff840036e4:	41e787bb          	subw	a5,a5,t5
ffffffff840036e8:	00f6d7b3          	srl	a5,a3,a5
ffffffff840036ec:	567d                	li	a2,-1
ffffffff840036ee:	01c61633          	sll	a2,a2,t3
ffffffff840036f2:	fff64613          	not	a2,a2
ffffffff840036f6:	8ff1                	and	a5,a5,a2
ffffffff840036f8:	0796                	sll	a5,a5,0x5
ffffffff840036fa:	0586                	sll	a1,a1,0x1
ffffffff840036fc:	fc000637          	lui	a2,0xfc000
ffffffff84003700:	8265                	srl	a2,a2,0x19
ffffffff84003702:	8e6d                	and	a2,a2,a1
ffffffff84003704:	9199                	srl	a1,a1,0x26
ffffffff84003706:	8985                	and	a1,a1,1
ffffffff84003708:	c581                	beqz	a1,ffffffff84003710 <resolveAddressBits+0x78>
ffffffff8400370a:	55fd                	li	a1,-1
ffffffff8400370c:	159e                	sll	a1,a1,0x27
ffffffff8400370e:	8e4d                	or	a2,a2,a1
ffffffff84003710:	97b2                	add	a5,a5,a2
ffffffff84003712:	07e31263          	bne	t1,t5,ffffffff84003776 <resolveAddressBits+0xde>
ffffffff84003716:	4681                	li	a3,0
ffffffff84003718:	4701                	li	a4,0
ffffffff8400371a:	e114                	sd	a3,0(a0)
ffffffff8400371c:	e51c                	sd	a5,8(a0)
ffffffff8400371e:	e918                	sd	a4,16(a0)
ffffffff84003720:	0141                	add	sp,sp,16
ffffffff84003722:	8082                	ret
ffffffff84003724:	d5818793          	add	a5,gp,-680 # ffffffff84009170 <current_lookup_fault>
ffffffff84003728:	0007b023          	sd	zero,0(a5) # fffffffffe000000 <ki_end+0x79fe0000>
ffffffff8400372c:	0007b423          	sd	zero,8(a5)
ffffffff84003730:	4689                	li	a3,2
ffffffff84003732:	4781                	li	a5,0
ffffffff84003734:	b7dd                	j	ffffffff8400371a <resolveAddressBits+0x82>
ffffffff84003736:	d5818593          	add	a1,gp,-680 # ffffffff84009170 <current_lookup_fault>
ffffffff8400373a:	00931793          	sll	a5,t1,0x9
ffffffff8400373e:	66c1                	lui	a3,0x10
ffffffff84003740:	16fd                	add	a3,a3,-1 # ffff <KERNEL_OFFSET-0xfffffffeffff0001>
ffffffff84003742:	8ff5                	and	a5,a5,a3
ffffffff84003744:	080a                	sll	a6,a6,0x2
ffffffff84003746:	0107e7b3          	or	a5,a5,a6
ffffffff8400374a:	0037e793          	or	a5,a5,3
ffffffff8400374e:	e19c                	sd	a5,0(a1)
ffffffff84003750:	e590                	sd	a2,8(a1)
ffffffff84003752:	4689                	li	a3,2
ffffffff84003754:	4781                	li	a5,0
ffffffff84003756:	b7d1                	j	ffffffff8400371a <resolveAddressBits+0x82>
ffffffff84003758:	d5818793          	add	a5,gp,-680 # ffffffff84009170 <current_lookup_fault>
ffffffff8400375c:	0f26                	sll	t5,t5,0x9
ffffffff8400375e:	030a                	sll	t1,t1,0x2
ffffffff84003760:	006f6f33          	or	t5,t5,t1
ffffffff84003764:	002f6f13          	or	t5,t5,2
ffffffff84003768:	01e7b023          	sd	t5,0(a5)
ffffffff8400376c:	0007b423          	sd	zero,8(a5)
ffffffff84003770:	4689                	li	a3,2
ffffffff84003772:	4781                	li	a5,0
ffffffff84003774:	b75d                	j	ffffffff8400371a <resolveAddressBits+0x82>
ffffffff84003776:	41e30333          	sub	t1,t1,t5
ffffffff8400377a:	638c                	ld	a1,0(a5)
ffffffff8400377c:	6790                	ld	a2,8(a5)
ffffffff8400377e:	03b5d893          	srl	a7,a1,0x3b
ffffffff84003782:	4829                	li	a6,10
ffffffff84003784:	f30884e3          	beq	a7,a6,ffffffff840036ac <resolveAddressBits+0x14>
ffffffff84003788:	871a                	mv	a4,t1
ffffffff8400378a:	4681                	li	a3,0
ffffffff8400378c:	b779                	j	ffffffff8400371a <resolveAddressBits+0x82>

ffffffff8400378e <lookupSlot>:
ffffffff8400378e:	715d                	add	sp,sp,-80
ffffffff84003790:	e486                	sd	ra,72(sp)
ffffffff84003792:	86ae                	mv	a3,a1
ffffffff84003794:	c0057513          	and	a0,a0,-1024
ffffffff84003798:	04000713          	li	a4,64
ffffffff8400379c:	610c                	ld	a1,0(a0)
ffffffff8400379e:	6510                	ld	a2,8(a0)
ffffffff840037a0:	0028                	add	a0,sp,8
ffffffff840037a2:	ef7ff0ef          	jal	ffffffff84003698 <resolveAddressBits>
ffffffff840037a6:	6522                	ld	a0,8(sp)
ffffffff840037a8:	65c2                	ld	a1,16(sp)
ffffffff840037aa:	60a6                	ld	ra,72(sp)
ffffffff840037ac:	6161                	add	sp,sp,80
ffffffff840037ae:	8082                	ret

ffffffff840037b0 <lookupCap>:
ffffffff840037b0:	1101                	add	sp,sp,-32
ffffffff840037b2:	ec06                	sd	ra,24(sp)
ffffffff840037b4:	e822                	sd	s0,16(sp)
ffffffff840037b6:	842a                	mv	s0,a0
ffffffff840037b8:	852e                	mv	a0,a1
ffffffff840037ba:	85b2                	mv	a1,a2
ffffffff840037bc:	fd3ff0ef          	jal	ffffffff8400378e <lookupSlot>
ffffffff840037c0:	e02a                	sd	a0,0(sp)
ffffffff840037c2:	e42e                	sd	a1,8(sp)
ffffffff840037c4:	e919                	bnez	a0,ffffffff840037da <lookupCap+0x2a>
ffffffff840037c6:	6198                	ld	a4,0(a1)
ffffffff840037c8:	659c                	ld	a5,8(a1)
ffffffff840037ca:	e008                	sd	a0,0(s0)
ffffffff840037cc:	e418                	sd	a4,8(s0)
ffffffff840037ce:	e81c                	sd	a5,16(s0)
ffffffff840037d0:	8522                	mv	a0,s0
ffffffff840037d2:	60e2                	ld	ra,24(sp)
ffffffff840037d4:	6442                	ld	s0,16(sp)
ffffffff840037d6:	6105                	add	sp,sp,32
ffffffff840037d8:	8082                	ret
ffffffff840037da:	4701                	li	a4,0
ffffffff840037dc:	4781                	li	a5,0
ffffffff840037de:	b7f5                	j	ffffffff840037ca <lookupCap+0x1a>

ffffffff840037e0 <lookupCapAndSlot>:
ffffffff840037e0:	1101                	add	sp,sp,-32
ffffffff840037e2:	ec06                	sd	ra,24(sp)
ffffffff840037e4:	e822                	sd	s0,16(sp)
ffffffff840037e6:	842a                	mv	s0,a0
ffffffff840037e8:	852e                	mv	a0,a1
ffffffff840037ea:	85b2                	mv	a1,a2
ffffffff840037ec:	fa3ff0ef          	jal	ffffffff8400378e <lookupSlot>
ffffffff840037f0:	e02a                	sd	a0,0(sp)
ffffffff840037f2:	e42e                	sd	a1,8(sp)
ffffffff840037f4:	ed09                	bnez	a0,ffffffff8400380e <lookupCapAndSlot+0x2e>
ffffffff840037f6:	87ae                	mv	a5,a1
ffffffff840037f8:	6194                	ld	a3,0(a1)
ffffffff840037fa:	6598                	ld	a4,8(a1)
ffffffff840037fc:	e008                	sd	a0,0(s0)
ffffffff840037fe:	e414                	sd	a3,8(s0)
ffffffff84003800:	e818                	sd	a4,16(s0)
ffffffff84003802:	ec1c                	sd	a5,24(s0)
ffffffff84003804:	8522                	mv	a0,s0
ffffffff84003806:	60e2                	ld	ra,24(sp)
ffffffff84003808:	6442                	ld	s0,16(sp)
ffffffff8400380a:	6105                	add	sp,sp,32
ffffffff8400380c:	8082                	ret
ffffffff8400380e:	4681                	li	a3,0
ffffffff84003810:	4701                	li	a4,0
ffffffff84003812:	4781                	li	a5,0
ffffffff84003814:	b7e5                	j	ffffffff840037fc <lookupCapAndSlot+0x1c>

ffffffff84003816 <lookupSlotForCNodeOp>:
ffffffff84003816:	715d                	add	sp,sp,-80
ffffffff84003818:	e486                	sd	ra,72(sp)
ffffffff8400381a:	e0a2                	sd	s0,64(sp)
ffffffff8400381c:	842a                	mv	s0,a0
ffffffff8400381e:	e02e                	sd	a1,0(sp)
ffffffff84003820:	e432                	sd	a2,8(sp)
ffffffff84003822:	91ed                	srl	a1,a1,0x3b
ffffffff84003824:	47a9                	li	a5,10
ffffffff84003826:	02f59663          	bne	a1,a5,ffffffff84003852 <lookupSlotForCNodeOp+0x3c>
ffffffff8400382a:	fff70793          	add	a5,a4,-1 # ffffffffffefffff <ki_end+0x7bedffff>
ffffffff8400382e:	03f00613          	li	a2,63
ffffffff84003832:	02f66e63          	bltu	a2,a5,ffffffff8400386e <lookupSlotForCNodeOp+0x58>
ffffffff84003836:	6582                	ld	a1,0(sp)
ffffffff84003838:	6622                	ld	a2,8(sp)
ffffffff8400383a:	0828                	add	a0,sp,24
ffffffff8400383c:	e5dff0ef          	jal	ffffffff84003698 <resolveAddressBits>
ffffffff84003840:	7522                	ld	a0,40(sp)
ffffffff84003842:	67e2                	ld	a5,24(sp)
ffffffff84003844:	e3a9                	bnez	a5,ffffffff84003886 <lookupSlotForCNodeOp+0x70>
ffffffff84003846:	e921                	bnez	a0,ffffffff84003896 <lookupSlotForCNodeOp+0x80>
ffffffff84003848:	7582                	ld	a1,32(sp)
ffffffff8400384a:	60a6                	ld	ra,72(sp)
ffffffff8400384c:	6406                	ld	s0,64(sp)
ffffffff8400384e:	6161                	add	sp,sp,80
ffffffff84003850:	8082                	ret
ffffffff84003852:	d1018793          	add	a5,gp,-752 # ffffffff84009128 <current_syscall_error>
ffffffff84003856:	4719                	li	a4,6
ffffffff84003858:	fb98                	sd	a4,48(a5)
ffffffff8400385a:	f788                	sd	a0,40(a5)
ffffffff8400385c:	d5818793          	add	a5,gp,-680 # ffffffff84009170 <current_lookup_fault>
ffffffff84003860:	0007b023          	sd	zero,0(a5)
ffffffff84003864:	0007b423          	sd	zero,8(a5)
ffffffff84003868:	450d                	li	a0,3
ffffffff8400386a:	4581                	li	a1,0
ffffffff8400386c:	bff9                	j	ffffffff8400384a <lookupSlotForCNodeOp+0x34>
ffffffff8400386e:	d1018793          	add	a5,gp,-752 # ffffffff84009128 <current_syscall_error>
ffffffff84003872:	4711                	li	a4,4
ffffffff84003874:	fb98                	sd	a4,48(a5)
ffffffff84003876:	4705                	li	a4,1
ffffffff84003878:	eb98                	sd	a4,16(a5)
ffffffff8400387a:	04000713          	li	a4,64
ffffffff8400387e:	ef98                	sd	a4,24(a5)
ffffffff84003880:	450d                	li	a0,3
ffffffff84003882:	4581                	li	a1,0
ffffffff84003884:	b7d9                	j	ffffffff8400384a <lookupSlotForCNodeOp+0x34>
ffffffff84003886:	d1018793          	add	a5,gp,-752 # ffffffff84009128 <current_syscall_error>
ffffffff8400388a:	4719                	li	a4,6
ffffffff8400388c:	fb98                	sd	a4,48(a5)
ffffffff8400388e:	f780                	sd	s0,40(a5)
ffffffff84003890:	450d                	li	a0,3
ffffffff84003892:	4581                	li	a1,0
ffffffff84003894:	bf5d                	j	ffffffff8400384a <lookupSlotForCNodeOp+0x34>
ffffffff84003896:	d1018793          	add	a5,gp,-752 # ffffffff84009128 <current_syscall_error>
ffffffff8400389a:	4719                	li	a4,6
ffffffff8400389c:	fb98                	sd	a4,48(a5)
ffffffff8400389e:	f780                	sd	s0,40(a5)
ffffffff840038a0:	d5818793          	add	a5,gp,-680 # ffffffff84009170 <current_lookup_fault>
ffffffff840038a4:	050a                	sll	a0,a0,0x2
ffffffff840038a6:	1fc57513          	and	a0,a0,508
ffffffff840038aa:	00256513          	or	a0,a0,2
ffffffff840038ae:	e388                	sd	a0,0(a5)
ffffffff840038b0:	0007b423          	sd	zero,8(a5)
ffffffff840038b4:	450d                	li	a0,3
ffffffff840038b6:	4581                	li	a1,0
ffffffff840038b8:	bf49                	j	ffffffff8400384a <lookupSlotForCNodeOp+0x34>

ffffffff840038ba <lookupSourceSlot>:
ffffffff840038ba:	7179                	add	sp,sp,-48
ffffffff840038bc:	f406                	sd	ra,40(sp)
ffffffff840038be:	87ae                	mv	a5,a1
ffffffff840038c0:	8736                	mv	a4,a3
ffffffff840038c2:	86b2                	mv	a3,a2
ffffffff840038c4:	85aa                	mv	a1,a0
ffffffff840038c6:	863e                	mv	a2,a5
ffffffff840038c8:	4505                	li	a0,1
ffffffff840038ca:	f4dff0ef          	jal	ffffffff84003816 <lookupSlotForCNodeOp>
ffffffff840038ce:	70a2                	ld	ra,40(sp)
ffffffff840038d0:	6145                	add	sp,sp,48
ffffffff840038d2:	8082                	ret

ffffffff840038d4 <lookupTargetSlot>:
ffffffff840038d4:	7179                	add	sp,sp,-48
ffffffff840038d6:	f406                	sd	ra,40(sp)
ffffffff840038d8:	87ae                	mv	a5,a1
ffffffff840038da:	8736                	mv	a4,a3
ffffffff840038dc:	86b2                	mv	a3,a2
ffffffff840038de:	85aa                	mv	a1,a0
ffffffff840038e0:	863e                	mv	a2,a5
ffffffff840038e2:	4501                	li	a0,0
ffffffff840038e4:	f33ff0ef          	jal	ffffffff84003816 <lookupSlotForCNodeOp>
ffffffff840038e8:	70a2                	ld	ra,40(sp)
ffffffff840038ea:	6145                	add	sp,sp,48
ffffffff840038ec:	8082                	ret

ffffffff840038ee <lookupPivotSlot>:
ffffffff840038ee:	7179                	add	sp,sp,-48
ffffffff840038f0:	f406                	sd	ra,40(sp)
ffffffff840038f2:	87ae                	mv	a5,a1
ffffffff840038f4:	8736                	mv	a4,a3
ffffffff840038f6:	86b2                	mv	a3,a2
ffffffff840038f8:	85aa                	mv	a1,a0
ffffffff840038fa:	863e                	mv	a2,a5
ffffffff840038fc:	4505                	li	a0,1
ffffffff840038fe:	f19ff0ef          	jal	ffffffff84003816 <lookupSlotForCNodeOp>
ffffffff84003902:	70a2                	ld	ra,40(sp)
ffffffff84003904:	6145                	add	sp,sp,48
ffffffff84003906:	8082                	ret

ffffffff84003908 <doFaultTransfer>:
ffffffff84003908:	1101                	add	sp,sp,-32
ffffffff8400390a:	ec06                	sd	ra,24(sp)
ffffffff8400390c:	e822                	sd	s0,16(sp)
ffffffff8400390e:	e426                	sd	s1,8(sp)
ffffffff84003910:	e04a                	sd	s2,0(sp)
ffffffff84003912:	892a                	mv	s2,a0
ffffffff84003914:	84ae                	mv	s1,a1
ffffffff84003916:	8432                	mv	s0,a2
ffffffff84003918:	8636                	mv	a2,a3
ffffffff8400391a:	85a2                	mv	a1,s0
ffffffff8400391c:	8526                	mv	a0,s1
ffffffff8400391e:	9f2ff0ef          	jal	ffffffff84002b10 <setMRs_fault>
ffffffff84003922:	1384b783          	ld	a5,312(s1)
ffffffff84003926:	07b2                	sll	a5,a5,0xc
ffffffff84003928:	673d                	lui	a4,0xf
ffffffff8400392a:	8ff9                	and	a5,a5,a4
ffffffff8400392c:	07f57513          	and	a0,a0,127
ffffffff84003930:	8fc9                	or	a5,a5,a0
ffffffff84003932:	e83c                	sd	a5,80(s0)
ffffffff84003934:	05243423          	sd	s2,72(s0)
ffffffff84003938:	60e2                	ld	ra,24(sp)
ffffffff8400393a:	6442                	ld	s0,16(sp)
ffffffff8400393c:	64a2                	ld	s1,8(sp)
ffffffff8400393e:	6902                	ld	s2,0(sp)
ffffffff84003940:	6105                	add	sp,sp,32
ffffffff84003942:	8082                	ret

ffffffff84003944 <doNBRecvFailedTransfer>:
ffffffff84003944:	04053423          	sd	zero,72(a0)
ffffffff84003948:	8082                	ret

ffffffff8400394a <switchToIdleThread>:
ffffffff8400394a:	1141                	add	sp,sp,-16
ffffffff8400394c:	e406                	sd	ra,8(sp)
ffffffff8400394e:	f2eff0ef          	jal	ffffffff8400307c <Arch_switchToIdleThread>
ffffffff84003952:	a781b783          	ld	a5,-1416(gp) # ffffffff84008e90 <ksIdleThread>
ffffffff84003956:	a8f1b023          	sd	a5,-1408(gp) # ffffffff84008e98 <ksCurThread>
ffffffff8400395a:	60a2                	ld	ra,8(sp)
ffffffff8400395c:	0141                	add	sp,sp,16
ffffffff8400395e:	8082                	ret

ffffffff84003960 <setMCPriority>:
ffffffff84003960:	16b53023          	sd	a1,352(a0)
ffffffff84003964:	8082                	ret

ffffffff84003966 <preemptionPoint>:
ffffffff84003966:	a681b783          	ld	a5,-1432(gp) # ffffffff84008e80 <ksWorkUnitsCompleted>
ffffffff8400396a:	0785                	add	a5,a5,1
ffffffff8400396c:	06300713          	li	a4,99
ffffffff84003970:	4501                	li	a0,0
ffffffff84003972:	00f77a63          	bgeu	a4,a5,ffffffff84003986 <preemptionPoint+0x20>
ffffffff84003976:	14402573          	csrr	a0,sip
ffffffff8400397a:	22057513          	and	a0,a0,544
ffffffff8400397e:	00a03533          	snez	a0,a0
ffffffff84003982:	050a                	sll	a0,a0,0x2
ffffffff84003984:	4781                	li	a5,0
ffffffff84003986:	a6f1b423          	sd	a5,-1432(gp) # ffffffff84008e80 <ksWorkUnitsCompleted>
ffffffff8400398a:	8082                	ret

ffffffff8400398c <cteMove>:
ffffffff8400398c:	1141                	add	sp,sp,-16
ffffffff8400398e:	e02a                	sd	a0,0(sp)
ffffffff84003990:	e42e                	sd	a1,8(sp)
ffffffff84003992:	6a18                	ld	a4,16(a2)
ffffffff84003994:	6e1c                	ld	a5,24(a2)
ffffffff84003996:	e288                	sd	a0,0(a3)
ffffffff84003998:	e68c                	sd	a1,8(a3)
ffffffff8400399a:	00063023          	sd	zero,0(a2) # fffffffffc000000 <ki_end+0x77fe0000>
ffffffff8400399e:	00063423          	sd	zero,8(a2)
ffffffff840039a2:	ea98                	sd	a4,16(a3)
ffffffff840039a4:	ee9c                	sd	a5,24(a3)
ffffffff840039a6:	00063823          	sd	zero,16(a2)
ffffffff840039aa:	00063c23          	sd	zero,24(a2)
ffffffff840039ae:	cf01                	beqz	a4,ffffffff840039c6 <cteMove+0x3a>
ffffffff840039b0:	6f10                	ld	a2,24(a4)
ffffffff840039b2:	55fd                	li	a1,-1
ffffffff840039b4:	159e                	sll	a1,a1,0x27
ffffffff840039b6:	058d                	add	a1,a1,3
ffffffff840039b8:	8e6d                	and	a2,a2,a1
ffffffff840039ba:	f80005b7          	lui	a1,0xf8000
ffffffff840039be:	81e5                	srl	a1,a1,0x19
ffffffff840039c0:	8df5                	and	a1,a1,a3
ffffffff840039c2:	8e4d                	or	a2,a2,a1
ffffffff840039c4:	ef10                	sd	a2,24(a4)
ffffffff840039c6:	f8000737          	lui	a4,0xf8000
ffffffff840039ca:	8365                	srl	a4,a4,0x19
ffffffff840039cc:	8f7d                	and	a4,a4,a5
ffffffff840039ce:	9399                	srl	a5,a5,0x26
ffffffff840039d0:	8b85                	and	a5,a5,1
ffffffff840039d2:	c799                	beqz	a5,ffffffff840039e0 <cteMove+0x54>
ffffffff840039d4:	57fd                	li	a5,-1
ffffffff840039d6:	179e                	sll	a5,a5,0x27
ffffffff840039d8:	8f5d                	or	a4,a4,a5
ffffffff840039da:	eb14                	sd	a3,16(a4)
ffffffff840039dc:	0141                	add	sp,sp,16
ffffffff840039de:	8082                	ret
ffffffff840039e0:	df75                	beqz	a4,ffffffff840039dc <cteMove+0x50>
ffffffff840039e2:	bfe5                	j	ffffffff840039da <cteMove+0x4e>

ffffffff840039e4 <invokeCNodeMove>:
ffffffff840039e4:	1101                	add	sp,sp,-32
ffffffff840039e6:	ec06                	sd	ra,24(sp)
ffffffff840039e8:	fa5ff0ef          	jal	ffffffff8400398c <cteMove>
ffffffff840039ec:	4501                	li	a0,0
ffffffff840039ee:	60e2                	ld	ra,24(sp)
ffffffff840039f0:	6105                	add	sp,sp,32
ffffffff840039f2:	8082                	ret

ffffffff840039f4 <invokeCNodeSaveCaller>:
ffffffff840039f4:	1101                	add	sp,sp,-32
ffffffff840039f6:	ec06                	sd	ra,24(sp)
ffffffff840039f8:	a801b783          	ld	a5,-1408(gp) # ffffffff84008e98 <ksCurThread>
ffffffff840039fc:	c007f793          	and	a5,a5,-1024
ffffffff84003a00:	06078613          	add	a2,a5,96
ffffffff84003a04:	73bc                	ld	a5,96(a5)
ffffffff84003a06:	e03e                	sd	a5,0(sp)
ffffffff84003a08:	6618                	ld	a4,8(a2)
ffffffff84003a0a:	e43a                	sd	a4,8(sp)
ffffffff84003a0c:	03b7d713          	srl	a4,a5,0x3b
ffffffff84003a10:	c719                	beqz	a4,ffffffff84003a1e <invokeCNodeSaveCaller+0x2a>
ffffffff84003a12:	46a1                	li	a3,8
ffffffff84003a14:	00d71f63          	bne	a4,a3,ffffffff84003a32 <invokeCNodeSaveCaller+0x3e>
ffffffff84003a18:	0017f713          	and	a4,a5,1
ffffffff84003a1c:	c709                	beqz	a4,ffffffff84003a26 <invokeCNodeSaveCaller+0x32>
ffffffff84003a1e:	4501                	li	a0,0
ffffffff84003a20:	60e2                	ld	ra,24(sp)
ffffffff84003a22:	6105                	add	sp,sp,32
ffffffff84003a24:	8082                	ret
ffffffff84003a26:	86aa                	mv	a3,a0
ffffffff84003a28:	853e                	mv	a0,a5
ffffffff84003a2a:	65a2                	ld	a1,8(sp)
ffffffff84003a2c:	f61ff0ef          	jal	ffffffff8400398c <cteMove>
ffffffff84003a30:	b7fd                	j	ffffffff84003a1e <invokeCNodeSaveCaller+0x2a>
ffffffff84003a32:	e1ffe0ef          	jal	ffffffff84002850 <halt>

ffffffff84003a36 <cteSwap>:
ffffffff84003a36:	1101                	add	sp,sp,-32
ffffffff84003a38:	e82a                	sd	a0,16(sp)
ffffffff84003a3a:	ec2e                	sd	a1,24(sp)
ffffffff84003a3c:	e036                	sd	a3,0(sp)
ffffffff84003a3e:	e43a                	sd	a4,8(sp)
ffffffff84003a40:	e214                	sd	a3,0(a2)
ffffffff84003a42:	e618                	sd	a4,8(a2)
ffffffff84003a44:	e388                	sd	a0,0(a5)
ffffffff84003a46:	e78c                	sd	a1,8(a5)
ffffffff84003a48:	6a08                	ld	a0,16(a2)
ffffffff84003a4a:	6e0c                	ld	a1,24(a2)
ffffffff84003a4c:	cd01                	beqz	a0,ffffffff84003a64 <cteSwap+0x2e>
ffffffff84003a4e:	6d18                	ld	a4,24(a0)
ffffffff84003a50:	56fd                	li	a3,-1
ffffffff84003a52:	169e                	sll	a3,a3,0x27
ffffffff84003a54:	068d                	add	a3,a3,3
ffffffff84003a56:	8f75                	and	a4,a4,a3
ffffffff84003a58:	f80006b7          	lui	a3,0xf8000
ffffffff84003a5c:	82e5                	srl	a3,a3,0x19
ffffffff84003a5e:	8efd                	and	a3,a3,a5
ffffffff84003a60:	8f55                	or	a4,a4,a3
ffffffff84003a62:	ed18                	sd	a4,24(a0)
ffffffff84003a64:	f8000737          	lui	a4,0xf8000
ffffffff84003a68:	8365                	srl	a4,a4,0x19
ffffffff84003a6a:	8f6d                	and	a4,a4,a1
ffffffff84003a6c:	0265d693          	srl	a3,a1,0x26
ffffffff84003a70:	8a85                	and	a3,a3,1
ffffffff84003a72:	c6a1                	beqz	a3,ffffffff84003aba <cteSwap+0x84>
ffffffff84003a74:	56fd                	li	a3,-1
ffffffff84003a76:	169e                	sll	a3,a3,0x27
ffffffff84003a78:	8f55                	or	a4,a4,a3
ffffffff84003a7a:	eb1c                	sd	a5,16(a4)
ffffffff84003a7c:	6b94                	ld	a3,16(a5)
ffffffff84003a7e:	6f98                	ld	a4,24(a5)
ffffffff84003a80:	ea14                	sd	a3,16(a2)
ffffffff84003a82:	ee18                	sd	a4,24(a2)
ffffffff84003a84:	eb88                	sd	a0,16(a5)
ffffffff84003a86:	ef8c                	sd	a1,24(a5)
ffffffff84003a88:	ce81                	beqz	a3,ffffffff84003aa0 <cteSwap+0x6a>
ffffffff84003a8a:	6e9c                	ld	a5,24(a3)
ffffffff84003a8c:	55fd                	li	a1,-1
ffffffff84003a8e:	159e                	sll	a1,a1,0x27
ffffffff84003a90:	058d                	add	a1,a1,3 # fffffffff8000003 <ki_end+0x73fe0003>
ffffffff84003a92:	8fed                	and	a5,a5,a1
ffffffff84003a94:	f80005b7          	lui	a1,0xf8000
ffffffff84003a98:	81e5                	srl	a1,a1,0x19
ffffffff84003a9a:	8df1                	and	a1,a1,a2
ffffffff84003a9c:	8fcd                	or	a5,a5,a1
ffffffff84003a9e:	ee9c                	sd	a5,24(a3)
ffffffff84003aa0:	f80007b7          	lui	a5,0xf8000
ffffffff84003aa4:	83e5                	srl	a5,a5,0x19
ffffffff84003aa6:	8ff9                	and	a5,a5,a4
ffffffff84003aa8:	9319                	srl	a4,a4,0x26
ffffffff84003aaa:	8b05                	and	a4,a4,1
ffffffff84003aac:	cb09                	beqz	a4,ffffffff84003abe <cteSwap+0x88>
ffffffff84003aae:	577d                	li	a4,-1
ffffffff84003ab0:	171e                	sll	a4,a4,0x27
ffffffff84003ab2:	8fd9                	or	a5,a5,a4
ffffffff84003ab4:	eb90                	sd	a2,16(a5)
ffffffff84003ab6:	6105                	add	sp,sp,32
ffffffff84003ab8:	8082                	ret
ffffffff84003aba:	d369                	beqz	a4,ffffffff84003a7c <cteSwap+0x46>
ffffffff84003abc:	bf7d                	j	ffffffff84003a7a <cteSwap+0x44>
ffffffff84003abe:	dfe5                	beqz	a5,ffffffff84003ab6 <cteSwap+0x80>
ffffffff84003ac0:	bfd5                	j	ffffffff84003ab4 <cteSwap+0x7e>

ffffffff84003ac2 <invokeCNodeRotate>:
ffffffff84003ac2:	7139                	add	sp,sp,-64
ffffffff84003ac4:	fc06                	sd	ra,56(sp)
ffffffff84003ac6:	f822                	sd	s0,48(sp)
ffffffff84003ac8:	f426                	sd	s1,40(sp)
ffffffff84003aca:	e82a                	sd	a0,16(sp)
ffffffff84003acc:	ec2e                	sd	a1,24(sp)
ffffffff84003ace:	e032                	sd	a2,0(sp)
ffffffff84003ad0:	e436                	sd	a3,8(sp)
ffffffff84003ad2:	843a                	mv	s0,a4
ffffffff84003ad4:	84be                	mv	s1,a5
ffffffff84003ad6:	03070463          	beq	a4,a6,ffffffff84003afe <invokeCNodeRotate+0x3c>
ffffffff84003ada:	86c2                	mv	a3,a6
ffffffff84003adc:	863e                	mv	a2,a5
ffffffff84003ade:	6502                	ld	a0,0(sp)
ffffffff84003ae0:	65a2                	ld	a1,8(sp)
ffffffff84003ae2:	eabff0ef          	jal	ffffffff8400398c <cteMove>
ffffffff84003ae6:	86a6                	mv	a3,s1
ffffffff84003ae8:	8622                	mv	a2,s0
ffffffff84003aea:	6542                	ld	a0,16(sp)
ffffffff84003aec:	65e2                	ld	a1,24(sp)
ffffffff84003aee:	e9fff0ef          	jal	ffffffff8400398c <cteMove>
ffffffff84003af2:	4501                	li	a0,0
ffffffff84003af4:	70e2                	ld	ra,56(sp)
ffffffff84003af6:	7442                	ld	s0,48(sp)
ffffffff84003af8:	74a2                	ld	s1,40(sp)
ffffffff84003afa:	6121                	add	sp,sp,64
ffffffff84003afc:	8082                	ret
ffffffff84003afe:	86b2                	mv	a3,a2
ffffffff84003b00:	6722                	ld	a4,8(sp)
ffffffff84003b02:	8622                	mv	a2,s0
ffffffff84003b04:	f33ff0ef          	jal	ffffffff84003a36 <cteSwap>
ffffffff84003b08:	b7ed                	j	ffffffff84003af2 <invokeCNodeRotate+0x30>

ffffffff84003b0a <capSwapForDelete>:
ffffffff84003b0a:	00b50f63          	beq	a0,a1,ffffffff84003b28 <capSwapForDelete+0x1e>
ffffffff84003b0e:	7179                	add	sp,sp,-48
ffffffff84003b10:	f406                	sd	ra,40(sp)
ffffffff84003b12:	862a                	mv	a2,a0
ffffffff84003b14:	87ae                	mv	a5,a1
ffffffff84003b16:	6194                	ld	a3,0(a1)
ffffffff84003b18:	6598                	ld	a4,8(a1)
ffffffff84003b1a:	6108                	ld	a0,0(a0)
ffffffff84003b1c:	660c                	ld	a1,8(a2)
ffffffff84003b1e:	f19ff0ef          	jal	ffffffff84003a36 <cteSwap>
ffffffff84003b22:	70a2                	ld	ra,40(sp)
ffffffff84003b24:	6145                	add	sp,sp,48
ffffffff84003b26:	8082                	ret
ffffffff84003b28:	8082                	ret

ffffffff84003b2a <insertNewCap>:
ffffffff84003b2a:	1141                	add	sp,sp,-16
ffffffff84003b2c:	e032                	sd	a2,0(sp)
ffffffff84003b2e:	e436                	sd	a3,8(sp)
ffffffff84003b30:	6d18                	ld	a4,24(a0)
ffffffff84003b32:	f80007b7          	lui	a5,0xf8000
ffffffff84003b36:	83e5                	srl	a5,a5,0x19
ffffffff84003b38:	8ff9                	and	a5,a5,a4
ffffffff84003b3a:	9319                	srl	a4,a4,0x26
ffffffff84003b3c:	8b05                	and	a4,a4,1
ffffffff84003b3e:	cb0d                	beqz	a4,ffffffff84003b70 <insertNewCap+0x46>
ffffffff84003b40:	577d                	li	a4,-1
ffffffff84003b42:	171e                	sll	a4,a4,0x27
ffffffff84003b44:	8f5d                	or	a4,a4,a5
ffffffff84003b46:	e190                	sd	a2,0(a1)
ffffffff84003b48:	66a2                	ld	a3,8(sp)
ffffffff84003b4a:	e594                	sd	a3,8(a1)
ffffffff84003b4c:	e988                	sd	a0,16(a1)
ffffffff84003b4e:	0037e793          	or	a5,a5,3
ffffffff84003b52:	ed9c                	sd	a5,24(a1)
ffffffff84003b54:	eb0c                	sd	a1,16(a4)
ffffffff84003b56:	6d1c                	ld	a5,24(a0)
ffffffff84003b58:	577d                	li	a4,-1
ffffffff84003b5a:	171e                	sll	a4,a4,0x27
ffffffff84003b5c:	070d                	add	a4,a4,3 # fffffffff8000003 <ki_end+0x73fe0003>
ffffffff84003b5e:	8ff9                	and	a5,a5,a4
ffffffff84003b60:	f8000737          	lui	a4,0xf8000
ffffffff84003b64:	8365                	srl	a4,a4,0x19
ffffffff84003b66:	8df9                	and	a1,a1,a4
ffffffff84003b68:	8fcd                	or	a5,a5,a1
ffffffff84003b6a:	ed1c                	sd	a5,24(a0)
ffffffff84003b6c:	0141                	add	sp,sp,16
ffffffff84003b6e:	8082                	ret
ffffffff84003b70:	6702                	ld	a4,0(sp)
ffffffff84003b72:	e198                	sd	a4,0(a1)
ffffffff84003b74:	6722                	ld	a4,8(sp)
ffffffff84003b76:	e598                	sd	a4,8(a1)
ffffffff84003b78:	e988                	sd	a0,16(a1)
ffffffff84003b7a:	0037e713          	or	a4,a5,3
ffffffff84003b7e:	ed98                	sd	a4,24(a1)
ffffffff84003b80:	dbf9                	beqz	a5,ffffffff84003b56 <insertNewCap+0x2c>
ffffffff84003b82:	873e                	mv	a4,a5
ffffffff84003b84:	bfc1                	j	ffffffff84003b54 <insertNewCap+0x2a>

ffffffff84003b86 <setupReplyMaster>:
ffffffff84003b86:	c0057713          	and	a4,a0,-1024
ffffffff84003b8a:	633c                	ld	a5,64(a4)
ffffffff84003b8c:	93ed                	srl	a5,a5,0x3b
ffffffff84003b8e:	eb91                	bnez	a5,ffffffff84003ba2 <setupReplyMaster+0x1c>
ffffffff84003b90:	4785                	li	a5,1
ffffffff84003b92:	17fa                	sll	a5,a5,0x3e
ffffffff84003b94:	078d                	add	a5,a5,3 # fffffffff8000003 <ki_end+0x73fe0003>
ffffffff84003b96:	e33c                	sd	a5,64(a4)
ffffffff84003b98:	e728                	sd	a0,72(a4)
ffffffff84003b9a:	04073823          	sd	zero,80(a4) # fffffffff8000050 <ki_end+0x73fe0050>
ffffffff84003b9e:	478d                	li	a5,3
ffffffff84003ba0:	ef3c                	sd	a5,88(a4)
ffffffff84003ba2:	8082                	ret

ffffffff84003ba4 <ensureEmptySlot>:
ffffffff84003ba4:	6108                	ld	a0,0(a0)
ffffffff84003ba6:	916d                	srl	a0,a0,0x3b
ffffffff84003ba8:	e111                	bnez	a0,ffffffff84003bac <ensureEmptySlot+0x8>
ffffffff84003baa:	8082                	ret
ffffffff84003bac:	47a1                	li	a5,8
ffffffff84003bae:	d4f1b023          	sd	a5,-704(gp) # ffffffff84009158 <current_syscall_error+0x30>
ffffffff84003bb2:	450d                	li	a0,3
ffffffff84003bb4:	bfdd                	j	ffffffff84003baa <ensureEmptySlot+0x6>

ffffffff84003bb6 <getReceiveSlots>:
ffffffff84003bb6:	c9b1                	beqz	a1,ffffffff84003c0a <getReceiveSlots+0x54>
ffffffff84003bb8:	711d                	add	sp,sp,-96
ffffffff84003bba:	ec86                	sd	ra,88(sp)
ffffffff84003bbc:	e8a2                	sd	s0,80(sp)
ffffffff84003bbe:	e4a6                	sd	s1,72(sp)
ffffffff84003bc0:	3f05b403          	ld	s0,1008(a1) # fffffffff80003f0 <ki_end+0x73fe03f0>
ffffffff84003bc4:	3f85b483          	ld	s1,1016(a1)
ffffffff84003bc8:	3e85b603          	ld	a2,1000(a1)
ffffffff84003bcc:	85aa                	mv	a1,a0
ffffffff84003bce:	1028                	add	a0,sp,40
ffffffff84003bd0:	be1ff0ef          	jal	ffffffff840037b0 <lookupCap>
ffffffff84003bd4:	77a2                	ld	a5,40(sp)
ffffffff84003bd6:	4501                	li	a0,0
ffffffff84003bd8:	e785                	bnez	a5,ffffffff84003c00 <getReceiveSlots+0x4a>
ffffffff84003bda:	7542                	ld	a0,48(sp)
ffffffff84003bdc:	e42a                	sd	a0,8(sp)
ffffffff84003bde:	75e2                	ld	a1,56(sp)
ffffffff84003be0:	e82e                	sd	a1,16(sp)
ffffffff84003be2:	86a6                	mv	a3,s1
ffffffff84003be4:	8622                	mv	a2,s0
ffffffff84003be6:	cefff0ef          	jal	ffffffff840038d4 <lookupTargetSlot>
ffffffff84003bea:	ec2a                	sd	a0,24(sp)
ffffffff84003bec:	f02e                	sd	a1,32(sp)
ffffffff84003bee:	e105                	bnez	a0,ffffffff84003c0e <getReceiveSlots+0x58>
ffffffff84003bf0:	619c                	ld	a5,0(a1)
ffffffff84003bf2:	93ed                	srl	a5,a5,0x3b
ffffffff84003bf4:	0017b793          	seqz	a5,a5
ffffffff84003bf8:	40f007b3          	neg	a5,a5
ffffffff84003bfc:	00f5f533          	and	a0,a1,a5
ffffffff84003c00:	60e6                	ld	ra,88(sp)
ffffffff84003c02:	6446                	ld	s0,80(sp)
ffffffff84003c04:	64a6                	ld	s1,72(sp)
ffffffff84003c06:	6125                	add	sp,sp,96
ffffffff84003c08:	8082                	ret
ffffffff84003c0a:	852e                	mv	a0,a1
ffffffff84003c0c:	8082                	ret
ffffffff84003c0e:	4501                	li	a0,0
ffffffff84003c10:	bfc5                	j	ffffffff84003c00 <getReceiveSlots+0x4a>

ffffffff84003c12 <loadCapTransfer>:
ffffffff84003c12:	3f05b683          	ld	a3,1008(a1)
ffffffff84003c16:	3f85b703          	ld	a4,1016(a1)
ffffffff84003c1a:	3e85b603          	ld	a2,1000(a1)
ffffffff84003c1e:	e110                	sd	a2,0(a0)
ffffffff84003c20:	e514                	sd	a3,8(a0)
ffffffff84003c22:	e918                	sd	a4,16(a0)
ffffffff84003c24:	8082                	ret

ffffffff84003c26 <replyFromKernel_success_empty>:
ffffffff84003c26:	04053423          	sd	zero,72(a0)
ffffffff84003c2a:	04053823          	sd	zero,80(a0)
ffffffff84003c2e:	8082                	ret

ffffffff84003c30 <invokeIRQHandler_AckIRQ>:
ffffffff84003c30:	2501                	sext.w	a0,a0
ffffffff84003c32:	c04027b7          	lui	a5,0xc0402
ffffffff84003c36:	c3c8                	sw	a0,4(a5)
ffffffff84003c38:	8082                	ret

ffffffff84003c3a <isIRQActive>:
ffffffff84003c3a:	050e                	sll	a0,a0,0x3
ffffffff84003c3c:	00005797          	auipc	a5,0x5
ffffffff84003c40:	08c78793          	add	a5,a5,140 # ffffffff84008cc8 <intStateIRQTable>
ffffffff84003c44:	97aa                	add	a5,a5,a0
ffffffff84003c46:	6388                	ld	a0,0(a5)
ffffffff84003c48:	00a03533          	snez	a0,a0
ffffffff84003c4c:	8082                	ret

ffffffff84003c4e <setIRQState>:
ffffffff84003c4e:	00359713          	sll	a4,a1,0x3
ffffffff84003c52:	00005797          	auipc	a5,0x5
ffffffff84003c56:	07678793          	add	a5,a5,118 # ffffffff84008cc8 <intStateIRQTable>
ffffffff84003c5a:	97ba                	add	a5,a5,a4
ffffffff84003c5c:	e388                	sd	a0,0(a5)
ffffffff84003c5e:	03600793          	li	a5,54
ffffffff84003c62:	00f59d63          	bne	a1,a5,ffffffff84003c7c <setIRQState+0x2e>
ffffffff84003c66:	e511                	bnez	a0,ffffffff84003c72 <setIRQState+0x24>
ffffffff84003c68:	02000793          	li	a5,32
ffffffff84003c6c:	1047b7f3          	csrrc	a5,sie,a5
ffffffff84003c70:	8082                	ret
ffffffff84003c72:	02000793          	li	a5,32
ffffffff84003c76:	1047a7f3          	csrrs	a5,sie,a5
ffffffff84003c7a:	8082                	ret
ffffffff84003c7c:	01f5f693          	and	a3,a1,31
ffffffff84003c80:	8195                	srl	a1,a1,0x5
ffffffff84003c82:	058a                	sll	a1,a1,0x2
ffffffff84003c84:	c02027b7          	lui	a5,0xc0202
ffffffff84003c88:	10078793          	add	a5,a5,256 # ffffffffc0202100 <ki_end+0x3c1e2100>
ffffffff84003c8c:	95be                	add	a1,a1,a5
ffffffff84003c8e:	4198                	lw	a4,0(a1)
ffffffff84003c90:	2701                	sext.w	a4,a4
ffffffff84003c92:	e911                	bnez	a0,ffffffff84003ca6 <setIRQState+0x58>
ffffffff84003c94:	4785                	li	a5,1
ffffffff84003c96:	00d797b3          	sll	a5,a5,a3
ffffffff84003c9a:	fff7c793          	not	a5,a5
ffffffff84003c9e:	8ff9                	and	a5,a5,a4
ffffffff84003ca0:	2781                	sext.w	a5,a5
ffffffff84003ca2:	c19c                	sw	a5,0(a1)
ffffffff84003ca4:	8082                	ret
ffffffff84003ca6:	4785                	li	a5,1
ffffffff84003ca8:	00d797b3          	sll	a5,a5,a3
ffffffff84003cac:	8fd9                	or	a5,a5,a4
ffffffff84003cae:	2781                	sext.w	a5,a5
ffffffff84003cb0:	bfcd                	j	ffffffff84003ca2 <setIRQState+0x54>

ffffffff84003cb2 <deletedIRQHandler>:
ffffffff84003cb2:	1141                	add	sp,sp,-16
ffffffff84003cb4:	e406                	sd	ra,8(sp)
ffffffff84003cb6:	85aa                	mv	a1,a0
ffffffff84003cb8:	4501                	li	a0,0
ffffffff84003cba:	f95ff0ef          	jal	ffffffff84003c4e <setIRQState>
ffffffff84003cbe:	60a2                	ld	ra,8(sp)
ffffffff84003cc0:	0141                	add	sp,sp,16
ffffffff84003cc2:	8082                	ret

ffffffff84003cc4 <emptySlot>:
ffffffff84003cc4:	1101                	add	sp,sp,-32
ffffffff84003cc6:	ec06                	sd	ra,24(sp)
ffffffff84003cc8:	e02e                	sd	a1,0(sp)
ffffffff84003cca:	e432                	sd	a2,8(sp)
ffffffff84003ccc:	611c                	ld	a5,0(a0)
ffffffff84003cce:	93ed                	srl	a5,a5,0x3b
ffffffff84003cd0:	c7b9                	beqz	a5,ffffffff84003d1e <emptySlot+0x5a>
ffffffff84003cd2:	6910                	ld	a2,16(a0)
ffffffff84003cd4:	6d18                	ld	a4,24(a0)
ffffffff84003cd6:	f80007b7          	lui	a5,0xf8000
ffffffff84003cda:	83e5                	srl	a5,a5,0x19
ffffffff84003cdc:	8ff9                	and	a5,a5,a4
ffffffff84003cde:	02675693          	srl	a3,a4,0x26
ffffffff84003ce2:	8a85                	and	a3,a3,1
ffffffff84003ce4:	c2a1                	beqz	a3,ffffffff84003d24 <emptySlot+0x60>
ffffffff84003ce6:	56fd                	li	a3,-1
ffffffff84003ce8:	169e                	sll	a3,a3,0x27
ffffffff84003cea:	8fd5                	or	a5,a5,a3
ffffffff84003cec:	883e                	mv	a6,a5
ffffffff84003cee:	ee0d                	bnez	a2,ffffffff84003d28 <emptySlot+0x64>
ffffffff84003cf0:	00c83823          	sd	a2,16(a6)
ffffffff84003cf4:	01883783          	ld	a5,24(a6)
ffffffff84003cf8:	8f5d                	or	a4,a4,a5
ffffffff84003cfa:	8b05                	and	a4,a4,1
ffffffff84003cfc:	9bf9                	and	a5,a5,-2
ffffffff84003cfe:	8f5d                	or	a4,a4,a5
ffffffff84003d00:	00e83c23          	sd	a4,24(a6)
ffffffff84003d04:	00053023          	sd	zero,0(a0)
ffffffff84003d08:	00053423          	sd	zero,8(a0)
ffffffff84003d0c:	00053823          	sd	zero,16(a0)
ffffffff84003d10:	00053c23          	sd	zero,24(a0)
ffffffff84003d14:	6782                	ld	a5,0(sp)
ffffffff84003d16:	93ed                	srl	a5,a5,0x3b
ffffffff84003d18:	4741                	li	a4,16
ffffffff84003d1a:	02e78463          	beq	a5,a4,ffffffff84003d42 <emptySlot+0x7e>
ffffffff84003d1e:	60e2                	ld	ra,24(sp)
ffffffff84003d20:	6105                	add	sp,sp,32
ffffffff84003d22:	8082                	ret
ffffffff84003d24:	883e                	mv	a6,a5
ffffffff84003d26:	ce01                	beqz	a2,ffffffff84003d3e <emptySlot+0x7a>
ffffffff84003d28:	6e14                	ld	a3,24(a2)
ffffffff84003d2a:	55fd                	li	a1,-1
ffffffff84003d2c:	159e                	sll	a1,a1,0x27
ffffffff84003d2e:	058d                	add	a1,a1,3
ffffffff84003d30:	8eed                	and	a3,a3,a1
ffffffff84003d32:	f80005b7          	lui	a1,0xf8000
ffffffff84003d36:	81e5                	srl	a1,a1,0x19
ffffffff84003d38:	8dfd                	and	a1,a1,a5
ffffffff84003d3a:	8ecd                	or	a3,a3,a1
ffffffff84003d3c:	ee14                	sd	a3,24(a2)
ffffffff84003d3e:	d3f9                	beqz	a5,ffffffff84003d04 <emptySlot+0x40>
ffffffff84003d40:	bf45                	j	ffffffff84003cf0 <emptySlot+0x2c>
ffffffff84003d42:	6522                	ld	a0,8(sp)
ffffffff84003d44:	1552                	sll	a0,a0,0x34
ffffffff84003d46:	9151                	srl	a0,a0,0x34
ffffffff84003d48:	f6bff0ef          	jal	ffffffff84003cb2 <deletedIRQHandler>
ffffffff84003d4c:	bfc9                	j	ffffffff84003d1e <emptySlot+0x5a>

ffffffff84003d4e <completeSignal>:
ffffffff84003d4e:	cd81                	beqz	a1,ffffffff84003d66 <completeSignal+0x18>
ffffffff84003d50:	611c                	ld	a5,0(a0)
ffffffff84003d52:	8b8d                	and	a5,a5,3
ffffffff84003d54:	4709                	li	a4,2
ffffffff84003d56:	00e79863          	bne	a5,a4,ffffffff84003d66 <completeSignal+0x18>
ffffffff84003d5a:	691c                	ld	a5,16(a0)
ffffffff84003d5c:	e5bc                	sd	a5,72(a1)
ffffffff84003d5e:	611c                	ld	a5,0(a0)
ffffffff84003d60:	9bf1                	and	a5,a5,-4
ffffffff84003d62:	e11c                	sd	a5,0(a0)
ffffffff84003d64:	8082                	ret
ffffffff84003d66:	1141                	add	sp,sp,-16
ffffffff84003d68:	e406                	sd	ra,8(sp)
ffffffff84003d6a:	ae7fe0ef          	jal	ffffffff84002850 <halt>

ffffffff84003d6e <unbindMaybeNotification>:
ffffffff84003d6e:	6d1c                	ld	a5,24(a0)
ffffffff84003d70:	01979713          	sll	a4,a5,0x19
ffffffff84003d74:	8365                	srl	a4,a4,0x19
ffffffff84003d76:	0267d693          	srl	a3,a5,0x26
ffffffff84003d7a:	8a85                	and	a3,a3,1
ffffffff84003d7c:	ca91                	beqz	a3,ffffffff84003d90 <unbindMaybeNotification+0x22>
ffffffff84003d7e:	56fd                	li	a3,-1
ffffffff84003d80:	169e                	sll	a3,a3,0x27
ffffffff84003d82:	8f55                	or	a4,a4,a3
ffffffff84003d84:	939d                	srl	a5,a5,0x27
ffffffff84003d86:	179e                	sll	a5,a5,0x27
ffffffff84003d88:	ed1c                	sd	a5,24(a0)
ffffffff84003d8a:	12073823          	sd	zero,304(a4)
ffffffff84003d8e:	8082                	ret
ffffffff84003d90:	df7d                	beqz	a4,ffffffff84003d8e <unbindMaybeNotification+0x20>
ffffffff84003d92:	bfcd                	j	ffffffff84003d84 <unbindMaybeNotification+0x16>

ffffffff84003d94 <unbindNotification>:
ffffffff84003d94:	13053703          	ld	a4,304(a0)
ffffffff84003d98:	c719                	beqz	a4,ffffffff84003da6 <unbindNotification+0x12>
ffffffff84003d9a:	6f1c                	ld	a5,24(a4)
ffffffff84003d9c:	939d                	srl	a5,a5,0x27
ffffffff84003d9e:	179e                	sll	a5,a5,0x27
ffffffff84003da0:	ef1c                	sd	a5,24(a4)
ffffffff84003da2:	12053823          	sd	zero,304(a0)
ffffffff84003da6:	8082                	ret

ffffffff84003da8 <bindNotification>:
ffffffff84003da8:	6d98                	ld	a4,24(a1)
ffffffff84003daa:	57fd                	li	a5,-1
ffffffff84003dac:	02779693          	sll	a3,a5,0x27
ffffffff84003db0:	8f75                	and	a4,a4,a3
ffffffff84003db2:	83e5                	srl	a5,a5,0x19
ffffffff84003db4:	8fe9                	and	a5,a5,a0
ffffffff84003db6:	8fd9                	or	a5,a5,a4
ffffffff84003db8:	ed9c                	sd	a5,24(a1)
ffffffff84003dba:	12b53823          	sd	a1,304(a0)
ffffffff84003dbe:	8082                	ret

ffffffff84003dc0 <getObjectSize>:
ffffffff84003dc0:	1141                	add	sp,sp,-16
ffffffff84003dc2:	e406                	sd	ra,8(sp)
ffffffff84003dc4:	4791                	li	a5,4
ffffffff84003dc6:	00a7ef63          	bltu	a5,a0,ffffffff84003de4 <getObjectSize+0x24>
ffffffff84003dca:	4791                	li	a5,4
ffffffff84003dcc:	02a7e863          	bltu	a5,a0,ffffffff84003dfc <getObjectSize+0x3c>
ffffffff84003dd0:	00251793          	sll	a5,a0,0x2
ffffffff84003dd4:	00005717          	auipc	a4,0x5
ffffffff84003dd8:	7b870713          	add	a4,a4,1976 # ffffffff8400958c <platform_interrupt_t+0x4>
ffffffff84003ddc:	97ba                	add	a5,a5,a4
ffffffff84003dde:	439c                	lw	a5,0(a5)
ffffffff84003de0:	97ba                	add	a5,a5,a4
ffffffff84003de2:	8782                	jr	a5
ffffffff84003de4:	ff4ff0ef          	jal	ffffffff840035d8 <Arch_getObjectSize>
ffffffff84003de8:	60a2                	ld	ra,8(sp)
ffffffff84003dea:	0141                	add	sp,sp,16
ffffffff84003dec:	8082                	ret
ffffffff84003dee:	4515                	li	a0,5
ffffffff84003df0:	bfe5                	j	ffffffff84003de8 <getObjectSize+0x28>
ffffffff84003df2:	00558513          	add	a0,a1,5 # fffffffff8000005 <ki_end+0x73fe0005>
ffffffff84003df6:	bfcd                	j	ffffffff84003de8 <getObjectSize+0x28>
ffffffff84003df8:	852e                	mv	a0,a1
ffffffff84003dfa:	b7fd                	j	ffffffff84003de8 <getObjectSize+0x28>
ffffffff84003dfc:	a55fe0ef          	jal	ffffffff84002850 <halt>
ffffffff84003e00:	4529                	li	a0,10
ffffffff84003e02:	b7dd                	j	ffffffff84003de8 <getObjectSize+0x28>
ffffffff84003e04:	4511                	li	a0,4
ffffffff84003e06:	b7cd                	j	ffffffff84003de8 <getObjectSize+0x28>

ffffffff84003e08 <hasCancelSendRights>:
ffffffff84003e08:	1141                	add	sp,sp,-16
ffffffff84003e0a:	03b55713          	srl	a4,a0,0x3b
ffffffff84003e0e:	4791                	li	a5,4
ffffffff84003e10:	00f70563          	beq	a4,a5,ffffffff84003e1a <hasCancelSendRights+0x12>
ffffffff84003e14:	4501                	li	a0,0
ffffffff84003e16:	0141                	add	sp,sp,16
ffffffff84003e18:	8082                	ret
ffffffff84003e1a:	470d                	li	a4,3
ffffffff84003e1c:	175e                	sll	a4,a4,0x37
ffffffff84003e1e:	00e576b3          	and	a3,a0,a4
ffffffff84003e22:	4781                	li	a5,0
ffffffff84003e24:	00e68463          	beq	a3,a4,ffffffff84003e2c <hasCancelSendRights+0x24>
ffffffff84003e28:	853e                	mv	a0,a5
ffffffff84003e2a:	b7f5                	j	ffffffff84003e16 <hasCancelSendRights+0xe>
ffffffff84003e2c:	478d                	li	a5,3
ffffffff84003e2e:	17e6                	sll	a5,a5,0x39
ffffffff84003e30:	8d7d                	and	a0,a0,a5
ffffffff84003e32:	8d1d                	sub	a0,a0,a5
ffffffff84003e34:	00153793          	seqz	a5,a0
ffffffff84003e38:	bfc5                	j	ffffffff84003e28 <hasCancelSendRights+0x20>

ffffffff84003e3a <updateCapData>:
ffffffff84003e3a:	1101                	add	sp,sp,-32
ffffffff84003e3c:	03b65793          	srl	a5,a2,0x3b
ffffffff84003e40:	0017f713          	and	a4,a5,1
ffffffff84003e44:	ef09                	bnez	a4,ffffffff84003e5e <updateCapData+0x24>
ffffffff84003e46:	4719                	li	a4,6
ffffffff84003e48:	02e78963          	beq	a5,a4,ffffffff84003e7a <updateCapData+0x40>
ffffffff84003e4c:	4729                	li	a4,10
ffffffff84003e4e:	02e78e63          	beq	a5,a4,ffffffff84003e8a <updateCapData+0x50>
ffffffff84003e52:	4711                	li	a4,4
ffffffff84003e54:	00e78b63          	beq	a5,a4,ffffffff84003e6a <updateCapData+0x30>
ffffffff84003e58:	e832                	sd	a2,16(sp)
ffffffff84003e5a:	ec36                	sd	a3,24(sp)
ffffffff84003e5c:	a019                	j	ffffffff84003e62 <updateCapData+0x28>
ffffffff84003e5e:	e832                	sd	a2,16(sp)
ffffffff84003e60:	ec36                	sd	a3,24(sp)
ffffffff84003e62:	6542                	ld	a0,16(sp)
ffffffff84003e64:	65e2                	ld	a1,24(sp)
ffffffff84003e66:	6105                	add	sp,sp,32
ffffffff84003e68:	8082                	ret
ffffffff84003e6a:	8d55                	or	a0,a0,a3
ffffffff84003e6c:	e501                	bnez	a0,ffffffff84003e74 <updateCapData+0x3a>
ffffffff84003e6e:	e832                	sd	a2,16(sp)
ffffffff84003e70:	ec2e                	sd	a1,24(sp)
ffffffff84003e72:	bfc5                	j	ffffffff84003e62 <updateCapData+0x28>
ffffffff84003e74:	e802                	sd	zero,16(sp)
ffffffff84003e76:	ec02                	sd	zero,24(sp)
ffffffff84003e78:	b7ed                	j	ffffffff84003e62 <updateCapData+0x28>
ffffffff84003e7a:	8d55                	or	a0,a0,a3
ffffffff84003e7c:	e501                	bnez	a0,ffffffff84003e84 <updateCapData+0x4a>
ffffffff84003e7e:	e832                	sd	a2,16(sp)
ffffffff84003e80:	ec2e                	sd	a1,24(sp)
ffffffff84003e82:	b7c5                	j	ffffffff84003e62 <updateCapData+0x28>
ffffffff84003e84:	e802                	sd	zero,16(sp)
ffffffff84003e86:	ec02                	sd	zero,24(sp)
ffffffff84003e88:	bfe9                	j	ffffffff84003e62 <updateCapData+0x28>
ffffffff84003e8a:	03f5f713          	and	a4,a1,63
ffffffff84003e8e:	02f65793          	srl	a5,a2,0x2f
ffffffff84003e92:	03f7f793          	and	a5,a5,63
ffffffff84003e96:	97ba                	add	a5,a5,a4
ffffffff84003e98:	04000693          	li	a3,64
ffffffff84003e9c:	00f6f563          	bgeu	a3,a5,ffffffff84003ea6 <updateCapData+0x6c>
ffffffff84003ea0:	e802                	sd	zero,16(sp)
ffffffff84003ea2:	ec02                	sd	zero,24(sp)
ffffffff84003ea4:	bf7d                	j	ffffffff84003e62 <updateCapData+0x28>
ffffffff84003ea6:	fc100793          	li	a5,-63
ffffffff84003eaa:	17d6                	sll	a5,a5,0x35
ffffffff84003eac:	17fd                	add	a5,a5,-1 # fffffffff7ffffff <ki_end+0x73fdffff>
ffffffff84003eae:	8e7d                	and	a2,a2,a5
ffffffff84003eb0:	03571793          	sll	a5,a4,0x35
ffffffff84003eb4:	8e5d                	or	a2,a2,a5
ffffffff84003eb6:	e832                	sd	a2,16(sp)
ffffffff84003eb8:	57fd                	li	a5,-1
ffffffff84003eba:	00e797b3          	sll	a5,a5,a4
ffffffff84003ebe:	fff7c793          	not	a5,a5
ffffffff84003ec2:	8199                	srl	a1,a1,0x6
ffffffff84003ec4:	8fed                	and	a5,a5,a1
ffffffff84003ec6:	ec3e                	sd	a5,24(sp)
ffffffff84003ec8:	bf69                	j	ffffffff84003e62 <updateCapData+0x28>

ffffffff84003eca <maskCapRights>:
ffffffff84003eca:	7179                	add	sp,sp,-48
ffffffff84003ecc:	f406                	sd	ra,40(sp)
ffffffff84003ece:	e02e                	sd	a1,0(sp)
ffffffff84003ed0:	e432                	sd	a2,8(sp)
ffffffff84003ed2:	03b5d793          	srl	a5,a1,0x3b
ffffffff84003ed6:	0017f713          	and	a4,a5,1
ffffffff84003eda:	e335                	bnez	a4,ffffffff84003f3e <maskCapRights+0x74>
ffffffff84003edc:	4751                	li	a4,20
ffffffff84003ede:	0ef76a63          	bltu	a4,a5,ffffffff84003fd2 <maskCapRights+0x108>
ffffffff84003ee2:	4715                	li	a4,5
ffffffff84003ee4:	06f77663          	bgeu	a4,a5,ffffffff84003f50 <maskCapRights+0x86>
ffffffff84003ee8:	0007869b          	sext.w	a3,a5
ffffffff84003eec:	4705                	li	a4,1
ffffffff84003eee:	00f717b3          	sll	a5,a4,a5
ffffffff84003ef2:	00155737          	lui	a4,0x155
ffffffff84003ef6:	40070713          	add	a4,a4,1024 # 155400 <KERNEL_OFFSET-0xfffffffeffeaac00>
ffffffff84003efa:	8ff9                	and	a5,a5,a4
ffffffff84003efc:	efe9                	bnez	a5,ffffffff84003fd6 <maskCapRights+0x10c>
ffffffff84003efe:	47a1                	li	a5,8
ffffffff84003f00:	0cf68e63          	beq	a3,a5,ffffffff84003fdc <maskCapRights+0x112>
ffffffff84003f04:	4799                	li	a5,6
ffffffff84003f06:	0cf69663          	bne	a3,a5,ffffffff84003fd2 <maskCapRights+0x108>
ffffffff84003f0a:	0395d793          	srl	a5,a1,0x39
ffffffff84003f0e:	8fe9                	and	a5,a5,a0
ffffffff84003f10:	4705                	li	a4,1
ffffffff84003f12:	8ff9                	and	a5,a5,a4
ffffffff84003f14:	17e6                	sll	a5,a5,0x39
ffffffff84003f16:	56fd                	li	a3,-1
ffffffff84003f18:	03969813          	sll	a6,a3,0x39
ffffffff84003f1c:	187d                	add	a6,a6,-1
ffffffff84003f1e:	0105f833          	and	a6,a1,a6
ffffffff84003f22:	0107e7b3          	or	a5,a5,a6
ffffffff84003f26:	16ea                	sll	a3,a3,0x3a
ffffffff84003f28:	16fd                	add	a3,a3,-1 # fffffffff7ffffff <ki_end+0x73fdffff>
ffffffff84003f2a:	8ff5                	and	a5,a5,a3
ffffffff84003f2c:	8105                	srl	a0,a0,0x1
ffffffff84003f2e:	91e9                	srl	a1,a1,0x3a
ffffffff84003f30:	8d6d                	and	a0,a0,a1
ffffffff84003f32:	8f69                	and	a4,a4,a0
ffffffff84003f34:	176a                	sll	a4,a4,0x3a
ffffffff84003f36:	8fd9                	or	a5,a5,a4
ffffffff84003f38:	e83e                	sd	a5,16(sp)
ffffffff84003f3a:	ec32                	sd	a2,24(sp)
ffffffff84003f3c:	a029                	j	ffffffff84003f46 <maskCapRights+0x7c>
ffffffff84003f3e:	b4cff0ef          	jal	ffffffff8400328a <Arch_maskCapRights>
ffffffff84003f42:	e82a                	sd	a0,16(sp)
ffffffff84003f44:	ec2e                	sd	a1,24(sp)
ffffffff84003f46:	6542                	ld	a0,16(sp)
ffffffff84003f48:	65e2                	ld	a1,24(sp)
ffffffff84003f4a:	70a2                	ld	ra,40(sp)
ffffffff84003f4c:	6145                	add	sp,sp,48
ffffffff84003f4e:	8082                	ret
ffffffff84003f50:	4711                	li	a4,4
ffffffff84003f52:	06e79c63          	bne	a5,a4,ffffffff84003fca <maskCapRights+0x100>
ffffffff84003f56:	0375d793          	srl	a5,a1,0x37
ffffffff84003f5a:	8fe9                	and	a5,a5,a0
ffffffff84003f5c:	4705                	li	a4,1
ffffffff84003f5e:	8ff9                	and	a5,a5,a4
ffffffff84003f60:	17de                	sll	a5,a5,0x37
ffffffff84003f62:	56fd                	li	a3,-1
ffffffff84003f64:	03769813          	sll	a6,a3,0x37
ffffffff84003f68:	187d                	add	a6,a6,-1
ffffffff84003f6a:	0105f833          	and	a6,a1,a6
ffffffff84003f6e:	0107e7b3          	or	a5,a5,a6
ffffffff84003f72:	03869813          	sll	a6,a3,0x38
ffffffff84003f76:	187d                	add	a6,a6,-1
ffffffff84003f78:	0107f7b3          	and	a5,a5,a6
ffffffff84003f7c:	00155813          	srl	a6,a0,0x1
ffffffff84003f80:	0385d893          	srl	a7,a1,0x38
ffffffff84003f84:	01187833          	and	a6,a6,a7
ffffffff84003f88:	01077833          	and	a6,a4,a6
ffffffff84003f8c:	1862                	sll	a6,a6,0x38
ffffffff84003f8e:	0107e7b3          	or	a5,a5,a6
ffffffff84003f92:	03969813          	sll	a6,a3,0x39
ffffffff84003f96:	187d                	add	a6,a6,-1
ffffffff84003f98:	0107f7b3          	and	a5,a5,a6
ffffffff84003f9c:	00255813          	srl	a6,a0,0x2
ffffffff84003fa0:	0395d893          	srl	a7,a1,0x39
ffffffff84003fa4:	01187833          	and	a6,a6,a7
ffffffff84003fa8:	01077833          	and	a6,a4,a6
ffffffff84003fac:	1866                	sll	a6,a6,0x39
ffffffff84003fae:	0107e7b3          	or	a5,a5,a6
ffffffff84003fb2:	16ea                	sll	a3,a3,0x3a
ffffffff84003fb4:	16fd                	add	a3,a3,-1
ffffffff84003fb6:	8ff5                	and	a5,a5,a3
ffffffff84003fb8:	810d                	srl	a0,a0,0x3
ffffffff84003fba:	91e9                	srl	a1,a1,0x3a
ffffffff84003fbc:	8d6d                	and	a0,a0,a1
ffffffff84003fbe:	8f69                	and	a4,a4,a0
ffffffff84003fc0:	176a                	sll	a4,a4,0x3a
ffffffff84003fc2:	8fd9                	or	a5,a5,a4
ffffffff84003fc4:	e83e                	sd	a5,16(sp)
ffffffff84003fc6:	ec32                	sd	a2,24(sp)
ffffffff84003fc8:	bfbd                	j	ffffffff84003f46 <maskCapRights+0x7c>
ffffffff84003fca:	00f76463          	bltu	a4,a5,ffffffff84003fd2 <maskCapRights+0x108>
ffffffff84003fce:	9bf5                	and	a5,a5,-3
ffffffff84003fd0:	c399                	beqz	a5,ffffffff84003fd6 <maskCapRights+0x10c>
ffffffff84003fd2:	87ffe0ef          	jal	ffffffff84002850 <halt>
ffffffff84003fd6:	e82e                	sd	a1,16(sp)
ffffffff84003fd8:	ec32                	sd	a2,24(sp)
ffffffff84003fda:	b7b5                	j	ffffffff84003f46 <maskCapRights+0x7c>
ffffffff84003fdc:	00255793          	srl	a5,a0,0x2
ffffffff84003fe0:	0015d713          	srl	a4,a1,0x1
ffffffff84003fe4:	8ff9                	and	a5,a5,a4
ffffffff84003fe6:	0786                	sll	a5,a5,0x1
ffffffff84003fe8:	8b89                	and	a5,a5,2
ffffffff84003fea:	99f5                	and	a1,a1,-3
ffffffff84003fec:	8fcd                	or	a5,a5,a1
ffffffff84003fee:	e83e                	sd	a5,16(sp)
ffffffff84003ff0:	ec32                	sd	a2,24(sp)
ffffffff84003ff2:	bf91                	j	ffffffff84003f46 <maskCapRights+0x7c>

ffffffff84003ff4 <createObject>:
ffffffff84003ff4:	1101                	add	sp,sp,-32
ffffffff84003ff6:	ec06                	sd	ra,24(sp)
ffffffff84003ff8:	4791                	li	a5,4
ffffffff84003ffa:	00a7ee63          	bltu	a5,a0,ffffffff84004016 <createObject+0x22>
ffffffff84003ffe:	4791                	li	a5,4
ffffffff84004000:	0aa7e463          	bltu	a5,a0,ffffffff840040a8 <createObject+0xb4>
ffffffff84004004:	050a                	sll	a0,a0,0x2
ffffffff84004006:	00005717          	auipc	a4,0x5
ffffffff8400400a:	59a70713          	add	a4,a4,1434 # ffffffff840095a0 <platform_interrupt_t+0x18>
ffffffff8400400e:	953a                	add	a0,a0,a4
ffffffff84004010:	411c                	lw	a5,0(a0)
ffffffff84004012:	97ba                	add	a5,a5,a4
ffffffff84004014:	8782                	jr	a5
ffffffff84004016:	df4ff0ef          	jal	ffffffff8400360a <Arch_createObject>
ffffffff8400401a:	e02a                	sd	a0,0(sp)
ffffffff8400401c:	e42e                	sd	a1,8(sp)
ffffffff8400401e:	6502                	ld	a0,0(sp)
ffffffff84004020:	65a2                	ld	a1,8(sp)
ffffffff84004022:	60e2                	ld	ra,24(sp)
ffffffff84004024:	6105                	add	sp,sp,32
ffffffff84004026:	8082                	ret
ffffffff84004028:	02000793          	li	a5,32
ffffffff8400402c:	30f5b023          	sd	a5,768(a1)
ffffffff84004030:	4795                	li	a5,5
ffffffff84004032:	36f5b823          	sd	a5,880(a1)
ffffffff84004036:	8a81b783          	ld	a5,-1880(gp) # ffffffff84008cc0 <ksCurDomain>
ffffffff8400403a:	34f5bc23          	sd	a5,856(a1)
ffffffff8400403e:	20058593          	add	a1,a1,512
ffffffff84004042:	05e6                	sll	a1,a1,0x19
ffffffff84004044:	81e5                	srl	a1,a1,0x19
ffffffff84004046:	478d                	li	a5,3
ffffffff84004048:	17f6                	sll	a5,a5,0x3d
ffffffff8400404a:	8ddd                	or	a1,a1,a5
ffffffff8400404c:	e02e                	sd	a1,0(sp)
ffffffff8400404e:	e402                	sd	zero,8(sp)
ffffffff84004050:	b7f9                	j	ffffffff8400401e <createObject+0x2a>
ffffffff84004052:	05e6                	sll	a1,a1,0x19
ffffffff84004054:	81e5                	srl	a1,a1,0x19
ffffffff84004056:	04f00793          	li	a5,79
ffffffff8400405a:	17de                	sll	a5,a5,0x37
ffffffff8400405c:	8ddd                	or	a1,a1,a5
ffffffff8400405e:	e02e                	sd	a1,0(sp)
ffffffff84004060:	e402                	sd	zero,8(sp)
ffffffff84004062:	bf75                	j	ffffffff8400401e <createObject+0x2a>
ffffffff84004064:	05e6                	sll	a1,a1,0x19
ffffffff84004066:	81e5                	srl	a1,a1,0x19
ffffffff84004068:	47ed                	li	a5,27
ffffffff8400406a:	17e6                	sll	a5,a5,0x39
ffffffff8400406c:	8ddd                	or	a1,a1,a5
ffffffff8400406e:	e02e                	sd	a1,0(sp)
ffffffff84004070:	e402                	sd	zero,8(sp)
ffffffff84004072:	b775                	j	ffffffff8400401e <createObject+0x2a>
ffffffff84004074:	03f67613          	and	a2,a2,63
ffffffff84004078:	163e                	sll	a2,a2,0x2f
ffffffff8400407a:	05e6                	sll	a1,a1,0x19
ffffffff8400407c:	81e9                	srl	a1,a1,0x1a
ffffffff8400407e:	8e4d                	or	a2,a2,a1
ffffffff84004080:	4795                	li	a5,5
ffffffff84004082:	17f2                	sll	a5,a5,0x3c
ffffffff84004084:	8e5d                	or	a2,a2,a5
ffffffff84004086:	e032                	sd	a2,0(sp)
ffffffff84004088:	e402                	sd	zero,8(sp)
ffffffff8400408a:	bf51                	j	ffffffff8400401e <createObject+0x2a>
ffffffff8400408c:	05e6                	sll	a1,a1,0x19
ffffffff8400408e:	81e5                	srl	a1,a1,0x19
ffffffff84004090:	4785                	li	a5,1
ffffffff84004092:	17f2                	sll	a5,a5,0x3c
ffffffff84004094:	8ddd                	or	a1,a1,a5
ffffffff84004096:	e02e                	sd	a1,0(sp)
ffffffff84004098:	00d036b3          	snez	a3,a3
ffffffff8400409c:	069a                	sll	a3,a3,0x6
ffffffff8400409e:	03f67613          	and	a2,a2,63
ffffffff840040a2:	8ed1                	or	a3,a3,a2
ffffffff840040a4:	e436                	sd	a3,8(sp)
ffffffff840040a6:	bfa5                	j	ffffffff8400401e <createObject+0x2a>
ffffffff840040a8:	fa8fe0ef          	jal	ffffffff84002850 <halt>

ffffffff840040ac <createNewObjects>:
ffffffff840040ac:	711d                	add	sp,sp,-96
ffffffff840040ae:	ec86                	sd	ra,88(sp)
ffffffff840040b0:	e8a2                	sd	s0,80(sp)
ffffffff840040b2:	e4a6                	sd	s1,72(sp)
ffffffff840040b4:	e0ca                	sd	s2,64(sp)
ffffffff840040b6:	fc4e                	sd	s3,56(sp)
ffffffff840040b8:	f852                	sd	s4,48(sp)
ffffffff840040ba:	f456                	sd	s5,40(sp)
ffffffff840040bc:	f05a                	sd	s6,32(sp)
ffffffff840040be:	ec5e                	sd	s7,24(sp)
ffffffff840040c0:	e862                	sd	s8,16(sp)
ffffffff840040c2:	8aaa                	mv	s5,a0
ffffffff840040c4:	8b2e                	mv	s6,a1
ffffffff840040c6:	84b2                	mv	s1,a2
ffffffff840040c8:	8436                	mv	s0,a3
ffffffff840040ca:	893a                	mv	s2,a4
ffffffff840040cc:	8bbe                	mv	s7,a5
ffffffff840040ce:	89c2                	mv	s3,a6
ffffffff840040d0:	8c46                	mv	s8,a7
ffffffff840040d2:	85c2                	mv	a1,a6
ffffffff840040d4:	cedff0ef          	jal	ffffffff84003dc0 <getObjectSize>
ffffffff840040d8:	02090a63          	beqz	s2,ffffffff8400410c <createNewObjects+0x60>
ffffffff840040dc:	00050a1b          	sext.w	s4,a0
ffffffff840040e0:	0416                	sll	s0,s0,0x5
ffffffff840040e2:	94a2                	add	s1,s1,s0
ffffffff840040e4:	4401                	li	s0,0
ffffffff840040e6:	014415b3          	sll	a1,s0,s4
ffffffff840040ea:	86e2                	mv	a3,s8
ffffffff840040ec:	864e                	mv	a2,s3
ffffffff840040ee:	95de                	add	a1,a1,s7
ffffffff840040f0:	8556                	mv	a0,s5
ffffffff840040f2:	f03ff0ef          	jal	ffffffff84003ff4 <createObject>
ffffffff840040f6:	862a                	mv	a2,a0
ffffffff840040f8:	86ae                	mv	a3,a1
ffffffff840040fa:	85a6                	mv	a1,s1
ffffffff840040fc:	855a                	mv	a0,s6
ffffffff840040fe:	a2dff0ef          	jal	ffffffff84003b2a <insertNewCap>
ffffffff84004102:	0405                	add	s0,s0,1
ffffffff84004104:	02048493          	add	s1,s1,32
ffffffff84004108:	fc891fe3          	bne	s2,s0,ffffffff840040e6 <createNewObjects+0x3a>
ffffffff8400410c:	60e6                	ld	ra,88(sp)
ffffffff8400410e:	6446                	ld	s0,80(sp)
ffffffff84004110:	64a6                	ld	s1,72(sp)
ffffffff84004112:	6906                	ld	s2,64(sp)
ffffffff84004114:	79e2                	ld	s3,56(sp)
ffffffff84004116:	7a42                	ld	s4,48(sp)
ffffffff84004118:	7aa2                	ld	s5,40(sp)
ffffffff8400411a:	7b02                	ld	s6,32(sp)
ffffffff8400411c:	6be2                	ld	s7,24(sp)
ffffffff8400411e:	6c42                	ld	s8,16(sp)
ffffffff84004120:	6125                	add	sp,sp,96
ffffffff84004122:	8082                	ret

ffffffff84004124 <cap_get_capSizeBits>:
ffffffff84004124:	1101                	add	sp,sp,-32
ffffffff84004126:	ec06                	sd	ra,24(sp)
ffffffff84004128:	e42e                	sd	a1,8(sp)
ffffffff8400412a:	87aa                	mv	a5,a0
ffffffff8400412c:	03b55593          	srl	a1,a0,0x3b
ffffffff84004130:	86ae                	mv	a3,a1
ffffffff84004132:	4751                	li	a4,20
ffffffff84004134:	06b76063          	bltu	a4,a1,ffffffff84004194 <cap_get_capSizeBits+0x70>
ffffffff84004138:	00259713          	sll	a4,a1,0x2
ffffffff8400413c:	00005617          	auipc	a2,0x5
ffffffff84004140:	47860613          	add	a2,a2,1144 # ffffffff840095b4 <platform_interrupt_t+0x2c>
ffffffff84004144:	9732                	add	a4,a4,a2
ffffffff84004146:	4318                	lw	a4,0(a4)
ffffffff84004148:	9732                	add	a4,a4,a2
ffffffff8400414a:	8702                	jr	a4
ffffffff8400414c:	4511                	li	a0,4
ffffffff8400414e:	a021                	j	ffffffff84004156 <cap_get_capSizeBits+0x32>
ffffffff84004150:	6522                	ld	a0,8(sp)
ffffffff84004152:	03f57513          	and	a0,a0,63
ffffffff84004156:	60e2                	ld	ra,24(sp)
ffffffff84004158:	6105                	add	sp,sp,32
ffffffff8400415a:	8082                	ret
ffffffff8400415c:	02f55793          	srl	a5,a0,0x2f
ffffffff84004160:	03f7f793          	and	a5,a5,63
ffffffff84004164:	00578513          	add	a0,a5,5
ffffffff84004168:	b7fd                	j	ffffffff84004156 <cap_get_capSizeBits+0x32>
ffffffff8400416a:	07f57713          	and	a4,a0,127
ffffffff8400416e:	04000693          	li	a3,64
ffffffff84004172:	04d70863          	beq	a4,a3,ffffffff840041c2 <cap_get_capSizeBits+0x9e>
ffffffff84004176:	03f57793          	and	a5,a0,63
ffffffff8400417a:	00578513          	add	a0,a5,5
ffffffff8400417e:	bfe1                	j	ffffffff84004156 <cap_get_capSizeBits+0x32>
ffffffff84004180:	4501                	li	a0,0
ffffffff84004182:	bfd1                	j	ffffffff84004156 <cap_get_capSizeBits+0x32>
ffffffff84004184:	4501                	li	a0,0
ffffffff84004186:	bfc1                	j	ffffffff84004156 <cap_get_capSizeBits+0x32>
ffffffff84004188:	4501                	li	a0,0
ffffffff8400418a:	b7f1                	j	ffffffff84004156 <cap_get_capSizeBits+0x32>
ffffffff8400418c:	4501                	li	a0,0
ffffffff8400418e:	b7e1                	j	ffffffff84004156 <cap_get_capSizeBits+0x32>
ffffffff84004190:	4501                	li	a0,0
ffffffff84004192:	b7d1                	j	ffffffff84004156 <cap_get_capSizeBits+0x32>
ffffffff84004194:	6509                	lui	a0,0x2
ffffffff84004196:	0521                	add	a0,a0,8 # 2008 <KERNEL_OFFSET-0xfffffffeffffdff8>
ffffffff84004198:	00b55533          	srl	a0,a0,a1
ffffffff8400419c:	8905                	and	a0,a0,1
ffffffff8400419e:	e505                	bnez	a0,ffffffff840041c6 <cap_get_capSizeBits+0xa2>
ffffffff840041a0:	4705                	li	a4,1
ffffffff840041a2:	fae69ae3          	bne	a3,a4,ffffffff84004156 <cap_get_capSizeBits+0x32>
ffffffff840041a6:	93e5                	srl	a5,a5,0x39
ffffffff840041a8:	8b8d                	and	a5,a5,3
ffffffff840041aa:	02e78063          	beq	a5,a4,ffffffff840041ca <cap_get_capSizeBits+0xa6>
ffffffff840041ae:	4709                	li	a4,2
ffffffff840041b0:	00e78f63          	beq	a5,a4,ffffffff840041ce <cap_get_capSizeBits+0xaa>
ffffffff840041b4:	cf99                	beqz	a5,ffffffff840041d2 <cap_get_capSizeBits+0xae>
ffffffff840041b6:	e9afe0ef          	jal	ffffffff84002850 <halt>
ffffffff840041ba:	4515                	li	a0,5
ffffffff840041bc:	bf69                	j	ffffffff84004156 <cap_get_capSizeBits+0x32>
ffffffff840041be:	4529                	li	a0,10
ffffffff840041c0:	bf59                	j	ffffffff84004156 <cap_get_capSizeBits+0x32>
ffffffff840041c2:	4529                	li	a0,10
ffffffff840041c4:	bf49                	j	ffffffff84004156 <cap_get_capSizeBits+0x32>
ffffffff840041c6:	4531                	li	a0,12
ffffffff840041c8:	b779                	j	ffffffff84004156 <cap_get_capSizeBits+0x32>
ffffffff840041ca:	4555                	li	a0,21
ffffffff840041cc:	b769                	j	ffffffff84004156 <cap_get_capSizeBits+0x32>
ffffffff840041ce:	4579                	li	a0,30
ffffffff840041d0:	b759                	j	ffffffff84004156 <cap_get_capSizeBits+0x32>
ffffffff840041d2:	4531                	li	a0,12
ffffffff840041d4:	b749                	j	ffffffff84004156 <cap_get_capSizeBits+0x32>

ffffffff840041d6 <cap_get_capIsPhysical>:
ffffffff840041d6:	1141                	add	sp,sp,-16
ffffffff840041d8:	03b55713          	srl	a4,a0,0x3b
ffffffff840041dc:	4785                	li	a5,1
ffffffff840041de:	00e797b3          	sll	a5,a5,a4
ffffffff840041e2:	00041537          	lui	a0,0x41
ffffffff840041e6:	45450513          	add	a0,a0,1108 # 41454 <KERNEL_OFFSET-0xfffffffefffbebac>
ffffffff840041ea:	8d7d                	and	a0,a0,a5
ffffffff840041ec:	ed09                	bnez	a0,ffffffff84004206 <cap_get_capIsPhysical+0x30>
ffffffff840041ee:	001146b7          	lui	a3,0x114
ffffffff840041f2:	10068693          	add	a3,a3,256 # 114100 <KERNEL_OFFSET-0xfffffffeffeebf00>
ffffffff840041f6:	8ff5                	and	a5,a5,a3
ffffffff840041f8:	eb81                	bnez	a5,ffffffff84004208 <cap_get_capIsPhysical+0x32>
ffffffff840041fa:	6789                	lui	a5,0x2
ffffffff840041fc:	07a9                	add	a5,a5,10 # 200a <KERNEL_OFFSET-0xfffffffeffffdff6>
ffffffff840041fe:	00e7d533          	srl	a0,a5,a4
ffffffff84004202:	8905                	and	a0,a0,1
ffffffff84004204:	a011                	j	ffffffff84004208 <cap_get_capIsPhysical+0x32>
ffffffff84004206:	4505                	li	a0,1
ffffffff84004208:	0141                	add	sp,sp,16
ffffffff8400420a:	8082                	ret

ffffffff8400420c <cap_get_capPtr>:
ffffffff8400420c:	1141                	add	sp,sp,-16
ffffffff8400420e:	03b55793          	srl	a5,a0,0x3b
ffffffff84004212:	4751                	li	a4,20
ffffffff84004214:	0af76a63          	bltu	a4,a5,ffffffff840042c8 <cap_get_capPtr+0xbc>
ffffffff84004218:	00279713          	sll	a4,a5,0x2
ffffffff8400421c:	00005697          	auipc	a3,0x5
ffffffff84004220:	3ec68693          	add	a3,a3,1004 # ffffffff84009608 <platform_interrupt_t+0x80>
ffffffff84004224:	9736                	add	a4,a4,a3
ffffffff84004226:	4318                	lw	a4,0(a4)
ffffffff84004228:	9736                	add	a4,a4,a3
ffffffff8400422a:	8702                	jr	a4
ffffffff8400422c:	01951713          	sll	a4,a0,0x19
ffffffff84004230:	8365                	srl	a4,a4,0x19
ffffffff84004232:	02655793          	srl	a5,a0,0x26
ffffffff84004236:	8b85                	and	a5,a5,1
ffffffff84004238:	c781                	beqz	a5,ffffffff84004240 <cap_get_capPtr+0x34>
ffffffff8400423a:	57fd                	li	a5,-1
ffffffff8400423c:	179e                	sll	a5,a5,0x27
ffffffff8400423e:	8f5d                	or	a4,a4,a5
ffffffff84004240:	853a                	mv	a0,a4
ffffffff84004242:	a0cd                	j	ffffffff84004324 <cap_get_capPtr+0x118>
ffffffff84004244:	01951713          	sll	a4,a0,0x19
ffffffff84004248:	8365                	srl	a4,a4,0x19
ffffffff8400424a:	02655793          	srl	a5,a0,0x26
ffffffff8400424e:	8b85                	and	a5,a5,1
ffffffff84004250:	c781                	beqz	a5,ffffffff84004258 <cap_get_capPtr+0x4c>
ffffffff84004252:	57fd                	li	a5,-1
ffffffff84004254:	179e                	sll	a5,a5,0x27
ffffffff84004256:	8f5d                	or	a4,a4,a5
ffffffff84004258:	853a                	mv	a0,a4
ffffffff8400425a:	a0e9                	j	ffffffff84004324 <cap_get_capPtr+0x118>
ffffffff8400425c:	01951713          	sll	a4,a0,0x19
ffffffff84004260:	8365                	srl	a4,a4,0x19
ffffffff84004262:	02655793          	srl	a5,a0,0x26
ffffffff84004266:	8b85                	and	a5,a5,1
ffffffff84004268:	c781                	beqz	a5,ffffffff84004270 <cap_get_capPtr+0x64>
ffffffff8400426a:	57fd                	li	a5,-1
ffffffff8400426c:	179e                	sll	a5,a5,0x27
ffffffff8400426e:	8f5d                	or	a4,a4,a5
ffffffff84004270:	853a                	mv	a0,a4
ffffffff84004272:	a84d                	j	ffffffff84004324 <cap_get_capPtr+0x118>
ffffffff84004274:	00151793          	sll	a5,a0,0x1
ffffffff84004278:	fc000537          	lui	a0,0xfc000
ffffffff8400427c:	8165                	srl	a0,a0,0x19
ffffffff8400427e:	8d7d                	and	a0,a0,a5
ffffffff84004280:	9399                	srl	a5,a5,0x26
ffffffff84004282:	8b85                	and	a5,a5,1
ffffffff84004284:	c3c5                	beqz	a5,ffffffff84004324 <cap_get_capPtr+0x118>
ffffffff84004286:	57fd                	li	a5,-1
ffffffff84004288:	179e                	sll	a5,a5,0x27
ffffffff8400428a:	8d5d                	or	a0,a0,a5
ffffffff8400428c:	a861                	j	ffffffff84004324 <cap_get_capPtr+0x118>
ffffffff8400428e:	01951713          	sll	a4,a0,0x19
ffffffff84004292:	8365                	srl	a4,a4,0x19
ffffffff84004294:	02655793          	srl	a5,a0,0x26
ffffffff84004298:	8b85                	and	a5,a5,1
ffffffff8400429a:	c781                	beqz	a5,ffffffff840042a2 <cap_get_capPtr+0x96>
ffffffff8400429c:	57fd                	li	a5,-1
ffffffff8400429e:	179e                	sll	a5,a5,0x27
ffffffff840042a0:	8f5d                	or	a4,a4,a5
ffffffff840042a2:	c0077513          	and	a0,a4,-1024
ffffffff840042a6:	a8bd                	j	ffffffff84004324 <cap_get_capPtr+0x118>
ffffffff840042a8:	07f57793          	and	a5,a0,127
ffffffff840042ac:	04000713          	li	a4,64
ffffffff840042b0:	00e78a63          	beq	a5,a4,ffffffff840042c4 <cap_get_capPtr+0xb8>
ffffffff840042b4:	03f57513          	and	a0,a0,63
ffffffff840042b8:	2505                	addw	a0,a0,1 # fffffffffc000001 <ki_end+0x77fe0001>
ffffffff840042ba:	57fd                	li	a5,-1
ffffffff840042bc:	00a79533          	sll	a0,a5,a0
ffffffff840042c0:	8d6d                	and	a0,a0,a1
ffffffff840042c2:	a08d                	j	ffffffff84004324 <cap_get_capPtr+0x118>
ffffffff840042c4:	4511                	li	a0,4
ffffffff840042c6:	bfcd                	j	ffffffff840042b8 <cap_get_capPtr+0xac>
ffffffff840042c8:	470d                	li	a4,3
ffffffff840042ca:	02e78463          	beq	a5,a4,ffffffff840042f2 <cap_get_capPtr+0xe6>
ffffffff840042ce:	4735                	li	a4,13
ffffffff840042d0:	02e78c63          	beq	a5,a4,ffffffff84004308 <cap_get_capPtr+0xfc>
ffffffff840042d4:	4705                	li	a4,1
ffffffff840042d6:	4501                	li	a0,0
ffffffff840042d8:	04e79663          	bne	a5,a4,ffffffff84004324 <cap_get_capPtr+0x118>
ffffffff840042dc:	81a5                	srl	a1,a1,0x9
ffffffff840042de:	01959513          	sll	a0,a1,0x19
ffffffff840042e2:	8165                	srl	a0,a0,0x19
ffffffff840042e4:	9199                	srl	a1,a1,0x26
ffffffff840042e6:	8985                	and	a1,a1,1
ffffffff840042e8:	cd95                	beqz	a1,ffffffff84004324 <cap_get_capPtr+0x118>
ffffffff840042ea:	57fd                	li	a5,-1
ffffffff840042ec:	179e                	sll	a5,a5,0x27
ffffffff840042ee:	8d5d                	or	a0,a0,a5
ffffffff840042f0:	a815                	j	ffffffff84004324 <cap_get_capPtr+0x118>
ffffffff840042f2:	81a5                	srl	a1,a1,0x9
ffffffff840042f4:	01959513          	sll	a0,a1,0x19
ffffffff840042f8:	8165                	srl	a0,a0,0x19
ffffffff840042fa:	9199                	srl	a1,a1,0x26
ffffffff840042fc:	8985                	and	a1,a1,1
ffffffff840042fe:	c19d                	beqz	a1,ffffffff84004324 <cap_get_capPtr+0x118>
ffffffff84004300:	57fd                	li	a5,-1
ffffffff84004302:	179e                	sll	a5,a5,0x27
ffffffff84004304:	8d5d                	or	a0,a0,a5
ffffffff84004306:	a839                	j	ffffffff84004324 <cap_get_capPtr+0x118>
ffffffff84004308:	00251793          	sll	a5,a0,0x2
ffffffff8400430c:	f8000537          	lui	a0,0xf8000
ffffffff84004310:	8165                	srl	a0,a0,0x19
ffffffff84004312:	8d7d                	and	a0,a0,a5
ffffffff84004314:	9399                	srl	a5,a5,0x26
ffffffff84004316:	8b85                	and	a5,a5,1
ffffffff84004318:	c791                	beqz	a5,ffffffff84004324 <cap_get_capPtr+0x118>
ffffffff8400431a:	57fd                	li	a5,-1
ffffffff8400431c:	179e                	sll	a5,a5,0x27
ffffffff8400431e:	8d5d                	or	a0,a0,a5
ffffffff84004320:	a011                	j	ffffffff84004324 <cap_get_capPtr+0x118>
ffffffff84004322:	4501                	li	a0,0
ffffffff84004324:	0141                	add	sp,sp,16
ffffffff84004326:	8082                	ret

ffffffff84004328 <sameRegionAs>:
ffffffff84004328:	7139                	add	sp,sp,-64
ffffffff8400432a:	fc06                	sd	ra,56(sp)
ffffffff8400432c:	f822                	sd	s0,48(sp)
ffffffff8400432e:	f426                	sd	s1,40(sp)
ffffffff84004330:	f04a                	sd	s2,32(sp)
ffffffff84004332:	e82a                	sd	a0,16(sp)
ffffffff84004334:	ec2e                	sd	a1,24(sp)
ffffffff84004336:	e032                	sd	a2,0(sp)
ffffffff84004338:	e436                	sd	a3,8(sp)
ffffffff8400433a:	03b55793          	srl	a5,a0,0x3b
ffffffff8400433e:	4751                	li	a4,20
ffffffff84004340:	1ef76063          	bltu	a4,a5,ffffffff84004520 <sameRegionAs+0x1f8>
ffffffff84004344:	84ae                	mv	s1,a1
ffffffff84004346:	842a                	mv	s0,a0
ffffffff84004348:	00279713          	sll	a4,a5,0x2
ffffffff8400434c:	00005597          	auipc	a1,0x5
ffffffff84004350:	31058593          	add	a1,a1,784 # ffffffff8400965c <platform_interrupt_t+0xd4>
ffffffff84004354:	972e                	add	a4,a4,a1
ffffffff84004356:	4318                	lw	a4,0(a4)
ffffffff84004358:	972e                	add	a4,a4,a1
ffffffff8400435a:	8702                	jr	a4
ffffffff8400435c:	6502                	ld	a0,0(sp)
ffffffff8400435e:	65a2                	ld	a1,8(sp)
ffffffff84004360:	e77ff0ef          	jal	ffffffff840041d6 <cap_get_capIsPhysical>
ffffffff84004364:	18050563          	beqz	a0,ffffffff840044ee <sameRegionAs+0x1c6>
ffffffff84004368:	01941913          	sll	s2,s0,0x19
ffffffff8400436c:	01995913          	srl	s2,s2,0x19
ffffffff84004370:	9019                	srl	s0,s0,0x26
ffffffff84004372:	8805                	and	s0,s0,1
ffffffff84004374:	c409                	beqz	s0,ffffffff8400437e <sameRegionAs+0x56>
ffffffff84004376:	57fd                	li	a5,-1
ffffffff84004378:	179e                	sll	a5,a5,0x27
ffffffff8400437a:	00f96933          	or	s2,s2,a5
ffffffff8400437e:	6502                	ld	a0,0(sp)
ffffffff84004380:	65a2                	ld	a1,8(sp)
ffffffff84004382:	e8bff0ef          	jal	ffffffff8400420c <cap_get_capPtr>
ffffffff84004386:	842a                	mv	s0,a0
ffffffff84004388:	4501                	li	a0,0
ffffffff8400438a:	17246263          	bltu	s0,s2,ffffffff840044ee <sameRegionAs+0x1c6>
ffffffff8400438e:	6502                	ld	a0,0(sp)
ffffffff84004390:	65a2                	ld	a1,8(sp)
ffffffff84004392:	d93ff0ef          	jal	ffffffff84004124 <cap_get_capSizeBits>
ffffffff84004396:	4785                	li	a5,1
ffffffff84004398:	00a79733          	sll	a4,a5,a0
ffffffff8400439c:	fff40693          	add	a3,s0,-1
ffffffff840043a0:	9736                	add	a4,a4,a3
ffffffff840043a2:	009797b3          	sll	a5,a5,s1
ffffffff840043a6:	17fd                	add	a5,a5,-1
ffffffff840043a8:	97ca                	add	a5,a5,s2
ffffffff840043aa:	4501                	li	a0,0
ffffffff840043ac:	14e7e163          	bltu	a5,a4,ffffffff840044ee <sameRegionAs+0x1c6>
ffffffff840043b0:	008737b3          	sltu	a5,a4,s0
ffffffff840043b4:	0017c793          	xor	a5,a5,1
ffffffff840043b8:	0007851b          	sext.w	a0,a5
ffffffff840043bc:	aa0d                	j	ffffffff840044ee <sameRegionAs+0x1c6>
ffffffff840043be:	03b65793          	srl	a5,a2,0x3b
ffffffff840043c2:	4711                	li	a4,4
ffffffff840043c4:	4501                	li	a0,0
ffffffff840043c6:	12e79463          	bne	a5,a4,ffffffff840044ee <sameRegionAs+0x1c6>
ffffffff840043ca:	01941713          	sll	a4,s0,0x19
ffffffff840043ce:	8365                	srl	a4,a4,0x19
ffffffff840043d0:	9019                	srl	s0,s0,0x26
ffffffff840043d2:	8805                	and	s0,s0,1
ffffffff840043d4:	c401                	beqz	s0,ffffffff840043dc <sameRegionAs+0xb4>
ffffffff840043d6:	57fd                	li	a5,-1
ffffffff840043d8:	179e                	sll	a5,a5,0x27
ffffffff840043da:	8f5d                	or	a4,a4,a5
ffffffff840043dc:	01961793          	sll	a5,a2,0x19
ffffffff840043e0:	83e5                	srl	a5,a5,0x19
ffffffff840043e2:	9219                	srl	a2,a2,0x26
ffffffff840043e4:	8a05                	and	a2,a2,1
ffffffff840043e6:	c601                	beqz	a2,ffffffff840043ee <sameRegionAs+0xc6>
ffffffff840043e8:	56fd                	li	a3,-1
ffffffff840043ea:	169e                	sll	a3,a3,0x27
ffffffff840043ec:	8fd5                	or	a5,a5,a3
ffffffff840043ee:	8f99                	sub	a5,a5,a4
ffffffff840043f0:	0017b513          	seqz	a0,a5
ffffffff840043f4:	a8ed                	j	ffffffff840044ee <sameRegionAs+0x1c6>
ffffffff840043f6:	03b65793          	srl	a5,a2,0x3b
ffffffff840043fa:	4719                	li	a4,6
ffffffff840043fc:	4501                	li	a0,0
ffffffff840043fe:	0ee79863          	bne	a5,a4,ffffffff840044ee <sameRegionAs+0x1c6>
ffffffff84004402:	01941713          	sll	a4,s0,0x19
ffffffff84004406:	8365                	srl	a4,a4,0x19
ffffffff84004408:	9019                	srl	s0,s0,0x26
ffffffff8400440a:	8805                	and	s0,s0,1
ffffffff8400440c:	c401                	beqz	s0,ffffffff84004414 <sameRegionAs+0xec>
ffffffff8400440e:	57fd                	li	a5,-1
ffffffff84004410:	179e                	sll	a5,a5,0x27
ffffffff84004412:	8f5d                	or	a4,a4,a5
ffffffff84004414:	01961793          	sll	a5,a2,0x19
ffffffff84004418:	83e5                	srl	a5,a5,0x19
ffffffff8400441a:	9219                	srl	a2,a2,0x26
ffffffff8400441c:	8a05                	and	a2,a2,1
ffffffff8400441e:	c601                	beqz	a2,ffffffff84004426 <sameRegionAs+0xfe>
ffffffff84004420:	56fd                	li	a3,-1
ffffffff84004422:	169e                	sll	a3,a3,0x27
ffffffff84004424:	8fd5                	or	a5,a5,a3
ffffffff84004426:	8f99                	sub	a5,a5,a4
ffffffff84004428:	0017b513          	seqz	a0,a5
ffffffff8400442c:	a0c9                	j	ffffffff840044ee <sameRegionAs+0x1c6>
ffffffff8400442e:	03b65793          	srl	a5,a2,0x3b
ffffffff84004432:	4729                	li	a4,10
ffffffff84004434:	4501                	li	a0,0
ffffffff84004436:	0ae79c63          	bne	a5,a4,ffffffff840044ee <sameRegionAs+0x1c6>
ffffffff8400443a:	00141793          	sll	a5,s0,0x1
ffffffff8400443e:	fc000737          	lui	a4,0xfc000
ffffffff84004442:	8365                	srl	a4,a4,0x19
ffffffff84004444:	8f7d                	and	a4,a4,a5
ffffffff84004446:	9399                	srl	a5,a5,0x26
ffffffff84004448:	8b85                	and	a5,a5,1
ffffffff8400444a:	c78d                	beqz	a5,ffffffff84004474 <sameRegionAs+0x14c>
ffffffff8400444c:	57fd                	li	a5,-1
ffffffff8400444e:	179e                	sll	a5,a5,0x27
ffffffff84004450:	8f5d                	or	a4,a4,a5
ffffffff84004452:	00161793          	sll	a5,a2,0x1
ffffffff84004456:	fc0006b7          	lui	a3,0xfc000
ffffffff8400445a:	82e5                	srl	a3,a3,0x19
ffffffff8400445c:	8efd                	and	a3,a3,a5
ffffffff8400445e:	9399                	srl	a5,a5,0x26
ffffffff84004460:	8b85                	and	a5,a5,1
ffffffff84004462:	c799                	beqz	a5,ffffffff84004470 <sameRegionAs+0x148>
ffffffff84004464:	57fd                	li	a5,-1
ffffffff84004466:	179e                	sll	a5,a5,0x27
ffffffff84004468:	8edd                	or	a3,a3,a5
ffffffff8400446a:	4781                	li	a5,0
ffffffff8400446c:	00d70e63          	beq	a4,a3,ffffffff84004488 <sameRegionAs+0x160>
ffffffff84004470:	853e                	mv	a0,a5
ffffffff84004472:	a8b5                	j	ffffffff840044ee <sameRegionAs+0x1c6>
ffffffff84004474:	00161793          	sll	a5,a2,0x1
ffffffff84004478:	fc0006b7          	lui	a3,0xfc000
ffffffff8400447c:	82e5                	srl	a3,a3,0x19
ffffffff8400447e:	8efd                	and	a3,a3,a5
ffffffff84004480:	9399                	srl	a5,a5,0x26
ffffffff84004482:	8b85                	and	a5,a5,1
ffffffff84004484:	f3e5                	bnez	a5,ffffffff84004464 <sameRegionAs+0x13c>
ffffffff84004486:	b7d5                	j	ffffffff8400446a <sameRegionAs+0x142>
ffffffff84004488:	00c44533          	xor	a0,s0,a2
ffffffff8400448c:	913d                	srl	a0,a0,0x2f
ffffffff8400448e:	03f57513          	and	a0,a0,63
ffffffff84004492:	00153793          	seqz	a5,a0
ffffffff84004496:	bfe9                	j	ffffffff84004470 <sameRegionAs+0x148>
ffffffff84004498:	03b65793          	srl	a5,a2,0x3b
ffffffff8400449c:	4731                	li	a4,12
ffffffff8400449e:	4501                	li	a0,0
ffffffff840044a0:	04e79763          	bne	a5,a4,ffffffff840044ee <sameRegionAs+0x1c6>
ffffffff840044a4:	01941713          	sll	a4,s0,0x19
ffffffff840044a8:	8365                	srl	a4,a4,0x19
ffffffff840044aa:	9019                	srl	s0,s0,0x26
ffffffff840044ac:	8805                	and	s0,s0,1
ffffffff840044ae:	c401                	beqz	s0,ffffffff840044b6 <sameRegionAs+0x18e>
ffffffff840044b0:	57fd                	li	a5,-1
ffffffff840044b2:	179e                	sll	a5,a5,0x27
ffffffff840044b4:	8f5d                	or	a4,a4,a5
ffffffff840044b6:	01961793          	sll	a5,a2,0x19
ffffffff840044ba:	83e5                	srl	a5,a5,0x19
ffffffff840044bc:	9219                	srl	a2,a2,0x26
ffffffff840044be:	8a05                	and	a2,a2,1
ffffffff840044c0:	c601                	beqz	a2,ffffffff840044c8 <sameRegionAs+0x1a0>
ffffffff840044c2:	56fd                	li	a3,-1
ffffffff840044c4:	169e                	sll	a3,a3,0x27
ffffffff840044c6:	8fd5                	or	a5,a5,a3
ffffffff840044c8:	8f99                	sub	a5,a5,a4
ffffffff840044ca:	0017b513          	seqz	a0,a5
ffffffff840044ce:	a005                	j	ffffffff840044ee <sameRegionAs+0x1c6>
ffffffff840044d0:	926d                	srl	a2,a2,0x3b
ffffffff840044d2:	47a1                	li	a5,8
ffffffff840044d4:	4501                	li	a0,0
ffffffff840044d6:	00f61c63          	bne	a2,a5,ffffffff840044ee <sameRegionAs+0x1c6>
ffffffff840044da:	409685b3          	sub	a1,a3,s1
ffffffff840044de:	0015b513          	seqz	a0,a1
ffffffff840044e2:	a031                	j	ffffffff840044ee <sameRegionAs+0x1c6>
ffffffff840044e4:	926d                	srl	a2,a2,0x3b
ffffffff840044e6:	fec60513          	add	a0,a2,-20
ffffffff840044ea:	00153513          	seqz	a0,a0
ffffffff840044ee:	70e2                	ld	ra,56(sp)
ffffffff840044f0:	7442                	ld	s0,48(sp)
ffffffff840044f2:	74a2                	ld	s1,40(sp)
ffffffff840044f4:	7902                	ld	s2,32(sp)
ffffffff840044f6:	6121                	add	sp,sp,64
ffffffff840044f8:	8082                	ret
ffffffff840044fa:	926d                	srl	a2,a2,0x3b
ffffffff840044fc:	ff260513          	add	a0,a2,-14
ffffffff84004500:	9975                	and	a0,a0,-3
ffffffff84004502:	00153513          	seqz	a0,a0
ffffffff84004506:	b7e5                	j	ffffffff840044ee <sameRegionAs+0x1c6>
ffffffff84004508:	926d                	srl	a2,a2,0x3b
ffffffff8400450a:	47c1                	li	a5,16
ffffffff8400450c:	4501                	li	a0,0
ffffffff8400450e:	fef610e3          	bne	a2,a5,ffffffff840044ee <sameRegionAs+0x1c6>
ffffffff84004512:	0096c5b3          	xor	a1,a3,s1
ffffffff84004516:	03459693          	sll	a3,a1,0x34
ffffffff8400451a:	0016b513          	seqz	a0,a3
ffffffff8400451e:	bfc1                	j	ffffffff840044ee <sameRegionAs+0x1c6>
ffffffff84004520:	0017f513          	and	a0,a5,1
ffffffff84004524:	d569                	beqz	a0,ffffffff840044ee <sameRegionAs+0x1c6>
ffffffff84004526:	926d                	srl	a2,a2,0x3b
ffffffff84004528:	00167513          	and	a0,a2,1
ffffffff8400452c:	d169                	beqz	a0,ffffffff840044ee <sameRegionAs+0x1c6>
ffffffff8400452e:	6602                	ld	a2,0(sp)
ffffffff84004530:	66a2                	ld	a3,8(sp)
ffffffff84004532:	6542                	ld	a0,16(sp)
ffffffff84004534:	65e2                	ld	a1,24(sp)
ffffffff84004536:	eadfe0ef          	jal	ffffffff840033e2 <Arch_sameRegionAs>
ffffffff8400453a:	bf55                	j	ffffffff840044ee <sameRegionAs+0x1c6>

ffffffff8400453c <isMDBParentOf>:
ffffffff8400453c:	1101                	add	sp,sp,-32
ffffffff8400453e:	ec06                	sd	ra,24(sp)
ffffffff84004540:	e822                	sd	s0,16(sp)
ffffffff84004542:	e426                	sd	s1,8(sp)
ffffffff84004544:	e04a                	sd	s2,0(sp)
ffffffff84004546:	6d00                	ld	s0,24(a0)
ffffffff84004548:	8005                	srl	s0,s0,0x1
ffffffff8400454a:	8805                	and	s0,s0,1
ffffffff8400454c:	cc29                	beqz	s0,ffffffff840045a6 <isMDBParentOf+0x6a>
ffffffff8400454e:	84aa                	mv	s1,a0
ffffffff84004550:	892e                	mv	s2,a1
ffffffff84004552:	6190                	ld	a2,0(a1)
ffffffff84004554:	6594                	ld	a3,8(a1)
ffffffff84004556:	6108                	ld	a0,0(a0)
ffffffff84004558:	648c                	ld	a1,8(s1)
ffffffff8400455a:	dcfff0ef          	jal	ffffffff84004328 <sameRegionAs>
ffffffff8400455e:	c139                	beqz	a0,ffffffff840045a4 <isMDBParentOf+0x68>
ffffffff84004560:	609c                	ld	a5,0(s1)
ffffffff84004562:	93ed                	srl	a5,a5,0x3b
ffffffff84004564:	4711                	li	a4,4
ffffffff84004566:	02e78263          	beq	a5,a4,ffffffff8400458a <isMDBParentOf+0x4e>
ffffffff8400456a:	4719                	li	a4,6
ffffffff8400456c:	02e79d63          	bne	a5,a4,ffffffff840045a6 <isMDBParentOf+0x6a>
ffffffff84004570:	649c                	ld	a5,8(s1)
ffffffff84004572:	cb95                	beqz	a5,ffffffff840045a6 <isMDBParentOf+0x6a>
ffffffff84004574:	00893703          	ld	a4,8(s2)
ffffffff84004578:	4401                	li	s0,0
ffffffff8400457a:	02e79663          	bne	a5,a4,ffffffff840045a6 <isMDBParentOf+0x6a>
ffffffff8400457e:	01893403          	ld	s0,24(s2)
ffffffff84004582:	00144413          	xor	s0,s0,1
ffffffff84004586:	8805                	and	s0,s0,1
ffffffff84004588:	a839                	j	ffffffff840045a6 <isMDBParentOf+0x6a>
ffffffff8400458a:	649c                	ld	a5,8(s1)
ffffffff8400458c:	cf89                	beqz	a5,ffffffff840045a6 <isMDBParentOf+0x6a>
ffffffff8400458e:	00893703          	ld	a4,8(s2)
ffffffff84004592:	4401                	li	s0,0
ffffffff84004594:	00f71963          	bne	a4,a5,ffffffff840045a6 <isMDBParentOf+0x6a>
ffffffff84004598:	01893403          	ld	s0,24(s2)
ffffffff8400459c:	00144413          	xor	s0,s0,1
ffffffff840045a0:	8805                	and	s0,s0,1
ffffffff840045a2:	a011                	j	ffffffff840045a6 <isMDBParentOf+0x6a>
ffffffff840045a4:	842a                	mv	s0,a0
ffffffff840045a6:	8522                	mv	a0,s0
ffffffff840045a8:	60e2                	ld	ra,24(sp)
ffffffff840045aa:	6442                	ld	s0,16(sp)
ffffffff840045ac:	64a2                	ld	s1,8(sp)
ffffffff840045ae:	6902                	ld	s2,0(sp)
ffffffff840045b0:	6105                	add	sp,sp,32
ffffffff840045b2:	8082                	ret

ffffffff840045b4 <ensureNoChildren>:
ffffffff840045b4:	6d1c                	ld	a5,24(a0)
ffffffff840045b6:	f80005b7          	lui	a1,0xf8000
ffffffff840045ba:	81e5                	srl	a1,a1,0x19
ffffffff840045bc:	8dfd                	and	a1,a1,a5
ffffffff840045be:	4705                	li	a4,1
ffffffff840045c0:	171a                	sll	a4,a4,0x26
ffffffff840045c2:	8ff9                	and	a5,a5,a4
ffffffff840045c4:	c585                	beqz	a1,ffffffff840045ec <ensureNoChildren+0x38>
ffffffff840045c6:	1141                	add	sp,sp,-16
ffffffff840045c8:	e406                	sd	ra,8(sp)
ffffffff840045ca:	c781                	beqz	a5,ffffffff840045d2 <ensureNoChildren+0x1e>
ffffffff840045cc:	57fd                	li	a5,-1
ffffffff840045ce:	179e                	sll	a5,a5,0x27
ffffffff840045d0:	8ddd                	or	a1,a1,a5
ffffffff840045d2:	f6bff0ef          	jal	ffffffff8400453c <isMDBParentOf>
ffffffff840045d6:	85aa                	mv	a1,a0
ffffffff840045d8:	e509                	bnez	a0,ffffffff840045e2 <ensureNoChildren+0x2e>
ffffffff840045da:	852e                	mv	a0,a1
ffffffff840045dc:	60a2                	ld	ra,8(sp)
ffffffff840045de:	0141                	add	sp,sp,16
ffffffff840045e0:	8082                	ret
ffffffff840045e2:	47a5                	li	a5,9
ffffffff840045e4:	d4f1b023          	sd	a5,-704(gp) # ffffffff84009158 <current_syscall_error+0x30>
ffffffff840045e8:	458d                	li	a1,3
ffffffff840045ea:	bfc5                	j	ffffffff840045da <ensureNoChildren+0x26>
ffffffff840045ec:	852e                	mv	a0,a1
ffffffff840045ee:	8082                	ret

ffffffff840045f0 <deriveCap>:
ffffffff840045f0:	7139                	add	sp,sp,-64
ffffffff840045f2:	fc06                	sd	ra,56(sp)
ffffffff840045f4:	f822                	sd	s0,48(sp)
ffffffff840045f6:	f426                	sd	s1,40(sp)
ffffffff840045f8:	f04a                	sd	s2,32(sp)
ffffffff840045fa:	ec4e                	sd	s3,24(sp)
ffffffff840045fc:	842a                	mv	s0,a0
ffffffff840045fe:	e032                	sd	a2,0(sp)
ffffffff84004600:	e436                	sd	a3,8(sp)
ffffffff84004602:	8936                	mv	s2,a3
ffffffff84004604:	84b2                	mv	s1,a2
ffffffff84004606:	03b65793          	srl	a5,a2,0x3b
ffffffff8400460a:	0017f993          	and	s3,a5,1
ffffffff8400460e:	02099263          	bnez	s3,ffffffff84004632 <deriveCap+0x42>
ffffffff84004612:	4721                	li	a4,8
ffffffff84004614:	04e78263          	beq	a5,a4,ffffffff84004658 <deriveCap+0x68>
ffffffff84004618:	02f76063          	bltu	a4,a5,ffffffff84004638 <deriveCap+0x48>
ffffffff8400461c:	4709                	li	a4,2
ffffffff8400461e:	02e79063          	bne	a5,a4,ffffffff8400463e <deriveCap+0x4e>
ffffffff84004622:	852e                	mv	a0,a1
ffffffff84004624:	f91ff0ef          	jal	ffffffff840045b4 <ensureNoChildren>
ffffffff84004628:	cd1d                	beqz	a0,ffffffff84004666 <deriveCap+0x76>
ffffffff8400462a:	894e                	mv	s2,s3
ffffffff8400462c:	84ce                	mv	s1,s3
ffffffff8400462e:	89aa                	mv	s3,a0
ffffffff84004630:	a039                	j	ffffffff8400463e <deriveCap+0x4e>
ffffffff84004632:	bfffe0ef          	jal	ffffffff84003230 <Arch_deriveCap>
ffffffff84004636:	a809                	j	ffffffff84004648 <deriveCap+0x58>
ffffffff84004638:	17c9                	add	a5,a5,-14
ffffffff8400463a:	9bed                	and	a5,a5,-5
ffffffff8400463c:	c38d                	beqz	a5,ffffffff8400465e <deriveCap+0x6e>
ffffffff8400463e:	01343023          	sd	s3,0(s0)
ffffffff84004642:	e404                	sd	s1,8(s0)
ffffffff84004644:	01243823          	sd	s2,16(s0)
ffffffff84004648:	8522                	mv	a0,s0
ffffffff8400464a:	70e2                	ld	ra,56(sp)
ffffffff8400464c:	7442                	ld	s0,48(sp)
ffffffff8400464e:	74a2                	ld	s1,40(sp)
ffffffff84004650:	7902                	ld	s2,32(sp)
ffffffff84004652:	69e2                	ld	s3,24(sp)
ffffffff84004654:	6121                	add	sp,sp,64
ffffffff84004656:	8082                	ret
ffffffff84004658:	894e                	mv	s2,s3
ffffffff8400465a:	84ce                	mv	s1,s3
ffffffff8400465c:	b7cd                	j	ffffffff8400463e <deriveCap+0x4e>
ffffffff8400465e:	893e                	mv	s2,a5
ffffffff84004660:	84be                	mv	s1,a5
ffffffff84004662:	89be                	mv	s3,a5
ffffffff84004664:	bfe9                	j	ffffffff8400463e <deriveCap+0x4e>
ffffffff84004666:	89aa                	mv	s3,a0
ffffffff84004668:	bfd9                	j	ffffffff8400463e <deriveCap+0x4e>

ffffffff8400466a <sameObjectAs>:
ffffffff8400466a:	7179                	add	sp,sp,-48
ffffffff8400466c:	f406                	sd	ra,40(sp)
ffffffff8400466e:	e82a                	sd	a0,16(sp)
ffffffff84004670:	ec2e                	sd	a1,24(sp)
ffffffff84004672:	e032                	sd	a2,0(sp)
ffffffff84004674:	e436                	sd	a3,8(sp)
ffffffff84004676:	916d                	srl	a0,a0,0x3b
ffffffff84004678:	4789                	li	a5,2
ffffffff8400467a:	04f50263          	beq	a0,a5,ffffffff840046be <sameObjectAs+0x54>
ffffffff8400467e:	4739                	li	a4,14
ffffffff84004680:	02e50163          	beq	a0,a4,ffffffff840046a2 <sameObjectAs+0x38>
ffffffff84004684:	8905                	and	a0,a0,1
ffffffff84004686:	c509                	beqz	a0,ffffffff84004690 <sameObjectAs+0x26>
ffffffff84004688:	03b65793          	srl	a5,a2,0x3b
ffffffff8400468c:	8b85                	and	a5,a5,1
ffffffff8400468e:	e38d                	bnez	a5,ffffffff840046b0 <sameObjectAs+0x46>
ffffffff84004690:	6602                	ld	a2,0(sp)
ffffffff84004692:	66a2                	ld	a3,8(sp)
ffffffff84004694:	6542                	ld	a0,16(sp)
ffffffff84004696:	65e2                	ld	a1,24(sp)
ffffffff84004698:	c91ff0ef          	jal	ffffffff84004328 <sameRegionAs>
ffffffff8400469c:	70a2                	ld	ra,40(sp)
ffffffff8400469e:	6145                	add	sp,sp,48
ffffffff840046a0:	8082                	ret
ffffffff840046a2:	03b65793          	srl	a5,a2,0x3b
ffffffff840046a6:	4741                	li	a4,16
ffffffff840046a8:	4501                	li	a0,0
ffffffff840046aa:	fee793e3          	bne	a5,a4,ffffffff84004690 <sameObjectAs+0x26>
ffffffff840046ae:	b7fd                	j	ffffffff8400469c <sameObjectAs+0x32>
ffffffff840046b0:	6602                	ld	a2,0(sp)
ffffffff840046b2:	66a2                	ld	a3,8(sp)
ffffffff840046b4:	6542                	ld	a0,16(sp)
ffffffff840046b6:	65e2                	ld	a1,24(sp)
ffffffff840046b8:	e85fe0ef          	jal	ffffffff8400353c <Arch_sameObjectAs>
ffffffff840046bc:	b7c5                	j	ffffffff8400469c <sameObjectAs+0x32>
ffffffff840046be:	4501                	li	a0,0
ffffffff840046c0:	bff1                	j	ffffffff8400469c <sameObjectAs+0x32>

ffffffff840046c2 <isFinalCapability>:
ffffffff840046c2:	1101                	add	sp,sp,-32
ffffffff840046c4:	ec06                	sd	ra,24(sp)
ffffffff840046c6:	e822                	sd	s0,16(sp)
ffffffff840046c8:	e426                	sd	s1,8(sp)
ffffffff840046ca:	842a                	mv	s0,a0
ffffffff840046cc:	691c                	ld	a5,16(a0)
ffffffff840046ce:	6d04                	ld	s1,24(a0)
ffffffff840046d0:	cb91                	beqz	a5,ffffffff840046e4 <isFinalCapability+0x22>
ffffffff840046d2:	6110                	ld	a2,0(a0)
ffffffff840046d4:	6514                	ld	a3,8(a0)
ffffffff840046d6:	6388                	ld	a0,0(a5)
ffffffff840046d8:	678c                	ld	a1,8(a5)
ffffffff840046da:	f91ff0ef          	jal	ffffffff8400466a <sameObjectAs>
ffffffff840046de:	87aa                	mv	a5,a0
ffffffff840046e0:	4501                	li	a0,0
ffffffff840046e2:	e78d                	bnez	a5,ffffffff8400470c <isFinalCapability+0x4a>
ffffffff840046e4:	f80007b7          	lui	a5,0xf8000
ffffffff840046e8:	83e5                	srl	a5,a5,0x19
ffffffff840046ea:	8fe5                	and	a5,a5,s1
ffffffff840046ec:	4705                	li	a4,1
ffffffff840046ee:	171a                	sll	a4,a4,0x26
ffffffff840046f0:	8cf9                	and	s1,s1,a4
ffffffff840046f2:	c395                	beqz	a5,ffffffff84004716 <isFinalCapability+0x54>
ffffffff840046f4:	c481                	beqz	s1,ffffffff840046fc <isFinalCapability+0x3a>
ffffffff840046f6:	577d                	li	a4,-1
ffffffff840046f8:	171e                	sll	a4,a4,0x27
ffffffff840046fa:	8fd9                	or	a5,a5,a4
ffffffff840046fc:	6390                	ld	a2,0(a5)
ffffffff840046fe:	6794                	ld	a3,8(a5)
ffffffff84004700:	6008                	ld	a0,0(s0)
ffffffff84004702:	640c                	ld	a1,8(s0)
ffffffff84004704:	f67ff0ef          	jal	ffffffff8400466a <sameObjectAs>
ffffffff84004708:	00153513          	seqz	a0,a0
ffffffff8400470c:	60e2                	ld	ra,24(sp)
ffffffff8400470e:	6442                	ld	s0,16(sp)
ffffffff84004710:	64a2                	ld	s1,8(sp)
ffffffff84004712:	6105                	add	sp,sp,32
ffffffff84004714:	8082                	ret
ffffffff84004716:	4505                	li	a0,1
ffffffff84004718:	bfd5                	j	ffffffff8400470c <isFinalCapability+0x4a>

ffffffff8400471a <slotCapLongRunningDelete>:
ffffffff8400471a:	1141                	add	sp,sp,-16
ffffffff8400471c:	e406                	sd	ra,8(sp)
ffffffff8400471e:	e022                	sd	s0,0(sp)
ffffffff84004720:	6100                	ld	s0,0(a0)
ffffffff84004722:	906d                	srl	s0,s0,0x3b
ffffffff84004724:	c819                	beqz	s0,ffffffff8400473a <slotCapLongRunningDelete+0x20>
ffffffff84004726:	f9dff0ef          	jal	ffffffff840046c2 <isFinalCapability>
ffffffff8400472a:	cd09                	beqz	a0,ffffffff84004744 <slotCapLongRunningDelete+0x2a>
ffffffff8400472c:	000417b7          	lui	a5,0x41
ffffffff84004730:	40078793          	add	a5,a5,1024 # 41400 <KERNEL_OFFSET-0xfffffffefffbec00>
ffffffff84004734:	0087d433          	srl	s0,a5,s0
ffffffff84004738:	8805                	and	s0,s0,1
ffffffff8400473a:	8522                	mv	a0,s0
ffffffff8400473c:	60a2                	ld	ra,8(sp)
ffffffff8400473e:	6402                	ld	s0,0(sp)
ffffffff84004740:	0141                	add	sp,sp,16
ffffffff84004742:	8082                	ret
ffffffff84004744:	842a                	mv	s0,a0
ffffffff84004746:	bfd5                	j	ffffffff8400473a <slotCapLongRunningDelete+0x20>

ffffffff84004748 <isCapRevocable>:
ffffffff84004748:	1101                	add	sp,sp,-32
ffffffff8400474a:	ec2e                	sd	a1,24(sp)
ffffffff8400474c:	e032                	sd	a2,0(sp)
ffffffff8400474e:	e436                	sd	a3,8(sp)
ffffffff84004750:	03b55793          	srl	a5,a0,0x3b
ffffffff84004754:	0017f513          	and	a0,a5,1
ffffffff84004758:	e121                	bnez	a0,ffffffff84004798 <isCapRevocable+0x50>
ffffffff8400475a:	8636                	mv	a2,a3
ffffffff8400475c:	4699                	li	a3,6
ffffffff8400475e:	02d78863          	beq	a5,a3,ffffffff8400478e <isCapRevocable+0x46>
ffffffff84004762:	00f6ed63          	bltu	a3,a5,ffffffff8400477c <isCapRevocable+0x34>
ffffffff84004766:	4689                	li	a3,2
ffffffff84004768:	02d78b63          	beq	a5,a3,ffffffff8400479e <isCapRevocable+0x56>
ffffffff8400476c:	4691                	li	a3,4
ffffffff8400476e:	02d79663          	bne	a5,a3,ffffffff8400479a <isCapRevocable+0x52>
ffffffff84004772:	40c58733          	sub	a4,a1,a2
ffffffff84004776:	00e03533          	snez	a0,a4
ffffffff8400477a:	a005                	j	ffffffff8400479a <isCapRevocable+0x52>
ffffffff8400477c:	4741                	li	a4,16
ffffffff8400477e:	00e79e63          	bne	a5,a4,ffffffff8400479a <isCapRevocable+0x52>
ffffffff84004782:	6502                	ld	a0,0(sp)
ffffffff84004784:	916d                	srl	a0,a0,0x3b
ffffffff84004786:	1549                	add	a0,a0,-14 # fffffffff7fffff2 <ki_end+0x73fdfff2>
ffffffff84004788:	00153513          	seqz	a0,a0
ffffffff8400478c:	a039                	j	ffffffff8400479a <isCapRevocable+0x52>
ffffffff8400478e:	40c58733          	sub	a4,a1,a2
ffffffff84004792:	00e03533          	snez	a0,a4
ffffffff84004796:	a011                	j	ffffffff8400479a <isCapRevocable+0x52>
ffffffff84004798:	4501                	li	a0,0
ffffffff8400479a:	6105                	add	sp,sp,32
ffffffff8400479c:	8082                	ret
ffffffff8400479e:	4505                	li	a0,1
ffffffff840047a0:	bfed                	j	ffffffff8400479a <isCapRevocable+0x52>

ffffffff840047a2 <cteInsert>:
ffffffff840047a2:	715d                	add	sp,sp,-80
ffffffff840047a4:	e486                	sd	ra,72(sp)
ffffffff840047a6:	e0a2                	sd	s0,64(sp)
ffffffff840047a8:	fc26                	sd	s1,56(sp)
ffffffff840047aa:	f84a                	sd	s2,48(sp)
ffffffff840047ac:	f44e                	sd	s3,40(sp)
ffffffff840047ae:	e02a                	sd	a0,0(sp)
ffffffff840047b0:	e42e                	sd	a1,8(sp)
ffffffff840047b2:	8432                	mv	s0,a2
ffffffff840047b4:	84b6                	mv	s1,a3
ffffffff840047b6:	01863903          	ld	s2,24(a2)
ffffffff840047ba:	00063983          	ld	s3,0(a2)
ffffffff840047be:	6614                	ld	a3,8(a2)
ffffffff840047c0:	ec36                	sd	a3,24(sp)
ffffffff840047c2:	864e                	mv	a2,s3
ffffffff840047c4:	f85ff0ef          	jal	ffffffff84004748 <isCapRevocable>
ffffffff840047c8:	00151713          	sll	a4,a0,0x1
ffffffff840047cc:	8b09                	and	a4,a4,2
ffffffff840047ce:	ffc97793          	and	a5,s2,-4
ffffffff840047d2:	8fd9                	or	a5,a5,a4
ffffffff840047d4:	8905                	and	a0,a0,1
ffffffff840047d6:	8fc9                	or	a5,a5,a0
ffffffff840047d8:	03b9d693          	srl	a3,s3,0x3b
ffffffff840047dc:	4709                	li	a4,2
ffffffff840047de:	04e68563          	beq	a3,a4,ffffffff84004828 <cteInsert+0x86>
ffffffff840047e2:	6702                	ld	a4,0(sp)
ffffffff840047e4:	e098                	sd	a4,0(s1)
ffffffff840047e6:	6722                	ld	a4,8(sp)
ffffffff840047e8:	e498                	sd	a4,8(s1)
ffffffff840047ea:	e880                	sd	s0,16(s1)
ffffffff840047ec:	ec9c                	sd	a5,24(s1)
ffffffff840047ee:	6c14                	ld	a3,24(s0)
ffffffff840047f0:	577d                	li	a4,-1
ffffffff840047f2:	171e                	sll	a4,a4,0x27
ffffffff840047f4:	070d                	add	a4,a4,3 # fffffffffc000003 <ki_end+0x77fe0003>
ffffffff840047f6:	8ef9                	and	a3,a3,a4
ffffffff840047f8:	f8000737          	lui	a4,0xf8000
ffffffff840047fc:	8365                	srl	a4,a4,0x19
ffffffff840047fe:	00e4f633          	and	a2,s1,a4
ffffffff84004802:	8ed1                	or	a3,a3,a2
ffffffff84004804:	ec14                	sd	a3,24(s0)
ffffffff84004806:	8f7d                	and	a4,a4,a5
ffffffff84004808:	4685                	li	a3,1
ffffffff8400480a:	169a                	sll	a3,a3,0x26
ffffffff8400480c:	8ff5                	and	a5,a5,a3
ffffffff8400480e:	c711                	beqz	a4,ffffffff8400481a <cteInsert+0x78>
ffffffff84004810:	c781                	beqz	a5,ffffffff84004818 <cteInsert+0x76>
ffffffff84004812:	57fd                	li	a5,-1
ffffffff84004814:	179e                	sll	a5,a5,0x27
ffffffff84004816:	8f5d                	or	a4,a4,a5
ffffffff84004818:	eb04                	sd	s1,16(a4)
ffffffff8400481a:	60a6                	ld	ra,72(sp)
ffffffff8400481c:	6406                	ld	s0,64(sp)
ffffffff8400481e:	74e2                	ld	s1,56(sp)
ffffffff84004820:	7942                	ld	s2,48(sp)
ffffffff84004822:	79a2                	ld	s3,40(sp)
ffffffff84004824:	6161                	add	sp,sp,80
ffffffff84004826:	8082                	ret
ffffffff84004828:	6702                	ld	a4,0(sp)
ffffffff8400482a:	03b75613          	srl	a2,a4,0x3b
ffffffff8400482e:	4689                	li	a3,2
ffffffff84004830:	fad619e3          	bne	a2,a3,ffffffff840047e2 <cteInsert+0x40>
ffffffff84004834:	01999613          	sll	a2,s3,0x19
ffffffff84004838:	8265                	srl	a2,a2,0x19
ffffffff8400483a:	0269d993          	srl	s3,s3,0x26
ffffffff8400483e:	0019f993          	and	s3,s3,1
ffffffff84004842:	04098363          	beqz	s3,ffffffff84004888 <cteInsert+0xe6>
ffffffff84004846:	56fd                	li	a3,-1
ffffffff84004848:	02769593          	sll	a1,a3,0x27
ffffffff8400484c:	8e4d                	or	a2,a2,a1
ffffffff8400484e:	82e5                	srl	a3,a3,0x19
ffffffff84004850:	8ef9                	and	a3,a3,a4
ffffffff84004852:	9319                	srl	a4,a4,0x26
ffffffff84004854:	8b05                	and	a4,a4,1
ffffffff84004856:	d751                	beqz	a4,ffffffff840047e2 <cteInsert+0x40>
ffffffff84004858:	577d                	li	a4,-1
ffffffff8400485a:	171e                	sll	a4,a4,0x27
ffffffff8400485c:	8ed9                	or	a3,a3,a4
ffffffff8400485e:	f8c692e3          	bne	a3,a2,ffffffff840047e2 <cteInsert+0x40>
ffffffff84004862:	6762                	ld	a4,24(sp)
ffffffff84004864:	03f77713          	and	a4,a4,63
ffffffff84004868:	66a2                	ld	a3,8(sp)
ffffffff8400486a:	03f6f693          	and	a3,a3,63
ffffffff8400486e:	f6e69ae3          	bne	a3,a4,ffffffff840047e2 <cteInsert+0x40>
ffffffff84004872:	3771                	addw	a4,a4,-4 # fffffffff7fffffc <ki_end+0x73fdfffc>
ffffffff84004874:	020006b7          	lui	a3,0x2000
ffffffff84004878:	00e69733          	sll	a4,a3,a4
ffffffff8400487c:	6414                	ld	a3,8(s0)
ffffffff8400487e:	169e                	sll	a3,a3,0x27
ffffffff84004880:	929d                	srl	a3,a3,0x27
ffffffff84004882:	8f55                	or	a4,a4,a3
ffffffff84004884:	e418                	sd	a4,8(s0)
ffffffff84004886:	bfb1                	j	ffffffff840047e2 <cteInsert+0x40>
ffffffff84004888:	01971693          	sll	a3,a4,0x19
ffffffff8400488c:	82e5                	srl	a3,a3,0x19
ffffffff8400488e:	9319                	srl	a4,a4,0x26
ffffffff84004890:	8b05                	and	a4,a4,1
ffffffff84004892:	f379                	bnez	a4,ffffffff84004858 <cteInsert+0xb6>
ffffffff84004894:	b7e9                	j	ffffffff8400485e <cteInsert+0xbc>

ffffffff84004896 <invokeCNodeInsert>:
ffffffff84004896:	1101                	add	sp,sp,-32
ffffffff84004898:	ec06                	sd	ra,24(sp)
ffffffff8400489a:	f09ff0ef          	jal	ffffffff840047a2 <cteInsert>
ffffffff8400489e:	4501                	li	a0,0
ffffffff840048a0:	60e2                	ld	ra,24(sp)
ffffffff840048a2:	6105                	add	sp,sp,32
ffffffff840048a4:	8082                	ret

ffffffff840048a6 <invokeIRQControl>:
ffffffff840048a6:	7179                	add	sp,sp,-48
ffffffff840048a8:	f406                	sd	ra,40(sp)
ffffffff840048aa:	f022                	sd	s0,32(sp)
ffffffff840048ac:	ec26                	sd	s1,24(sp)
ffffffff840048ae:	e84a                	sd	s2,16(sp)
ffffffff840048b0:	842a                	mv	s0,a0
ffffffff840048b2:	892e                	mv	s2,a1
ffffffff840048b4:	84b2                	mv	s1,a2
ffffffff840048b6:	85aa                	mv	a1,a0
ffffffff840048b8:	4505                	li	a0,1
ffffffff840048ba:	b94ff0ef          	jal	ffffffff84003c4e <setIRQState>
ffffffff840048be:	1452                	sll	s0,s0,0x34
ffffffff840048c0:	86ca                	mv	a3,s2
ffffffff840048c2:	8626                	mv	a2,s1
ffffffff840048c4:	557d                	li	a0,-1
ffffffff840048c6:	157e                	sll	a0,a0,0x3f
ffffffff840048c8:	03445593          	srl	a1,s0,0x34
ffffffff840048cc:	ed7ff0ef          	jal	ffffffff840047a2 <cteInsert>
ffffffff840048d0:	4501                	li	a0,0
ffffffff840048d2:	70a2                	ld	ra,40(sp)
ffffffff840048d4:	7402                	ld	s0,32(sp)
ffffffff840048d6:	64e2                	ld	s1,24(sp)
ffffffff840048d8:	6942                	ld	s2,16(sp)
ffffffff840048da:	6145                	add	sp,sp,48
ffffffff840048dc:	8082                	ret

ffffffff840048de <tcbSchedEnqueue>:
ffffffff840048de:	12053783          	ld	a5,288(a0)
ffffffff840048e2:	8b85                	and	a5,a5,1
ffffffff840048e4:	e7b1                	bnez	a5,ffffffff84004930 <tcbSchedEnqueue+0x52>
ffffffff840048e6:	15853683          	ld	a3,344(a0)
ffffffff840048ea:	16853803          	ld	a6,360(a0)
ffffffff840048ee:	00869793          	sll	a5,a3,0x8
ffffffff840048f2:	97c2                	add	a5,a5,a6
ffffffff840048f4:	00479613          	sll	a2,a5,0x4
ffffffff840048f8:	00006717          	auipc	a4,0x6
ffffffff840048fc:	f0870713          	add	a4,a4,-248 # ffffffff8400a800 <ksReadyQueues>
ffffffff84004900:	9732                	add	a4,a4,a2
ffffffff84004902:	630c                	ld	a1,0(a4)
ffffffff84004904:	6710                	ld	a2,8(a4)
ffffffff84004906:	c615                	beqz	a2,ffffffff84004932 <tcbSchedEnqueue+0x54>
ffffffff84004908:	18a5b823          	sd	a0,400(a1) # fffffffff8000190 <ki_end+0x73fe0190>
ffffffff8400490c:	18053823          	sd	zero,400(a0)
ffffffff84004910:	18b53423          	sd	a1,392(a0)
ffffffff84004914:	0792                	sll	a5,a5,0x4
ffffffff84004916:	00006717          	auipc	a4,0x6
ffffffff8400491a:	eea70713          	add	a4,a4,-278 # ffffffff8400a800 <ksReadyQueues>
ffffffff8400491e:	97ba                	add	a5,a5,a4
ffffffff84004920:	e388                	sd	a0,0(a5)
ffffffff84004922:	e790                	sd	a2,8(a5)
ffffffff84004924:	12053783          	ld	a5,288(a0)
ffffffff84004928:	0017e793          	or	a5,a5,1
ffffffff8400492c:	12f53023          	sd	a5,288(a0)
ffffffff84004930:	8082                	ret
ffffffff84004932:	00685893          	srl	a7,a6,0x6
ffffffff84004936:	430d                	li	t1,3
ffffffff84004938:	41130333          	sub	t1,t1,a7
ffffffff8400493c:	00369713          	sll	a4,a3,0x3
ffffffff84004940:	c8818613          	add	a2,gp,-888 # ffffffff840090a0 <ksReadyQueuesL1Bitmap>
ffffffff84004944:	963a                	add	a2,a2,a4
ffffffff84004946:	4705                	li	a4,1
ffffffff84004948:	011718b3          	sll	a7,a4,a7
ffffffff8400494c:	00063e03          	ld	t3,0(a2)
ffffffff84004950:	011e68b3          	or	a7,t3,a7
ffffffff84004954:	01163023          	sd	a7,0(a2)
ffffffff84004958:	068a                	sll	a3,a3,0x2
ffffffff8400495a:	969a                	add	a3,a3,t1
ffffffff8400495c:	068e                	sll	a3,a3,0x3
ffffffff8400495e:	a8818613          	add	a2,gp,-1400 # ffffffff84008ea0 <ksReadyQueuesL2Bitmap>
ffffffff84004962:	96b2                	add	a3,a3,a2
ffffffff84004964:	01071733          	sll	a4,a4,a6
ffffffff84004968:	6290                	ld	a2,0(a3)
ffffffff8400496a:	8f51                	or	a4,a4,a2
ffffffff8400496c:	e298                	sd	a4,0(a3)
ffffffff8400496e:	862a                	mv	a2,a0
ffffffff84004970:	bf71                	j	ffffffff8400490c <tcbSchedEnqueue+0x2e>

ffffffff84004972 <rescheduleRequired>:
ffffffff84004972:	a701b503          	ld	a0,-1424(gp) # ffffffff84008e88 <ksSchedulerAction>
ffffffff84004976:	4785                	li	a5,1
ffffffff84004978:	00a7e663          	bltu	a5,a0,ffffffff84004984 <rescheduleRequired+0x12>
ffffffff8400497c:	4785                	li	a5,1
ffffffff8400497e:	a6f1b823          	sd	a5,-1424(gp) # ffffffff84008e88 <ksSchedulerAction>
ffffffff84004982:	8082                	ret
ffffffff84004984:	1141                	add	sp,sp,-16
ffffffff84004986:	e406                	sd	ra,8(sp)
ffffffff84004988:	f57ff0ef          	jal	ffffffff840048de <tcbSchedEnqueue>
ffffffff8400498c:	4785                	li	a5,1
ffffffff8400498e:	a6f1b823          	sd	a5,-1424(gp) # ffffffff84008e88 <ksSchedulerAction>
ffffffff84004992:	60a2                	ld	ra,8(sp)
ffffffff84004994:	0141                	add	sp,sp,16
ffffffff84004996:	8082                	ret

ffffffff84004998 <scheduleTCB>:
ffffffff84004998:	a801b783          	ld	a5,-1408(gp) # ffffffff84008e98 <ksCurThread>
ffffffff8400499c:	00a78363          	beq	a5,a0,ffffffff840049a2 <scheduleTCB+0xa>
ffffffff840049a0:	8082                	ret
ffffffff840049a2:	a701b783          	ld	a5,-1424(gp) # ffffffff84008e88 <ksSchedulerAction>
ffffffff840049a6:	ffed                	bnez	a5,ffffffff840049a0 <scheduleTCB+0x8>
ffffffff840049a8:	11853783          	ld	a5,280(a0)
ffffffff840049ac:	8bbd                	and	a5,a5,15
ffffffff840049ae:	17fd                	add	a5,a5,-1
ffffffff840049b0:	4705                	li	a4,1
ffffffff840049b2:	fef777e3          	bgeu	a4,a5,ffffffff840049a0 <scheduleTCB+0x8>
ffffffff840049b6:	1141                	add	sp,sp,-16
ffffffff840049b8:	e406                	sd	ra,8(sp)
ffffffff840049ba:	fb9ff0ef          	jal	ffffffff84004972 <rescheduleRequired>
ffffffff840049be:	60a2                	ld	ra,8(sp)
ffffffff840049c0:	0141                	add	sp,sp,16
ffffffff840049c2:	8082                	ret

ffffffff840049c4 <setThreadState>:
ffffffff840049c4:	1141                	add	sp,sp,-16
ffffffff840049c6:	e406                	sd	ra,8(sp)
ffffffff840049c8:	11853783          	ld	a5,280(a0)
ffffffff840049cc:	9bc1                	and	a5,a5,-16
ffffffff840049ce:	89bd                	and	a1,a1,15
ffffffff840049d0:	8fcd                	or	a5,a5,a1
ffffffff840049d2:	10f53c23          	sd	a5,280(a0)
ffffffff840049d6:	fc3ff0ef          	jal	ffffffff84004998 <scheduleTCB>
ffffffff840049da:	60a2                	ld	ra,8(sp)
ffffffff840049dc:	0141                	add	sp,sp,16
ffffffff840049de:	8082                	ret

ffffffff840049e0 <Arch_decodeIRQControlInvocation>:
ffffffff840049e0:	02500793          	li	a5,37
ffffffff840049e4:	08f51f63          	bne	a0,a5,ffffffff84004a82 <Arch_decodeIRQControlInvocation+0xa2>
ffffffff840049e8:	715d                	add	sp,sp,-80
ffffffff840049ea:	e486                	sd	ra,72(sp)
ffffffff840049ec:	e0a2                	sd	s0,64(sp)
ffffffff840049ee:	fc26                	sd	s1,56(sp)
ffffffff840049f0:	f84a                	sd	s2,48(sp)
ffffffff840049f2:	f44e                	sd	s3,40(sp)
ffffffff840049f4:	8432                	mv	s0,a2
ffffffff840049f6:	478d                	li	a5,3
ffffffff840049f8:	04b7f263          	bgeu	a5,a1,ffffffff84004a3c <Arch_decodeIRQControlInvocation+0x5c>
ffffffff840049fc:	8781b783          	ld	a5,-1928(gp) # ffffffff84008c90 <current_extra_caps>
ffffffff84004a00:	cf95                	beqz	a5,ffffffff84004a3c <Arch_decodeIRQControlInvocation+0x5c>
ffffffff84004a02:	a801b703          	ld	a4,-1408(gp) # ffffffff84008e98 <ksCurThread>
ffffffff84004a06:	6f24                	ld	s1,88(a4)
ffffffff84004a08:	06873903          	ld	s2,104(a4)
ffffffff84004a0c:	07073983          	ld	s3,112(a4)
ffffffff84004a10:	6398                	ld	a4,0(a5)
ffffffff84004a12:	e03a                	sd	a4,0(sp)
ffffffff84004a14:	679c                	ld	a5,8(a5)
ffffffff84004a16:	e43e                	sd	a5,8(sp)
ffffffff84004a18:	8526                	mv	a0,s1
ffffffff84004a1a:	ff2fe0ef          	jal	ffffffff8400320c <Arch_checkIRQ>
ffffffff84004a1e:	e11d                	bnez	a0,ffffffff84004a44 <Arch_decodeIRQControlInvocation+0x64>
ffffffff84004a20:	00349713          	sll	a4,s1,0x3
ffffffff84004a24:	00004797          	auipc	a5,0x4
ffffffff84004a28:	2a478793          	add	a5,a5,676 # ffffffff84008cc8 <intStateIRQTable>
ffffffff84004a2c:	97ba                	add	a5,a5,a4
ffffffff84004a2e:	639c                	ld	a5,0(a5)
ffffffff84004a30:	c38d                	beqz	a5,ffffffff84004a52 <Arch_decodeIRQControlInvocation+0x72>
ffffffff84004a32:	47a5                	li	a5,9
ffffffff84004a34:	d4f1b023          	sd	a5,-704(gp) # ffffffff84009158 <current_syscall_error+0x30>
ffffffff84004a38:	450d                	li	a0,3
ffffffff84004a3a:	a029                	j	ffffffff84004a44 <Arch_decodeIRQControlInvocation+0x64>
ffffffff84004a3c:	479d                	li	a5,7
ffffffff84004a3e:	d4f1b023          	sd	a5,-704(gp) # ffffffff84009158 <current_syscall_error+0x30>
ffffffff84004a42:	450d                	li	a0,3
ffffffff84004a44:	60a6                	ld	ra,72(sp)
ffffffff84004a46:	6406                	ld	s0,64(sp)
ffffffff84004a48:	74e2                	ld	s1,56(sp)
ffffffff84004a4a:	7942                	ld	s2,48(sp)
ffffffff84004a4c:	79a2                	ld	s3,40(sp)
ffffffff84004a4e:	6161                	add	sp,sp,80
ffffffff84004a50:	8082                	ret
ffffffff84004a52:	86ce                	mv	a3,s3
ffffffff84004a54:	864a                	mv	a2,s2
ffffffff84004a56:	6502                	ld	a0,0(sp)
ffffffff84004a58:	65a2                	ld	a1,8(sp)
ffffffff84004a5a:	e7bfe0ef          	jal	ffffffff840038d4 <lookupTargetSlot>
ffffffff84004a5e:	ec2e                	sd	a1,24(sp)
ffffffff84004a60:	f175                	bnez	a0,ffffffff84004a44 <Arch_decodeIRQControlInvocation+0x64>
ffffffff84004a62:	892e                	mv	s2,a1
ffffffff84004a64:	852e                	mv	a0,a1
ffffffff84004a66:	93eff0ef          	jal	ffffffff84003ba4 <ensureEmptySlot>
ffffffff84004a6a:	fd69                	bnez	a0,ffffffff84004a44 <Arch_decodeIRQControlInvocation+0x64>
ffffffff84004a6c:	4589                	li	a1,2
ffffffff84004a6e:	a801b503          	ld	a0,-1408(gp) # ffffffff84008e98 <ksCurThread>
ffffffff84004a72:	f53ff0ef          	jal	ffffffff840049c4 <setThreadState>
ffffffff84004a76:	8622                	mv	a2,s0
ffffffff84004a78:	85ca                	mv	a1,s2
ffffffff84004a7a:	8526                	mv	a0,s1
ffffffff84004a7c:	e2bff0ef          	jal	ffffffff840048a6 <invokeIRQControl>
ffffffff84004a80:	b7d1                	j	ffffffff84004a44 <Arch_decodeIRQControlInvocation+0x64>
ffffffff84004a82:	478d                	li	a5,3
ffffffff84004a84:	d4f1b023          	sd	a5,-704(gp) # ffffffff84009158 <current_syscall_error+0x30>
ffffffff84004a88:	450d                	li	a0,3
ffffffff84004a8a:	8082                	ret

ffffffff84004a8c <handleDoubleFault>:
ffffffff84004a8c:	1101                	add	sp,sp,-32
ffffffff84004a8e:	ec06                	sd	ra,24(sp)
ffffffff84004a90:	4581                	li	a1,0
ffffffff84004a92:	f33ff0ef          	jal	ffffffff840049c4 <setThreadState>
ffffffff84004a96:	60e2                	ld	ra,24(sp)
ffffffff84004a98:	6105                	add	sp,sp,32
ffffffff84004a9a:	8082                	ret

ffffffff84004a9c <activateThread>:
ffffffff84004a9c:	1141                	add	sp,sp,-16
ffffffff84004a9e:	e406                	sd	ra,8(sp)
ffffffff84004aa0:	a801b503          	ld	a0,-1408(gp) # ffffffff84008e98 <ksCurThread>
ffffffff84004aa4:	11853703          	ld	a4,280(a0)
ffffffff84004aa8:	8b3d                	and	a4,a4,15
ffffffff84004aaa:	4789                	li	a5,2
ffffffff84004aac:	00f70a63          	beq	a4,a5,ffffffff84004ac0 <activateThread+0x24>
ffffffff84004ab0:	08200793          	li	a5,130
ffffffff84004ab4:	00e7d7b3          	srl	a5,a5,a4
ffffffff84004ab8:	8b85                	and	a5,a5,1
ffffffff84004aba:	eb91                	bnez	a5,ffffffff84004ace <activateThread+0x32>
ffffffff84004abc:	d95fd0ef          	jal	ffffffff84002850 <halt>
ffffffff84004ac0:	10853783          	ld	a5,264(a0)
ffffffff84004ac4:	10f53823          	sd	a5,272(a0)
ffffffff84004ac8:	4585                	li	a1,1
ffffffff84004aca:	efbff0ef          	jal	ffffffff840049c4 <setThreadState>
ffffffff84004ace:	60a2                	ld	ra,8(sp)
ffffffff84004ad0:	0141                	add	sp,sp,16
ffffffff84004ad2:	8082                	ret

ffffffff84004ad4 <decodeIRQControlInvocation>:
ffffffff84004ad4:	715d                	add	sp,sp,-80
ffffffff84004ad6:	e486                	sd	ra,72(sp)
ffffffff84004ad8:	e0a2                	sd	s0,64(sp)
ffffffff84004ada:	fc26                	sd	s1,56(sp)
ffffffff84004adc:	f84a                	sd	s2,48(sp)
ffffffff84004ade:	f44e                	sd	s3,40(sp)
ffffffff84004ae0:	8432                	mv	s0,a2
ffffffff84004ae2:	47e5                	li	a5,25
ffffffff84004ae4:	08f51863          	bne	a0,a5,ffffffff84004b74 <decodeIRQControlInvocation+0xa0>
ffffffff84004ae8:	4789                	li	a5,2
ffffffff84004aea:	04b7f263          	bgeu	a5,a1,ffffffff84004b2e <decodeIRQControlInvocation+0x5a>
ffffffff84004aee:	8781b783          	ld	a5,-1928(gp) # ffffffff84008c90 <current_extra_caps>
ffffffff84004af2:	cf95                	beqz	a5,ffffffff84004b2e <decodeIRQControlInvocation+0x5a>
ffffffff84004af4:	a801b703          	ld	a4,-1408(gp) # ffffffff84008e98 <ksCurThread>
ffffffff84004af8:	6f24                	ld	s1,88(a4)
ffffffff84004afa:	06073903          	ld	s2,96(a4)
ffffffff84004afe:	06873983          	ld	s3,104(a4)
ffffffff84004b02:	6398                	ld	a4,0(a5)
ffffffff84004b04:	e03a                	sd	a4,0(sp)
ffffffff84004b06:	679c                	ld	a5,8(a5)
ffffffff84004b08:	e43e                	sd	a5,8(sp)
ffffffff84004b0a:	8526                	mv	a0,s1
ffffffff84004b0c:	f00fe0ef          	jal	ffffffff8400320c <Arch_checkIRQ>
ffffffff84004b10:	e11d                	bnez	a0,ffffffff84004b36 <decodeIRQControlInvocation+0x62>
ffffffff84004b12:	00349713          	sll	a4,s1,0x3
ffffffff84004b16:	00004797          	auipc	a5,0x4
ffffffff84004b1a:	1b278793          	add	a5,a5,434 # ffffffff84008cc8 <intStateIRQTable>
ffffffff84004b1e:	97ba                	add	a5,a5,a4
ffffffff84004b20:	639c                	ld	a5,0(a5)
ffffffff84004b22:	c38d                	beqz	a5,ffffffff84004b44 <decodeIRQControlInvocation+0x70>
ffffffff84004b24:	47a5                	li	a5,9
ffffffff84004b26:	d4f1b023          	sd	a5,-704(gp) # ffffffff84009158 <current_syscall_error+0x30>
ffffffff84004b2a:	450d                	li	a0,3
ffffffff84004b2c:	a029                	j	ffffffff84004b36 <decodeIRQControlInvocation+0x62>
ffffffff84004b2e:	479d                	li	a5,7
ffffffff84004b30:	d4f1b023          	sd	a5,-704(gp) # ffffffff84009158 <current_syscall_error+0x30>
ffffffff84004b34:	450d                	li	a0,3
ffffffff84004b36:	60a6                	ld	ra,72(sp)
ffffffff84004b38:	6406                	ld	s0,64(sp)
ffffffff84004b3a:	74e2                	ld	s1,56(sp)
ffffffff84004b3c:	7942                	ld	s2,48(sp)
ffffffff84004b3e:	79a2                	ld	s3,40(sp)
ffffffff84004b40:	6161                	add	sp,sp,80
ffffffff84004b42:	8082                	ret
ffffffff84004b44:	86ce                	mv	a3,s3
ffffffff84004b46:	864a                	mv	a2,s2
ffffffff84004b48:	6502                	ld	a0,0(sp)
ffffffff84004b4a:	65a2                	ld	a1,8(sp)
ffffffff84004b4c:	d89fe0ef          	jal	ffffffff840038d4 <lookupTargetSlot>
ffffffff84004b50:	ec2e                	sd	a1,24(sp)
ffffffff84004b52:	f175                	bnez	a0,ffffffff84004b36 <decodeIRQControlInvocation+0x62>
ffffffff84004b54:	892e                	mv	s2,a1
ffffffff84004b56:	852e                	mv	a0,a1
ffffffff84004b58:	84cff0ef          	jal	ffffffff84003ba4 <ensureEmptySlot>
ffffffff84004b5c:	fd69                	bnez	a0,ffffffff84004b36 <decodeIRQControlInvocation+0x62>
ffffffff84004b5e:	4589                	li	a1,2
ffffffff84004b60:	a801b503          	ld	a0,-1408(gp) # ffffffff84008e98 <ksCurThread>
ffffffff84004b64:	e61ff0ef          	jal	ffffffff840049c4 <setThreadState>
ffffffff84004b68:	8622                	mv	a2,s0
ffffffff84004b6a:	85ca                	mv	a1,s2
ffffffff84004b6c:	8526                	mv	a0,s1
ffffffff84004b6e:	d39ff0ef          	jal	ffffffff840048a6 <invokeIRQControl>
ffffffff84004b72:	b7d1                	j	ffffffff84004b36 <decodeIRQControlInvocation+0x62>
ffffffff84004b74:	e6dff0ef          	jal	ffffffff840049e0 <Arch_decodeIRQControlInvocation>
ffffffff84004b78:	bf7d                	j	ffffffff84004b36 <decodeIRQControlInvocation+0x62>

ffffffff84004b7a <receiveSignal>:
ffffffff84004b7a:	7179                	add	sp,sp,-48
ffffffff84004b7c:	f406                	sd	ra,40(sp)
ffffffff84004b7e:	f022                	sd	s0,32(sp)
ffffffff84004b80:	ec26                	sd	s1,24(sp)
ffffffff84004b82:	e84a                	sd	s2,16(sp)
ffffffff84004b84:	842a                	mv	s0,a0
ffffffff84004b86:	e02e                	sd	a1,0(sp)
ffffffff84004b88:	e432                	sd	a2,8(sp)
ffffffff84004b8a:	01959793          	sll	a5,a1,0x19
ffffffff84004b8e:	83e5                	srl	a5,a5,0x19
ffffffff84004b90:	9199                	srl	a1,a1,0x26
ffffffff84004b92:	8985                	and	a1,a1,1
ffffffff84004b94:	c581                	beqz	a1,ffffffff84004b9c <receiveSignal+0x22>
ffffffff84004b96:	577d                	li	a4,-1
ffffffff84004b98:	171e                	sll	a4,a4,0x27
ffffffff84004b9a:	8fd9                	or	a5,a5,a4
ffffffff84004b9c:	84be                	mv	s1,a5
ffffffff84004b9e:	6398                	ld	a4,0(a5)
ffffffff84004ba0:	00377613          	and	a2,a4,3
ffffffff84004ba4:	8b09                	and	a4,a4,2
ffffffff84004ba6:	cf19                	beqz	a4,ffffffff84004bc4 <receiveSignal+0x4a>
ffffffff84004ba8:	4789                	li	a5,2
ffffffff84004baa:	00f61763          	bne	a2,a5,ffffffff84004bb8 <receiveSignal+0x3e>
ffffffff84004bae:	689c                	ld	a5,16(s1)
ffffffff84004bb0:	e43c                	sd	a5,72(s0)
ffffffff84004bb2:	609c                	ld	a5,0(s1)
ffffffff84004bb4:	9bf1                	and	a5,a5,-4
ffffffff84004bb6:	e09c                	sd	a5,0(s1)
ffffffff84004bb8:	70a2                	ld	ra,40(sp)
ffffffff84004bba:	7402                	ld	s0,32(sp)
ffffffff84004bbc:	64e2                	ld	s1,24(sp)
ffffffff84004bbe:	6942                	ld	s2,16(sp)
ffffffff84004bc0:	6145                	add	sp,sp,48
ffffffff84004bc2:	8082                	ret
ffffffff84004bc4:	cad1                	beqz	a3,ffffffff84004c58 <receiveSignal+0xde>
ffffffff84004bc6:	11843703          	ld	a4,280(s0)
ffffffff84004bca:	597d                	li	s2,-1
ffffffff84004bcc:	02791693          	sll	a3,s2,0x27
ffffffff84004bd0:	8f75                	and	a4,a4,a3
ffffffff84004bd2:	e00006b7          	lui	a3,0xe0000
ffffffff84004bd6:	82e5                	srl	a3,a3,0x19
ffffffff84004bd8:	8ff5                	and	a5,a5,a3
ffffffff84004bda:	8fd9                	or	a5,a5,a4
ffffffff84004bdc:	0067e793          	or	a5,a5,6
ffffffff84004be0:	10f43c23          	sd	a5,280(s0)
ffffffff84004be4:	8522                	mv	a0,s0
ffffffff84004be6:	db3ff0ef          	jal	ffffffff84004998 <scheduleTCB>
ffffffff84004bea:	6498                	ld	a4,8(s1)
ffffffff84004bec:	01995793          	srl	a5,s2,0x19
ffffffff84004bf0:	8ff9                	and	a5,a5,a4
ffffffff84004bf2:	9319                	srl	a4,a4,0x26
ffffffff84004bf4:	8b05                	and	a4,a4,1
ffffffff84004bf6:	cb21                	beqz	a4,ffffffff84004c46 <receiveSignal+0xcc>
ffffffff84004bf8:	577d                	li	a4,-1
ffffffff84004bfa:	171e                	sll	a4,a4,0x27
ffffffff84004bfc:	8fd9                	or	a5,a5,a4
ffffffff84004bfe:	863e                	mv	a2,a5
ffffffff84004c00:	6094                	ld	a3,0(s1)
ffffffff84004c02:	0196d713          	srl	a4,a3,0x19
ffffffff84004c06:	0006d663          	bgez	a3,ffffffff84004c12 <receiveSignal+0x98>
ffffffff84004c0a:	56fd                	li	a3,-1
ffffffff84004c0c:	169e                	sll	a3,a3,0x27
ffffffff84004c0e:	8f55                	or	a4,a4,a3
ffffffff84004c10:	c3b1                	beqz	a5,ffffffff84004c54 <receiveSignal+0xda>
ffffffff84004c12:	18873c23          	sd	s0,408(a4)
ffffffff84004c16:	1ae43023          	sd	a4,416(s0)
ffffffff84004c1a:	18043c23          	sd	zero,408(s0)
ffffffff84004c1e:	609c                	ld	a5,0(s1)
ffffffff84004c20:	6498                	ld	a4,8(s1)
ffffffff84004c22:	56fd                	li	a3,-1
ffffffff84004c24:	02769593          	sll	a1,a3,0x27
ffffffff84004c28:	8f6d                	and	a4,a4,a1
ffffffff84004c2a:	82e5                	srl	a3,a3,0x19
ffffffff84004c2c:	8e75                	and	a2,a2,a3
ffffffff84004c2e:	8f51                	or	a4,a4,a2
ffffffff84004c30:	e498                	sd	a4,8(s1)
ffffffff84004c32:	02000737          	lui	a4,0x2000
ffffffff84004c36:	1771                	add	a4,a4,-4 # 1fffffc <KERNEL_OFFSET-0xfffffffefe000004>
ffffffff84004c38:	8ff9                	and	a5,a5,a4
ffffffff84004c3a:	0466                	sll	s0,s0,0x19
ffffffff84004c3c:	8fc1                	or	a5,a5,s0
ffffffff84004c3e:	0017e793          	or	a5,a5,1
ffffffff84004c42:	e09c                	sd	a5,0(s1)
ffffffff84004c44:	bf95                	j	ffffffff84004bb8 <receiveSignal+0x3e>
ffffffff84004c46:	863e                	mv	a2,a5
ffffffff84004c48:	6094                	ld	a3,0(s1)
ffffffff84004c4a:	0196d713          	srl	a4,a3,0x19
ffffffff84004c4e:	fa06cee3          	bltz	a3,ffffffff84004c0a <receiveSignal+0x90>
ffffffff84004c52:	bf7d                	j	ffffffff84004c10 <receiveSignal+0x96>
ffffffff84004c54:	8622                	mv	a2,s0
ffffffff84004c56:	b7c1                	j	ffffffff84004c16 <receiveSignal+0x9c>
ffffffff84004c58:	04043423          	sd	zero,72(s0)
ffffffff84004c5c:	bfb1                	j	ffffffff84004bb8 <receiveSignal+0x3e>

ffffffff84004c5e <possibleSwitchTo>:
ffffffff84004c5e:	1141                	add	sp,sp,-16
ffffffff84004c60:	e406                	sd	ra,8(sp)
ffffffff84004c62:	e022                	sd	s0,0(sp)
ffffffff84004c64:	842a                	mv	s0,a0
ffffffff84004c66:	15853703          	ld	a4,344(a0)
ffffffff84004c6a:	8a81b783          	ld	a5,-1880(gp) # ffffffff84008cc0 <ksCurDomain>
ffffffff84004c6e:	00f71b63          	bne	a4,a5,ffffffff84004c84 <possibleSwitchTo+0x26>
ffffffff84004c72:	a701b783          	ld	a5,-1424(gp) # ffffffff84008e88 <ksSchedulerAction>
ffffffff84004c76:	cf89                	beqz	a5,ffffffff84004c90 <possibleSwitchTo+0x32>
ffffffff84004c78:	cfbff0ef          	jal	ffffffff84004972 <rescheduleRequired>
ffffffff84004c7c:	8522                	mv	a0,s0
ffffffff84004c7e:	c61ff0ef          	jal	ffffffff840048de <tcbSchedEnqueue>
ffffffff84004c82:	a019                	j	ffffffff84004c88 <possibleSwitchTo+0x2a>
ffffffff84004c84:	c5bff0ef          	jal	ffffffff840048de <tcbSchedEnqueue>
ffffffff84004c88:	60a2                	ld	ra,8(sp)
ffffffff84004c8a:	6402                	ld	s0,0(sp)
ffffffff84004c8c:	0141                	add	sp,sp,16
ffffffff84004c8e:	8082                	ret
ffffffff84004c90:	a6a1b823          	sd	a0,-1424(gp) # ffffffff84008e88 <ksSchedulerAction>
ffffffff84004c94:	bfd5                	j	ffffffff84004c88 <possibleSwitchTo+0x2a>

ffffffff84004c96 <cancelAllIPC>:
ffffffff84004c96:	611c                	ld	a5,0(a0)
ffffffff84004c98:	0037f713          	and	a4,a5,3
ffffffff84004c9c:	cb1d                	beqz	a4,ffffffff84004cd2 <cancelAllIPC+0x3c>
ffffffff84004c9e:	1141                	add	sp,sp,-16
ffffffff84004ca0:	e406                	sd	ra,8(sp)
ffffffff84004ca2:	e022                	sd	s0,0(sp)
ffffffff84004ca4:	6500                	ld	s0,8(a0)
ffffffff84004ca6:	00053423          	sd	zero,8(a0)
ffffffff84004caa:	939d                	srl	a5,a5,0x27
ffffffff84004cac:	179e                	sll	a5,a5,0x27
ffffffff84004cae:	e11c                	sd	a5,0(a0)
ffffffff84004cb0:	c819                	beqz	s0,ffffffff84004cc6 <cancelAllIPC+0x30>
ffffffff84004cb2:	4589                	li	a1,2
ffffffff84004cb4:	8522                	mv	a0,s0
ffffffff84004cb6:	d0fff0ef          	jal	ffffffff840049c4 <setThreadState>
ffffffff84004cba:	8522                	mv	a0,s0
ffffffff84004cbc:	c23ff0ef          	jal	ffffffff840048de <tcbSchedEnqueue>
ffffffff84004cc0:	19843403          	ld	s0,408(s0)
ffffffff84004cc4:	f47d                	bnez	s0,ffffffff84004cb2 <cancelAllIPC+0x1c>
ffffffff84004cc6:	cadff0ef          	jal	ffffffff84004972 <rescheduleRequired>
ffffffff84004cca:	60a2                	ld	ra,8(sp)
ffffffff84004ccc:	6402                	ld	s0,0(sp)
ffffffff84004cce:	0141                	add	sp,sp,16
ffffffff84004cd0:	8082                	ret
ffffffff84004cd2:	8082                	ret

ffffffff84004cd4 <cancelAllSignals>:
ffffffff84004cd4:	611c                	ld	a5,0(a0)
ffffffff84004cd6:	0037f693          	and	a3,a5,3
ffffffff84004cda:	4705                	li	a4,1
ffffffff84004cdc:	00e68363          	beq	a3,a4,ffffffff84004ce2 <cancelAllSignals+0xe>
ffffffff84004ce0:	8082                	ret
ffffffff84004ce2:	1141                	add	sp,sp,-16
ffffffff84004ce4:	e406                	sd	ra,8(sp)
ffffffff84004ce6:	e022                	sd	s0,0(sp)
ffffffff84004ce8:	6518                	ld	a4,8(a0)
ffffffff84004cea:	01971413          	sll	s0,a4,0x19
ffffffff84004cee:	8065                	srl	s0,s0,0x19
ffffffff84004cf0:	02675693          	srl	a3,a4,0x26
ffffffff84004cf4:	8a85                	and	a3,a3,1
ffffffff84004cf6:	ca9d                	beqz	a3,ffffffff84004d2c <cancelAllSignals+0x58>
ffffffff84004cf8:	56fd                	li	a3,-1
ffffffff84004cfa:	169e                	sll	a3,a3,0x27
ffffffff84004cfc:	8c55                	or	s0,s0,a3
ffffffff84004cfe:	8f75                	and	a4,a4,a3
ffffffff84004d00:	e518                	sd	a4,8(a0)
ffffffff84004d02:	02000737          	lui	a4,0x2000
ffffffff84004d06:	1771                	add	a4,a4,-4 # 1fffffc <KERNEL_OFFSET-0xfffffffefe000004>
ffffffff84004d08:	8ff9                	and	a5,a5,a4
ffffffff84004d0a:	e11c                	sd	a5,0(a0)
ffffffff84004d0c:	4589                	li	a1,2
ffffffff84004d0e:	8522                	mv	a0,s0
ffffffff84004d10:	cb5ff0ef          	jal	ffffffff840049c4 <setThreadState>
ffffffff84004d14:	8522                	mv	a0,s0
ffffffff84004d16:	bc9ff0ef          	jal	ffffffff840048de <tcbSchedEnqueue>
ffffffff84004d1a:	19843403          	ld	s0,408(s0)
ffffffff84004d1e:	f47d                	bnez	s0,ffffffff84004d0c <cancelAllSignals+0x38>
ffffffff84004d20:	c53ff0ef          	jal	ffffffff84004972 <rescheduleRequired>
ffffffff84004d24:	60a2                	ld	ra,8(sp)
ffffffff84004d26:	6402                	ld	s0,0(sp)
ffffffff84004d28:	0141                	add	sp,sp,16
ffffffff84004d2a:	8082                	ret
ffffffff84004d2c:	931d                	srl	a4,a4,0x27
ffffffff84004d2e:	171e                	sll	a4,a4,0x27
ffffffff84004d30:	e518                	sd	a4,8(a0)
ffffffff84004d32:	02000737          	lui	a4,0x2000
ffffffff84004d36:	1771                	add	a4,a4,-4 # 1fffffc <KERNEL_OFFSET-0xfffffffefe000004>
ffffffff84004d38:	8ff9                	and	a5,a5,a4
ffffffff84004d3a:	e11c                	sd	a5,0(a0)
ffffffff84004d3c:	d075                	beqz	s0,ffffffff84004d20 <cancelAllSignals+0x4c>
ffffffff84004d3e:	b7f9                	j	ffffffff84004d0c <cancelAllSignals+0x38>

ffffffff84004d40 <tcbSchedAppend>:
ffffffff84004d40:	12053783          	ld	a5,288(a0)
ffffffff84004d44:	8b85                	and	a5,a5,1
ffffffff84004d46:	e7b1                	bnez	a5,ffffffff84004d92 <tcbSchedAppend+0x52>
ffffffff84004d48:	15853683          	ld	a3,344(a0)
ffffffff84004d4c:	16853583          	ld	a1,360(a0)
ffffffff84004d50:	00869793          	sll	a5,a3,0x8
ffffffff84004d54:	97ae                	add	a5,a5,a1
ffffffff84004d56:	00479613          	sll	a2,a5,0x4
ffffffff84004d5a:	00006717          	auipc	a4,0x6
ffffffff84004d5e:	aa670713          	add	a4,a4,-1370 # ffffffff8400a800 <ksReadyQueues>
ffffffff84004d62:	9732                	add	a4,a4,a2
ffffffff84004d64:	6310                	ld	a2,0(a4)
ffffffff84004d66:	6718                	ld	a4,8(a4)
ffffffff84004d68:	c615                	beqz	a2,ffffffff84004d94 <tcbSchedAppend+0x54>
ffffffff84004d6a:	18a73423          	sd	a0,392(a4)
ffffffff84004d6e:	18e53823          	sd	a4,400(a0)
ffffffff84004d72:	18053423          	sd	zero,392(a0)
ffffffff84004d76:	0792                	sll	a5,a5,0x4
ffffffff84004d78:	00006717          	auipc	a4,0x6
ffffffff84004d7c:	a8870713          	add	a4,a4,-1400 # ffffffff8400a800 <ksReadyQueues>
ffffffff84004d80:	97ba                	add	a5,a5,a4
ffffffff84004d82:	e390                	sd	a2,0(a5)
ffffffff84004d84:	e788                	sd	a0,8(a5)
ffffffff84004d86:	12053783          	ld	a5,288(a0)
ffffffff84004d8a:	0017e793          	or	a5,a5,1
ffffffff84004d8e:	12f53023          	sd	a5,288(a0)
ffffffff84004d92:	8082                	ret
ffffffff84004d94:	0065d893          	srl	a7,a1,0x6
ffffffff84004d98:	430d                	li	t1,3
ffffffff84004d9a:	41130333          	sub	t1,t1,a7
ffffffff84004d9e:	00369613          	sll	a2,a3,0x3
ffffffff84004da2:	c8818813          	add	a6,gp,-888 # ffffffff840090a0 <ksReadyQueuesL1Bitmap>
ffffffff84004da6:	9832                	add	a6,a6,a2
ffffffff84004da8:	4605                	li	a2,1
ffffffff84004daa:	011618b3          	sll	a7,a2,a7
ffffffff84004dae:	00083e03          	ld	t3,0(a6)
ffffffff84004db2:	011e68b3          	or	a7,t3,a7
ffffffff84004db6:	01183023          	sd	a7,0(a6)
ffffffff84004dba:	068a                	sll	a3,a3,0x2
ffffffff84004dbc:	969a                	add	a3,a3,t1
ffffffff84004dbe:	068e                	sll	a3,a3,0x3
ffffffff84004dc0:	a8818813          	add	a6,gp,-1400 # ffffffff84008ea0 <ksReadyQueuesL2Bitmap>
ffffffff84004dc4:	96c2                	add	a3,a3,a6
ffffffff84004dc6:	00b61633          	sll	a2,a2,a1
ffffffff84004dca:	628c                	ld	a1,0(a3)
ffffffff84004dcc:	8e4d                	or	a2,a2,a1
ffffffff84004dce:	e290                	sd	a2,0(a3)
ffffffff84004dd0:	862a                	mv	a2,a0
ffffffff84004dd2:	bf71                	j	ffffffff84004d6e <tcbSchedAppend+0x2e>

ffffffff84004dd4 <timerTick>:
ffffffff84004dd4:	1141                	add	sp,sp,-16
ffffffff84004dd6:	e406                	sd	ra,8(sp)
ffffffff84004dd8:	a801b503          	ld	a0,-1408(gp) # ffffffff84008e98 <ksCurThread>
ffffffff84004ddc:	11853783          	ld	a5,280(a0)
ffffffff84004de0:	8bbd                	and	a5,a5,15
ffffffff84004de2:	4705                	li	a4,1
ffffffff84004de4:	00e79963          	bne	a5,a4,ffffffff84004df6 <timerTick+0x22>
ffffffff84004de8:	17053783          	ld	a5,368(a0)
ffffffff84004dec:	00f77e63          	bgeu	a4,a5,ffffffff84004e08 <timerTick+0x34>
ffffffff84004df0:	17fd                	add	a5,a5,-1
ffffffff84004df2:	16f53823          	sd	a5,368(a0)
ffffffff84004df6:	8a018713          	add	a4,gp,-1888 # ffffffff84008cb8 <ksDomainTime>
ffffffff84004dfa:	631c                	ld	a5,0(a4)
ffffffff84004dfc:	17fd                	add	a5,a5,-1
ffffffff84004dfe:	e31c                	sd	a5,0(a4)
ffffffff84004e00:	cf81                	beqz	a5,ffffffff84004e18 <timerTick+0x44>
ffffffff84004e02:	60a2                	ld	ra,8(sp)
ffffffff84004e04:	0141                	add	sp,sp,16
ffffffff84004e06:	8082                	ret
ffffffff84004e08:	4795                	li	a5,5
ffffffff84004e0a:	16f53823          	sd	a5,368(a0)
ffffffff84004e0e:	f33ff0ef          	jal	ffffffff84004d40 <tcbSchedAppend>
ffffffff84004e12:	b61ff0ef          	jal	ffffffff84004972 <rescheduleRequired>
ffffffff84004e16:	b7c5                	j	ffffffff84004df6 <timerTick+0x22>
ffffffff84004e18:	b5bff0ef          	jal	ffffffff84004972 <rescheduleRequired>
ffffffff84004e1c:	b7dd                	j	ffffffff84004e02 <timerTick+0x2e>

ffffffff84004e1e <tcbSchedDequeue>:
ffffffff84004e1e:	12053783          	ld	a5,288(a0)
ffffffff84004e22:	8b85                	and	a5,a5,1
ffffffff84004e24:	cfb9                	beqz	a5,ffffffff84004e82 <tcbSchedDequeue+0x64>
ffffffff84004e26:	15853603          	ld	a2,344(a0)
ffffffff84004e2a:	16853683          	ld	a3,360(a0)
ffffffff84004e2e:	00861793          	sll	a5,a2,0x8
ffffffff84004e32:	97b6                	add	a5,a5,a3
ffffffff84004e34:	00479593          	sll	a1,a5,0x4
ffffffff84004e38:	00006717          	auipc	a4,0x6
ffffffff84004e3c:	9c870713          	add	a4,a4,-1592 # ffffffff8400a800 <ksReadyQueues>
ffffffff84004e40:	972e                	add	a4,a4,a1
ffffffff84004e42:	00073803          	ld	a6,0(a4)
ffffffff84004e46:	670c                	ld	a1,8(a4)
ffffffff84004e48:	19053703          	ld	a4,400(a0)
ffffffff84004e4c:	cf05                	beqz	a4,ffffffff84004e84 <tcbSchedDequeue+0x66>
ffffffff84004e4e:	18853683          	ld	a3,392(a0)
ffffffff84004e52:	18d73423          	sd	a3,392(a4)
ffffffff84004e56:	18853703          	ld	a4,392(a0)
ffffffff84004e5a:	cf3d                	beqz	a4,ffffffff84004ed8 <tcbSchedDequeue+0xba>
ffffffff84004e5c:	19053683          	ld	a3,400(a0)
ffffffff84004e60:	18d73823          	sd	a3,400(a4)
ffffffff84004e64:	00479713          	sll	a4,a5,0x4
ffffffff84004e68:	00006797          	auipc	a5,0x6
ffffffff84004e6c:	99878793          	add	a5,a5,-1640 # ffffffff8400a800 <ksReadyQueues>
ffffffff84004e70:	97ba                	add	a5,a5,a4
ffffffff84004e72:	0107b023          	sd	a6,0(a5)
ffffffff84004e76:	e78c                	sd	a1,8(a5)
ffffffff84004e78:	12053783          	ld	a5,288(a0)
ffffffff84004e7c:	9bf9                	and	a5,a5,-2
ffffffff84004e7e:	12f53023          	sd	a5,288(a0)
ffffffff84004e82:	8082                	ret
ffffffff84004e84:	18853803          	ld	a6,392(a0)
ffffffff84004e88:	04081663          	bnez	a6,ffffffff84004ed4 <tcbSchedDequeue+0xb6>
ffffffff84004e8c:	0066d313          	srl	t1,a3,0x6
ffffffff84004e90:	488d                	li	a7,3
ffffffff84004e92:	406888b3          	sub	a7,a7,t1
ffffffff84004e96:	4705                	li	a4,1
ffffffff84004e98:	00d71733          	sll	a4,a4,a3
ffffffff84004e9c:	fff74713          	not	a4,a4
ffffffff84004ea0:	00261693          	sll	a3,a2,0x2
ffffffff84004ea4:	96c6                	add	a3,a3,a7
ffffffff84004ea6:	068e                	sll	a3,a3,0x3
ffffffff84004ea8:	a8818893          	add	a7,gp,-1400 # ffffffff84008ea0 <ksReadyQueuesL2Bitmap>
ffffffff84004eac:	96c6                	add	a3,a3,a7
ffffffff84004eae:	0006b883          	ld	a7,0(a3) # ffffffffe0000000 <ki_end+0x5bfe0000>
ffffffff84004eb2:	01177733          	and	a4,a4,a7
ffffffff84004eb6:	e298                	sd	a4,0(a3)
ffffffff84004eb8:	ff59                	bnez	a4,ffffffff84004e56 <tcbSchedDequeue+0x38>
ffffffff84004eba:	060e                	sll	a2,a2,0x3
ffffffff84004ebc:	c8818693          	add	a3,gp,-888 # ffffffff840090a0 <ksReadyQueuesL1Bitmap>
ffffffff84004ec0:	96b2                	add	a3,a3,a2
ffffffff84004ec2:	4705                	li	a4,1
ffffffff84004ec4:	00671733          	sll	a4,a4,t1
ffffffff84004ec8:	fff74713          	not	a4,a4
ffffffff84004ecc:	6290                	ld	a2,0(a3)
ffffffff84004ece:	8f71                	and	a4,a4,a2
ffffffff84004ed0:	e298                	sd	a4,0(a3)
ffffffff84004ed2:	b751                	j	ffffffff84004e56 <tcbSchedDequeue+0x38>
ffffffff84004ed4:	8742                	mv	a4,a6
ffffffff84004ed6:	b759                	j	ffffffff84004e5c <tcbSchedDequeue+0x3e>
ffffffff84004ed8:	19053583          	ld	a1,400(a0)
ffffffff84004edc:	b761                	j	ffffffff84004e64 <tcbSchedDequeue+0x46>

ffffffff84004ede <switchToThread>:
ffffffff84004ede:	1141                	add	sp,sp,-16
ffffffff84004ee0:	e406                	sd	ra,8(sp)
ffffffff84004ee2:	e022                	sd	s0,0(sp)
ffffffff84004ee4:	842a                	mv	s0,a0
ffffffff84004ee6:	8cafe0ef          	jal	ffffffff84002fb0 <setVMRoot>
ffffffff84004eea:	8522                	mv	a0,s0
ffffffff84004eec:	f33ff0ef          	jal	ffffffff84004e1e <tcbSchedDequeue>
ffffffff84004ef0:	a881b023          	sd	s0,-1408(gp) # ffffffff84008e98 <ksCurThread>
ffffffff84004ef4:	60a2                	ld	ra,8(sp)
ffffffff84004ef6:	6402                	ld	s0,0(sp)
ffffffff84004ef8:	0141                	add	sp,sp,16
ffffffff84004efa:	8082                	ret

ffffffff84004efc <setDomain>:
ffffffff84004efc:	1101                	add	sp,sp,-32
ffffffff84004efe:	ec06                	sd	ra,24(sp)
ffffffff84004f00:	e822                	sd	s0,16(sp)
ffffffff84004f02:	e426                	sd	s1,8(sp)
ffffffff84004f04:	842a                	mv	s0,a0
ffffffff84004f06:	84ae                	mv	s1,a1
ffffffff84004f08:	f17ff0ef          	jal	ffffffff84004e1e <tcbSchedDequeue>
ffffffff84004f0c:	14943c23          	sd	s1,344(s0)
ffffffff84004f10:	11843783          	ld	a5,280(s0)
ffffffff84004f14:	8bbd                	and	a5,a5,15
ffffffff84004f16:	17fd                	add	a5,a5,-1
ffffffff84004f18:	4705                	li	a4,1
ffffffff84004f1a:	00f77b63          	bgeu	a4,a5,ffffffff84004f30 <setDomain+0x34>
ffffffff84004f1e:	a801b783          	ld	a5,-1408(gp) # ffffffff84008e98 <ksCurThread>
ffffffff84004f22:	00878b63          	beq	a5,s0,ffffffff84004f38 <setDomain+0x3c>
ffffffff84004f26:	60e2                	ld	ra,24(sp)
ffffffff84004f28:	6442                	ld	s0,16(sp)
ffffffff84004f2a:	64a2                	ld	s1,8(sp)
ffffffff84004f2c:	6105                	add	sp,sp,32
ffffffff84004f2e:	8082                	ret
ffffffff84004f30:	8522                	mv	a0,s0
ffffffff84004f32:	9adff0ef          	jal	ffffffff840048de <tcbSchedEnqueue>
ffffffff84004f36:	b7e5                	j	ffffffff84004f1e <setDomain+0x22>
ffffffff84004f38:	a3bff0ef          	jal	ffffffff84004972 <rescheduleRequired>
ffffffff84004f3c:	b7ed                	j	ffffffff84004f26 <setDomain+0x2a>

ffffffff84004f3e <setPriority>:
ffffffff84004f3e:	1101                	add	sp,sp,-32
ffffffff84004f40:	ec06                	sd	ra,24(sp)
ffffffff84004f42:	e822                	sd	s0,16(sp)
ffffffff84004f44:	e426                	sd	s1,8(sp)
ffffffff84004f46:	842a                	mv	s0,a0
ffffffff84004f48:	84ae                	mv	s1,a1
ffffffff84004f4a:	ed5ff0ef          	jal	ffffffff84004e1e <tcbSchedDequeue>
ffffffff84004f4e:	16943423          	sd	s1,360(s0)
ffffffff84004f52:	11843783          	ld	a5,280(s0)
ffffffff84004f56:	8bbd                	and	a5,a5,15
ffffffff84004f58:	17fd                	add	a5,a5,-1
ffffffff84004f5a:	4705                	li	a4,1
ffffffff84004f5c:	00f77763          	bgeu	a4,a5,ffffffff84004f6a <setPriority+0x2c>
ffffffff84004f60:	60e2                	ld	ra,24(sp)
ffffffff84004f62:	6442                	ld	s0,16(sp)
ffffffff84004f64:	64a2                	ld	s1,8(sp)
ffffffff84004f66:	6105                	add	sp,sp,32
ffffffff84004f68:	8082                	ret
ffffffff84004f6a:	a801b783          	ld	a5,-1408(gp) # ffffffff84008e98 <ksCurThread>
ffffffff84004f6e:	00878663          	beq	a5,s0,ffffffff84004f7a <setPriority+0x3c>
ffffffff84004f72:	8522                	mv	a0,s0
ffffffff84004f74:	cebff0ef          	jal	ffffffff84004c5e <possibleSwitchTo>
ffffffff84004f78:	b7e5                	j	ffffffff84004f60 <setPriority+0x22>
ffffffff84004f7a:	9f9ff0ef          	jal	ffffffff84004972 <rescheduleRequired>
ffffffff84004f7e:	b7cd                	j	ffffffff84004f60 <setPriority+0x22>

ffffffff84004f80 <tcbEPAppend>:
ffffffff84004f80:	1101                	add	sp,sp,-32
ffffffff84004f82:	87aa                	mv	a5,a0
ffffffff84004f84:	c581                	beqz	a1,ffffffff84004f8c <tcbEPAppend+0xc>
ffffffff84004f86:	852e                	mv	a0,a1
ffffffff84004f88:	18f63c23          	sd	a5,408(a2)
ffffffff84004f8c:	1ac7b023          	sd	a2,416(a5)
ffffffff84004f90:	1807bc23          	sd	zero,408(a5)
ffffffff84004f94:	85be                	mv	a1,a5
ffffffff84004f96:	6105                	add	sp,sp,32
ffffffff84004f98:	8082                	ret

ffffffff84004f9a <tcbEPDequeue>:
ffffffff84004f9a:	1101                	add	sp,sp,-32
ffffffff84004f9c:	87aa                	mv	a5,a0
ffffffff84004f9e:	e02e                	sd	a1,0(sp)
ffffffff84004fa0:	85b2                	mv	a1,a2
ffffffff84004fa2:	1a053703          	ld	a4,416(a0)
ffffffff84004fa6:	cf19                	beqz	a4,ffffffff84004fc4 <tcbEPDequeue+0x2a>
ffffffff84004fa8:	6502                	ld	a0,0(sp)
ffffffff84004faa:	1987b683          	ld	a3,408(a5)
ffffffff84004fae:	18d73c23          	sd	a3,408(a4)
ffffffff84004fb2:	1987b703          	ld	a4,408(a5)
ffffffff84004fb6:	cb11                	beqz	a4,ffffffff84004fca <tcbEPDequeue+0x30>
ffffffff84004fb8:	1a07b783          	ld	a5,416(a5)
ffffffff84004fbc:	1af73023          	sd	a5,416(a4)
ffffffff84004fc0:	6105                	add	sp,sp,32
ffffffff84004fc2:	8082                	ret
ffffffff84004fc4:	19853503          	ld	a0,408(a0)
ffffffff84004fc8:	b7ed                	j	ffffffff84004fb2 <tcbEPDequeue+0x18>
ffffffff84004fca:	1a07b583          	ld	a1,416(a5)
ffffffff84004fce:	bfcd                	j	ffffffff84004fc0 <tcbEPDequeue+0x26>

ffffffff84004fd0 <cancelBadgedSends>:
ffffffff84004fd0:	715d                	add	sp,sp,-80
ffffffff84004fd2:	e486                	sd	ra,72(sp)
ffffffff84004fd4:	e0a2                	sd	s0,64(sp)
ffffffff84004fd6:	fc26                	sd	s1,56(sp)
ffffffff84004fd8:	f84a                	sd	s2,48(sp)
ffffffff84004fda:	f44e                	sd	s3,40(sp)
ffffffff84004fdc:	f052                	sd	s4,32(sp)
ffffffff84004fde:	ec56                	sd	s5,24(sp)
ffffffff84004fe0:	611c                	ld	a5,0(a0)
ffffffff84004fe2:	0037f693          	and	a3,a5,3
ffffffff84004fe6:	4705                	li	a4,1
ffffffff84004fe8:	00e68663          	beq	a3,a4,ffffffff84004ff4 <cancelBadgedSends+0x24>
ffffffff84004fec:	8b85                	and	a5,a5,1
ffffffff84004fee:	c3d5                	beqz	a5,ffffffff84005092 <cancelBadgedSends+0xc2>
ffffffff84004ff0:	861fd0ef          	jal	ffffffff84002850 <halt>
ffffffff84004ff4:	892a                	mv	s2,a0
ffffffff84004ff6:	8a2e                	mv	s4,a1
ffffffff84004ff8:	6500                	ld	s0,8(a0)
ffffffff84004ffa:	84a2                	mv	s1,s0
ffffffff84004ffc:	f8000737          	lui	a4,0xf8000
ffffffff84005000:	8365                	srl	a4,a4,0x19
ffffffff84005002:	8f7d                	and	a4,a4,a5
ffffffff84005004:	0267d693          	srl	a3,a5,0x26
ffffffff84005008:	8a85                	and	a3,a3,1
ffffffff8400500a:	c681                	beqz	a3,ffffffff84005012 <cancelBadgedSends+0x42>
ffffffff8400500c:	56fd                	li	a3,-1
ffffffff8400500e:	169e                	sll	a3,a3,0x27
ffffffff84005010:	8f55                	or	a4,a4,a3
ffffffff84005012:	89ba                	mv	s3,a4
ffffffff84005014:	00093423          	sd	zero,8(s2)
ffffffff84005018:	939d                	srl	a5,a5,0x27
ffffffff8400501a:	179e                	sll	a5,a5,0x27
ffffffff8400501c:	00f93023          	sd	a5,0(s2)
ffffffff84005020:	e811                	bnez	s0,ffffffff84005034 <cancelBadgedSends+0x64>
ffffffff84005022:	00093423          	sd	zero,8(s2)
ffffffff84005026:	f80006b7          	lui	a3,0xf8000
ffffffff8400502a:	82e5                	srl	a3,a3,0x19
ffffffff8400502c:	8f75                	and	a4,a4,a3
ffffffff8400502e:	8fd9                	or	a5,a5,a4
ffffffff84005030:	a8a9                	j	ffffffff8400508a <cancelBadgedSends+0xba>
ffffffff84005032:	c80d                	beqz	s0,ffffffff84005064 <cancelBadgedSends+0x94>
ffffffff84005034:	12843783          	ld	a5,296(s0)
ffffffff84005038:	8aa2                	mv	s5,s0
ffffffff8400503a:	19843403          	ld	s0,408(s0)
ffffffff8400503e:	fefa1ae3          	bne	s4,a5,ffffffff84005032 <cancelBadgedSends+0x62>
ffffffff84005042:	4589                	li	a1,2
ffffffff84005044:	8556                	mv	a0,s5
ffffffff84005046:	97fff0ef          	jal	ffffffff840049c4 <setThreadState>
ffffffff8400504a:	8556                	mv	a0,s5
ffffffff8400504c:	893ff0ef          	jal	ffffffff840048de <tcbSchedEnqueue>
ffffffff84005050:	85a6                	mv	a1,s1
ffffffff84005052:	864e                	mv	a2,s3
ffffffff84005054:	8556                	mv	a0,s5
ffffffff84005056:	f45ff0ef          	jal	ffffffff84004f9a <tcbEPDequeue>
ffffffff8400505a:	84aa                	mv	s1,a0
ffffffff8400505c:	89ae                	mv	s3,a1
ffffffff8400505e:	e02a                	sd	a0,0(sp)
ffffffff84005060:	e42e                	sd	a1,8(sp)
ffffffff84005062:	bfc1                	j	ffffffff84005032 <cancelBadgedSends+0x62>
ffffffff84005064:	00993423          	sd	s1,8(s2)
ffffffff84005068:	00093783          	ld	a5,0(s2)
ffffffff8400506c:	577d                	li	a4,-1
ffffffff8400506e:	171e                	sll	a4,a4,0x27
ffffffff84005070:	070d                	add	a4,a4,3 # fffffffff8000003 <ki_end+0x73fe0003>
ffffffff84005072:	8ff9                	and	a5,a5,a4
ffffffff84005074:	f8000737          	lui	a4,0xf8000
ffffffff84005078:	8365                	srl	a4,a4,0x19
ffffffff8400507a:	00e9f9b3          	and	s3,s3,a4
ffffffff8400507e:	0137e7b3          	or	a5,a5,s3
ffffffff84005082:	c481                	beqz	s1,ffffffff8400508a <cancelBadgedSends+0xba>
ffffffff84005084:	9bf1                	and	a5,a5,-4
ffffffff84005086:	0017e793          	or	a5,a5,1
ffffffff8400508a:	00f93023          	sd	a5,0(s2)
ffffffff8400508e:	8e5ff0ef          	jal	ffffffff84004972 <rescheduleRequired>
ffffffff84005092:	60a6                	ld	ra,72(sp)
ffffffff84005094:	6406                	ld	s0,64(sp)
ffffffff84005096:	74e2                	ld	s1,56(sp)
ffffffff84005098:	7942                	ld	s2,48(sp)
ffffffff8400509a:	79a2                	ld	s3,40(sp)
ffffffff8400509c:	7a02                	ld	s4,32(sp)
ffffffff8400509e:	6ae2                	ld	s5,24(sp)
ffffffff840050a0:	6161                	add	sp,sp,80
ffffffff840050a2:	8082                	ret

ffffffff840050a4 <invokeCNodeCancelBadgedSends>:
ffffffff840050a4:	1101                	add	sp,sp,-32
ffffffff840050a6:	ec06                	sd	ra,24(sp)
ffffffff840050a8:	e02a                	sd	a0,0(sp)
ffffffff840050aa:	cd81                	beqz	a1,ffffffff840050c2 <invokeCNodeCancelBadgedSends+0x1e>
ffffffff840050ac:	87aa                	mv	a5,a0
ffffffff840050ae:	0566                	sll	a0,a0,0x19
ffffffff840050b0:	8165                	srl	a0,a0,0x19
ffffffff840050b2:	9399                	srl	a5,a5,0x26
ffffffff840050b4:	8b85                	and	a5,a5,1
ffffffff840050b6:	c781                	beqz	a5,ffffffff840050be <invokeCNodeCancelBadgedSends+0x1a>
ffffffff840050b8:	57fd                	li	a5,-1
ffffffff840050ba:	179e                	sll	a5,a5,0x27
ffffffff840050bc:	8d5d                	or	a0,a0,a5
ffffffff840050be:	f13ff0ef          	jal	ffffffff84004fd0 <cancelBadgedSends>
ffffffff840050c2:	4501                	li	a0,0
ffffffff840050c4:	60e2                	ld	ra,24(sp)
ffffffff840050c6:	6105                	add	sp,sp,32
ffffffff840050c8:	8082                	ret

ffffffff840050ca <cancelSignal>:
ffffffff840050ca:	7179                	add	sp,sp,-48
ffffffff840050cc:	f406                	sd	ra,40(sp)
ffffffff840050ce:	f022                	sd	s0,32(sp)
ffffffff840050d0:	ec26                	sd	s1,24(sp)
ffffffff840050d2:	84aa                	mv	s1,a0
ffffffff840050d4:	842e                	mv	s0,a1
ffffffff840050d6:	659c                	ld	a5,8(a1)
ffffffff840050d8:	01979593          	sll	a1,a5,0x19
ffffffff840050dc:	81e5                	srl	a1,a1,0x19
ffffffff840050de:	9399                	srl	a5,a5,0x26
ffffffff840050e0:	8b85                	and	a5,a5,1
ffffffff840050e2:	c781                	beqz	a5,ffffffff840050ea <cancelSignal+0x20>
ffffffff840050e4:	57fd                	li	a5,-1
ffffffff840050e6:	179e                	sll	a5,a5,0x27
ffffffff840050e8:	8ddd                	or	a1,a1,a5
ffffffff840050ea:	601c                	ld	a5,0(s0)
ffffffff840050ec:	0197d613          	srl	a2,a5,0x19
ffffffff840050f0:	0007d563          	bgez	a5,ffffffff840050fa <cancelSignal+0x30>
ffffffff840050f4:	57fd                	li	a5,-1
ffffffff840050f6:	179e                	sll	a5,a5,0x27
ffffffff840050f8:	8e5d                	or	a2,a2,a5
ffffffff840050fa:	8526                	mv	a0,s1
ffffffff840050fc:	e9fff0ef          	jal	ffffffff84004f9a <tcbEPDequeue>
ffffffff84005100:	6418                	ld	a4,8(s0)
ffffffff84005102:	57fd                	li	a5,-1
ffffffff84005104:	02779693          	sll	a3,a5,0x27
ffffffff84005108:	8f75                	and	a4,a4,a3
ffffffff8400510a:	83e5                	srl	a5,a5,0x19
ffffffff8400510c:	8fe9                	and	a5,a5,a0
ffffffff8400510e:	8fd9                	or	a5,a5,a4
ffffffff84005110:	e41c                	sd	a5,8(s0)
ffffffff84005112:	601c                	ld	a5,0(s0)
ffffffff84005114:	179e                	sll	a5,a5,0x27
ffffffff84005116:	939d                	srl	a5,a5,0x27
ffffffff84005118:	05e6                	sll	a1,a1,0x19
ffffffff8400511a:	8fcd                	or	a5,a5,a1
ffffffff8400511c:	c919                	beqz	a0,ffffffff84005132 <cancelSignal+0x68>
ffffffff8400511e:	e01c                	sd	a5,0(s0)
ffffffff84005120:	4581                	li	a1,0
ffffffff84005122:	8526                	mv	a0,s1
ffffffff84005124:	8a1ff0ef          	jal	ffffffff840049c4 <setThreadState>
ffffffff84005128:	70a2                	ld	ra,40(sp)
ffffffff8400512a:	7402                	ld	s0,32(sp)
ffffffff8400512c:	64e2                	ld	s1,24(sp)
ffffffff8400512e:	6145                	add	sp,sp,48
ffffffff84005130:	8082                	ret
ffffffff84005132:	9bf1                	and	a5,a5,-4
ffffffff84005134:	b7ed                	j	ffffffff8400511e <cancelSignal+0x54>

ffffffff84005136 <cancelIPC>:
ffffffff84005136:	7179                	add	sp,sp,-48
ffffffff84005138:	f406                	sd	ra,40(sp)
ffffffff8400513a:	f022                	sd	s0,32(sp)
ffffffff8400513c:	ec26                	sd	s1,24(sp)
ffffffff8400513e:	842a                	mv	s0,a0
ffffffff84005140:	11853703          	ld	a4,280(a0)
ffffffff84005144:	00f77793          	and	a5,a4,15
ffffffff84005148:	4695                	li	a3,5
ffffffff8400514a:	08d78d63          	beq	a5,a3,ffffffff840051e4 <cancelIPC+0xae>
ffffffff8400514e:	06f6e863          	bltu	a3,a5,ffffffff840051be <cancelIPC+0x88>
ffffffff84005152:	17f5                	add	a5,a5,-3
ffffffff84005154:	4685                	li	a3,1
ffffffff84005156:	04f6ef63          	bltu	a3,a5,ffffffff840051b4 <cancelIPC+0x7e>
ffffffff8400515a:	e00007b7          	lui	a5,0xe0000
ffffffff8400515e:	83e5                	srl	a5,a5,0x19
ffffffff84005160:	8ff9                	and	a5,a5,a4
ffffffff84005162:	9319                	srl	a4,a4,0x26
ffffffff84005164:	8b05                	and	a4,a4,1
ffffffff84005166:	c701                	beqz	a4,ffffffff8400516e <cancelIPC+0x38>
ffffffff84005168:	577d                	li	a4,-1
ffffffff8400516a:	171e                	sll	a4,a4,0x27
ffffffff8400516c:	8fd9                	or	a5,a5,a4
ffffffff8400516e:	84be                	mv	s1,a5
ffffffff84005170:	678c                	ld	a1,8(a5)
ffffffff84005172:	639c                	ld	a5,0(a5)
ffffffff84005174:	f8000637          	lui	a2,0xf8000
ffffffff84005178:	8265                	srl	a2,a2,0x19
ffffffff8400517a:	8e7d                	and	a2,a2,a5
ffffffff8400517c:	9399                	srl	a5,a5,0x26
ffffffff8400517e:	8b85                	and	a5,a5,1
ffffffff84005180:	c781                	beqz	a5,ffffffff84005188 <cancelIPC+0x52>
ffffffff84005182:	57fd                	li	a5,-1
ffffffff84005184:	179e                	sll	a5,a5,0x27
ffffffff84005186:	8e5d                	or	a2,a2,a5
ffffffff84005188:	8522                	mv	a0,s0
ffffffff8400518a:	e11ff0ef          	jal	ffffffff84004f9a <tcbEPDequeue>
ffffffff8400518e:	e02a                	sd	a0,0(sp)
ffffffff84005190:	e42e                	sd	a1,8(sp)
ffffffff84005192:	e488                	sd	a0,8(s1)
ffffffff84005194:	609c                	ld	a5,0(s1)
ffffffff84005196:	577d                	li	a4,-1
ffffffff84005198:	171e                	sll	a4,a4,0x27
ffffffff8400519a:	070d                	add	a4,a4,3 # fffffffff8000003 <ki_end+0x73fe0003>
ffffffff8400519c:	8ff9                	and	a5,a5,a4
ffffffff8400519e:	f8000737          	lui	a4,0xf8000
ffffffff840051a2:	8365                	srl	a4,a4,0x19
ffffffff840051a4:	8df9                	and	a1,a1,a4
ffffffff840051a6:	8fcd                	or	a5,a5,a1
ffffffff840051a8:	cd05                	beqz	a0,ffffffff840051e0 <cancelIPC+0xaa>
ffffffff840051aa:	e09c                	sd	a5,0(s1)
ffffffff840051ac:	4581                	li	a1,0
ffffffff840051ae:	8522                	mv	a0,s0
ffffffff840051b0:	815ff0ef          	jal	ffffffff840049c4 <setThreadState>
ffffffff840051b4:	70a2                	ld	ra,40(sp)
ffffffff840051b6:	7402                	ld	s0,32(sp)
ffffffff840051b8:	64e2                	ld	s1,24(sp)
ffffffff840051ba:	6145                	add	sp,sp,48
ffffffff840051bc:	8082                	ret
ffffffff840051be:	4699                	li	a3,6
ffffffff840051c0:	fed79ae3          	bne	a5,a3,ffffffff840051b4 <cancelIPC+0x7e>
ffffffff840051c4:	e00005b7          	lui	a1,0xe0000
ffffffff840051c8:	81e5                	srl	a1,a1,0x19
ffffffff840051ca:	8df9                	and	a1,a1,a4
ffffffff840051cc:	9319                	srl	a4,a4,0x26
ffffffff840051ce:	8b05                	and	a4,a4,1
ffffffff840051d0:	c701                	beqz	a4,ffffffff840051d8 <cancelIPC+0xa2>
ffffffff840051d2:	57fd                	li	a5,-1
ffffffff840051d4:	179e                	sll	a5,a5,0x27
ffffffff840051d6:	8ddd                	or	a1,a1,a5
ffffffff840051d8:	8522                	mv	a0,s0
ffffffff840051da:	ef1ff0ef          	jal	ffffffff840050ca <cancelSignal>
ffffffff840051de:	bfd9                	j	ffffffff840051b4 <cancelIPC+0x7e>
ffffffff840051e0:	9bf1                	and	a5,a5,-4
ffffffff840051e2:	b7e1                	j	ffffffff840051aa <cancelIPC+0x74>
ffffffff840051e4:	12053c23          	sd	zero,312(a0)
ffffffff840051e8:	14053023          	sd	zero,320(a0)
ffffffff840051ec:	c0057413          	and	s0,a0,-1024
ffffffff840051f0:	6c3c                	ld	a5,88(s0)
ffffffff840051f2:	f8000537          	lui	a0,0xf8000
ffffffff840051f6:	8165                	srl	a0,a0,0x19
ffffffff840051f8:	8d7d                	and	a0,a0,a5
ffffffff840051fa:	9399                	srl	a5,a5,0x26
ffffffff840051fc:	8b85                	and	a5,a5,1
ffffffff840051fe:	c799                	beqz	a5,ffffffff8400520c <cancelIPC+0xd6>
ffffffff84005200:	57fd                	li	a5,-1
ffffffff84005202:	179e                	sll	a5,a5,0x27
ffffffff84005204:	8d5d                	or	a0,a0,a5
ffffffff84005206:	04f000ef          	jal	ffffffff84005a54 <cteDeleteOne>
ffffffff8400520a:	b76d                	j	ffffffff840051b4 <cancelIPC+0x7e>
ffffffff8400520c:	d545                	beqz	a0,ffffffff840051b4 <cancelIPC+0x7e>
ffffffff8400520e:	bfe5                	j	ffffffff84005206 <cancelIPC+0xd0>

ffffffff84005210 <suspend>:
ffffffff84005210:	1141                	add	sp,sp,-16
ffffffff84005212:	e406                	sd	ra,8(sp)
ffffffff84005214:	e022                	sd	s0,0(sp)
ffffffff84005216:	842a                	mv	s0,a0
ffffffff84005218:	f1fff0ef          	jal	ffffffff84005136 <cancelIPC>
ffffffff8400521c:	11843783          	ld	a5,280(s0)
ffffffff84005220:	8bbd                	and	a5,a5,15
ffffffff84005222:	4705                	li	a4,1
ffffffff84005224:	00e78d63          	beq	a5,a4,ffffffff8400523e <suspend+0x2e>
ffffffff84005228:	4581                	li	a1,0
ffffffff8400522a:	8522                	mv	a0,s0
ffffffff8400522c:	f98ff0ef          	jal	ffffffff840049c4 <setThreadState>
ffffffff84005230:	8522                	mv	a0,s0
ffffffff84005232:	bedff0ef          	jal	ffffffff84004e1e <tcbSchedDequeue>
ffffffff84005236:	60a2                	ld	ra,8(sp)
ffffffff84005238:	6402                	ld	s0,0(sp)
ffffffff8400523a:	0141                	add	sp,sp,16
ffffffff8400523c:	8082                	ret
ffffffff8400523e:	11043783          	ld	a5,272(s0)
ffffffff84005242:	10f43423          	sd	a5,264(s0)
ffffffff84005246:	b7cd                	j	ffffffff84005228 <suspend+0x18>

ffffffff84005248 <finaliseCap>:
ffffffff84005248:	7179                	add	sp,sp,-48
ffffffff8400524a:	f406                	sd	ra,40(sp)
ffffffff8400524c:	f022                	sd	s0,32(sp)
ffffffff8400524e:	ec26                	sd	s1,24(sp)
ffffffff84005250:	e84a                	sd	s2,16(sp)
ffffffff84005252:	842a                	mv	s0,a0
ffffffff84005254:	e02e                	sd	a1,0(sp)
ffffffff84005256:	e432                	sd	a2,8(sp)
ffffffff84005258:	8932                	mv	s2,a2
ffffffff8400525a:	84ae                	mv	s1,a1
ffffffff8400525c:	03b5d793          	srl	a5,a1,0x3b
ffffffff84005260:	0017f593          	and	a1,a5,1
ffffffff84005264:	ed91                	bnez	a1,ffffffff84005280 <finaliseCap+0x38>
ffffffff84005266:	4651                	li	a2,20
ffffffff84005268:	08f66f63          	bltu	a2,a5,ffffffff84005306 <finaliseCap+0xbe>
ffffffff8400526c:	00279613          	sll	a2,a5,0x2
ffffffff84005270:	00004597          	auipc	a1,0x4
ffffffff84005274:	44058593          	add	a1,a1,1088 # ffffffff840096b0 <platform_interrupt_t+0x128>
ffffffff84005278:	962e                	add	a2,a2,a1
ffffffff8400527a:	4210                	lw	a2,0(a2)
ffffffff8400527c:	962e                	add	a2,a2,a1
ffffffff8400527e:	8602                	jr	a2
ffffffff84005280:	85a6                	mv	a1,s1
ffffffff84005282:	84efe0ef          	jal	ffffffff840032d0 <Arch_finaliseCap>
ffffffff84005286:	8522                	mv	a0,s0
ffffffff84005288:	70a2                	ld	ra,40(sp)
ffffffff8400528a:	7402                	ld	s0,32(sp)
ffffffff8400528c:	64e2                	ld	s1,24(sp)
ffffffff8400528e:	6942                	ld	s2,16(sp)
ffffffff84005290:	6145                	add	sp,sp,48
ffffffff84005292:	8082                	ret
ffffffff84005294:	ce81                	beqz	a3,ffffffff840052ac <finaliseCap+0x64>
ffffffff84005296:	01949513          	sll	a0,s1,0x19
ffffffff8400529a:	8165                	srl	a0,a0,0x19
ffffffff8400529c:	9099                	srl	s1,s1,0x26
ffffffff8400529e:	8885                	and	s1,s1,1
ffffffff840052a0:	c481                	beqz	s1,ffffffff840052a8 <finaliseCap+0x60>
ffffffff840052a2:	57fd                	li	a5,-1
ffffffff840052a4:	179e                	sll	a5,a5,0x27
ffffffff840052a6:	8d5d                	or	a0,a0,a5
ffffffff840052a8:	9efff0ef          	jal	ffffffff84004c96 <cancelAllIPC>
ffffffff840052ac:	00043023          	sd	zero,0(s0)
ffffffff840052b0:	00043423          	sd	zero,8(s0)
ffffffff840052b4:	00043823          	sd	zero,16(s0)
ffffffff840052b8:	00043c23          	sd	zero,24(s0)
ffffffff840052bc:	b7e9                	j	ffffffff84005286 <finaliseCap+0x3e>
ffffffff840052be:	c295                	beqz	a3,ffffffff840052e2 <finaliseCap+0x9a>
ffffffff840052c0:	01949913          	sll	s2,s1,0x19
ffffffff840052c4:	01995913          	srl	s2,s2,0x19
ffffffff840052c8:	9099                	srl	s1,s1,0x26
ffffffff840052ca:	8885                	and	s1,s1,1
ffffffff840052cc:	c489                	beqz	s1,ffffffff840052d6 <finaliseCap+0x8e>
ffffffff840052ce:	57fd                	li	a5,-1
ffffffff840052d0:	179e                	sll	a5,a5,0x27
ffffffff840052d2:	00f96933          	or	s2,s2,a5
ffffffff840052d6:	854a                	mv	a0,s2
ffffffff840052d8:	a97fe0ef          	jal	ffffffff84003d6e <unbindMaybeNotification>
ffffffff840052dc:	854a                	mv	a0,s2
ffffffff840052de:	9f7ff0ef          	jal	ffffffff84004cd4 <cancelAllSignals>
ffffffff840052e2:	00043023          	sd	zero,0(s0)
ffffffff840052e6:	00043423          	sd	zero,8(s0)
ffffffff840052ea:	00043823          	sd	zero,16(s0)
ffffffff840052ee:	00043c23          	sd	zero,24(s0)
ffffffff840052f2:	bf51                	j	ffffffff84005286 <finaliseCap+0x3e>
ffffffff840052f4:	00053023          	sd	zero,0(a0) # fffffffff8000000 <ki_end+0x73fe0000>
ffffffff840052f8:	00053423          	sd	zero,8(a0)
ffffffff840052fc:	00053823          	sd	zero,16(a0)
ffffffff84005300:	00053c23          	sd	zero,24(a0)
ffffffff84005304:	b749                	j	ffffffff84005286 <finaliseCap+0x3e>
ffffffff84005306:	ef31                	bnez	a4,ffffffff84005362 <finaliseCap+0x11a>
ffffffff84005308:	4741                	li	a4,16
ffffffff8400530a:	0ae78f63          	beq	a5,a4,ffffffff840053c8 <finaliseCap+0x180>
ffffffff8400530e:	04f76c63          	bltu	a4,a5,ffffffff84005366 <finaliseCap+0x11e>
ffffffff84005312:	4729                	li	a4,10
ffffffff84005314:	06e78463          	beq	a5,a4,ffffffff8400537c <finaliseCap+0x134>
ffffffff84005318:	4731                	li	a4,12
ffffffff8400531a:	0ae79863          	bne	a5,a4,ffffffff840053ca <finaliseCap+0x182>
ffffffff8400531e:	c6d5                	beqz	a3,ffffffff840053ca <finaliseCap+0x182>
ffffffff84005320:	01949913          	sll	s2,s1,0x19
ffffffff84005324:	01995913          	srl	s2,s2,0x19
ffffffff84005328:	0264d793          	srl	a5,s1,0x26
ffffffff8400532c:	8b85                	and	a5,a5,1
ffffffff8400532e:	c789                	beqz	a5,ffffffff84005338 <finaliseCap+0xf0>
ffffffff84005330:	57fd                	li	a5,-1
ffffffff84005332:	179e                	sll	a5,a5,0x27
ffffffff84005334:	00f96933          	or	s2,s2,a5
ffffffff84005338:	854a                	mv	a0,s2
ffffffff8400533a:	a5bfe0ef          	jal	ffffffff84003d94 <unbindNotification>
ffffffff8400533e:	854a                	mv	a0,s2
ffffffff84005340:	ed1ff0ef          	jal	ffffffff84005210 <suspend>
ffffffff84005344:	57e5                	li	a5,-7
ffffffff84005346:	17f2                	sll	a5,a5,0x3c
ffffffff84005348:	04078793          	add	a5,a5,64 # ffffffffe0000040 <ki_end+0x5bfe0040>
ffffffff8400534c:	e01c                	sd	a5,0(s0)
ffffffff8400534e:	c0097793          	and	a5,s2,-1024
ffffffff84005352:	0057c793          	xor	a5,a5,5
ffffffff84005356:	e41c                	sd	a5,8(s0)
ffffffff84005358:	00043823          	sd	zero,16(s0)
ffffffff8400535c:	00043c23          	sd	zero,24(s0)
ffffffff84005360:	b71d                	j	ffffffff84005286 <finaliseCap+0x3e>
ffffffff84005362:	ceefd0ef          	jal	ffffffff84002850 <halt>
ffffffff84005366:	4749                	li	a4,18
ffffffff84005368:	06e79163          	bne	a5,a4,ffffffff840053ca <finaliseCap+0x182>
ffffffff8400536c:	e004                	sd	s1,0(s0)
ffffffff8400536e:	01243423          	sd	s2,8(s0)
ffffffff84005372:	00043823          	sd	zero,16(s0)
ffffffff84005376:	00043c23          	sd	zero,24(s0)
ffffffff8400537a:	b731                	j	ffffffff84005286 <finaliseCap+0x3e>
ffffffff8400537c:	c6b9                	beqz	a3,ffffffff840053ca <finaliseCap+0x182>
ffffffff8400537e:	02f4d713          	srl	a4,s1,0x2f
ffffffff84005382:	03f77613          	and	a2,a4,63
ffffffff84005386:	8732                	mv	a4,a2
ffffffff84005388:	4685                	li	a3,1
ffffffff8400538a:	00c695b3          	sll	a1,a3,a2
ffffffff8400538e:	0486                	sll	s1,s1,0x1
ffffffff84005390:	fc0007b7          	lui	a5,0xfc000
ffffffff84005394:	83e5                	srl	a5,a5,0x19
ffffffff84005396:	8fe5                	and	a5,a5,s1
ffffffff84005398:	169a                	sll	a3,a3,0x26
ffffffff8400539a:	8cf5                	and	s1,s1,a3
ffffffff8400539c:	c481                	beqz	s1,ffffffff840053a4 <finaliseCap+0x15c>
ffffffff8400539e:	56fd                	li	a3,-1
ffffffff840053a0:	169e                	sll	a3,a3,0x27
ffffffff840053a2:	8fd5                	or	a5,a5,a3
ffffffff840053a4:	56e5                	li	a3,-7
ffffffff840053a6:	16f2                	sll	a3,a3,0x3c
ffffffff840053a8:	8ed1                	or	a3,a3,a2
ffffffff840053aa:	e014                	sd	a3,0(s0)
ffffffff840053ac:	0017069b          	addw	a3,a4,1 # fffffffff8000001 <ki_end+0x73fe0001>
ffffffff840053b0:	577d                	li	a4,-1
ffffffff840053b2:	00d71733          	sll	a4,a4,a3
ffffffff840053b6:	8fad                	xor	a5,a5,a1
ffffffff840053b8:	8ff9                	and	a5,a5,a4
ffffffff840053ba:	8fad                	xor	a5,a5,a1
ffffffff840053bc:	e41c                	sd	a5,8(s0)
ffffffff840053be:	00043823          	sd	zero,16(s0)
ffffffff840053c2:	00043c23          	sd	zero,24(s0)
ffffffff840053c6:	b5c1                	j	ffffffff84005286 <finaliseCap+0x3e>
ffffffff840053c8:	ea91                	bnez	a3,ffffffff840053dc <finaliseCap+0x194>
ffffffff840053ca:	00043023          	sd	zero,0(s0)
ffffffff840053ce:	00043423          	sd	zero,8(s0)
ffffffff840053d2:	00043823          	sd	zero,16(s0)
ffffffff840053d6:	00043c23          	sd	zero,24(s0)
ffffffff840053da:	b575                	j	ffffffff84005286 <finaliseCap+0x3e>
ffffffff840053dc:	03491513          	sll	a0,s2,0x34
ffffffff840053e0:	9151                	srl	a0,a0,0x34
ffffffff840053e2:	7ac000ef          	jal	ffffffff84005b8e <deletingIRQHandler>
ffffffff840053e6:	00043023          	sd	zero,0(s0)
ffffffff840053ea:	00043423          	sd	zero,8(s0)
ffffffff840053ee:	e804                	sd	s1,16(s0)
ffffffff840053f0:	01243c23          	sd	s2,24(s0)
ffffffff840053f4:	bd49                	j	ffffffff84005286 <finaliseCap+0x3e>

ffffffff840053f6 <cteDelete>:
ffffffff840053f6:	7175                	add	sp,sp,-144
ffffffff840053f8:	e506                	sd	ra,136(sp)
ffffffff840053fa:	e122                	sd	s0,128(sp)
ffffffff840053fc:	fca6                	sd	s1,120(sp)
ffffffff840053fe:	f8ca                	sd	s2,112(sp)
ffffffff84005400:	f4ce                	sd	s3,104(sp)
ffffffff84005402:	f0d2                	sd	s4,96(sp)
ffffffff84005404:	ecd6                	sd	s5,88(sp)
ffffffff84005406:	e8da                	sd	s6,80(sp)
ffffffff84005408:	e4de                	sd	s7,72(sp)
ffffffff8400540a:	e0e2                	sd	s8,64(sp)
ffffffff8400540c:	842a                	mv	s0,a0
ffffffff8400540e:	8a2e                	mv	s4,a1
ffffffff84005410:	44c9                	li	s1,18
ffffffff84005412:	04000993          	li	s3,64
ffffffff84005416:	5afd                	li	s5,-1
ffffffff84005418:	4905                	li	s2,1
ffffffff8400541a:	a081                	j	ffffffff8400545a <cteDelete+0x64>
ffffffff8400541c:	4811                	li	a6,4
ffffffff8400541e:	a895                	j	ffffffff84005492 <cteDelete+0x9c>
ffffffff84005420:	e969                	bnez	a0,ffffffff840054f2 <cteDelete+0xfc>
ffffffff84005422:	6682                	ld	a3,0(sp)
ffffffff84005424:	e014                	sd	a3,0(s0)
ffffffff84005426:	66a2                	ld	a3,8(sp)
ffffffff84005428:	e414                	sd	a3,8(s0)
ffffffff8400542a:	0e0a1963          	bnez	s4,ffffffff8400551c <cteDelete+0x126>
ffffffff8400542e:	08970a63          	beq	a4,s1,ffffffff840054c2 <cteDelete+0xcc>
ffffffff84005432:	601c                	ld	a5,0(s0)
ffffffff84005434:	6408                	ld	a0,8(s0)
ffffffff84005436:	07f7f713          	and	a4,a5,127
ffffffff8400543a:	17370563          	beq	a4,s3,ffffffff840055a4 <cteDelete+0x1ae>
ffffffff8400543e:	03f7f793          	and	a5,a5,63
ffffffff84005442:	2785                	addw	a5,a5,1 # fffffffffc000001 <ki_end+0x77fe0001>
ffffffff84005444:	00f917b3          	sll	a5,s2,a5
ffffffff84005448:	40f007b3          	neg	a5,a5
ffffffff8400544c:	8d7d                	and	a0,a0,a5
ffffffff8400544e:	85a2                	mv	a1,s0
ffffffff84005450:	ebafe0ef          	jal	ffffffff84003b0a <capSwapForDelete>
ffffffff84005454:	d12fe0ef          	jal	ffffffff84003966 <preemptionPoint>
ffffffff84005458:	e14d                	bnez	a0,ffffffff840054fa <cteDelete+0x104>
ffffffff8400545a:	6010                	ld	a2,0(s0)
ffffffff8400545c:	926d                	srl	a2,a2,0x3b
ffffffff8400545e:	ca49                	beqz	a2,ffffffff840054f0 <cteDelete+0xfa>
ffffffff84005460:	8522                	mv	a0,s0
ffffffff84005462:	a60ff0ef          	jal	ffffffff840046c2 <isFinalCapability>
ffffffff84005466:	86aa                	mv	a3,a0
ffffffff84005468:	4701                	li	a4,0
ffffffff8400546a:	600c                	ld	a1,0(s0)
ffffffff8400546c:	6410                	ld	a2,8(s0)
ffffffff8400546e:	850a                	mv	a0,sp
ffffffff84005470:	dd9ff0ef          	jal	ffffffff84005248 <finaliseCap>
ffffffff84005474:	65c2                	ld	a1,16(sp)
ffffffff84005476:	6662                	ld	a2,24(sp)
ffffffff84005478:	6782                	ld	a5,0(sp)
ffffffff8400547a:	68a2                	ld	a7,8(sp)
ffffffff8400547c:	03b7d713          	srl	a4,a5,0x3b
ffffffff84005480:	cb2d                	beqz	a4,ffffffff840054f2 <cteDelete+0xfc>
ffffffff84005482:	02971e63          	bne	a4,s1,ffffffff840054be <cteDelete+0xc8>
ffffffff84005486:	07f7f693          	and	a3,a5,127
ffffffff8400548a:	f93689e3          	beq	a3,s3,ffffffff8400541c <cteDelete+0x26>
ffffffff8400548e:	03f7f813          	and	a6,a5,63
ffffffff84005492:	0805                	add	a6,a6,1
ffffffff84005494:	010a96b3          	sll	a3,s5,a6
ffffffff84005498:	fff6c693          	not	a3,a3
ffffffff8400549c:	0116f6b3          	and	a3,a3,a7
ffffffff840054a0:	854a                	mv	a0,s2
ffffffff840054a2:	debd                	beqz	a3,ffffffff84005420 <cteDelete+0x2a>
ffffffff840054a4:	4501                	li	a0,0
ffffffff840054a6:	f7269de3          	bne	a3,s2,ffffffff84005420 <cteDelete+0x2a>
ffffffff840054aa:	557d                	li	a0,-1
ffffffff840054ac:	01051533          	sll	a0,a0,a6
ffffffff840054b0:	01157533          	and	a0,a0,a7
ffffffff840054b4:	40a40533          	sub	a0,s0,a0
ffffffff840054b8:	00153513          	seqz	a0,a0
ffffffff840054bc:	b795                	j	ffffffff84005420 <cteDelete+0x2a>
ffffffff840054be:	b92fd0ef          	jal	ffffffff84002850 <halt>
ffffffff840054c2:	07f7f713          	and	a4,a5,127
ffffffff840054c6:	01370f63          	beq	a4,s3,ffffffff840054e4 <cteDelete+0xee>
ffffffff840054ca:	03f7f793          	and	a5,a5,63
ffffffff840054ce:	2785                	addw	a5,a5,1
ffffffff840054d0:	00f917b3          	sll	a5,s2,a5
ffffffff840054d4:	40f007b3          	neg	a5,a5
ffffffff840054d8:	0117f7b3          	and	a5,a5,a7
ffffffff840054dc:	f4f41be3          	bne	s0,a5,ffffffff84005432 <cteDelete+0x3c>
ffffffff840054e0:	8552                	mv	a0,s4
ffffffff840054e2:	a821                	j	ffffffff840054fa <cteDelete+0x104>
ffffffff840054e4:	4791                	li	a5,4
ffffffff840054e6:	b7e5                	j	ffffffff840054ce <cteDelete+0xd8>
ffffffff840054e8:	4791                	li	a5,4
ffffffff840054ea:	a069                	j	ffffffff84005574 <cteDelete+0x17e>
ffffffff840054ec:	b64fd0ef          	jal	ffffffff84002850 <halt>
ffffffff840054f0:	85b2                	mv	a1,a2
ffffffff840054f2:	8522                	mv	a0,s0
ffffffff840054f4:	fd0fe0ef          	jal	ffffffff84003cc4 <emptySlot>
ffffffff840054f8:	4501                	li	a0,0
ffffffff840054fa:	60aa                	ld	ra,136(sp)
ffffffff840054fc:	640a                	ld	s0,128(sp)
ffffffff840054fe:	74e6                	ld	s1,120(sp)
ffffffff84005500:	7946                	ld	s2,112(sp)
ffffffff84005502:	79a6                	ld	s3,104(sp)
ffffffff84005504:	7a06                	ld	s4,96(sp)
ffffffff84005506:	6ae6                	ld	s5,88(sp)
ffffffff84005508:	6b46                	ld	s6,80(sp)
ffffffff8400550a:	6ba6                	ld	s7,72(sp)
ffffffff8400550c:	6c06                	ld	s8,64(sp)
ffffffff8400550e:	6149                	add	sp,sp,144
ffffffff84005510:	8082                	ret
ffffffff84005512:	fe0c7b93          	and	s7,s8,-32
ffffffff84005516:	01fc7c13          	and	s8,s8,31
ffffffff8400551a:	a03d                	j	ffffffff84005548 <cteDelete+0x152>
ffffffff8400551c:	601c                	ld	a5,0(s0)
ffffffff8400551e:	00843c03          	ld	s8,8(s0)
ffffffff84005522:	07f7fb13          	and	s6,a5,127
ffffffff84005526:	ff3b06e3          	beq	s6,s3,ffffffff84005512 <cteDelete+0x11c>
ffffffff8400552a:	03f7f793          	and	a5,a5,63
ffffffff8400552e:	0785                	add	a5,a5,1
ffffffff84005530:	00f91bb3          	sll	s7,s2,a5
ffffffff84005534:	41700bb3          	neg	s7,s7
ffffffff84005538:	018bfbb3          	and	s7,s7,s8
ffffffff8400553c:	00fa97b3          	sll	a5,s5,a5
ffffffff84005540:	fff7c793          	not	a5,a5
ffffffff84005544:	0187fc33          	and	s8,a5,s8
ffffffff84005548:	005c1513          	sll	a0,s8,0x5
ffffffff8400554c:	1501                	add	a0,a0,-32
ffffffff8400554e:	4581                	li	a1,0
ffffffff84005550:	955e                	add	a0,a0,s7
ffffffff84005552:	ea5ff0ef          	jal	ffffffff840053f6 <cteDelete>
ffffffff84005556:	f155                	bnez	a0,ffffffff840054fa <cteDelete+0x104>
ffffffff84005558:	601c                	ld	a5,0(s0)
ffffffff8400555a:	03b7d713          	srl	a4,a5,0x3b
ffffffff8400555e:	ee070be3          	beqz	a4,ffffffff84005454 <cteDelete+0x5e>
ffffffff84005562:	f89715e3          	bne	a4,s1,ffffffff840054ec <cteDelete+0xf6>
ffffffff84005566:	6414                	ld	a3,8(s0)
ffffffff84005568:	07f7f613          	and	a2,a5,127
ffffffff8400556c:	f7360ee3          	beq	a2,s3,ffffffff840054e8 <cteDelete+0xf2>
ffffffff84005570:	03f7f793          	and	a5,a5,63
ffffffff84005574:	0785                	add	a5,a5,1
ffffffff84005576:	00f91733          	sll	a4,s2,a5
ffffffff8400557a:	40e00733          	neg	a4,a4
ffffffff8400557e:	8f75                	and	a4,a4,a3
ffffffff84005580:	eceb9ae3          	bne	s7,a4,ffffffff84005454 <cteDelete+0x5e>
ffffffff84005584:	55fd                	li	a1,-1
ffffffff84005586:	00f597b3          	sll	a5,a1,a5
ffffffff8400558a:	fff7c793          	not	a5,a5
ffffffff8400558e:	8efd                	and	a3,a3,a5
ffffffff84005590:	ed8692e3          	bne	a3,s8,ffffffff84005454 <cteDelete+0x5e>
ffffffff84005594:	ed6610e3          	bne	a2,s6,ffffffff84005454 <cteDelete+0x5e>
ffffffff84005598:	1c7d                	add	s8,s8,-1
ffffffff8400559a:	00fc77b3          	and	a5,s8,a5
ffffffff8400559e:	8fd9                	or	a5,a5,a4
ffffffff840055a0:	e41c                	sd	a5,8(s0)
ffffffff840055a2:	bd4d                	j	ffffffff84005454 <cteDelete+0x5e>
ffffffff840055a4:	9901                	and	a0,a0,-32
ffffffff840055a6:	b565                	j	ffffffff8400544e <cteDelete+0x58>

ffffffff840055a8 <invokeCNodeDelete>:
ffffffff840055a8:	1141                	add	sp,sp,-16
ffffffff840055aa:	e406                	sd	ra,8(sp)
ffffffff840055ac:	4585                	li	a1,1
ffffffff840055ae:	e49ff0ef          	jal	ffffffff840053f6 <cteDelete>
ffffffff840055b2:	60a2                	ld	ra,8(sp)
ffffffff840055b4:	0141                	add	sp,sp,16
ffffffff840055b6:	8082                	ret

ffffffff840055b8 <cteRevoke>:
ffffffff840055b8:	7139                	add	sp,sp,-64
ffffffff840055ba:	fc06                	sd	ra,56(sp)
ffffffff840055bc:	f822                	sd	s0,48(sp)
ffffffff840055be:	f426                	sd	s1,40(sp)
ffffffff840055c0:	f04a                	sd	s2,32(sp)
ffffffff840055c2:	ec4e                	sd	s3,24(sp)
ffffffff840055c4:	e852                	sd	s4,16(sp)
ffffffff840055c6:	e456                	sd	s5,8(sp)
ffffffff840055c8:	84aa                	mv	s1,a0
ffffffff840055ca:	6d18                	ld	a4,24(a0)
ffffffff840055cc:	f80007b7          	lui	a5,0xf8000
ffffffff840055d0:	83e5                	srl	a5,a5,0x19
ffffffff840055d2:	00f77533          	and	a0,a4,a5
ffffffff840055d6:	9319                	srl	a4,a4,0x26
ffffffff840055d8:	8b05                	and	a4,a4,1
ffffffff840055da:	c339                	beqz	a4,ffffffff84005620 <cteRevoke+0x68>
ffffffff840055dc:	547d                	li	s0,-1
ffffffff840055de:	141e                	sll	s0,s0,0x27
ffffffff840055e0:	8c49                	or	s0,s0,a0
ffffffff840055e2:	4985                	li	s3,1
ffffffff840055e4:	f8000937          	lui	s2,0xf8000
ffffffff840055e8:	01995913          	srl	s2,s2,0x19
ffffffff840055ec:	02699a93          	sll	s5,s3,0x26
ffffffff840055f0:	5a7d                	li	s4,-1
ffffffff840055f2:	1a1e                	sll	s4,s4,0x27
ffffffff840055f4:	85a2                	mv	a1,s0
ffffffff840055f6:	8526                	mv	a0,s1
ffffffff840055f8:	f45fe0ef          	jal	ffffffff8400453c <isMDBParentOf>
ffffffff840055fc:	c505                	beqz	a0,ffffffff84005624 <cteRevoke+0x6c>
ffffffff840055fe:	85ce                	mv	a1,s3
ffffffff84005600:	8522                	mv	a0,s0
ffffffff84005602:	df5ff0ef          	jal	ffffffff840053f6 <cteDelete>
ffffffff84005606:	ed19                	bnez	a0,ffffffff84005624 <cteRevoke+0x6c>
ffffffff84005608:	b5efe0ef          	jal	ffffffff84003966 <preemptionPoint>
ffffffff8400560c:	ed01                	bnez	a0,ffffffff84005624 <cteRevoke+0x6c>
ffffffff8400560e:	6c9c                	ld	a5,24(s1)
ffffffff84005610:	0127f533          	and	a0,a5,s2
ffffffff84005614:	0157f7b3          	and	a5,a5,s5
ffffffff84005618:	cf99                	beqz	a5,ffffffff84005636 <cteRevoke+0x7e>
ffffffff8400561a:	01456433          	or	s0,a0,s4
ffffffff8400561e:	bfd9                	j	ffffffff840055f4 <cteRevoke+0x3c>
ffffffff84005620:	842a                	mv	s0,a0
ffffffff84005622:	f161                	bnez	a0,ffffffff840055e2 <cteRevoke+0x2a>
ffffffff84005624:	70e2                	ld	ra,56(sp)
ffffffff84005626:	7442                	ld	s0,48(sp)
ffffffff84005628:	74a2                	ld	s1,40(sp)
ffffffff8400562a:	7902                	ld	s2,32(sp)
ffffffff8400562c:	69e2                	ld	s3,24(sp)
ffffffff8400562e:	6a42                	ld	s4,16(sp)
ffffffff84005630:	6aa2                	ld	s5,8(sp)
ffffffff84005632:	6121                	add	sp,sp,64
ffffffff84005634:	8082                	ret
ffffffff84005636:	d57d                	beqz	a0,ffffffff84005624 <cteRevoke+0x6c>
ffffffff84005638:	842a                	mv	s0,a0
ffffffff8400563a:	bf6d                	j	ffffffff840055f4 <cteRevoke+0x3c>

ffffffff8400563c <invokeCNodeRevoke>:
ffffffff8400563c:	1141                	add	sp,sp,-16
ffffffff8400563e:	e406                	sd	ra,8(sp)
ffffffff84005640:	f79ff0ef          	jal	ffffffff840055b8 <cteRevoke>
ffffffff84005644:	60a2                	ld	ra,8(sp)
ffffffff84005646:	0141                	add	sp,sp,16
ffffffff84005648:	8082                	ret

ffffffff8400564a <decodeCNodeInvocation>:
ffffffff8400564a:	7115                	add	sp,sp,-224
ffffffff8400564c:	ed86                	sd	ra,216(sp)
ffffffff8400564e:	e9a2                	sd	s0,208(sp)
ffffffff84005650:	e5a6                	sd	s1,200(sp)
ffffffff84005652:	e1ca                	sd	s2,192(sp)
ffffffff84005654:	fd4e                	sd	s3,184(sp)
ffffffff84005656:	f952                	sd	s4,176(sp)
ffffffff84005658:	f556                	sd	s5,168(sp)
ffffffff8400565a:	f15a                	sd	s6,160(sp)
ffffffff8400565c:	ed5e                	sd	s7,152(sp)
ffffffff8400565e:	e032                	sd	a2,0(sp)
ffffffff84005660:	e436                	sd	a3,8(sp)
ffffffff84005662:	ff050693          	add	a3,a0,-16
ffffffff84005666:	47a1                	li	a5,8
ffffffff84005668:	04d7e363          	bltu	a5,a3,ffffffff840056ae <decodeCNodeInvocation+0x64>
ffffffff8400566c:	84aa                	mv	s1,a0
ffffffff8400566e:	89ae                	mv	s3,a1
ffffffff84005670:	893a                	mv	s2,a4
ffffffff84005672:	4785                	li	a5,1
ffffffff84005674:	04b7f263          	bgeu	a5,a1,ffffffff840056b8 <decodeCNodeInvocation+0x6e>
ffffffff84005678:	a801b783          	ld	a5,-1408(gp) # ffffffff84008e98 <ksCurThread>
ffffffff8400567c:	73b4                	ld	a3,96(a5)
ffffffff8400567e:	6fb0                	ld	a2,88(a5)
ffffffff84005680:	6502                	ld	a0,0(sp)
ffffffff84005682:	65a2                	ld	a1,8(sp)
ffffffff84005684:	a50fe0ef          	jal	ffffffff840038d4 <lookupTargetSlot>
ffffffff84005688:	842a                	mv	s0,a0
ffffffff8400568a:	f8aa                	sd	a0,112(sp)
ffffffff8400568c:	fcae                	sd	a1,120(sp)
ffffffff8400568e:	e90d                	bnez	a0,ffffffff840056c0 <decodeCNodeInvocation+0x76>
ffffffff84005690:	8a2e                	mv	s4,a1
ffffffff84005692:	ff048793          	add	a5,s1,-16
ffffffff84005696:	4721                	li	a4,8
ffffffff84005698:	02f76463          	bltu	a4,a5,ffffffff840056c0 <decodeCNodeInvocation+0x76>
ffffffff8400569c:	078a                	sll	a5,a5,0x2
ffffffff8400569e:	00004717          	auipc	a4,0x4
ffffffff840056a2:	06670713          	add	a4,a4,102 # ffffffff84009704 <platform_interrupt_t+0x17c>
ffffffff840056a6:	97ba                	add	a5,a5,a4
ffffffff840056a8:	439c                	lw	a5,0(a5)
ffffffff840056aa:	97ba                	add	a5,a5,a4
ffffffff840056ac:	8782                	jr	a5
ffffffff840056ae:	478d                	li	a5,3
ffffffff840056b0:	d4f1b023          	sd	a5,-704(gp) # ffffffff84009158 <current_syscall_error+0x30>
ffffffff840056b4:	440d                	li	s0,3
ffffffff840056b6:	a029                	j	ffffffff840056c0 <decodeCNodeInvocation+0x76>
ffffffff840056b8:	479d                	li	a5,7
ffffffff840056ba:	d4f1b023          	sd	a5,-704(gp) # ffffffff84009158 <current_syscall_error+0x30>
ffffffff840056be:	440d                	li	s0,3
ffffffff840056c0:	8522                	mv	a0,s0
ffffffff840056c2:	60ee                	ld	ra,216(sp)
ffffffff840056c4:	644e                	ld	s0,208(sp)
ffffffff840056c6:	64ae                	ld	s1,200(sp)
ffffffff840056c8:	690e                	ld	s2,192(sp)
ffffffff840056ca:	79ea                	ld	s3,184(sp)
ffffffff840056cc:	7a4a                	ld	s4,176(sp)
ffffffff840056ce:	7aaa                	ld	s5,168(sp)
ffffffff840056d0:	7b0a                	ld	s6,160(sp)
ffffffff840056d2:	6bea                	ld	s7,152(sp)
ffffffff840056d4:	612d                	add	sp,sp,224
ffffffff840056d6:	8082                	ret
ffffffff840056d8:	478d                	li	a5,3
ffffffff840056da:	0737f763          	bgeu	a5,s3,ffffffff84005748 <decodeCNodeInvocation+0xfe>
ffffffff840056de:	8781b783          	ld	a5,-1928(gp) # ffffffff84008c90 <current_extra_caps>
ffffffff840056e2:	c3bd                	beqz	a5,ffffffff84005748 <decodeCNodeInvocation+0xfe>
ffffffff840056e4:	a801b703          	ld	a4,-1408(gp) # ffffffff84008e98 <ksCurThread>
ffffffff840056e8:	06873b03          	ld	s6,104(a4)
ffffffff840056ec:	07073a83          	ld	s5,112(a4)
ffffffff840056f0:	6398                	ld	a4,0(a5)
ffffffff840056f2:	ec3a                	sd	a4,24(sp)
ffffffff840056f4:	679c                	ld	a5,8(a5)
ffffffff840056f6:	f03e                	sd	a5,32(sp)
ffffffff840056f8:	852e                	mv	a0,a1
ffffffff840056fa:	caafe0ef          	jal	ffffffff84003ba4 <ensureEmptySlot>
ffffffff840056fe:	842a                	mv	s0,a0
ffffffff84005700:	f161                	bnez	a0,ffffffff840056c0 <decodeCNodeInvocation+0x76>
ffffffff84005702:	86d6                	mv	a3,s5
ffffffff84005704:	865a                	mv	a2,s6
ffffffff84005706:	6562                	ld	a0,24(sp)
ffffffff84005708:	7582                	ld	a1,32(sp)
ffffffff8400570a:	9b0fe0ef          	jal	ffffffff840038ba <lookupSourceSlot>
ffffffff8400570e:	842a                	mv	s0,a0
ffffffff84005710:	f8aa                	sd	a0,112(sp)
ffffffff84005712:	fcae                	sd	a1,120(sp)
ffffffff84005714:	f555                	bnez	a0,ffffffff840056c0 <decodeCNodeInvocation+0x76>
ffffffff84005716:	8b2e                	mv	s6,a1
ffffffff84005718:	0005bb83          	ld	s7,0(a1)
ffffffff8400571c:	03bbd793          	srl	a5,s7,0x3b
ffffffff84005720:	cb8d                	beqz	a5,ffffffff84005752 <decodeCNodeInvocation+0x108>
ffffffff84005722:	47d5                	li	a5,21
ffffffff84005724:	12f48063          	beq	s1,a5,ffffffff84005844 <decodeCNodeInvocation+0x1fa>
ffffffff84005728:	0497e863          	bltu	a5,s1,ffffffff84005778 <decodeCNodeInvocation+0x12e>
ffffffff8400572c:	47cd                	li	a5,19
ffffffff8400572e:	06f48e63          	beq	s1,a5,ffffffff840057aa <decodeCNodeInvocation+0x160>
ffffffff84005732:	47d1                	li	a5,20
ffffffff84005734:	f8f496e3          	bne	s1,a5,ffffffff840056c0 <decodeCNodeInvocation+0x76>
ffffffff84005738:	4795                	li	a5,5
ffffffff8400573a:	0d37e763          	bltu	a5,s3,ffffffff84005808 <decodeCNodeInvocation+0x1be>
ffffffff8400573e:	479d                	li	a5,7
ffffffff84005740:	d4f1b023          	sd	a5,-704(gp) # ffffffff84009158 <current_syscall_error+0x30>
ffffffff84005744:	440d                	li	s0,3
ffffffff84005746:	bfad                	j	ffffffff840056c0 <decodeCNodeInvocation+0x76>
ffffffff84005748:	479d                	li	a5,7
ffffffff8400574a:	d4f1b023          	sd	a5,-704(gp) # ffffffff84009158 <current_syscall_error+0x30>
ffffffff8400574e:	440d                	li	s0,3
ffffffff84005750:	bf85                	j	ffffffff840056c0 <decodeCNodeInvocation+0x76>
ffffffff84005752:	d1018793          	add	a5,gp,-752 # ffffffff84009128 <current_syscall_error>
ffffffff84005756:	4719                	li	a4,6
ffffffff84005758:	fb98                	sd	a4,48(a5)
ffffffff8400575a:	4705                	li	a4,1
ffffffff8400575c:	f798                	sd	a4,40(a5)
ffffffff8400575e:	d5818713          	add	a4,gp,-680 # ffffffff84009170 <current_lookup_fault>
ffffffff84005762:	002a9793          	sll	a5,s5,0x2
ffffffff84005766:	1fc7f793          	and	a5,a5,508
ffffffff8400576a:	0017e793          	or	a5,a5,1
ffffffff8400576e:	e31c                	sd	a5,0(a4)
ffffffff84005770:	00073423          	sd	zero,8(a4)
ffffffff84005774:	440d                	li	s0,3
ffffffff84005776:	b7a9                	j	ffffffff840056c0 <decodeCNodeInvocation+0x76>
ffffffff84005778:	47d9                	li	a5,22
ffffffff8400577a:	f4f493e3          	bne	s1,a5,ffffffff840056c0 <decodeCNodeInvocation+0x76>
ffffffff8400577e:	4791                	li	a5,4
ffffffff84005780:	0f37f563          	bgeu	a5,s3,ffffffff8400586a <decodeCNodeInvocation+0x220>
ffffffff84005784:	6190                	ld	a2,0(a1)
ffffffff84005786:	6594                	ld	a3,8(a1)
ffffffff84005788:	02893583          	ld	a1,40(s2) # fffffffff8000028 <ki_end+0x73fe0028>
ffffffff8400578c:	4505                	li	a0,1
ffffffff8400578e:	eacfe0ef          	jal	ffffffff84003e3a <updateCapData>
ffffffff84005792:	f42a                	sd	a0,40(sp)
ffffffff84005794:	f82e                	sd	a1,48(sp)
ffffffff84005796:	8baa                	mv	s7,a0
ffffffff84005798:	03b55793          	srl	a5,a0,0x3b
ffffffff8400579c:	2a079663          	bnez	a5,ffffffff84005a48 <decodeCNodeInvocation+0x3fe>
ffffffff840057a0:	478d                	li	a5,3
ffffffff840057a2:	d4f1b023          	sd	a5,-704(gp) # ffffffff84009158 <current_syscall_error+0x30>
ffffffff840057a6:	440d                	li	s0,3
ffffffff840057a8:	bf21                	j	ffffffff840056c0 <decodeCNodeInvocation+0x76>
ffffffff840057aa:	4791                	li	a5,4
ffffffff840057ac:	0137e763          	bltu	a5,s3,ffffffff840057ba <decodeCNodeInvocation+0x170>
ffffffff840057b0:	479d                	li	a5,7
ffffffff840057b2:	d4f1b023          	sd	a5,-704(gp) # ffffffff84009158 <current_syscall_error+0x30>
ffffffff840057b6:	440d                	li	s0,3
ffffffff840057b8:	b721                	j	ffffffff840056c0 <decodeCNodeInvocation+0x76>
ffffffff840057ba:	618c                	ld	a1,0(a1)
ffffffff840057bc:	008b3603          	ld	a2,8(s6)
ffffffff840057c0:	02893503          	ld	a0,40(s2)
ffffffff840057c4:	f06fe0ef          	jal	ffffffff84003eca <maskCapRights>
ffffffff840057c8:	862a                	mv	a2,a0
ffffffff840057ca:	86ae                	mv	a3,a1
ffffffff840057cc:	fc2a                	sd	a0,56(sp)
ffffffff840057ce:	e0ae                	sd	a1,64(sp)
ffffffff840057d0:	85da                	mv	a1,s6
ffffffff840057d2:	08a8                	add	a0,sp,88
ffffffff840057d4:	e1dfe0ef          	jal	ffffffff840045f0 <deriveCap>
ffffffff840057d8:	67e6                	ld	a5,88(sp)
ffffffff840057da:	efc9                	bnez	a5,ffffffff84005874 <decodeCNodeInvocation+0x22a>
ffffffff840057dc:	7486                	ld	s1,96(sp)
ffffffff840057de:	f426                	sd	s1,40(sp)
ffffffff840057e0:	77a6                	ld	a5,104(sp)
ffffffff840057e2:	f83e                	sd	a5,48(sp)
ffffffff840057e4:	03b4d793          	srl	a5,s1,0x3b
ffffffff840057e8:	dfc5                	beqz	a5,ffffffff840057a0 <decodeCNodeInvocation+0x156>
ffffffff840057ea:	4589                	li	a1,2
ffffffff840057ec:	a801b503          	ld	a0,-1408(gp) # ffffffff84008e98 <ksCurThread>
ffffffff840057f0:	9d4ff0ef          	jal	ffffffff840049c4 <setThreadState>
ffffffff840057f4:	f426                	sd	s1,40(sp)
ffffffff840057f6:	e4a6                	sd	s1,72(sp)
ffffffff840057f8:	75c2                	ld	a1,48(sp)
ffffffff840057fa:	e8ae                	sd	a1,80(sp)
ffffffff840057fc:	86d2                	mv	a3,s4
ffffffff840057fe:	865a                	mv	a2,s6
ffffffff84005800:	8526                	mv	a0,s1
ffffffff84005802:	fa1fe0ef          	jal	ffffffff840047a2 <cteInsert>
ffffffff84005806:	bd6d                	j	ffffffff840056c0 <decodeCNodeInvocation+0x76>
ffffffff84005808:	03093483          	ld	s1,48(s2)
ffffffff8400580c:	618c                	ld	a1,0(a1)
ffffffff8400580e:	008b3603          	ld	a2,8(s6)
ffffffff84005812:	02893503          	ld	a0,40(s2)
ffffffff84005816:	eb4fe0ef          	jal	ffffffff84003eca <maskCapRights>
ffffffff8400581a:	862a                	mv	a2,a0
ffffffff8400581c:	86ae                	mv	a3,a1
ffffffff8400581e:	fc2a                	sd	a0,56(sp)
ffffffff84005820:	e0ae                	sd	a1,64(sp)
ffffffff84005822:	85a6                	mv	a1,s1
ffffffff84005824:	4501                	li	a0,0
ffffffff84005826:	e14fe0ef          	jal	ffffffff84003e3a <updateCapData>
ffffffff8400582a:	862a                	mv	a2,a0
ffffffff8400582c:	86ae                	mv	a3,a1
ffffffff8400582e:	85da                	mv	a1,s6
ffffffff84005830:	08a8                	add	a0,sp,88
ffffffff84005832:	dbffe0ef          	jal	ffffffff840045f0 <deriveCap>
ffffffff84005836:	67e6                	ld	a5,88(sp)
ffffffff84005838:	e3a1                	bnez	a5,ffffffff84005878 <decodeCNodeInvocation+0x22e>
ffffffff8400583a:	7486                	ld	s1,96(sp)
ffffffff8400583c:	f426                	sd	s1,40(sp)
ffffffff8400583e:	77a6                	ld	a5,104(sp)
ffffffff84005840:	f83e                	sd	a5,48(sp)
ffffffff84005842:	b74d                	j	ffffffff840057e4 <decodeCNodeInvocation+0x19a>
ffffffff84005844:	619c                	ld	a5,0(a1)
ffffffff84005846:	f43e                	sd	a5,40(sp)
ffffffff84005848:	659c                	ld	a5,8(a1)
ffffffff8400584a:	f83e                	sd	a5,48(sp)
ffffffff8400584c:	4589                	li	a1,2
ffffffff8400584e:	a801b503          	ld	a0,-1408(gp) # ffffffff84008e98 <ksCurThread>
ffffffff84005852:	972ff0ef          	jal	ffffffff840049c4 <setThreadState>
ffffffff84005856:	f45e                	sd	s7,40(sp)
ffffffff84005858:	ecde                	sd	s7,88(sp)
ffffffff8400585a:	75c2                	ld	a1,48(sp)
ffffffff8400585c:	f0ae                	sd	a1,96(sp)
ffffffff8400585e:	86d2                	mv	a3,s4
ffffffff84005860:	865a                	mv	a2,s6
ffffffff84005862:	855e                	mv	a0,s7
ffffffff84005864:	928fe0ef          	jal	ffffffff8400398c <cteMove>
ffffffff84005868:	bda1                	j	ffffffff840056c0 <decodeCNodeInvocation+0x76>
ffffffff8400586a:	479d                	li	a5,7
ffffffff8400586c:	d4f1b023          	sd	a5,-704(gp) # ffffffff84009158 <current_syscall_error+0x30>
ffffffff84005870:	440d                	li	s0,3
ffffffff84005872:	b5b9                	j	ffffffff840056c0 <decodeCNodeInvocation+0x76>
ffffffff84005874:	843e                	mv	s0,a5
ffffffff84005876:	b5a9                	j	ffffffff840056c0 <decodeCNodeInvocation+0x76>
ffffffff84005878:	843e                	mv	s0,a5
ffffffff8400587a:	b599                	j	ffffffff840056c0 <decodeCNodeInvocation+0x76>
ffffffff8400587c:	4589                	li	a1,2
ffffffff8400587e:	a801b503          	ld	a0,-1408(gp) # ffffffff84008e98 <ksCurThread>
ffffffff84005882:	942ff0ef          	jal	ffffffff840049c4 <setThreadState>
ffffffff84005886:	8552                	mv	a0,s4
ffffffff84005888:	d31ff0ef          	jal	ffffffff840055b8 <cteRevoke>
ffffffff8400588c:	842a                	mv	s0,a0
ffffffff8400588e:	bd0d                	j	ffffffff840056c0 <decodeCNodeInvocation+0x76>
ffffffff84005890:	4589                	li	a1,2
ffffffff84005892:	a801b503          	ld	a0,-1408(gp) # ffffffff84008e98 <ksCurThread>
ffffffff84005896:	92eff0ef          	jal	ffffffff840049c4 <setThreadState>
ffffffff8400589a:	8552                	mv	a0,s4
ffffffff8400589c:	d0dff0ef          	jal	ffffffff840055a8 <invokeCNodeDelete>
ffffffff840058a0:	842a                	mv	s0,a0
ffffffff840058a2:	bd39                	j	ffffffff840056c0 <decodeCNodeInvocation+0x76>
ffffffff840058a4:	852e                	mv	a0,a1
ffffffff840058a6:	afefe0ef          	jal	ffffffff84003ba4 <ensureEmptySlot>
ffffffff840058aa:	842a                	mv	s0,a0
ffffffff840058ac:	e0051ae3          	bnez	a0,ffffffff840056c0 <decodeCNodeInvocation+0x76>
ffffffff840058b0:	4589                	li	a1,2
ffffffff840058b2:	a801b503          	ld	a0,-1408(gp) # ffffffff84008e98 <ksCurThread>
ffffffff840058b6:	90eff0ef          	jal	ffffffff840049c4 <setThreadState>
ffffffff840058ba:	8552                	mv	a0,s4
ffffffff840058bc:	938fe0ef          	jal	ffffffff840039f4 <invokeCNodeSaveCaller>
ffffffff840058c0:	842a                	mv	s0,a0
ffffffff840058c2:	bbfd                	j	ffffffff840056c0 <decodeCNodeInvocation+0x76>
ffffffff840058c4:	6188                	ld	a0,0(a1)
ffffffff840058c6:	ecaa                	sd	a0,88(sp)
ffffffff840058c8:	658c                	ld	a1,8(a1)
ffffffff840058ca:	f0ae                	sd	a1,96(sp)
ffffffff840058cc:	d3cfe0ef          	jal	ffffffff84003e08 <hasCancelSendRights>
ffffffff840058d0:	e511                	bnez	a0,ffffffff840058dc <decodeCNodeInvocation+0x292>
ffffffff840058d2:	478d                	li	a5,3
ffffffff840058d4:	d4f1b023          	sd	a5,-704(gp) # ffffffff84009158 <current_syscall_error+0x30>
ffffffff840058d8:	440d                	li	s0,3
ffffffff840058da:	b3dd                	j	ffffffff840056c0 <decodeCNodeInvocation+0x76>
ffffffff840058dc:	4589                	li	a1,2
ffffffff840058de:	a801b503          	ld	a0,-1408(gp) # ffffffff84008e98 <ksCurThread>
ffffffff840058e2:	8e2ff0ef          	jal	ffffffff840049c4 <setThreadState>
ffffffff840058e6:	6566                	ld	a0,88(sp)
ffffffff840058e8:	7586                	ld	a1,96(sp)
ffffffff840058ea:	fbaff0ef          	jal	ffffffff840050a4 <invokeCNodeCancelBadgedSends>
ffffffff840058ee:	842a                	mv	s0,a0
ffffffff840058f0:	bbc1                	j	ffffffff840056c0 <decodeCNodeInvocation+0x76>
ffffffff840058f2:	479d                	li	a5,7
ffffffff840058f4:	0d37f563          	bgeu	a5,s3,ffffffff840059be <decodeCNodeInvocation+0x374>
ffffffff840058f8:	8781b783          	ld	a5,-1928(gp) # ffffffff84008c90 <current_extra_caps>
ffffffff840058fc:	c3e9                	beqz	a5,ffffffff840059be <decodeCNodeInvocation+0x374>
ffffffff840058fe:	8801b703          	ld	a4,-1920(gp) # ffffffff84008c98 <current_extra_caps+0x8>
ffffffff84005902:	cf55                	beqz	a4,ffffffff840059be <decodeCNodeInvocation+0x374>
ffffffff84005904:	a801b683          	ld	a3,-1408(gp) # ffffffff84008e98 <ksCurThread>
ffffffff84005908:	0686ba83          	ld	s5,104(a3) # fffffffff8000068 <ki_end+0x73fe0068>
ffffffff8400590c:	0706bb83          	ld	s7,112(a3)
ffffffff84005910:	02893983          	ld	s3,40(s2)
ffffffff84005914:	03093b03          	ld	s6,48(s2)
ffffffff84005918:	04093483          	ld	s1,64(s2)
ffffffff8400591c:	6394                	ld	a3,0(a5)
ffffffff8400591e:	f436                	sd	a3,40(sp)
ffffffff84005920:	679c                	ld	a5,8(a5)
ffffffff84005922:	f83e                	sd	a5,48(sp)
ffffffff84005924:	6308                	ld	a0,0(a4)
ffffffff84005926:	fc2a                	sd	a0,56(sp)
ffffffff84005928:	670c                	ld	a1,8(a4)
ffffffff8400592a:	e0ae                	sd	a1,64(sp)
ffffffff8400592c:	86a6                	mv	a3,s1
ffffffff8400592e:	03893603          	ld	a2,56(s2)
ffffffff84005932:	f89fd0ef          	jal	ffffffff840038ba <lookupSourceSlot>
ffffffff84005936:	fcae                	sd	a1,120(sp)
ffffffff84005938:	842a                	mv	s0,a0
ffffffff8400593a:	d80513e3          	bnez	a0,ffffffff840056c0 <decodeCNodeInvocation+0x76>
ffffffff8400593e:	892e                	mv	s2,a1
ffffffff84005940:	86ce                	mv	a3,s3
ffffffff84005942:	865e                	mv	a2,s7
ffffffff84005944:	7522                	ld	a0,40(sp)
ffffffff84005946:	75c2                	ld	a1,48(sp)
ffffffff84005948:	fa7fd0ef          	jal	ffffffff840038ee <lookupPivotSlot>
ffffffff8400594c:	842a                	mv	s0,a0
ffffffff8400594e:	f8aa                	sd	a0,112(sp)
ffffffff84005950:	fcae                	sd	a1,120(sp)
ffffffff84005952:	d60517e3          	bnez	a0,ffffffff840056c0 <decodeCNodeInvocation+0x76>
ffffffff84005956:	8bae                	mv	s7,a1
ffffffff84005958:	06b90863          	beq	s2,a1,ffffffff840059c8 <decodeCNodeInvocation+0x37e>
ffffffff8400595c:	06ba0663          	beq	s4,a1,ffffffff840059c8 <decodeCNodeInvocation+0x37e>
ffffffff84005960:	012a0863          	beq	s4,s2,ffffffff84005970 <decodeCNodeInvocation+0x326>
ffffffff84005964:	8552                	mv	a0,s4
ffffffff84005966:	a3efe0ef          	jal	ffffffff84003ba4 <ensureEmptySlot>
ffffffff8400596a:	842a                	mv	s0,a0
ffffffff8400596c:	d4051ae3          	bnez	a0,ffffffff840056c0 <decodeCNodeInvocation+0x76>
ffffffff84005970:	00093783          	ld	a5,0(s2)
ffffffff84005974:	93ed                	srl	a5,a5,0x3b
ffffffff84005976:	cfb1                	beqz	a5,ffffffff840059d2 <decodeCNodeInvocation+0x388>
ffffffff84005978:	000bb783          	ld	a5,0(s7)
ffffffff8400597c:	93ed                	srl	a5,a5,0x3b
ffffffff8400597e:	cfad                	beqz	a5,ffffffff840059f8 <decodeCNodeInvocation+0x3ae>
ffffffff84005980:	00093603          	ld	a2,0(s2)
ffffffff84005984:	00893683          	ld	a3,8(s2)
ffffffff84005988:	85da                	mv	a1,s6
ffffffff8400598a:	4505                	li	a0,1
ffffffff8400598c:	caefe0ef          	jal	ffffffff84003e3a <updateCapData>
ffffffff84005990:	842a                	mv	s0,a0
ffffffff84005992:	e4aa                	sd	a0,72(sp)
ffffffff84005994:	e8ae                	sd	a1,80(sp)
ffffffff84005996:	000bb603          	ld	a2,0(s7)
ffffffff8400599a:	008bb683          	ld	a3,8(s7)
ffffffff8400599e:	85d6                	mv	a1,s5
ffffffff840059a0:	4505                	li	a0,1
ffffffff840059a2:	c98fe0ef          	jal	ffffffff84003e3a <updateCapData>
ffffffff840059a6:	ecaa                	sd	a0,88(sp)
ffffffff840059a8:	f0ae                	sd	a1,96(sp)
ffffffff840059aa:	906d                	srl	s0,s0,0x3b
ffffffff840059ac:	c82d                	beqz	s0,ffffffff84005a1e <decodeCNodeInvocation+0x3d4>
ffffffff840059ae:	67e6                	ld	a5,88(sp)
ffffffff840059b0:	93ed                	srl	a5,a5,0x3b
ffffffff840059b2:	ebbd                	bnez	a5,ffffffff84005a28 <decodeCNodeInvocation+0x3de>
ffffffff840059b4:	478d                	li	a5,3
ffffffff840059b6:	d4f1b023          	sd	a5,-704(gp) # ffffffff84009158 <current_syscall_error+0x30>
ffffffff840059ba:	440d                	li	s0,3
ffffffff840059bc:	b311                	j	ffffffff840056c0 <decodeCNodeInvocation+0x76>
ffffffff840059be:	479d                	li	a5,7
ffffffff840059c0:	d4f1b023          	sd	a5,-704(gp) # ffffffff84009158 <current_syscall_error+0x30>
ffffffff840059c4:	440d                	li	s0,3
ffffffff840059c6:	b9ed                	j	ffffffff840056c0 <decodeCNodeInvocation+0x76>
ffffffff840059c8:	478d                	li	a5,3
ffffffff840059ca:	d4f1b023          	sd	a5,-704(gp) # ffffffff84009158 <current_syscall_error+0x30>
ffffffff840059ce:	440d                	li	s0,3
ffffffff840059d0:	b9c5                	j	ffffffff840056c0 <decodeCNodeInvocation+0x76>
ffffffff840059d2:	d1018793          	add	a5,gp,-752 # ffffffff84009128 <current_syscall_error>
ffffffff840059d6:	4719                	li	a4,6
ffffffff840059d8:	fb98                	sd	a4,48(a5)
ffffffff840059da:	4705                	li	a4,1
ffffffff840059dc:	f798                	sd	a4,40(a5)
ffffffff840059de:	d5818713          	add	a4,gp,-680 # ffffffff84009170 <current_lookup_fault>
ffffffff840059e2:	00249793          	sll	a5,s1,0x2
ffffffff840059e6:	1fc7f793          	and	a5,a5,508
ffffffff840059ea:	0017e793          	or	a5,a5,1
ffffffff840059ee:	e31c                	sd	a5,0(a4)
ffffffff840059f0:	00073423          	sd	zero,8(a4)
ffffffff840059f4:	440d                	li	s0,3
ffffffff840059f6:	b1e9                	j	ffffffff840056c0 <decodeCNodeInvocation+0x76>
ffffffff840059f8:	d1018793          	add	a5,gp,-752 # ffffffff84009128 <current_syscall_error>
ffffffff840059fc:	4719                	li	a4,6
ffffffff840059fe:	fb98                	sd	a4,48(a5)
ffffffff84005a00:	0207b423          	sd	zero,40(a5) # fffffffff8000028 <ki_end+0x73fe0028>
ffffffff84005a04:	d5818713          	add	a4,gp,-680 # ffffffff84009170 <current_lookup_fault>
ffffffff84005a08:	00299793          	sll	a5,s3,0x2
ffffffff84005a0c:	1fc7f793          	and	a5,a5,508
ffffffff84005a10:	0017e793          	or	a5,a5,1
ffffffff84005a14:	e31c                	sd	a5,0(a4)
ffffffff84005a16:	00073423          	sd	zero,8(a4)
ffffffff84005a1a:	440d                	li	s0,3
ffffffff84005a1c:	b155                	j	ffffffff840056c0 <decodeCNodeInvocation+0x76>
ffffffff84005a1e:	478d                	li	a5,3
ffffffff84005a20:	d4f1b023          	sd	a5,-704(gp) # ffffffff84009158 <current_syscall_error+0x30>
ffffffff84005a24:	440d                	li	s0,3
ffffffff84005a26:	b969                	j	ffffffff840056c0 <decodeCNodeInvocation+0x76>
ffffffff84005a28:	4589                	li	a1,2
ffffffff84005a2a:	a801b503          	ld	a0,-1408(gp) # ffffffff84008e98 <ksCurThread>
ffffffff84005a2e:	f97fe0ef          	jal	ffffffff840049c4 <setThreadState>
ffffffff84005a32:	8852                	mv	a6,s4
ffffffff84005a34:	87de                	mv	a5,s7
ffffffff84005a36:	874a                	mv	a4,s2
ffffffff84005a38:	6666                	ld	a2,88(sp)
ffffffff84005a3a:	7686                	ld	a3,96(sp)
ffffffff84005a3c:	6526                	ld	a0,72(sp)
ffffffff84005a3e:	65c6                	ld	a1,80(sp)
ffffffff84005a40:	882fe0ef          	jal	ffffffff84003ac2 <invokeCNodeRotate>
ffffffff84005a44:	842a                	mv	s0,a0
ffffffff84005a46:	b9ad                	j	ffffffff840056c0 <decodeCNodeInvocation+0x76>
ffffffff84005a48:	4589                	li	a1,2
ffffffff84005a4a:	a801b503          	ld	a0,-1408(gp) # ffffffff84008e98 <ksCurThread>
ffffffff84005a4e:	f77fe0ef          	jal	ffffffff840049c4 <setThreadState>
ffffffff84005a52:	b511                	j	ffffffff84005856 <decodeCNodeInvocation+0x20c>

ffffffff84005a54 <cteDeleteOne>:
ffffffff84005a54:	611c                	ld	a5,0(a0)
ffffffff84005a56:	93ed                	srl	a5,a5,0x3b
ffffffff84005a58:	e391                	bnez	a5,ffffffff84005a5c <cteDeleteOne+0x8>
ffffffff84005a5a:	8082                	ret
ffffffff84005a5c:	7139                	add	sp,sp,-64
ffffffff84005a5e:	fc06                	sd	ra,56(sp)
ffffffff84005a60:	f822                	sd	s0,48(sp)
ffffffff84005a62:	842a                	mv	s0,a0
ffffffff84005a64:	c5ffe0ef          	jal	ffffffff840046c2 <isFinalCapability>
ffffffff84005a68:	86aa                	mv	a3,a0
ffffffff84005a6a:	4705                	li	a4,1
ffffffff84005a6c:	600c                	ld	a1,0(s0)
ffffffff84005a6e:	6410                	ld	a2,8(s0)
ffffffff84005a70:	850a                	mv	a0,sp
ffffffff84005a72:	fd6ff0ef          	jal	ffffffff84005248 <finaliseCap>
ffffffff84005a76:	4581                	li	a1,0
ffffffff84005a78:	4601                	li	a2,0
ffffffff84005a7a:	8522                	mv	a0,s0
ffffffff84005a7c:	a48fe0ef          	jal	ffffffff84003cc4 <emptySlot>
ffffffff84005a80:	70e2                	ld	ra,56(sp)
ffffffff84005a82:	7442                	ld	s0,48(sp)
ffffffff84005a84:	6121                	add	sp,sp,64
ffffffff84005a86:	8082                	ret

ffffffff84005a88 <invokeIRQHandler_SetIRQHandler>:
ffffffff84005a88:	7179                	add	sp,sp,-48
ffffffff84005a8a:	f406                	sd	ra,40(sp)
ffffffff84005a8c:	f022                	sd	s0,32(sp)
ffffffff84005a8e:	ec26                	sd	s1,24(sp)
ffffffff84005a90:	e02e                	sd	a1,0(sp)
ffffffff84005a92:	e432                	sd	a2,8(sp)
ffffffff84005a94:	84b6                	mv	s1,a3
ffffffff84005a96:	0516                	sll	a0,a0,0x5
ffffffff84005a98:	00004797          	auipc	a5,0x4
ffffffff84005a9c:	56878793          	add	a5,a5,1384 # ffffffff8400a000 <intStateIRQNode>
ffffffff84005aa0:	00f50433          	add	s0,a0,a5
ffffffff84005aa4:	8522                	mv	a0,s0
ffffffff84005aa6:	fafff0ef          	jal	ffffffff84005a54 <cteDeleteOne>
ffffffff84005aaa:	86a2                	mv	a3,s0
ffffffff84005aac:	8626                	mv	a2,s1
ffffffff84005aae:	6502                	ld	a0,0(sp)
ffffffff84005ab0:	65a2                	ld	a1,8(sp)
ffffffff84005ab2:	cf1fe0ef          	jal	ffffffff840047a2 <cteInsert>
ffffffff84005ab6:	70a2                	ld	ra,40(sp)
ffffffff84005ab8:	7402                	ld	s0,32(sp)
ffffffff84005aba:	64e2                	ld	s1,24(sp)
ffffffff84005abc:	6145                	add	sp,sp,48
ffffffff84005abe:	8082                	ret

ffffffff84005ac0 <invokeIRQHandler_ClearIRQHandler>:
ffffffff84005ac0:	1141                	add	sp,sp,-16
ffffffff84005ac2:	e406                	sd	ra,8(sp)
ffffffff84005ac4:	0516                	sll	a0,a0,0x5
ffffffff84005ac6:	00004797          	auipc	a5,0x4
ffffffff84005aca:	53a78793          	add	a5,a5,1338 # ffffffff8400a000 <intStateIRQNode>
ffffffff84005ace:	953e                	add	a0,a0,a5
ffffffff84005ad0:	f85ff0ef          	jal	ffffffff84005a54 <cteDeleteOne>
ffffffff84005ad4:	60a2                	ld	ra,8(sp)
ffffffff84005ad6:	0141                	add	sp,sp,16
ffffffff84005ad8:	8082                	ret

ffffffff84005ada <decodeIRQHandlerInvocation>:
ffffffff84005ada:	7179                	add	sp,sp,-48
ffffffff84005adc:	f406                	sd	ra,40(sp)
ffffffff84005ade:	f022                	sd	s0,32(sp)
ffffffff84005ae0:	ec26                	sd	s1,24(sp)
ffffffff84005ae2:	e84a                	sd	s2,16(sp)
ffffffff84005ae4:	842e                	mv	s0,a1
ffffffff84005ae6:	47ed                	li	a5,27
ffffffff84005ae8:	02f50e63          	beq	a0,a5,ffffffff84005b24 <decodeIRQHandlerInvocation+0x4a>
ffffffff84005aec:	47f1                	li	a5,28
ffffffff84005aee:	08f50663          	beq	a0,a5,ffffffff84005b7a <decodeIRQHandlerInvocation+0xa0>
ffffffff84005af2:	47e9                	li	a5,26
ffffffff84005af4:	00f50763          	beq	a0,a5,ffffffff84005b02 <decodeIRQHandlerInvocation+0x28>
ffffffff84005af8:	478d                	li	a5,3
ffffffff84005afa:	d4f1b023          	sd	a5,-704(gp) # ffffffff84009158 <current_syscall_error+0x30>
ffffffff84005afe:	450d                	li	a0,3
ffffffff84005b00:	a821                	j	ffffffff84005b18 <decodeIRQHandlerInvocation+0x3e>
ffffffff84005b02:	4589                	li	a1,2
ffffffff84005b04:	a801b503          	ld	a0,-1408(gp) # ffffffff84008e98 <ksCurThread>
ffffffff84005b08:	ebdfe0ef          	jal	ffffffff840049c4 <setThreadState>
ffffffff84005b0c:	0004059b          	sext.w	a1,s0
ffffffff84005b10:	c04027b7          	lui	a5,0xc0402
ffffffff84005b14:	c3cc                	sw	a1,4(a5)
ffffffff84005b16:	4501                	li	a0,0
ffffffff84005b18:	70a2                	ld	ra,40(sp)
ffffffff84005b1a:	7402                	ld	s0,32(sp)
ffffffff84005b1c:	64e2                	ld	s1,24(sp)
ffffffff84005b1e:	6942                	ld	s2,16(sp)
ffffffff84005b20:	6145                	add	sp,sp,48
ffffffff84005b22:	8082                	ret
ffffffff84005b24:	8781b483          	ld	s1,-1928(gp) # ffffffff84008c90 <current_extra_caps>
ffffffff84005b28:	c49d                	beqz	s1,ffffffff84005b56 <decodeIRQHandlerInvocation+0x7c>
ffffffff84005b2a:	0004b903          	ld	s2,0(s1)
ffffffff84005b2e:	e04a                	sd	s2,0(sp)
ffffffff84005b30:	649c                	ld	a5,8(s1)
ffffffff84005b32:	e43e                	sd	a5,8(sp)
ffffffff84005b34:	03b95713          	srl	a4,s2,0x3b
ffffffff84005b38:	4799                	li	a5,6
ffffffff84005b3a:	00f71663          	bne	a4,a5,ffffffff84005b46 <decodeIRQHandlerInvocation+0x6c>
ffffffff84005b3e:	03995793          	srl	a5,s2,0x39
ffffffff84005b42:	8b85                	and	a5,a5,1
ffffffff84005b44:	ef91                	bnez	a5,ffffffff84005b60 <decodeIRQHandlerInvocation+0x86>
ffffffff84005b46:	d1018793          	add	a5,gp,-752 # ffffffff84009128 <current_syscall_error>
ffffffff84005b4a:	4709                	li	a4,2
ffffffff84005b4c:	fb98                	sd	a4,48(a5)
ffffffff84005b4e:	0007b423          	sd	zero,8(a5) # ffffffffc0402008 <ki_end+0x3c3e2008>
ffffffff84005b52:	450d                	li	a0,3
ffffffff84005b54:	b7d1                	j	ffffffff84005b18 <decodeIRQHandlerInvocation+0x3e>
ffffffff84005b56:	479d                	li	a5,7
ffffffff84005b58:	d4f1b023          	sd	a5,-704(gp) # ffffffff84009158 <current_syscall_error+0x30>
ffffffff84005b5c:	450d                	li	a0,3
ffffffff84005b5e:	bf6d                	j	ffffffff84005b18 <decodeIRQHandlerInvocation+0x3e>
ffffffff84005b60:	4589                	li	a1,2
ffffffff84005b62:	a801b503          	ld	a0,-1408(gp) # ffffffff84008e98 <ksCurThread>
ffffffff84005b66:	e5ffe0ef          	jal	ffffffff840049c4 <setThreadState>
ffffffff84005b6a:	86a6                	mv	a3,s1
ffffffff84005b6c:	85ca                	mv	a1,s2
ffffffff84005b6e:	6622                	ld	a2,8(sp)
ffffffff84005b70:	8522                	mv	a0,s0
ffffffff84005b72:	f17ff0ef          	jal	ffffffff84005a88 <invokeIRQHandler_SetIRQHandler>
ffffffff84005b76:	4501                	li	a0,0
ffffffff84005b78:	b745                	j	ffffffff84005b18 <decodeIRQHandlerInvocation+0x3e>
ffffffff84005b7a:	4589                	li	a1,2
ffffffff84005b7c:	a801b503          	ld	a0,-1408(gp) # ffffffff84008e98 <ksCurThread>
ffffffff84005b80:	e45fe0ef          	jal	ffffffff840049c4 <setThreadState>
ffffffff84005b84:	8522                	mv	a0,s0
ffffffff84005b86:	f3bff0ef          	jal	ffffffff84005ac0 <invokeIRQHandler_ClearIRQHandler>
ffffffff84005b8a:	4501                	li	a0,0
ffffffff84005b8c:	b771                	j	ffffffff84005b18 <decodeIRQHandlerInvocation+0x3e>

ffffffff84005b8e <deletingIRQHandler>:
ffffffff84005b8e:	1141                	add	sp,sp,-16
ffffffff84005b90:	e406                	sd	ra,8(sp)
ffffffff84005b92:	0516                	sll	a0,a0,0x5
ffffffff84005b94:	00004797          	auipc	a5,0x4
ffffffff84005b98:	46c78793          	add	a5,a5,1132 # ffffffff8400a000 <intStateIRQNode>
ffffffff84005b9c:	953e                	add	a0,a0,a5
ffffffff84005b9e:	eb7ff0ef          	jal	ffffffff84005a54 <cteDeleteOne>
ffffffff84005ba2:	60a2                	ld	ra,8(sp)
ffffffff84005ba4:	0141                	add	sp,sp,16
ffffffff84005ba6:	8082                	ret

ffffffff84005ba8 <restart>:
ffffffff84005ba8:	11853703          	ld	a4,280(a0)
ffffffff84005bac:	8b3d                	and	a4,a4,15
ffffffff84005bae:	07900793          	li	a5,121
ffffffff84005bb2:	00e7d7b3          	srl	a5,a5,a4
ffffffff84005bb6:	8b85                	and	a5,a5,1
ffffffff84005bb8:	e391                	bnez	a5,ffffffff84005bbc <restart+0x14>
ffffffff84005bba:	8082                	ret
ffffffff84005bbc:	1141                	add	sp,sp,-16
ffffffff84005bbe:	e406                	sd	ra,8(sp)
ffffffff84005bc0:	e022                	sd	s0,0(sp)
ffffffff84005bc2:	842a                	mv	s0,a0
ffffffff84005bc4:	d72ff0ef          	jal	ffffffff84005136 <cancelIPC>
ffffffff84005bc8:	8522                	mv	a0,s0
ffffffff84005bca:	fbdfd0ef          	jal	ffffffff84003b86 <setupReplyMaster>
ffffffff84005bce:	4589                	li	a1,2
ffffffff84005bd0:	8522                	mv	a0,s0
ffffffff84005bd2:	df3fe0ef          	jal	ffffffff840049c4 <setThreadState>
ffffffff84005bd6:	8522                	mv	a0,s0
ffffffff84005bd8:	d07fe0ef          	jal	ffffffff840048de <tcbSchedEnqueue>
ffffffff84005bdc:	8522                	mv	a0,s0
ffffffff84005bde:	880ff0ef          	jal	ffffffff84004c5e <possibleSwitchTo>
ffffffff84005be2:	60a2                	ld	ra,8(sp)
ffffffff84005be4:	6402                	ld	s0,0(sp)
ffffffff84005be6:	0141                	add	sp,sp,16
ffffffff84005be8:	8082                	ret

ffffffff84005bea <sendSignal>:
ffffffff84005bea:	7179                	add	sp,sp,-48
ffffffff84005bec:	f406                	sd	ra,40(sp)
ffffffff84005bee:	f022                	sd	s0,32(sp)
ffffffff84005bf0:	ec26                	sd	s1,24(sp)
ffffffff84005bf2:	e84a                	sd	s2,16(sp)
ffffffff84005bf4:	842a                	mv	s0,a0
ffffffff84005bf6:	84ae                	mv	s1,a1
ffffffff84005bf8:	6118                	ld	a4,0(a0)
ffffffff84005bfa:	00377793          	and	a5,a4,3
ffffffff84005bfe:	4685                	li	a3,1
ffffffff84005c00:	06d78a63          	beq	a5,a3,ffffffff84005c74 <sendSignal+0x8a>
ffffffff84005c04:	4689                	li	a3,2
ffffffff84005c06:	0cd78a63          	beq	a5,a3,ffffffff84005cda <sendSignal+0xf0>
ffffffff84005c0a:	c799                	beqz	a5,ffffffff84005c18 <sendSignal+0x2e>
ffffffff84005c0c:	70a2                	ld	ra,40(sp)
ffffffff84005c0e:	7402                	ld	s0,32(sp)
ffffffff84005c10:	64e2                	ld	s1,24(sp)
ffffffff84005c12:	6942                	ld	s2,16(sp)
ffffffff84005c14:	6145                	add	sp,sp,48
ffffffff84005c16:	8082                	ret
ffffffff84005c18:	6d1c                	ld	a5,24(a0)
ffffffff84005c1a:	01979913          	sll	s2,a5,0x19
ffffffff84005c1e:	01995913          	srl	s2,s2,0x19
ffffffff84005c22:	9399                	srl	a5,a5,0x26
ffffffff84005c24:	8b85                	and	a5,a5,1
ffffffff84005c26:	c38d                	beqz	a5,ffffffff84005c48 <sendSignal+0x5e>
ffffffff84005c28:	57fd                	li	a5,-1
ffffffff84005c2a:	179e                	sll	a5,a5,0x27
ffffffff84005c2c:	00f96933          	or	s2,s2,a5
ffffffff84005c30:	11893783          	ld	a5,280(s2)
ffffffff84005c34:	8bbd                	and	a5,a5,15
ffffffff84005c36:	468d                	li	a3,3
ffffffff84005c38:	02d78163          	beq	a5,a3,ffffffff84005c5a <sendSignal+0x70>
ffffffff84005c3c:	9b71                	and	a4,a4,-4
ffffffff84005c3e:	00276713          	or	a4,a4,2
ffffffff84005c42:	e018                	sd	a4,0(s0)
ffffffff84005c44:	e804                	sd	s1,16(s0)
ffffffff84005c46:	b7d9                	j	ffffffff84005c0c <sendSignal+0x22>
ffffffff84005c48:	fe0914e3          	bnez	s2,ffffffff84005c30 <sendSignal+0x46>
ffffffff84005c4c:	ffc77793          	and	a5,a4,-4
ffffffff84005c50:	0027e793          	or	a5,a5,2
ffffffff84005c54:	e11c                	sd	a5,0(a0)
ffffffff84005c56:	e80c                	sd	a1,16(s0)
ffffffff84005c58:	bf55                	j	ffffffff84005c0c <sendSignal+0x22>
ffffffff84005c5a:	854a                	mv	a0,s2
ffffffff84005c5c:	cdaff0ef          	jal	ffffffff84005136 <cancelIPC>
ffffffff84005c60:	4585                	li	a1,1
ffffffff84005c62:	854a                	mv	a0,s2
ffffffff84005c64:	d61fe0ef          	jal	ffffffff840049c4 <setThreadState>
ffffffff84005c68:	04993423          	sd	s1,72(s2)
ffffffff84005c6c:	854a                	mv	a0,s2
ffffffff84005c6e:	ff1fe0ef          	jal	ffffffff84004c5e <possibleSwitchTo>
ffffffff84005c72:	bf69                	j	ffffffff84005c0c <sendSignal+0x22>
ffffffff84005c74:	651c                	ld	a5,8(a0)
ffffffff84005c76:	01979913          	sll	s2,a5,0x19
ffffffff84005c7a:	01995913          	srl	s2,s2,0x19
ffffffff84005c7e:	9399                	srl	a5,a5,0x26
ffffffff84005c80:	8b85                	and	a5,a5,1
ffffffff84005c82:	c789                	beqz	a5,ffffffff84005c8c <sendSignal+0xa2>
ffffffff84005c84:	57fd                	li	a5,-1
ffffffff84005c86:	179e                	sll	a5,a5,0x27
ffffffff84005c88:	00f96933          	or	s2,s2,a5
ffffffff84005c8c:	01975613          	srl	a2,a4,0x19
ffffffff84005c90:	00075563          	bgez	a4,ffffffff84005c9a <sendSignal+0xb0>
ffffffff84005c94:	57fd                	li	a5,-1
ffffffff84005c96:	179e                	sll	a5,a5,0x27
ffffffff84005c98:	8e5d                	or	a2,a2,a5
ffffffff84005c9a:	85ca                	mv	a1,s2
ffffffff84005c9c:	854a                	mv	a0,s2
ffffffff84005c9e:	afcff0ef          	jal	ffffffff84004f9a <tcbEPDequeue>
ffffffff84005ca2:	6418                	ld	a4,8(s0)
ffffffff84005ca4:	57fd                	li	a5,-1
ffffffff84005ca6:	02779693          	sll	a3,a5,0x27
ffffffff84005caa:	8f75                	and	a4,a4,a3
ffffffff84005cac:	83e5                	srl	a5,a5,0x19
ffffffff84005cae:	8fe9                	and	a5,a5,a0
ffffffff84005cb0:	8fd9                	or	a5,a5,a4
ffffffff84005cb2:	e41c                	sd	a5,8(s0)
ffffffff84005cb4:	601c                	ld	a5,0(s0)
ffffffff84005cb6:	179e                	sll	a5,a5,0x27
ffffffff84005cb8:	939d                	srl	a5,a5,0x27
ffffffff84005cba:	05e6                	sll	a1,a1,0x19
ffffffff84005cbc:	8fcd                	or	a5,a5,a1
ffffffff84005cbe:	cd01                	beqz	a0,ffffffff84005cd6 <sendSignal+0xec>
ffffffff84005cc0:	e01c                	sd	a5,0(s0)
ffffffff84005cc2:	4585                	li	a1,1
ffffffff84005cc4:	854a                	mv	a0,s2
ffffffff84005cc6:	cfffe0ef          	jal	ffffffff840049c4 <setThreadState>
ffffffff84005cca:	04993423          	sd	s1,72(s2)
ffffffff84005cce:	854a                	mv	a0,s2
ffffffff84005cd0:	f8ffe0ef          	jal	ffffffff84004c5e <possibleSwitchTo>
ffffffff84005cd4:	bf25                	j	ffffffff84005c0c <sendSignal+0x22>
ffffffff84005cd6:	9bf1                	and	a5,a5,-4
ffffffff84005cd8:	b7e5                	j	ffffffff84005cc0 <sendSignal+0xd6>
ffffffff84005cda:	691c                	ld	a5,16(a0)
ffffffff84005cdc:	8fcd                	or	a5,a5,a1
ffffffff84005cde:	e91c                	sd	a5,16(a0)
ffffffff84005ce0:	b735                	j	ffffffff84005c0c <sendSignal+0x22>

ffffffff84005ce2 <handleInterrupt>:
ffffffff84005ce2:	03600793          	li	a5,54
ffffffff84005ce6:	04a7ef63          	bltu	a5,a0,ffffffff84005d44 <handleInterrupt+0x62>
ffffffff84005cea:	1141                	add	sp,sp,-16
ffffffff84005cec:	e406                	sd	ra,8(sp)
ffffffff84005cee:	00351713          	sll	a4,a0,0x3
ffffffff84005cf2:	00003797          	auipc	a5,0x3
ffffffff84005cf6:	fd678793          	add	a5,a5,-42 # ffffffff84008cc8 <intStateIRQTable>
ffffffff84005cfa:	97ba                	add	a5,a5,a4
ffffffff84005cfc:	639c                	ld	a5,0(a5)
ffffffff84005cfe:	4709                	li	a4,2
ffffffff84005d00:	06e78f63          	beq	a5,a4,ffffffff84005d7e <handleInterrupt+0x9c>
ffffffff84005d04:	06f76563          	bltu	a4,a5,ffffffff84005d6e <handleInterrupt+0x8c>
ffffffff84005d08:	cfd1                	beqz	a5,ffffffff84005da4 <handleInterrupt+0xc2>
ffffffff84005d0a:	0516                	sll	a0,a0,0x5
ffffffff84005d0c:	00004797          	auipc	a5,0x4
ffffffff84005d10:	2f478793          	add	a5,a5,756 # ffffffff8400a000 <intStateIRQNode>
ffffffff84005d14:	97aa                	add	a5,a5,a0
ffffffff84005d16:	6398                	ld	a4,0(a5)
ffffffff84005d18:	03b75613          	srl	a2,a4,0x3b
ffffffff84005d1c:	4699                	li	a3,6
ffffffff84005d1e:	04d61b63          	bne	a2,a3,ffffffff84005d74 <handleInterrupt+0x92>
ffffffff84005d22:	03975693          	srl	a3,a4,0x39
ffffffff84005d26:	8a85                	and	a3,a3,1
ffffffff84005d28:	c6b1                	beqz	a3,ffffffff84005d74 <handleInterrupt+0x92>
ffffffff84005d2a:	01971513          	sll	a0,a4,0x19
ffffffff84005d2e:	8165                	srl	a0,a0,0x19
ffffffff84005d30:	9319                	srl	a4,a4,0x26
ffffffff84005d32:	8b05                	and	a4,a4,1
ffffffff84005d34:	c701                	beqz	a4,ffffffff84005d3c <handleInterrupt+0x5a>
ffffffff84005d36:	577d                	li	a4,-1
ffffffff84005d38:	171e                	sll	a4,a4,0x27
ffffffff84005d3a:	8d59                	or	a0,a0,a4
ffffffff84005d3c:	678c                	ld	a1,8(a5)
ffffffff84005d3e:	eadff0ef          	jal	ffffffff84005bea <sendSignal>
ffffffff84005d42:	a80d                	j	ffffffff84005d74 <handleInterrupt+0x92>
ffffffff84005d44:	00555793          	srl	a5,a0,0x5
ffffffff84005d48:	078a                	sll	a5,a5,0x2
ffffffff84005d4a:	c0202737          	lui	a4,0xc0202
ffffffff84005d4e:	10070713          	add	a4,a4,256 # ffffffffc0202100 <ki_end+0x3c1e2100>
ffffffff84005d52:	97ba                	add	a5,a5,a4
ffffffff84005d54:	4398                	lw	a4,0(a5)
ffffffff84005d56:	897d                	and	a0,a0,31
ffffffff84005d58:	4685                	li	a3,1
ffffffff84005d5a:	00a696b3          	sll	a3,a3,a0
ffffffff84005d5e:	fff6c693          	not	a3,a3
ffffffff84005d62:	8f75                	and	a4,a4,a3
ffffffff84005d64:	2701                	sext.w	a4,a4
ffffffff84005d66:	c398                	sw	a4,0(a5)
ffffffff84005d68:	1601b423          	sd	zero,360(gp) # ffffffff84009580 <active_irq>
ffffffff84005d6c:	8082                	ret
ffffffff84005d6e:	470d                	li	a4,3
ffffffff84005d70:	06e79663          	bne	a5,a4,ffffffff84005ddc <handleInterrupt+0xfa>
ffffffff84005d74:	1601b423          	sd	zero,360(gp) # ffffffff84009580 <active_irq>
ffffffff84005d78:	60a2                	ld	ra,8(sp)
ffffffff84005d7a:	0141                	add	sp,sp,16
ffffffff84005d7c:	8082                	ret
ffffffff84005d7e:	856ff0ef          	jal	ffffffff84004dd4 <timerTick>
ffffffff84005d82:	c000c737          	lui	a4,0xc000c
ffffffff84005d86:	ff873783          	ld	a5,-8(a4) # ffffffffc000bff8 <ki_end+0x3bfebff8>
ffffffff84005d8a:	7d078793          	add	a5,a5,2000
ffffffff84005d8e:	853e                	mv	a0,a5
ffffffff84005d90:	4581                	li	a1,0
ffffffff84005d92:	4601                	li	a2,0
ffffffff84005d94:	4881                	li	a7,0
ffffffff84005d96:	00000073          	ecall
ffffffff84005d9a:	ff873683          	ld	a3,-8(a4)
ffffffff84005d9e:	fed7e4e3          	bltu	a5,a3,ffffffff84005d86 <handleInterrupt+0xa4>
ffffffff84005da2:	bfc9                	j	ffffffff84005d74 <handleInterrupt+0x92>
ffffffff84005da4:	03600793          	li	a5,54
ffffffff84005da8:	00f51763          	bne	a0,a5,ffffffff84005db6 <handleInterrupt+0xd4>
ffffffff84005dac:	02000793          	li	a5,32
ffffffff84005db0:	1047b7f3          	csrrc	a5,sie,a5
ffffffff84005db4:	b7c1                	j	ffffffff84005d74 <handleInterrupt+0x92>
ffffffff84005db6:	00555793          	srl	a5,a0,0x5
ffffffff84005dba:	078a                	sll	a5,a5,0x2
ffffffff84005dbc:	c0202737          	lui	a4,0xc0202
ffffffff84005dc0:	10070713          	add	a4,a4,256 # ffffffffc0202100 <ki_end+0x3c1e2100>
ffffffff84005dc4:	97ba                	add	a5,a5,a4
ffffffff84005dc6:	4398                	lw	a4,0(a5)
ffffffff84005dc8:	897d                	and	a0,a0,31
ffffffff84005dca:	4685                	li	a3,1
ffffffff84005dcc:	00a696b3          	sll	a3,a3,a0
ffffffff84005dd0:	fff6c693          	not	a3,a3
ffffffff84005dd4:	8f75                	and	a4,a4,a3
ffffffff84005dd6:	2701                	sext.w	a4,a4
ffffffff84005dd8:	c398                	sw	a4,0(a5)
ffffffff84005dda:	bf69                	j	ffffffff84005d74 <handleInterrupt+0x92>
ffffffff84005ddc:	a75fc0ef          	jal	ffffffff84002850 <halt>

ffffffff84005de0 <performInvocation_Notification>:
ffffffff84005de0:	1141                	add	sp,sp,-16
ffffffff84005de2:	e406                	sd	ra,8(sp)
ffffffff84005de4:	e07ff0ef          	jal	ffffffff84005bea <sendSignal>
ffffffff84005de8:	4501                	li	a0,0
ffffffff84005dea:	60a2                	ld	ra,8(sp)
ffffffff84005dec:	0141                	add	sp,sp,16
ffffffff84005dee:	8082                	ret

ffffffff84005df0 <getExtraCPtr>:
ffffffff84005df0:	07a58593          	add	a1,a1,122
ffffffff84005df4:	058e                	sll	a1,a1,0x3
ffffffff84005df6:	952e                	add	a0,a0,a1
ffffffff84005df8:	6108                	ld	a0,0(a0)
ffffffff84005dfa:	8082                	ret

ffffffff84005dfc <setExtraBadge>:
ffffffff84005dfc:	07a60613          	add	a2,a2,122 # fffffffff800007a <ki_end+0x73fe007a>
ffffffff84005e00:	060e                	sll	a2,a2,0x3
ffffffff84005e02:	9532                	add	a0,a0,a2
ffffffff84005e04:	e10c                	sd	a1,0(a0)
ffffffff84005e06:	8082                	ret

ffffffff84005e08 <setupCallerCap>:
ffffffff84005e08:	7179                	add	sp,sp,-48
ffffffff84005e0a:	f406                	sd	ra,40(sp)
ffffffff84005e0c:	f022                	sd	s0,32(sp)
ffffffff84005e0e:	ec26                	sd	s1,24(sp)
ffffffff84005e10:	e84a                	sd	s2,16(sp)
ffffffff84005e12:	892a                	mv	s2,a0
ffffffff84005e14:	84ae                	mv	s1,a1
ffffffff84005e16:	8432                	mv	s0,a2
ffffffff84005e18:	4595                	li	a1,5
ffffffff84005e1a:	babfe0ef          	jal	ffffffff840049c4 <setThreadState>
ffffffff84005e1e:	0406                	sll	s0,s0,0x1
ffffffff84005e20:	8809                	and	s0,s0,2
ffffffff84005e22:	c004f693          	and	a3,s1,-1024
ffffffff84005e26:	c0097613          	and	a2,s2,-1024
ffffffff84005e2a:	06068693          	add	a3,a3,96
ffffffff84005e2e:	04060613          	add	a2,a2,64
ffffffff84005e32:	4505                	li	a0,1
ffffffff84005e34:	157a                	sll	a0,a0,0x3e
ffffffff84005e36:	8d41                	or	a0,a0,s0
ffffffff84005e38:	85ca                	mv	a1,s2
ffffffff84005e3a:	969fe0ef          	jal	ffffffff840047a2 <cteInsert>
ffffffff84005e3e:	70a2                	ld	ra,40(sp)
ffffffff84005e40:	7402                	ld	s0,32(sp)
ffffffff84005e42:	64e2                	ld	s1,24(sp)
ffffffff84005e44:	6942                	ld	s2,16(sp)
ffffffff84005e46:	6145                	add	sp,sp,48
ffffffff84005e48:	8082                	ret

ffffffff84005e4a <deleteCallerCap>:
ffffffff84005e4a:	1141                	add	sp,sp,-16
ffffffff84005e4c:	e406                	sd	ra,8(sp)
ffffffff84005e4e:	c0057513          	and	a0,a0,-1024
ffffffff84005e52:	06050513          	add	a0,a0,96
ffffffff84005e56:	bffff0ef          	jal	ffffffff84005a54 <cteDeleteOne>
ffffffff84005e5a:	60a2                	ld	ra,8(sp)
ffffffff84005e5c:	0141                	add	sp,sp,16
ffffffff84005e5e:	8082                	ret

ffffffff84005e60 <lookupExtraCaps>:
ffffffff84005e60:	cdb9                	beqz	a1,ffffffff84005ebe <lookupExtraCaps+0x5e>
ffffffff84005e62:	715d                	add	sp,sp,-80
ffffffff84005e64:	e486                	sd	ra,72(sp)
ffffffff84005e66:	e0a2                	sd	s0,64(sp)
ffffffff84005e68:	fc26                	sd	s1,56(sp)
ffffffff84005e6a:	f84a                	sd	s2,48(sp)
ffffffff84005e6c:	f44e                	sd	s3,40(sp)
ffffffff84005e6e:	f052                	sd	s4,32(sp)
ffffffff84005e70:	ec56                	sd	s5,24(sp)
ffffffff84005e72:	8aaa                	mv	s5,a0
ffffffff84005e74:	821d                	srl	a2,a2,0x7
ffffffff84005e76:	00367a13          	and	s4,a2,3
ffffffff84005e7a:	060a0563          	beqz	s4,ffffffff84005ee4 <lookupExtraCaps+0x84>
ffffffff84005e7e:	3d058413          	add	s0,a1,976
ffffffff84005e82:	87818913          	add	s2,gp,-1928 # ffffffff84008c90 <current_extra_caps>
ffffffff84005e86:	4481                	li	s1,0
ffffffff84005e88:	00043983          	ld	s3,0(s0)
ffffffff84005e8c:	85ce                	mv	a1,s3
ffffffff84005e8e:	8556                	mv	a0,s5
ffffffff84005e90:	8fffd0ef          	jal	ffffffff8400378e <lookupSlot>
ffffffff84005e94:	e42e                	sd	a1,8(sp)
ffffffff84005e96:	e905                	bnez	a0,ffffffff84005ec6 <lookupExtraCaps+0x66>
ffffffff84005e98:	67a2                	ld	a5,8(sp)
ffffffff84005e9a:	00f93023          	sd	a5,0(s2)
ffffffff84005e9e:	0485                	add	s1,s1,1
ffffffff84005ea0:	0421                	add	s0,s0,8
ffffffff84005ea2:	0921                	add	s2,s2,8
ffffffff84005ea4:	ff4492e3          	bne	s1,s4,ffffffff84005e88 <lookupExtraCaps+0x28>
ffffffff84005ea8:	4789                	li	a5,2
ffffffff84005eaa:	0297e463          	bltu	a5,s1,ffffffff84005ed2 <lookupExtraCaps+0x72>
ffffffff84005eae:	048e                	sll	s1,s1,0x3
ffffffff84005eb0:	87818793          	add	a5,gp,-1928 # ffffffff84008c90 <current_extra_caps>
ffffffff84005eb4:	97a6                	add	a5,a5,s1
ffffffff84005eb6:	0007b023          	sd	zero,0(a5)
ffffffff84005eba:	4501                	li	a0,0
ffffffff84005ebc:	a819                	j	ffffffff84005ed2 <lookupExtraCaps+0x72>
ffffffff84005ebe:	8601bc23          	sd	zero,-1928(gp) # ffffffff84008c90 <current_extra_caps>
ffffffff84005ec2:	4501                	li	a0,0
ffffffff84005ec4:	8082                	ret
ffffffff84005ec6:	d4818793          	add	a5,gp,-696 # ffffffff84009160 <current_fault>
ffffffff84005eca:	4705                	li	a4,1
ffffffff84005ecc:	e398                	sd	a4,0(a5)
ffffffff84005ece:	0137b423          	sd	s3,8(a5)
ffffffff84005ed2:	60a6                	ld	ra,72(sp)
ffffffff84005ed4:	6406                	ld	s0,64(sp)
ffffffff84005ed6:	74e2                	ld	s1,56(sp)
ffffffff84005ed8:	7942                	ld	s2,48(sp)
ffffffff84005eda:	79a2                	ld	s3,40(sp)
ffffffff84005edc:	7a02                	ld	s4,32(sp)
ffffffff84005ede:	6ae2                	ld	s5,24(sp)
ffffffff84005ee0:	6161                	add	sp,sp,80
ffffffff84005ee2:	8082                	ret
ffffffff84005ee4:	84d2                	mv	s1,s4
ffffffff84005ee6:	b7e1                	j	ffffffff84005eae <lookupExtraCaps+0x4e>

ffffffff84005ee8 <copyMRs>:
ffffffff84005ee8:	87aa                	mv	a5,a0
ffffffff84005eea:	853a                	mv	a0,a4
ffffffff84005eec:	cf31                	beqz	a4,ffffffff84005f48 <copyMRs+0x60>
ffffffff84005eee:	6fb8                	ld	a4,88(a5)
ffffffff84005ef0:	ee38                	sd	a4,88(a2)
ffffffff84005ef2:	4705                	li	a4,1
ffffffff84005ef4:	04a77463          	bgeu	a4,a0,ffffffff84005f3c <copyMRs+0x54>
ffffffff84005ef8:	73b8                	ld	a4,96(a5)
ffffffff84005efa:	f238                	sd	a4,96(a2)
ffffffff84005efc:	4709                	li	a4,2
ffffffff84005efe:	04a77163          	bgeu	a4,a0,ffffffff84005f40 <copyMRs+0x58>
ffffffff84005f02:	77b8                	ld	a4,104(a5)
ffffffff84005f04:	f638                	sd	a4,104(a2)
ffffffff84005f06:	470d                	li	a4,3
ffffffff84005f08:	02a77e63          	bgeu	a4,a0,ffffffff84005f44 <copyMRs+0x5c>
ffffffff84005f0c:	7bbc                	ld	a5,112(a5)
ffffffff84005f0e:	fa3c                	sd	a5,112(a2)
ffffffff84005f10:	4791                	li	a5,4
ffffffff84005f12:	ce8d                	beqz	a3,ffffffff84005f4c <copyMRs+0x64>
ffffffff84005f14:	cd95                	beqz	a1,ffffffff84005f50 <copyMRs+0x68>
ffffffff84005f16:	02a7ff63          	bgeu	a5,a0,ffffffff84005f54 <copyMRs+0x6c>
ffffffff84005f1a:	0785                	add	a5,a5,1
ffffffff84005f1c:	078e                	sll	a5,a5,0x3
ffffffff84005f1e:	00150713          	add	a4,a0,1
ffffffff84005f22:	070e                	sll	a4,a4,0x3
ffffffff84005f24:	00f58633          	add	a2,a1,a5
ffffffff84005f28:	00063803          	ld	a6,0(a2)
ffffffff84005f2c:	00f68633          	add	a2,a3,a5
ffffffff84005f30:	01063023          	sd	a6,0(a2)
ffffffff84005f34:	07a1                	add	a5,a5,8
ffffffff84005f36:	fee797e3          	bne	a5,a4,ffffffff84005f24 <copyMRs+0x3c>
ffffffff84005f3a:	8082                	ret
ffffffff84005f3c:	4785                	li	a5,1
ffffffff84005f3e:	bfd1                	j	ffffffff84005f12 <copyMRs+0x2a>
ffffffff84005f40:	4789                	li	a5,2
ffffffff84005f42:	bfc1                	j	ffffffff84005f12 <copyMRs+0x2a>
ffffffff84005f44:	478d                	li	a5,3
ffffffff84005f46:	b7f1                	j	ffffffff84005f12 <copyMRs+0x2a>
ffffffff84005f48:	87ba                	mv	a5,a4
ffffffff84005f4a:	b7e1                	j	ffffffff84005f12 <copyMRs+0x2a>
ffffffff84005f4c:	853e                	mv	a0,a5
ffffffff84005f4e:	8082                	ret
ffffffff84005f50:	853e                	mv	a0,a5
ffffffff84005f52:	8082                	ret
ffffffff84005f54:	853e                	mv	a0,a5
ffffffff84005f56:	8082                	ret

ffffffff84005f58 <doNormalTransfer>:
ffffffff84005f58:	7135                	add	sp,sp,-160
ffffffff84005f5a:	ed06                	sd	ra,152(sp)
ffffffff84005f5c:	e922                	sd	s0,144(sp)
ffffffff84005f5e:	e526                	sd	s1,136(sp)
ffffffff84005f60:	e14a                	sd	s2,128(sp)
ffffffff84005f62:	fcce                	sd	s3,120(sp)
ffffffff84005f64:	f8d2                	sd	s4,112(sp)
ffffffff84005f66:	f4d6                	sd	s5,104(sp)
ffffffff84005f68:	f0da                	sd	s6,96(sp)
ffffffff84005f6a:	ecde                	sd	s7,88(sp)
ffffffff84005f6c:	e8e2                	sd	s8,80(sp)
ffffffff84005f6e:	e4e6                	sd	s9,72(sp)
ffffffff84005f70:	e0ea                	sd	s10,64(sp)
ffffffff84005f72:	fc6e                	sd	s11,56(sp)
ffffffff84005f74:	892a                	mv	s2,a0
ffffffff84005f76:	8b2e                	mv	s6,a1
ffffffff84005f78:	8ab2                	mv	s5,a2
ffffffff84005f7a:	8a36                	mv	s4,a3
ffffffff84005f7c:	84be                	mv	s1,a5
ffffffff84005f7e:	89c2                	mv	s3,a6
ffffffff84005f80:	6920                	ld	s0,80(a0)
ffffffff84005f82:	07f47693          	and	a3,s0,127
ffffffff84005f86:	07800793          	li	a5,120
ffffffff84005f8a:	00d7f663          	bgeu	a5,a3,ffffffff84005f96 <doNormalTransfer+0x3e>
ffffffff84005f8e:	f8047413          	and	s0,s0,-128
ffffffff84005f92:	07846413          	or	s0,s0,120
ffffffff84005f96:	eb39                	bnez	a4,ffffffff84005fec <doNormalTransfer+0x94>
ffffffff84005f98:	8601bc23          	sd	zero,-1928(gp) # ffffffff84008c90 <current_extra_caps>
ffffffff84005f9c:	07f47713          	and	a4,s0,127
ffffffff84005fa0:	86ce                	mv	a3,s3
ffffffff84005fa2:	8626                	mv	a2,s1
ffffffff84005fa4:	85da                	mv	a1,s6
ffffffff84005fa6:	854a                	mv	a0,s2
ffffffff84005fa8:	f41ff0ef          	jal	ffffffff84005ee8 <copyMRs>
ffffffff84005fac:	892a                	mv	s2,a0
ffffffff84005fae:	77fd                	lui	a5,0xfffff
ffffffff84005fb0:	07f78793          	add	a5,a5,127 # fffffffffffff07f <ki_end+0x7bfdf07f>
ffffffff84005fb4:	8c7d                	and	s0,s0,a5
ffffffff84005fb6:	8781b783          	ld	a5,-1928(gp) # ffffffff84008c90 <current_extra_caps>
ffffffff84005fba:	e3b1                	bnez	a5,ffffffff84005ffe <doNormalTransfer+0xa6>
ffffffff84005fbc:	f8047413          	and	s0,s0,-128
ffffffff84005fc0:	07f97913          	and	s2,s2,127
ffffffff84005fc4:	01246433          	or	s0,s0,s2
ffffffff84005fc8:	e8a0                	sd	s0,80(s1)
ffffffff84005fca:	0544b423          	sd	s4,72(s1)
ffffffff84005fce:	60ea                	ld	ra,152(sp)
ffffffff84005fd0:	644a                	ld	s0,144(sp)
ffffffff84005fd2:	64aa                	ld	s1,136(sp)
ffffffff84005fd4:	690a                	ld	s2,128(sp)
ffffffff84005fd6:	79e6                	ld	s3,120(sp)
ffffffff84005fd8:	7a46                	ld	s4,112(sp)
ffffffff84005fda:	7aa6                	ld	s5,104(sp)
ffffffff84005fdc:	7b06                	ld	s6,96(sp)
ffffffff84005fde:	6be6                	ld	s7,88(sp)
ffffffff84005fe0:	6c46                	ld	s8,80(sp)
ffffffff84005fe2:	6ca6                	ld	s9,72(sp)
ffffffff84005fe4:	6d06                	ld	s10,64(sp)
ffffffff84005fe6:	7de2                	ld	s11,56(sp)
ffffffff84005fe8:	610d                	add	sp,sp,160
ffffffff84005fea:	8082                	ret
ffffffff84005fec:	8622                	mv	a2,s0
ffffffff84005fee:	85da                	mv	a1,s6
ffffffff84005ff0:	854a                	mv	a0,s2
ffffffff84005ff2:	e6fff0ef          	jal	ffffffff84005e60 <lookupExtraCaps>
ffffffff84005ff6:	d15d                	beqz	a0,ffffffff84005f9c <doNormalTransfer+0x44>
ffffffff84005ff8:	8601bc23          	sd	zero,-1928(gp) # ffffffff84008c90 <current_extra_caps>
ffffffff84005ffc:	b745                	j	ffffffff84005f9c <doNormalTransfer+0x44>
ffffffff84005ffe:	fa098fe3          	beqz	s3,ffffffff84005fbc <doNormalTransfer+0x64>
ffffffff84006002:	85ce                	mv	a1,s3
ffffffff84006004:	8526                	mv	a0,s1
ffffffff84006006:	bb1fd0ef          	jal	ffffffff84003bb6 <getReceiveSlots>
ffffffff8400600a:	8c2a                	mv	s8,a0
ffffffff8400600c:	87818c93          	add	s9,gp,-1928 # ffffffff84008c90 <current_extra_caps>
ffffffff84006010:	3d098993          	add	s3,s3,976
ffffffff84006014:	4b81                	li	s7,0
ffffffff84006016:	4d11                	li	s10,4
ffffffff84006018:	4d8d                	li	s11,3
ffffffff8400601a:	a815                	j	ffffffff8400604e <doNormalTransfer+0xf6>
ffffffff8400601c:	080c0863          	beqz	s8,ffffffff840060ac <doNormalTransfer+0x154>
ffffffff84006020:	e432                	sd	a2,8(sp)
ffffffff84006022:	e836                	sd	a3,16(sp)
ffffffff84006024:	85da                	mv	a1,s6
ffffffff84006026:	0828                	add	a0,sp,24
ffffffff84006028:	dc8fe0ef          	jal	ffffffff840045f0 <deriveCap>
ffffffff8400602c:	67e2                	ld	a5,24(sp)
ffffffff8400602e:	efbd                	bnez	a5,ffffffff840060ac <doNormalTransfer+0x154>
ffffffff84006030:	7782                	ld	a5,32(sp)
ffffffff84006032:	93ed                	srl	a5,a5,0x3b
ffffffff84006034:	cfa5                	beqz	a5,ffffffff840060ac <doNormalTransfer+0x154>
ffffffff84006036:	86e2                	mv	a3,s8
ffffffff84006038:	865a                	mv	a2,s6
ffffffff8400603a:	7502                	ld	a0,32(sp)
ffffffff8400603c:	75a2                	ld	a1,40(sp)
ffffffff8400603e:	f64fe0ef          	jal	ffffffff840047a2 <cteInsert>
ffffffff84006042:	4c01                	li	s8,0
ffffffff84006044:	0b85                	add	s7,s7,1
ffffffff84006046:	0ca1                	add	s9,s9,8
ffffffff84006048:	09a1                	add	s3,s3,8
ffffffff8400604a:	07bb8163          	beq	s7,s11,ffffffff840060ac <doNormalTransfer+0x154>
ffffffff8400604e:	000cbb03          	ld	s6,0(s9)
ffffffff84006052:	040b0d63          	beqz	s6,ffffffff840060ac <doNormalTransfer+0x154>
ffffffff84006056:	000b3603          	ld	a2,0(s6)
ffffffff8400605a:	e432                	sd	a2,8(sp)
ffffffff8400605c:	008b3683          	ld	a3,8(s6)
ffffffff84006060:	e836                	sd	a3,16(sp)
ffffffff84006062:	03b65793          	srl	a5,a2,0x3b
ffffffff84006066:	fba79be3          	bne	a5,s10,ffffffff8400601c <doNormalTransfer+0xc4>
ffffffff8400606a:	01961793          	sll	a5,a2,0x19
ffffffff8400606e:	83e5                	srl	a5,a5,0x19
ffffffff84006070:	02665713          	srl	a4,a2,0x26
ffffffff84006074:	8b05                	and	a4,a4,1
ffffffff84006076:	c701                	beqz	a4,ffffffff8400607e <doNormalTransfer+0x126>
ffffffff84006078:	577d                	li	a4,-1
ffffffff8400607a:	171e                	sll	a4,a4,0x27
ffffffff8400607c:	8fd9                	or	a5,a5,a4
ffffffff8400607e:	f8fa9fe3          	bne	s5,a5,ffffffff8400601c <doNormalTransfer+0xc4>
ffffffff84006082:	00d9b023          	sd	a3,0(s3)
ffffffff84006086:	00945793          	srl	a5,s0,0x9
ffffffff8400608a:	8b9d                	and	a5,a5,7
ffffffff8400608c:	4705                	li	a4,1
ffffffff8400608e:	0177173b          	sllw	a4,a4,s7
ffffffff84006092:	8fd9                	or	a5,a5,a4
ffffffff84006094:	07a6                	sll	a5,a5,0x9
ffffffff84006096:	6705                	lui	a4,0x1
ffffffff84006098:	e0070713          	add	a4,a4,-512 # e00 <KERNEL_OFFSET-0xfffffffefffff200>
ffffffff8400609c:	8ff9                	and	a5,a5,a4
ffffffff8400609e:	777d                	lui	a4,0xfffff
ffffffff840060a0:	1ff70713          	add	a4,a4,511 # fffffffffffff1ff <ki_end+0x7bfdf1ff>
ffffffff840060a4:	8f61                	and	a4,a4,s0
ffffffff840060a6:	00e7e433          	or	s0,a5,a4
ffffffff840060aa:	bf69                	j	ffffffff84006044 <doNormalTransfer+0xec>
ffffffff840060ac:	007b9793          	sll	a5,s7,0x7
ffffffff840060b0:	1807f793          	and	a5,a5,384
ffffffff840060b4:	8c5d                	or	s0,s0,a5
ffffffff840060b6:	b719                	j	ffffffff84005fbc <doNormalTransfer+0x64>

ffffffff840060b8 <doIPCTransfer>:
ffffffff840060b8:	7139                	add	sp,sp,-64
ffffffff840060ba:	fc06                	sd	ra,56(sp)
ffffffff840060bc:	f822                	sd	s0,48(sp)
ffffffff840060be:	f426                	sd	s1,40(sp)
ffffffff840060c0:	f04a                	sd	s2,32(sp)
ffffffff840060c2:	ec4e                	sd	s3,24(sp)
ffffffff840060c4:	e852                	sd	s4,16(sp)
ffffffff840060c6:	e456                	sd	s5,8(sp)
ffffffff840060c8:	842a                	mv	s0,a0
ffffffff840060ca:	8aae                	mv	s5,a1
ffffffff840060cc:	8932                	mv	s2,a2
ffffffff840060ce:	8a36                	mv	s4,a3
ffffffff840060d0:	84ba                	mv	s1,a4
ffffffff840060d2:	85ba                	mv	a1,a4
ffffffff840060d4:	4505                	li	a0,1
ffffffff840060d6:	b1ffc0ef          	jal	ffffffff84002bf4 <lookupIPCBuffer>
ffffffff840060da:	89aa                	mv	s3,a0
ffffffff840060dc:	13843783          	ld	a5,312(s0)
ffffffff840060e0:	8bbd                	and	a5,a5,15
ffffffff840060e2:	e79d                	bnez	a5,ffffffff84006110 <doIPCTransfer+0x58>
ffffffff840060e4:	85a2                	mv	a1,s0
ffffffff840060e6:	4501                	li	a0,0
ffffffff840060e8:	b0dfc0ef          	jal	ffffffff84002bf4 <lookupIPCBuffer>
ffffffff840060ec:	85aa                	mv	a1,a0
ffffffff840060ee:	884e                	mv	a6,s3
ffffffff840060f0:	87a6                	mv	a5,s1
ffffffff840060f2:	8752                	mv	a4,s4
ffffffff840060f4:	86ca                	mv	a3,s2
ffffffff840060f6:	8656                	mv	a2,s5
ffffffff840060f8:	8522                	mv	a0,s0
ffffffff840060fa:	e5fff0ef          	jal	ffffffff84005f58 <doNormalTransfer>
ffffffff840060fe:	70e2                	ld	ra,56(sp)
ffffffff84006100:	7442                	ld	s0,48(sp)
ffffffff84006102:	74a2                	ld	s1,40(sp)
ffffffff84006104:	7902                	ld	s2,32(sp)
ffffffff84006106:	69e2                	ld	s3,24(sp)
ffffffff84006108:	6a42                	ld	s4,16(sp)
ffffffff8400610a:	6aa2                	ld	s5,8(sp)
ffffffff8400610c:	6121                	add	sp,sp,64
ffffffff8400610e:	8082                	ret
ffffffff84006110:	86aa                	mv	a3,a0
ffffffff84006112:	8626                	mv	a2,s1
ffffffff84006114:	85a2                	mv	a1,s0
ffffffff84006116:	854a                	mv	a0,s2
ffffffff84006118:	ff0fd0ef          	jal	ffffffff84003908 <doFaultTransfer>
ffffffff8400611c:	b7cd                	j	ffffffff840060fe <doIPCTransfer+0x46>

ffffffff8400611e <doReplyTransfer>:
ffffffff8400611e:	1101                	add	sp,sp,-32
ffffffff84006120:	ec06                	sd	ra,24(sp)
ffffffff84006122:	e822                	sd	s0,16(sp)
ffffffff84006124:	e426                	sd	s1,8(sp)
ffffffff84006126:	e04a                	sd	s2,0(sp)
ffffffff84006128:	84aa                	mv	s1,a0
ffffffff8400612a:	842e                	mv	s0,a1
ffffffff8400612c:	8932                	mv	s2,a2
ffffffff8400612e:	1385b783          	ld	a5,312(a1)
ffffffff84006132:	8bbd                	and	a5,a5,15
ffffffff84006134:	e795                	bnez	a5,ffffffff84006160 <doReplyTransfer+0x42>
ffffffff84006136:	872e                	mv	a4,a1
ffffffff84006138:	4601                	li	a2,0
ffffffff8400613a:	4581                	li	a1,0
ffffffff8400613c:	f7dff0ef          	jal	ffffffff840060b8 <doIPCTransfer>
ffffffff84006140:	854a                	mv	a0,s2
ffffffff84006142:	913ff0ef          	jal	ffffffff84005a54 <cteDeleteOne>
ffffffff84006146:	4585                	li	a1,1
ffffffff84006148:	8522                	mv	a0,s0
ffffffff8400614a:	87bfe0ef          	jal	ffffffff840049c4 <setThreadState>
ffffffff8400614e:	8522                	mv	a0,s0
ffffffff84006150:	b0ffe0ef          	jal	ffffffff84004c5e <possibleSwitchTo>
ffffffff84006154:	60e2                	ld	ra,24(sp)
ffffffff84006156:	6442                	ld	s0,16(sp)
ffffffff84006158:	64a2                	ld	s1,8(sp)
ffffffff8400615a:	6902                	ld	s2,0(sp)
ffffffff8400615c:	6105                	add	sp,sp,32
ffffffff8400615e:	8082                	ret
ffffffff84006160:	8532                	mv	a0,a2
ffffffff84006162:	8f3ff0ef          	jal	ffffffff84005a54 <cteDeleteOne>
ffffffff84006166:	85a6                	mv	a1,s1
ffffffff84006168:	8522                	mv	a0,s0
ffffffff8400616a:	b19fc0ef          	jal	ffffffff84002c82 <handleFaultReply>
ffffffff8400616e:	12043c23          	sd	zero,312(s0)
ffffffff84006172:	14043023          	sd	zero,320(s0)
ffffffff84006176:	c909                	beqz	a0,ffffffff84006188 <doReplyTransfer+0x6a>
ffffffff84006178:	4589                	li	a1,2
ffffffff8400617a:	8522                	mv	a0,s0
ffffffff8400617c:	849fe0ef          	jal	ffffffff840049c4 <setThreadState>
ffffffff84006180:	8522                	mv	a0,s0
ffffffff84006182:	addfe0ef          	jal	ffffffff84004c5e <possibleSwitchTo>
ffffffff84006186:	b7f9                	j	ffffffff84006154 <doReplyTransfer+0x36>
ffffffff84006188:	4581                	li	a1,0
ffffffff8400618a:	8522                	mv	a0,s0
ffffffff8400618c:	839fe0ef          	jal	ffffffff840049c4 <setThreadState>
ffffffff84006190:	b7d1                	j	ffffffff84006154 <doReplyTransfer+0x36>

ffffffff84006192 <handleReply>:
ffffffff84006192:	a801b503          	ld	a0,-1408(gp) # ffffffff84008e98 <ksCurThread>
ffffffff84006196:	c0057793          	and	a5,a0,-1024
ffffffff8400619a:	06078613          	add	a2,a5,96
ffffffff8400619e:	73b4                	ld	a3,96(a5)
ffffffff840061a0:	03b6d793          	srl	a5,a3,0x3b
ffffffff840061a4:	c39d                	beqz	a5,ffffffff840061ca <handleReply+0x38>
ffffffff840061a6:	1141                	add	sp,sp,-16
ffffffff840061a8:	e406                	sd	ra,8(sp)
ffffffff840061aa:	4721                	li	a4,8
ffffffff840061ac:	00e79d63          	bne	a5,a4,ffffffff840061c6 <handleReply+0x34>
ffffffff840061b0:	0016f793          	and	a5,a3,1
ffffffff840061b4:	eb89                	bnez	a5,ffffffff840061c6 <handleReply+0x34>
ffffffff840061b6:	8285                	srl	a3,a3,0x1
ffffffff840061b8:	8a85                	and	a3,a3,1
ffffffff840061ba:	660c                	ld	a1,8(a2)
ffffffff840061bc:	f63ff0ef          	jal	ffffffff8400611e <doReplyTransfer>
ffffffff840061c0:	60a2                	ld	ra,8(sp)
ffffffff840061c2:	0141                	add	sp,sp,16
ffffffff840061c4:	8082                	ret
ffffffff840061c6:	e8afc0ef          	jal	ffffffff84002850 <halt>
ffffffff840061ca:	8082                	ret

ffffffff840061cc <performInvocation_Reply>:
ffffffff840061cc:	1141                	add	sp,sp,-16
ffffffff840061ce:	e406                	sd	ra,8(sp)
ffffffff840061d0:	86b2                	mv	a3,a2
ffffffff840061d2:	862e                	mv	a2,a1
ffffffff840061d4:	85aa                	mv	a1,a0
ffffffff840061d6:	a801b503          	ld	a0,-1408(gp) # ffffffff84008e98 <ksCurThread>
ffffffff840061da:	f45ff0ef          	jal	ffffffff8400611e <doReplyTransfer>
ffffffff840061de:	4501                	li	a0,0
ffffffff840061e0:	60a2                	ld	ra,8(sp)
ffffffff840061e2:	0141                	add	sp,sp,16
ffffffff840061e4:	8082                	ret

ffffffff840061e6 <sendIPC>:
ffffffff840061e6:	715d                	add	sp,sp,-80
ffffffff840061e8:	e486                	sd	ra,72(sp)
ffffffff840061ea:	e0a2                	sd	s0,64(sp)
ffffffff840061ec:	fc26                	sd	s1,56(sp)
ffffffff840061ee:	f84a                	sd	s2,48(sp)
ffffffff840061f0:	f44e                	sd	s3,40(sp)
ffffffff840061f2:	f052                	sd	s4,32(sp)
ffffffff840061f4:	ec56                	sd	s5,24(sp)
ffffffff840061f6:	e85a                	sd	s6,16(sp)
ffffffff840061f8:	89ae                	mv	s3,a1
ffffffff840061fa:	8ab2                	mv	s5,a2
ffffffff840061fc:	8936                	mv	s2,a3
ffffffff840061fe:	8a3a                	mv	s4,a4
ffffffff84006200:	84be                	mv	s1,a5
ffffffff84006202:	8442                	mv	s0,a6
ffffffff84006204:	00083803          	ld	a6,0(a6)
ffffffff84006208:	00287793          	and	a5,a6,2
ffffffff8400620c:	cbc1                	beqz	a5,ffffffff8400629c <sendIPC+0xb6>
ffffffff8400620e:	00387713          	and	a4,a6,3
ffffffff84006212:	4789                	li	a5,2
ffffffff84006214:	08f71563          	bne	a4,a5,ffffffff8400629e <sendIPC+0xb8>
ffffffff84006218:	00843b03          	ld	s6,8(s0)
ffffffff8400621c:	f8000637          	lui	a2,0xf8000
ffffffff84006220:	8265                	srl	a2,a2,0x19
ffffffff84006222:	00c87633          	and	a2,a6,a2
ffffffff84006226:	02685813          	srl	a6,a6,0x26
ffffffff8400622a:	00187813          	and	a6,a6,1
ffffffff8400622e:	00080563          	beqz	a6,ffffffff84006238 <sendIPC+0x52>
ffffffff84006232:	57fd                	li	a5,-1
ffffffff84006234:	179e                	sll	a5,a5,0x27
ffffffff84006236:	8e5d                	or	a2,a2,a5
ffffffff84006238:	85da                	mv	a1,s6
ffffffff8400623a:	855a                	mv	a0,s6
ffffffff8400623c:	d5ffe0ef          	jal	ffffffff84004f9a <tcbEPDequeue>
ffffffff84006240:	e02a                	sd	a0,0(sp)
ffffffff84006242:	e42e                	sd	a1,8(sp)
ffffffff84006244:	e408                	sd	a0,8(s0)
ffffffff84006246:	601c                	ld	a5,0(s0)
ffffffff84006248:	577d                	li	a4,-1
ffffffff8400624a:	171e                	sll	a4,a4,0x27
ffffffff8400624c:	070d                	add	a4,a4,3
ffffffff8400624e:	8ff9                	and	a5,a5,a4
ffffffff84006250:	f8000737          	lui	a4,0xf8000
ffffffff84006254:	8365                	srl	a4,a4,0x19
ffffffff84006256:	8df9                	and	a1,a1,a4
ffffffff84006258:	8fcd                	or	a5,a5,a1
ffffffff8400625a:	0e050863          	beqz	a0,ffffffff8400634a <sendIPC+0x164>
ffffffff8400625e:	e01c                	sd	a5,0(s0)
ffffffff84006260:	875a                	mv	a4,s6
ffffffff84006262:	86ca                	mv	a3,s2
ffffffff84006264:	8656                	mv	a2,s5
ffffffff84006266:	85a2                	mv	a1,s0
ffffffff84006268:	8526                	mv	a0,s1
ffffffff8400626a:	e4fff0ef          	jal	ffffffff840060b8 <doIPCTransfer>
ffffffff8400626e:	120b3403          	ld	s0,288(s6)
ffffffff84006272:	4585                	li	a1,1
ffffffff84006274:	855a                	mv	a0,s6
ffffffff84006276:	f4efe0ef          	jal	ffffffff840049c4 <setThreadState>
ffffffff8400627a:	855a                	mv	a0,s6
ffffffff8400627c:	9e3fe0ef          	jal	ffffffff84004c5e <possibleSwitchTo>
ffffffff84006280:	00098f63          	beqz	s3,ffffffff8400629e <sendIPC+0xb8>
ffffffff84006284:	01496933          	or	s2,s2,s4
ffffffff84006288:	0c090363          	beqz	s2,ffffffff8400634e <sendIPC+0x168>
ffffffff8400628c:	00345613          	srl	a2,s0,0x3
ffffffff84006290:	8a05                	and	a2,a2,1
ffffffff84006292:	85da                	mv	a1,s6
ffffffff84006294:	8526                	mv	a0,s1
ffffffff84006296:	b73ff0ef          	jal	ffffffff84005e08 <setupCallerCap>
ffffffff8400629a:	a011                	j	ffffffff8400629e <sendIPC+0xb8>
ffffffff8400629c:	e919                	bnez	a0,ffffffff840062b2 <sendIPC+0xcc>
ffffffff8400629e:	60a6                	ld	ra,72(sp)
ffffffff840062a0:	6406                	ld	s0,64(sp)
ffffffff840062a2:	74e2                	ld	s1,56(sp)
ffffffff840062a4:	7942                	ld	s2,48(sp)
ffffffff840062a6:	79a2                	ld	s3,40(sp)
ffffffff840062a8:	7a02                	ld	s4,32(sp)
ffffffff840062aa:	6ae2                	ld	s5,24(sp)
ffffffff840062ac:	6b42                	ld	s6,16(sp)
ffffffff840062ae:	6161                	add	sp,sp,80
ffffffff840062b0:	8082                	ret
ffffffff840062b2:	1184b783          	ld	a5,280(s1)
ffffffff840062b6:	939d                	srl	a5,a5,0x27
ffffffff840062b8:	179e                	sll	a5,a5,0x27
ffffffff840062ba:	e0000737          	lui	a4,0xe0000
ffffffff840062be:	8365                	srl	a4,a4,0x19
ffffffff840062c0:	8f61                	and	a4,a4,s0
ffffffff840062c2:	8fd9                	or	a5,a5,a4
ffffffff840062c4:	0047e793          	or	a5,a5,4
ffffffff840062c8:	10f4bc23          	sd	a5,280(s1)
ffffffff840062cc:	12c4b423          	sd	a2,296(s1)
ffffffff840062d0:	1204b783          	ld	a5,288(s1)
ffffffff840062d4:	00369913          	sll	s2,a3,0x3
ffffffff840062d8:	00897913          	and	s2,s2,8
ffffffff840062dc:	9bcd                	and	a5,a5,-13
ffffffff840062de:	0127e7b3          	or	a5,a5,s2
ffffffff840062e2:	0a0a                	sll	s4,s4,0x2
ffffffff840062e4:	004a7a13          	and	s4,s4,4
ffffffff840062e8:	0147e7b3          	or	a5,a5,s4
ffffffff840062ec:	9bf5                	and	a5,a5,-3
ffffffff840062ee:	00159993          	sll	s3,a1,0x1
ffffffff840062f2:	0029f993          	and	s3,s3,2
ffffffff840062f6:	0137e7b3          	or	a5,a5,s3
ffffffff840062fa:	12f4b023          	sd	a5,288(s1)
ffffffff840062fe:	8526                	mv	a0,s1
ffffffff84006300:	e98fe0ef          	jal	ffffffff84004998 <scheduleTCB>
ffffffff84006304:	6410                	ld	a2,8(s0)
ffffffff84006306:	6018                	ld	a4,0(s0)
ffffffff84006308:	f80007b7          	lui	a5,0xf8000
ffffffff8400630c:	83e5                	srl	a5,a5,0x19
ffffffff8400630e:	8ff9                	and	a5,a5,a4
ffffffff84006310:	9319                	srl	a4,a4,0x26
ffffffff84006312:	8b05                	and	a4,a4,1
ffffffff84006314:	c701                	beqz	a4,ffffffff8400631c <sendIPC+0x136>
ffffffff84006316:	577d                	li	a4,-1
ffffffff84006318:	171e                	sll	a4,a4,0x27
ffffffff8400631a:	8fd9                	or	a5,a5,a4
ffffffff8400631c:	873e                	mv	a4,a5
ffffffff8400631e:	86a6                	mv	a3,s1
ffffffff84006320:	c601                	beqz	a2,ffffffff84006328 <sendIPC+0x142>
ffffffff84006322:	86b2                	mv	a3,a2
ffffffff84006324:	1897bc23          	sd	s1,408(a5) # fffffffff8000198 <ki_end+0x73fe0198>
ffffffff84006328:	1ae4b023          	sd	a4,416(s1)
ffffffff8400632c:	1804bc23          	sd	zero,408(s1)
ffffffff84006330:	6018                	ld	a4,0(s0)
ffffffff84006332:	e414                	sd	a3,8(s0)
ffffffff84006334:	f80007b7          	lui	a5,0xf8000
ffffffff84006338:	83e5                	srl	a5,a5,0x19
ffffffff8400633a:	8fe5                	and	a5,a5,s1
ffffffff8400633c:	931d                	srl	a4,a4,0x27
ffffffff8400633e:	171e                	sll	a4,a4,0x27
ffffffff84006340:	8fd9                	or	a5,a5,a4
ffffffff84006342:	0017e793          	or	a5,a5,1
ffffffff84006346:	e01c                	sd	a5,0(s0)
ffffffff84006348:	bf99                	j	ffffffff8400629e <sendIPC+0xb8>
ffffffff8400634a:	9bf1                	and	a5,a5,-4
ffffffff8400634c:	bf09                	j	ffffffff8400625e <sendIPC+0x78>
ffffffff8400634e:	4581                	li	a1,0
ffffffff84006350:	8526                	mv	a0,s1
ffffffff84006352:	e72fe0ef          	jal	ffffffff840049c4 <setThreadState>
ffffffff84006356:	b7a1                	j	ffffffff8400629e <sendIPC+0xb8>

ffffffff84006358 <sendFaultIPC>:
ffffffff84006358:	715d                	add	sp,sp,-80
ffffffff8400635a:	e486                	sd	ra,72(sp)
ffffffff8400635c:	e0a2                	sd	s0,64(sp)
ffffffff8400635e:	fc26                	sd	s1,56(sp)
ffffffff84006360:	f84a                	sd	s2,48(sp)
ffffffff84006362:	f44e                	sd	s3,40(sp)
ffffffff84006364:	f052                	sd	s4,32(sp)
ffffffff84006366:	842a                	mv	s0,a0
ffffffff84006368:	d5818793          	add	a5,gp,-680 # ffffffff84009170 <current_lookup_fault>
ffffffff8400636c:	0007b983          	ld	s3,0(a5) # fffffffff8000000 <ki_end+0x73fe0000>
ffffffff84006370:	0087ba03          	ld	s4,8(a5)
ffffffff84006374:	17853903          	ld	s2,376(a0)
ffffffff84006378:	864a                	mv	a2,s2
ffffffff8400637a:	85aa                	mv	a1,a0
ffffffff8400637c:	0028                	add	a0,sp,8
ffffffff8400637e:	c32fd0ef          	jal	ffffffff840037b0 <lookupCap>
ffffffff84006382:	64a2                	ld	s1,8(sp)
ffffffff84006384:	e0b5                	bnez	s1,ffffffff840063e8 <sendFaultIPC+0x90>
ffffffff84006386:	67c2                	ld	a5,16(sp)
ffffffff84006388:	6662                	ld	a2,24(sp)
ffffffff8400638a:	03b7d693          	srl	a3,a5,0x3b
ffffffff8400638e:	4711                	li	a4,4
ffffffff84006390:	06e69963          	bne	a3,a4,ffffffff84006402 <sendFaultIPC+0xaa>
ffffffff84006394:	0377d713          	srl	a4,a5,0x37
ffffffff84006398:	8b05                	and	a4,a4,1
ffffffff8400639a:	c725                	beqz	a4,ffffffff84006402 <sendFaultIPC+0xaa>
ffffffff8400639c:	0397d693          	srl	a3,a5,0x39
ffffffff840063a0:	03a7d713          	srl	a4,a5,0x3a
ffffffff840063a4:	8f55                	or	a4,a4,a3
ffffffff840063a6:	8b05                	and	a4,a4,1
ffffffff840063a8:	cf29                	beqz	a4,ffffffff84006402 <sendFaultIPC+0xaa>
ffffffff840063aa:	d4818593          	add	a1,gp,-696 # ffffffff84009160 <current_fault>
ffffffff840063ae:	6198                	ld	a4,0(a1)
ffffffff840063b0:	12e43c23          	sd	a4,312(s0)
ffffffff840063b4:	658c                	ld	a1,8(a1)
ffffffff840063b6:	14b43023          	sd	a1,320(s0)
ffffffff840063ba:	8b3d                	and	a4,a4,15
ffffffff840063bc:	4585                	li	a1,1
ffffffff840063be:	02b70d63          	beq	a4,a1,ffffffff840063f8 <sendFaultIPC+0xa0>
ffffffff840063c2:	01979813          	sll	a6,a5,0x19
ffffffff840063c6:	01985813          	srl	a6,a6,0x19
ffffffff840063ca:	9399                	srl	a5,a5,0x26
ffffffff840063cc:	8b85                	and	a5,a5,1
ffffffff840063ce:	c789                	beqz	a5,ffffffff840063d8 <sendFaultIPC+0x80>
ffffffff840063d0:	57fd                	li	a5,-1
ffffffff840063d2:	179e                	sll	a5,a5,0x27
ffffffff840063d4:	00f86833          	or	a6,a6,a5
ffffffff840063d8:	87a2                	mv	a5,s0
ffffffff840063da:	4705                	li	a4,1
ffffffff840063dc:	8a85                	and	a3,a3,1
ffffffff840063de:	4585                	li	a1,1
ffffffff840063e0:	4505                	li	a0,1
ffffffff840063e2:	e05ff0ef          	jal	ffffffff840061e6 <sendIPC>
ffffffff840063e6:	a815                	j	ffffffff8400641a <sendFaultIPC+0xc2>
ffffffff840063e8:	d4818793          	add	a5,gp,-696 # ffffffff84009160 <current_fault>
ffffffff840063ec:	4705                	li	a4,1
ffffffff840063ee:	e398                	sd	a4,0(a5)
ffffffff840063f0:	0127b423          	sd	s2,8(a5)
ffffffff840063f4:	4485                	li	s1,1
ffffffff840063f6:	a015                	j	ffffffff8400641a <sendFaultIPC+0xc2>
ffffffff840063f8:	15343423          	sd	s3,328(s0)
ffffffff840063fc:	15443823          	sd	s4,336(s0)
ffffffff84006400:	b7c9                	j	ffffffff840063c2 <sendFaultIPC+0x6a>
ffffffff84006402:	d4818793          	add	a5,gp,-696 # ffffffff84009160 <current_fault>
ffffffff84006406:	4705                	li	a4,1
ffffffff84006408:	e398                	sd	a4,0(a5)
ffffffff8400640a:	0127b423          	sd	s2,8(a5)
ffffffff8400640e:	d5818793          	add	a5,gp,-680 # ffffffff84009170 <current_lookup_fault>
ffffffff84006412:	e398                	sd	a4,0(a5)
ffffffff84006414:	0007b423          	sd	zero,8(a5)
ffffffff84006418:	4485                	li	s1,1
ffffffff8400641a:	8526                	mv	a0,s1
ffffffff8400641c:	60a6                	ld	ra,72(sp)
ffffffff8400641e:	6406                	ld	s0,64(sp)
ffffffff84006420:	74e2                	ld	s1,56(sp)
ffffffff84006422:	7942                	ld	s2,48(sp)
ffffffff84006424:	79a2                	ld	s3,40(sp)
ffffffff84006426:	7a02                	ld	s4,32(sp)
ffffffff84006428:	6161                	add	sp,sp,80
ffffffff8400642a:	8082                	ret

ffffffff8400642c <handleFault>:
ffffffff8400642c:	1141                	add	sp,sp,-16
ffffffff8400642e:	e406                	sd	ra,8(sp)
ffffffff84006430:	e022                	sd	s0,0(sp)
ffffffff84006432:	842a                	mv	s0,a0
ffffffff84006434:	f25ff0ef          	jal	ffffffff84006358 <sendFaultIPC>
ffffffff84006438:	e509                	bnez	a0,ffffffff84006442 <handleFault+0x16>
ffffffff8400643a:	60a2                	ld	ra,8(sp)
ffffffff8400643c:	6402                	ld	s0,0(sp)
ffffffff8400643e:	0141                	add	sp,sp,16
ffffffff84006440:	8082                	ret
ffffffff84006442:	4581                	li	a1,0
ffffffff84006444:	8522                	mv	a0,s0
ffffffff84006446:	d7efe0ef          	jal	ffffffff840049c4 <setThreadState>
ffffffff8400644a:	bfc5                	j	ffffffff8400643a <handleFault+0xe>

ffffffff8400644c <performInvocation_Endpoint>:
ffffffff8400644c:	1141                	add	sp,sp,-16
ffffffff8400644e:	e406                	sd	ra,8(sp)
ffffffff84006450:	882a                	mv	a6,a0
ffffffff84006452:	88ae                	mv	a7,a1
ffffffff84006454:	853a                	mv	a0,a4
ffffffff84006456:	85be                	mv	a1,a5
ffffffff84006458:	a801b783          	ld	a5,-1408(gp) # ffffffff84008e98 <ksCurThread>
ffffffff8400645c:	8736                	mv	a4,a3
ffffffff8400645e:	86b2                	mv	a3,a2
ffffffff84006460:	8646                	mv	a2,a7
ffffffff84006462:	d85ff0ef          	jal	ffffffff840061e6 <sendIPC>
ffffffff84006466:	4501                	li	a0,0
ffffffff84006468:	60a2                	ld	ra,8(sp)
ffffffff8400646a:	0141                	add	sp,sp,16
ffffffff8400646c:	8082                	ret

ffffffff8400646e <receiveIPC>:
ffffffff8400646e:	711d                	add	sp,sp,-96
ffffffff84006470:	ec86                	sd	ra,88(sp)
ffffffff84006472:	e8a2                	sd	s0,80(sp)
ffffffff84006474:	e4a6                	sd	s1,72(sp)
ffffffff84006476:	e0ca                	sd	s2,64(sp)
ffffffff84006478:	fc4e                	sd	s3,56(sp)
ffffffff8400647a:	f852                	sd	s4,48(sp)
ffffffff8400647c:	f456                	sd	s5,40(sp)
ffffffff8400647e:	84aa                	mv	s1,a0
ffffffff84006480:	e02e                	sd	a1,0(sp)
ffffffff84006482:	e432                	sd	a2,8(sp)
ffffffff84006484:	842e                	mv	s0,a1
ffffffff84006486:	01959793          	sll	a5,a1,0x19
ffffffff8400648a:	83e5                	srl	a5,a5,0x19
ffffffff8400648c:	0265d713          	srl	a4,a1,0x26
ffffffff84006490:	8b05                	and	a4,a4,1
ffffffff84006492:	c701                	beqz	a4,ffffffff8400649a <receiveIPC+0x2c>
ffffffff84006494:	577d                	li	a4,-1
ffffffff84006496:	171e                	sll	a4,a4,0x27
ffffffff84006498:	8fd9                	or	a5,a5,a4
ffffffff8400649a:	893e                	mv	s2,a5
ffffffff8400649c:	1304b503          	ld	a0,304(s1)
ffffffff840064a0:	c511                	beqz	a0,ffffffff840064ac <receiveIPC+0x3e>
ffffffff840064a2:	6118                	ld	a4,0(a0)
ffffffff840064a4:	8b0d                	and	a4,a4,3
ffffffff840064a6:	4609                	li	a2,2
ffffffff840064a8:	02c70463          	beq	a4,a2,ffffffff840064d0 <receiveIPC+0x62>
ffffffff840064ac:	00093703          	ld	a4,0(s2)
ffffffff840064b0:	00377593          	and	a1,a4,3
ffffffff840064b4:	4605                	li	a2,1
ffffffff840064b6:	0ac58563          	beq	a1,a2,ffffffff84006560 <receiveIPC+0xf2>
ffffffff840064ba:	8b05                	and	a4,a4,1
ffffffff840064bc:	cf11                	beqz	a4,ffffffff840064d8 <receiveIPC+0x6a>
ffffffff840064be:	60e6                	ld	ra,88(sp)
ffffffff840064c0:	6446                	ld	s0,80(sp)
ffffffff840064c2:	64a6                	ld	s1,72(sp)
ffffffff840064c4:	6906                	ld	s2,64(sp)
ffffffff840064c6:	79e2                	ld	s3,56(sp)
ffffffff840064c8:	7a42                	ld	s4,48(sp)
ffffffff840064ca:	7aa2                	ld	s5,40(sp)
ffffffff840064cc:	6125                	add	sp,sp,96
ffffffff840064ce:	8082                	ret
ffffffff840064d0:	85a6                	mv	a1,s1
ffffffff840064d2:	87dfd0ef          	jal	ffffffff84003d4e <completeSignal>
ffffffff840064d6:	b7e5                	j	ffffffff840064be <receiveIPC+0x50>
ffffffff840064d8:	c2c9                	beqz	a3,ffffffff8400655a <receiveIPC+0xec>
ffffffff840064da:	1184b703          	ld	a4,280(s1)
ffffffff840064de:	931d                	srl	a4,a4,0x27
ffffffff840064e0:	171e                	sll	a4,a4,0x27
ffffffff840064e2:	e00006b7          	lui	a3,0xe0000
ffffffff840064e6:	82e5                	srl	a3,a3,0x19
ffffffff840064e8:	8ff5                	and	a5,a5,a3
ffffffff840064ea:	8fd9                	or	a5,a5,a4
ffffffff840064ec:	0037e793          	or	a5,a5,3
ffffffff840064f0:	10f4bc23          	sd	a5,280(s1)
ffffffff840064f4:	9059                	srl	s0,s0,0x36
ffffffff840064f6:	8821                	and	s0,s0,8
ffffffff840064f8:	1204b783          	ld	a5,288(s1)
ffffffff840064fc:	9bdd                	and	a5,a5,-9
ffffffff840064fe:	8c5d                	or	s0,s0,a5
ffffffff84006500:	1284b023          	sd	s0,288(s1)
ffffffff84006504:	8526                	mv	a0,s1
ffffffff84006506:	c92fe0ef          	jal	ffffffff84004998 <scheduleTCB>
ffffffff8400650a:	00893603          	ld	a2,8(s2)
ffffffff8400650e:	00093703          	ld	a4,0(s2)
ffffffff84006512:	f80007b7          	lui	a5,0xf8000
ffffffff84006516:	83e5                	srl	a5,a5,0x19
ffffffff84006518:	8ff9                	and	a5,a5,a4
ffffffff8400651a:	9319                	srl	a4,a4,0x26
ffffffff8400651c:	8b05                	and	a4,a4,1
ffffffff8400651e:	c701                	beqz	a4,ffffffff84006526 <receiveIPC+0xb8>
ffffffff84006520:	577d                	li	a4,-1
ffffffff84006522:	171e                	sll	a4,a4,0x27
ffffffff84006524:	8fd9                	or	a5,a5,a4
ffffffff84006526:	873e                	mv	a4,a5
ffffffff84006528:	86a6                	mv	a3,s1
ffffffff8400652a:	c601                	beqz	a2,ffffffff84006532 <receiveIPC+0xc4>
ffffffff8400652c:	86b2                	mv	a3,a2
ffffffff8400652e:	1897bc23          	sd	s1,408(a5) # fffffffff8000198 <ki_end+0x73fe0198>
ffffffff84006532:	1ae4b023          	sd	a4,416(s1)
ffffffff84006536:	1804bc23          	sd	zero,408(s1)
ffffffff8400653a:	00093703          	ld	a4,0(s2)
ffffffff8400653e:	00d93423          	sd	a3,8(s2)
ffffffff84006542:	f80007b7          	lui	a5,0xf8000
ffffffff84006546:	83e5                	srl	a5,a5,0x19
ffffffff84006548:	8fe5                	and	a5,a5,s1
ffffffff8400654a:	931d                	srl	a4,a4,0x27
ffffffff8400654c:	171e                	sll	a4,a4,0x27
ffffffff8400654e:	8fd9                	or	a5,a5,a4
ffffffff84006550:	0027e793          	or	a5,a5,2
ffffffff84006554:	00f93023          	sd	a5,0(s2)
ffffffff84006558:	b79d                	j	ffffffff840064be <receiveIPC+0x50>
ffffffff8400655a:	0404b423          	sd	zero,72(s1)
ffffffff8400655e:	b785                	j	ffffffff840064be <receiveIPC+0x50>
ffffffff84006560:	00893983          	ld	s3,8(s2)
ffffffff84006564:	f8000637          	lui	a2,0xf8000
ffffffff84006568:	8265                	srl	a2,a2,0x19
ffffffff8400656a:	8e79                	and	a2,a2,a4
ffffffff8400656c:	9319                	srl	a4,a4,0x26
ffffffff8400656e:	8b05                	and	a4,a4,1
ffffffff84006570:	c701                	beqz	a4,ffffffff84006578 <receiveIPC+0x10a>
ffffffff84006572:	57fd                	li	a5,-1
ffffffff84006574:	179e                	sll	a5,a5,0x27
ffffffff84006576:	8e5d                	or	a2,a2,a5
ffffffff84006578:	85ce                	mv	a1,s3
ffffffff8400657a:	854e                	mv	a0,s3
ffffffff8400657c:	a1ffe0ef          	jal	ffffffff84004f9a <tcbEPDequeue>
ffffffff84006580:	e82a                	sd	a0,16(sp)
ffffffff84006582:	ec2e                	sd	a1,24(sp)
ffffffff84006584:	00a93423          	sd	a0,8(s2)
ffffffff84006588:	00093783          	ld	a5,0(s2)
ffffffff8400658c:	577d                	li	a4,-1
ffffffff8400658e:	171e                	sll	a4,a4,0x27
ffffffff84006590:	070d                	add	a4,a4,3 # ffffffffe0000003 <ki_end+0x5bfe0003>
ffffffff84006592:	8ff9                	and	a5,a5,a4
ffffffff84006594:	f8000737          	lui	a4,0xf8000
ffffffff84006598:	8365                	srl	a4,a4,0x19
ffffffff8400659a:	8df9                	and	a1,a1,a4
ffffffff8400659c:	8fcd                	or	a5,a5,a1
ffffffff8400659e:	c529                	beqz	a0,ffffffff840065e8 <receiveIPC+0x17a>
ffffffff840065a0:	00f93023          	sd	a5,0(s2)
ffffffff840065a4:	1209ba03          	ld	s4,288(s3)
ffffffff840065a8:	003a5a93          	srl	s5,s4,0x3
ffffffff840065ac:	8726                	mv	a4,s1
ffffffff840065ae:	001af693          	and	a3,s5,1
ffffffff840065b2:	1289b603          	ld	a2,296(s3)
ffffffff840065b6:	85ca                	mv	a1,s2
ffffffff840065b8:	854e                	mv	a0,s3
ffffffff840065ba:	affff0ef          	jal	ffffffff840060b8 <doIPCTransfer>
ffffffff840065be:	1209b783          	ld	a5,288(s3)
ffffffff840065c2:	8385                	srl	a5,a5,0x1
ffffffff840065c4:	8b85                	and	a5,a5,1
ffffffff840065c6:	cb85                	beqz	a5,ffffffff840065f6 <receiveIPC+0x188>
ffffffff840065c8:	002a5a13          	srl	s4,s4,0x2
ffffffff840065cc:	015a6a33          	or	s4,s4,s5
ffffffff840065d0:	001a7a13          	and	s4,s4,1
ffffffff840065d4:	000a0c63          	beqz	s4,ffffffff840065ec <receiveIPC+0x17e>
ffffffff840065d8:	03945613          	srl	a2,s0,0x39
ffffffff840065dc:	8a05                	and	a2,a2,1
ffffffff840065de:	85a6                	mv	a1,s1
ffffffff840065e0:	854e                	mv	a0,s3
ffffffff840065e2:	827ff0ef          	jal	ffffffff84005e08 <setupCallerCap>
ffffffff840065e6:	bde1                	j	ffffffff840064be <receiveIPC+0x50>
ffffffff840065e8:	9bf1                	and	a5,a5,-4
ffffffff840065ea:	bf5d                	j	ffffffff840065a0 <receiveIPC+0x132>
ffffffff840065ec:	4581                	li	a1,0
ffffffff840065ee:	854e                	mv	a0,s3
ffffffff840065f0:	bd4fe0ef          	jal	ffffffff840049c4 <setThreadState>
ffffffff840065f4:	b5e9                	j	ffffffff840064be <receiveIPC+0x50>
ffffffff840065f6:	4585                	li	a1,1
ffffffff840065f8:	854e                	mv	a0,s3
ffffffff840065fa:	bcafe0ef          	jal	ffffffff840049c4 <setThreadState>
ffffffff840065fe:	854e                	mv	a0,s3
ffffffff84006600:	e5efe0ef          	jal	ffffffff84004c5e <possibleSwitchTo>
ffffffff84006604:	bd6d                	j	ffffffff840064be <receiveIPC+0x50>

ffffffff84006606 <handleRecv>:
ffffffff84006606:	7139                	add	sp,sp,-64
ffffffff84006608:	fc06                	sd	ra,56(sp)
ffffffff8400660a:	f822                	sd	s0,48(sp)
ffffffff8400660c:	f426                	sd	s1,40(sp)
ffffffff8400660e:	842a                	mv	s0,a0
ffffffff84006610:	a801b583          	ld	a1,-1408(gp) # ffffffff84008e98 <ksCurThread>
ffffffff84006614:	65a4                	ld	s1,72(a1)
ffffffff84006616:	8626                	mv	a2,s1
ffffffff84006618:	0028                	add	a0,sp,8
ffffffff8400661a:	996fd0ef          	jal	ffffffff840037b0 <lookupCap>
ffffffff8400661e:	67a2                	ld	a5,8(sp)
ffffffff84006620:	e3a1                	bnez	a5,ffffffff84006660 <handleRecv+0x5a>
ffffffff84006622:	67c2                	ld	a5,16(sp)
ffffffff84006624:	03b7d713          	srl	a4,a5,0x3b
ffffffff84006628:	4691                	li	a3,4
ffffffff8400662a:	04d70763          	beq	a4,a3,ffffffff84006678 <handleRecv+0x72>
ffffffff8400662e:	4699                	li	a3,6
ffffffff84006630:	08d70563          	beq	a4,a3,ffffffff840066ba <handleRecv+0xb4>
ffffffff84006634:	d5818793          	add	a5,gp,-680 # ffffffff84009170 <current_lookup_fault>
ffffffff84006638:	4705                	li	a4,1
ffffffff8400663a:	e398                	sd	a4,0(a5)
ffffffff8400663c:	0007b423          	sd	zero,8(a5) # fffffffff8000008 <ki_end+0x73fe0008>
ffffffff84006640:	d4818713          	add	a4,gp,-696 # ffffffff84009160 <current_fault>
ffffffff84006644:	57fd                	li	a5,-1
ffffffff84006646:	17fe                	sll	a5,a5,0x3f
ffffffff84006648:	0785                	add	a5,a5,1
ffffffff8400664a:	e31c                	sd	a5,0(a4)
ffffffff8400664c:	e704                	sd	s1,8(a4)
ffffffff8400664e:	a801b503          	ld	a0,-1408(gp) # ffffffff84008e98 <ksCurThread>
ffffffff84006652:	ddbff0ef          	jal	ffffffff8400642c <handleFault>
ffffffff84006656:	70e2                	ld	ra,56(sp)
ffffffff84006658:	7442                	ld	s0,48(sp)
ffffffff8400665a:	74a2                	ld	s1,40(sp)
ffffffff8400665c:	6121                	add	sp,sp,64
ffffffff8400665e:	8082                	ret
ffffffff84006660:	d4818713          	add	a4,gp,-696 # ffffffff84009160 <current_fault>
ffffffff84006664:	57fd                	li	a5,-1
ffffffff84006666:	17fe                	sll	a5,a5,0x3f
ffffffff84006668:	0785                	add	a5,a5,1
ffffffff8400666a:	e31c                	sd	a5,0(a4)
ffffffff8400666c:	e704                	sd	s1,8(a4)
ffffffff8400666e:	a801b503          	ld	a0,-1408(gp) # ffffffff84008e98 <ksCurThread>
ffffffff84006672:	dbbff0ef          	jal	ffffffff8400642c <handleFault>
ffffffff84006676:	b7c5                	j	ffffffff84006656 <handleRecv+0x50>
ffffffff84006678:	93e1                	srl	a5,a5,0x38
ffffffff8400667a:	8b85                	and	a5,a5,1
ffffffff8400667c:	cf89                	beqz	a5,ffffffff84006696 <handleRecv+0x90>
ffffffff8400667e:	a8018493          	add	s1,gp,-1408 # ffffffff84008e98 <ksCurThread>
ffffffff84006682:	6088                	ld	a0,0(s1)
ffffffff84006684:	fc6ff0ef          	jal	ffffffff84005e4a <deleteCallerCap>
ffffffff84006688:	86a2                	mv	a3,s0
ffffffff8400668a:	65c2                	ld	a1,16(sp)
ffffffff8400668c:	6662                	ld	a2,24(sp)
ffffffff8400668e:	6088                	ld	a0,0(s1)
ffffffff84006690:	ddfff0ef          	jal	ffffffff8400646e <receiveIPC>
ffffffff84006694:	b7c9                	j	ffffffff84006656 <handleRecv+0x50>
ffffffff84006696:	d5818793          	add	a5,gp,-680 # ffffffff84009170 <current_lookup_fault>
ffffffff8400669a:	4705                	li	a4,1
ffffffff8400669c:	e398                	sd	a4,0(a5)
ffffffff8400669e:	0007b423          	sd	zero,8(a5)
ffffffff840066a2:	d4818713          	add	a4,gp,-696 # ffffffff84009160 <current_fault>
ffffffff840066a6:	57fd                	li	a5,-1
ffffffff840066a8:	17fe                	sll	a5,a5,0x3f
ffffffff840066aa:	0785                	add	a5,a5,1
ffffffff840066ac:	e31c                	sd	a5,0(a4)
ffffffff840066ae:	e704                	sd	s1,8(a4)
ffffffff840066b0:	a801b503          	ld	a0,-1408(gp) # ffffffff84008e98 <ksCurThread>
ffffffff840066b4:	d79ff0ef          	jal	ffffffff8400642c <handleFault>
ffffffff840066b8:	bf79                	j	ffffffff84006656 <handleRecv+0x50>
ffffffff840066ba:	01979713          	sll	a4,a5,0x19
ffffffff840066be:	8365                	srl	a4,a4,0x19
ffffffff840066c0:	0267d693          	srl	a3,a5,0x26
ffffffff840066c4:	8a85                	and	a3,a3,1
ffffffff840066c6:	c681                	beqz	a3,ffffffff840066ce <handleRecv+0xc8>
ffffffff840066c8:	56fd                	li	a3,-1
ffffffff840066ca:	169e                	sll	a3,a3,0x27
ffffffff840066cc:	8f55                	or	a4,a4,a3
ffffffff840066ce:	6f18                	ld	a4,24(a4)
ffffffff840066d0:	01971693          	sll	a3,a4,0x19
ffffffff840066d4:	82e5                	srl	a3,a3,0x19
ffffffff840066d6:	9319                	srl	a4,a4,0x26
ffffffff840066d8:	8b05                	and	a4,a4,1
ffffffff840066da:	cf15                	beqz	a4,ffffffff84006716 <handleRecv+0x110>
ffffffff840066dc:	93e9                	srl	a5,a5,0x3a
ffffffff840066de:	8b85                	and	a5,a5,1
ffffffff840066e0:	e39d                	bnez	a5,ffffffff84006706 <handleRecv+0x100>
ffffffff840066e2:	d5818793          	add	a5,gp,-680 # ffffffff84009170 <current_lookup_fault>
ffffffff840066e6:	4705                	li	a4,1
ffffffff840066e8:	e398                	sd	a4,0(a5)
ffffffff840066ea:	0007b423          	sd	zero,8(a5)
ffffffff840066ee:	d4818713          	add	a4,gp,-696 # ffffffff84009160 <current_fault>
ffffffff840066f2:	57fd                	li	a5,-1
ffffffff840066f4:	17fe                	sll	a5,a5,0x3f
ffffffff840066f6:	0785                	add	a5,a5,1
ffffffff840066f8:	e31c                	sd	a5,0(a4)
ffffffff840066fa:	e704                	sd	s1,8(a4)
ffffffff840066fc:	a801b503          	ld	a0,-1408(gp) # ffffffff84008e98 <ksCurThread>
ffffffff84006700:	d2dff0ef          	jal	ffffffff8400642c <handleFault>
ffffffff84006704:	bf89                	j	ffffffff84006656 <handleRecv+0x50>
ffffffff84006706:	57fd                	li	a5,-1
ffffffff84006708:	179e                	sll	a5,a5,0x27
ffffffff8400670a:	8edd                	or	a3,a3,a5
ffffffff8400670c:	a801b783          	ld	a5,-1408(gp) # ffffffff84008e98 <ksCurThread>
ffffffff84006710:	00d78763          	beq	a5,a3,ffffffff8400671e <handleRecv+0x118>
ffffffff84006714:	b7f9                	j	ffffffff840066e2 <handleRecv+0xdc>
ffffffff84006716:	93e9                	srl	a5,a5,0x3a
ffffffff84006718:	8b85                	and	a5,a5,1
ffffffff8400671a:	d7e1                	beqz	a5,ffffffff840066e2 <handleRecv+0xdc>
ffffffff8400671c:	fae5                	bnez	a3,ffffffff8400670c <handleRecv+0x106>
ffffffff8400671e:	86a2                	mv	a3,s0
ffffffff84006720:	65c2                	ld	a1,16(sp)
ffffffff84006722:	6662                	ld	a2,24(sp)
ffffffff84006724:	a801b503          	ld	a0,-1408(gp) # ffffffff84008e98 <ksCurThread>
ffffffff84006728:	c52fe0ef          	jal	ffffffff84004b7a <receiveSignal>
ffffffff8400672c:	b72d                	j	ffffffff84006656 <handleRecv+0x50>

ffffffff8400672e <decodeDomainInvocation>:
ffffffff8400672e:	47f5                	li	a5,29
ffffffff84006730:	04f51b63          	bne	a0,a5,ffffffff84006786 <decodeDomainInvocation+0x58>
ffffffff84006734:	cdb1                	beqz	a1,ffffffff84006790 <decodeDomainInvocation+0x62>
ffffffff84006736:	1101                	add	sp,sp,-32
ffffffff84006738:	ec06                	sd	ra,24(sp)
ffffffff8400673a:	e822                	sd	s0,16(sp)
ffffffff8400673c:	e426                	sd	s1,8(sp)
ffffffff8400673e:	a801b503          	ld	a0,-1408(gp) # ffffffff84008e98 <ksCurThread>
ffffffff84006742:	6d24                	ld	s1,88(a0)
ffffffff84006744:	47bd                	li	a5,15
ffffffff84006746:	0497ea63          	bltu	a5,s1,ffffffff8400679a <decodeDomainInvocation+0x6c>
ffffffff8400674a:	8781b783          	ld	a5,-1928(gp) # ffffffff84008c90 <current_extra_caps>
ffffffff8400674e:	cfb1                	beqz	a5,ffffffff840067aa <decodeDomainInvocation+0x7c>
ffffffff84006750:	6380                	ld	s0,0(a5)
ffffffff84006752:	03b45713          	srl	a4,s0,0x3b
ffffffff84006756:	47b1                	li	a5,12
ffffffff84006758:	04f71e63          	bne	a4,a5,ffffffff840067b4 <decodeDomainInvocation+0x86>
ffffffff8400675c:	4589                	li	a1,2
ffffffff8400675e:	a66fe0ef          	jal	ffffffff840049c4 <setThreadState>
ffffffff84006762:	01941513          	sll	a0,s0,0x19
ffffffff84006766:	8165                	srl	a0,a0,0x19
ffffffff84006768:	9019                	srl	s0,s0,0x26
ffffffff8400676a:	8805                	and	s0,s0,1
ffffffff8400676c:	c401                	beqz	s0,ffffffff84006774 <decodeDomainInvocation+0x46>
ffffffff8400676e:	57fd                	li	a5,-1
ffffffff84006770:	179e                	sll	a5,a5,0x27
ffffffff84006772:	8d5d                	or	a0,a0,a5
ffffffff84006774:	85a6                	mv	a1,s1
ffffffff84006776:	f86fe0ef          	jal	ffffffff84004efc <setDomain>
ffffffff8400677a:	4501                	li	a0,0
ffffffff8400677c:	60e2                	ld	ra,24(sp)
ffffffff8400677e:	6442                	ld	s0,16(sp)
ffffffff84006780:	64a2                	ld	s1,8(sp)
ffffffff84006782:	6105                	add	sp,sp,32
ffffffff84006784:	8082                	ret
ffffffff84006786:	478d                	li	a5,3
ffffffff84006788:	d4f1b023          	sd	a5,-704(gp) # ffffffff84009158 <current_syscall_error+0x30>
ffffffff8400678c:	450d                	li	a0,3
ffffffff8400678e:	8082                	ret
ffffffff84006790:	479d                	li	a5,7
ffffffff84006792:	d4f1b023          	sd	a5,-704(gp) # ffffffff84009158 <current_syscall_error+0x30>
ffffffff84006796:	450d                	li	a0,3
ffffffff84006798:	8082                	ret
ffffffff8400679a:	d1018793          	add	a5,gp,-752 # ffffffff84009128 <current_syscall_error>
ffffffff8400679e:	4705                	li	a4,1
ffffffff840067a0:	fb98                	sd	a4,48(a5)
ffffffff840067a2:	0007b023          	sd	zero,0(a5)
ffffffff840067a6:	450d                	li	a0,3
ffffffff840067a8:	bfd1                	j	ffffffff8400677c <decodeDomainInvocation+0x4e>
ffffffff840067aa:	479d                	li	a5,7
ffffffff840067ac:	d4f1b023          	sd	a5,-704(gp) # ffffffff84009158 <current_syscall_error+0x30>
ffffffff840067b0:	450d                	li	a0,3
ffffffff840067b2:	b7e9                	j	ffffffff8400677c <decodeDomainInvocation+0x4e>
ffffffff840067b4:	d1018793          	add	a5,gp,-752 # ffffffff84009128 <current_syscall_error>
ffffffff840067b8:	4705                	li	a4,1
ffffffff840067ba:	fb98                	sd	a4,48(a5)
ffffffff840067bc:	e398                	sd	a4,0(a5)
ffffffff840067be:	450d                	li	a0,3
ffffffff840067c0:	bf75                	j	ffffffff8400677c <decodeDomainInvocation+0x4e>

ffffffff840067c2 <invokeTCB_Suspend>:
ffffffff840067c2:	1141                	add	sp,sp,-16
ffffffff840067c4:	e406                	sd	ra,8(sp)
ffffffff840067c6:	a4bfe0ef          	jal	ffffffff84005210 <suspend>
ffffffff840067ca:	4501                	li	a0,0
ffffffff840067cc:	60a2                	ld	ra,8(sp)
ffffffff840067ce:	0141                	add	sp,sp,16
ffffffff840067d0:	8082                	ret

ffffffff840067d2 <invokeTCB_Resume>:
ffffffff840067d2:	1141                	add	sp,sp,-16
ffffffff840067d4:	e406                	sd	ra,8(sp)
ffffffff840067d6:	bd2ff0ef          	jal	ffffffff84005ba8 <restart>
ffffffff840067da:	4501                	li	a0,0
ffffffff840067dc:	60a2                	ld	ra,8(sp)
ffffffff840067de:	0141                	add	sp,sp,16
ffffffff840067e0:	8082                	ret

ffffffff840067e2 <invokeTCB_ThreadControl>:
ffffffff840067e2:	711d                	add	sp,sp,-96
ffffffff840067e4:	ec86                	sd	ra,88(sp)
ffffffff840067e6:	e8a2                	sd	s0,80(sp)
ffffffff840067e8:	e4a6                	sd	s1,72(sp)
ffffffff840067ea:	e0ca                	sd	s2,64(sp)
ffffffff840067ec:	fc4e                	sd	s3,56(sp)
ffffffff840067ee:	f852                	sd	s4,48(sp)
ffffffff840067f0:	f456                	sd	s5,40(sp)
ffffffff840067f2:	842a                	mv	s0,a0
ffffffff840067f4:	892e                	mv	s2,a1
ffffffff840067f6:	89ba                	mv	s3,a4
ffffffff840067f8:	e03e                	sd	a5,0(sp)
ffffffff840067fa:	e442                	sd	a6,8(sp)
ffffffff840067fc:	8a46                	mv	s4,a7
ffffffff840067fe:	64ea                	ld	s1,152(sp)
ffffffff84006800:	01951793          	sll	a5,a0,0x19
ffffffff84006804:	83e5                	srl	a5,a5,0x19
ffffffff84006806:	450d                	li	a0,3
ffffffff84006808:	1576                	sll	a0,a0,0x3d
ffffffff8400680a:	8fc9                	or	a5,a5,a0
ffffffff8400680c:	e83e                	sd	a5,16(sp)
ffffffff8400680e:	ec02                	sd	zero,24(sp)
ffffffff84006810:	0044f793          	and	a5,s1,4
ffffffff84006814:	0e078d63          	beqz	a5,ffffffff8400690e <invokeTCB_ThreadControl+0x12c>
ffffffff84006818:	16c43c23          	sd	a2,376(s0)
ffffffff8400681c:	0084f713          	and	a4,s1,8
ffffffff84006820:	eb35                	bnez	a4,ffffffff84006894 <invokeTCB_ThreadControl+0xb2>
ffffffff84006822:	c0047a93          	and	s5,s0,-1024
ffffffff84006826:	4585                	li	a1,1
ffffffff84006828:	8556                	mv	a0,s5
ffffffff8400682a:	bcdfe0ef          	jal	ffffffff840053f6 <cteDelete>
ffffffff8400682e:	0e051963          	bnez	a0,ffffffff84006920 <invokeTCB_ThreadControl+0x13e>
ffffffff84006832:	000a3603          	ld	a2,0(s4)
ffffffff84006836:	008a3683          	ld	a3,8(s4)
ffffffff8400683a:	6502                	ld	a0,0(sp)
ffffffff8400683c:	65a2                	ld	a1,8(sp)
ffffffff8400683e:	e2dfd0ef          	jal	ffffffff8400466a <sameObjectAs>
ffffffff84006842:	c911                	beqz	a0,ffffffff84006856 <invokeTCB_ThreadControl+0x74>
ffffffff84006844:	00093603          	ld	a2,0(s2)
ffffffff84006848:	00893683          	ld	a3,8(s2)
ffffffff8400684c:	6542                	ld	a0,16(sp)
ffffffff8400684e:	65e2                	ld	a1,24(sp)
ffffffff84006850:	e1bfd0ef          	jal	ffffffff8400466a <sameObjectAs>
ffffffff84006854:	e521                	bnez	a0,ffffffff8400689c <invokeTCB_ThreadControl+0xba>
ffffffff84006856:	020a8a93          	add	s5,s5,32
ffffffff8400685a:	4585                	li	a1,1
ffffffff8400685c:	8556                	mv	a0,s5
ffffffff8400685e:	b99fe0ef          	jal	ffffffff840053f6 <cteDelete>
ffffffff84006862:	ed5d                	bnez	a0,ffffffff84006920 <invokeTCB_ThreadControl+0x13e>
ffffffff84006864:	77c6                	ld	a5,112(sp)
ffffffff84006866:	6390                	ld	a2,0(a5)
ffffffff84006868:	6794                	ld	a3,8(a5)
ffffffff8400686a:	7506                	ld	a0,96(sp)
ffffffff8400686c:	75a6                	ld	a1,104(sp)
ffffffff8400686e:	dfdfd0ef          	jal	ffffffff8400466a <sameObjectAs>
ffffffff84006872:	c14d                	beqz	a0,ffffffff84006914 <invokeTCB_ThreadControl+0x132>
ffffffff84006874:	00093603          	ld	a2,0(s2)
ffffffff84006878:	00893683          	ld	a3,8(s2)
ffffffff8400687c:	6542                	ld	a0,16(sp)
ffffffff8400687e:	65e2                	ld	a1,24(sp)
ffffffff84006880:	debfd0ef          	jal	ffffffff8400466a <sameObjectAs>
ffffffff84006884:	c941                	beqz	a0,ffffffff84006914 <invokeTCB_ThreadControl+0x132>
ffffffff84006886:	86d6                	mv	a3,s5
ffffffff84006888:	7646                	ld	a2,112(sp)
ffffffff8400688a:	7506                	ld	a0,96(sp)
ffffffff8400688c:	75a6                	ld	a1,104(sp)
ffffffff8400688e:	f15fd0ef          	jal	ffffffff840047a2 <cteInsert>
ffffffff84006892:	a049                	j	ffffffff84006914 <invokeTCB_ThreadControl+0x132>
ffffffff84006894:	16d43023          	sd	a3,352(s0)
ffffffff84006898:	cfb5                	beqz	a5,ffffffff84006914 <invokeTCB_ThreadControl+0x132>
ffffffff8400689a:	b761                	j	ffffffff84006822 <invokeTCB_ThreadControl+0x40>
ffffffff8400689c:	86d6                	mv	a3,s5
ffffffff8400689e:	8652                	mv	a2,s4
ffffffff840068a0:	6502                	ld	a0,0(sp)
ffffffff840068a2:	65a2                	ld	a1,8(sp)
ffffffff840068a4:	efffd0ef          	jal	ffffffff840047a2 <cteInsert>
ffffffff840068a8:	b77d                	j	ffffffff84006856 <invokeTCB_ThreadControl+0x74>
ffffffff840068aa:	c0047a13          	and	s4,s0,-1024
ffffffff840068ae:	080a0a13          	add	s4,s4,128
ffffffff840068b2:	4585                	li	a1,1
ffffffff840068b4:	8552                	mv	a0,s4
ffffffff840068b6:	b41fe0ef          	jal	ffffffff840053f6 <cteDelete>
ffffffff840068ba:	e13d                	bnez	a0,ffffffff84006920 <invokeTCB_ThreadControl+0x13e>
ffffffff840068bc:	77e6                	ld	a5,120(sp)
ffffffff840068be:	18f43023          	sd	a5,384(s0)
ffffffff840068c2:	67ca                	ld	a5,144(sp)
ffffffff840068c4:	c38d                	beqz	a5,ffffffff840068e6 <invokeTCB_ThreadControl+0x104>
ffffffff840068c6:	6390                	ld	a2,0(a5)
ffffffff840068c8:	6794                	ld	a3,8(a5)
ffffffff840068ca:	650a                	ld	a0,128(sp)
ffffffff840068cc:	65aa                	ld	a1,136(sp)
ffffffff840068ce:	d9dfd0ef          	jal	ffffffff8400466a <sameObjectAs>
ffffffff840068d2:	c911                	beqz	a0,ffffffff840068e6 <invokeTCB_ThreadControl+0x104>
ffffffff840068d4:	00093603          	ld	a2,0(s2)
ffffffff840068d8:	00893683          	ld	a3,8(s2)
ffffffff840068dc:	6542                	ld	a0,16(sp)
ffffffff840068de:	65e2                	ld	a1,24(sp)
ffffffff840068e0:	d8bfd0ef          	jal	ffffffff8400466a <sameObjectAs>
ffffffff840068e4:	e901                	bnez	a0,ffffffff840068f4 <invokeTCB_ThreadControl+0x112>
ffffffff840068e6:	a801b783          	ld	a5,-1408(gp) # ffffffff84008e98 <ksCurThread>
ffffffff840068ea:	02879863          	bne	a5,s0,ffffffff8400691a <invokeTCB_ThreadControl+0x138>
ffffffff840068ee:	884fe0ef          	jal	ffffffff84004972 <rescheduleRequired>
ffffffff840068f2:	a025                	j	ffffffff8400691a <invokeTCB_ThreadControl+0x138>
ffffffff840068f4:	86d2                	mv	a3,s4
ffffffff840068f6:	664a                	ld	a2,144(sp)
ffffffff840068f8:	650a                	ld	a0,128(sp)
ffffffff840068fa:	65aa                	ld	a1,136(sp)
ffffffff840068fc:	ea7fd0ef          	jal	ffffffff840047a2 <cteInsert>
ffffffff84006900:	b7dd                	j	ffffffff840068e6 <invokeTCB_ThreadControl+0x104>
ffffffff84006902:	85ce                	mv	a1,s3
ffffffff84006904:	8522                	mv	a0,s0
ffffffff84006906:	e38fe0ef          	jal	ffffffff84004f3e <setPriority>
ffffffff8400690a:	4501                	li	a0,0
ffffffff8400690c:	a811                	j	ffffffff84006920 <invokeTCB_ThreadControl+0x13e>
ffffffff8400690e:	0084f713          	and	a4,s1,8
ffffffff84006912:	f349                	bnez	a4,ffffffff84006894 <invokeTCB_ThreadControl+0xb2>
ffffffff84006914:	0024f793          	and	a5,s1,2
ffffffff84006918:	fbc9                	bnez	a5,ffffffff840068aa <invokeTCB_ThreadControl+0xc8>
ffffffff8400691a:	0014f513          	and	a0,s1,1
ffffffff8400691e:	f175                	bnez	a0,ffffffff84006902 <invokeTCB_ThreadControl+0x120>
ffffffff84006920:	60e6                	ld	ra,88(sp)
ffffffff84006922:	6446                	ld	s0,80(sp)
ffffffff84006924:	64a6                	ld	s1,72(sp)
ffffffff84006926:	6906                	ld	s2,64(sp)
ffffffff84006928:	79e2                	ld	s3,56(sp)
ffffffff8400692a:	7a42                	ld	s4,48(sp)
ffffffff8400692c:	7aa2                	ld	s5,40(sp)
ffffffff8400692e:	6125                	add	sp,sp,96
ffffffff84006930:	8082                	ret

ffffffff84006932 <decodeTCBConfigure>:
ffffffff84006932:	716d                	add	sp,sp,-272
ffffffff84006934:	e606                	sd	ra,264(sp)
ffffffff84006936:	e222                	sd	s0,256(sp)
ffffffff84006938:	fda6                	sd	s1,248(sp)
ffffffff8400693a:	f9ca                	sd	s2,240(sp)
ffffffff8400693c:	f5ce                	sd	s3,232(sp)
ffffffff8400693e:	f1d2                	sd	s4,224(sp)
ffffffff84006940:	edd6                	sd	s5,216(sp)
ffffffff84006942:	e9da                	sd	s6,208(sp)
ffffffff84006944:	e5de                	sd	s7,200(sp)
ffffffff84006946:	e1e2                	sd	s8,192(sp)
ffffffff84006948:	fd66                	sd	s9,184(sp)
ffffffff8400694a:	f96a                	sd	s10,176(sp)
ffffffff8400694c:	f56e                	sd	s11,168(sp)
ffffffff8400694e:	e0aa                	sd	a0,64(sp)
ffffffff84006950:	e4ae                	sd	a1,72(sp)
ffffffff84006952:	478d                	li	a5,3
ffffffff84006954:	12c7f763          	bgeu	a5,a2,ffffffff84006a82 <decodeTCBConfigure+0x150>
ffffffff84006958:	8436                	mv	s0,a3
ffffffff8400695a:	8781b483          	ld	s1,-1928(gp) # ffffffff84008c90 <current_extra_caps>
ffffffff8400695e:	12048263          	beqz	s1,ffffffff84006a82 <decodeTCBConfigure+0x150>
ffffffff84006962:	8801b983          	ld	s3,-1920(gp) # ffffffff84008c98 <current_extra_caps+0x8>
ffffffff84006966:	10098e63          	beqz	s3,ffffffff84006a82 <decodeTCBConfigure+0x150>
ffffffff8400696a:	8881b903          	ld	s2,-1912(gp) # ffffffff84008ca0 <current_extra_caps+0x10>
ffffffff8400696e:	10090a63          	beqz	s2,ffffffff84006a82 <decodeTCBConfigure+0x150>
ffffffff84006972:	a801b783          	ld	a5,-1408(gp) # ffffffff84008e98 <ksCurThread>
ffffffff84006976:	0587bc83          	ld	s9,88(a5)
ffffffff8400697a:	0607bb83          	ld	s7,96(a5)
ffffffff8400697e:	0687bc03          	ld	s8,104(a5)
ffffffff84006982:	0707ba83          	ld	s5,112(a5)
ffffffff84006986:	0004ba03          	ld	s4,0(s1)
ffffffff8400698a:	e152                	sd	s4,128(sp)
ffffffff8400698c:	649c                	ld	a5,8(s1)
ffffffff8400698e:	e53e                	sd	a5,136(sp)
ffffffff84006990:	8b52                	mv	s6,s4
ffffffff84006992:	0009b783          	ld	a5,0(s3)
ffffffff84006996:	f8be                	sd	a5,112(sp)
ffffffff84006998:	0089b783          	ld	a5,8(s3)
ffffffff8400699c:	fcbe                	sd	a5,120(sp)
ffffffff8400699e:	00093783          	ld	a5,0(s2)
ffffffff840069a2:	e93e                	sd	a5,144(sp)
ffffffff840069a4:	00893783          	ld	a5,8(s2)
ffffffff840069a8:	ed3e                	sd	a5,152(sp)
ffffffff840069aa:	0e0a9f63          	bnez	s5,ffffffff84006aa8 <decodeTCBConfigure+0x176>
ffffffff840069ae:	4901                	li	s2,0
ffffffff840069b0:	6786                	ld	a5,64(sp)
ffffffff840069b2:	01979d13          	sll	s10,a5,0x19
ffffffff840069b6:	019d5d13          	srl	s10,s10,0x19
ffffffff840069ba:	9399                	srl	a5,a5,0x26
ffffffff840069bc:	8b85                	and	a5,a5,1
ffffffff840069be:	c789                	beqz	a5,ffffffff840069c8 <decodeTCBConfigure+0x96>
ffffffff840069c0:	57fd                	li	a5,-1
ffffffff840069c2:	179e                	sll	a5,a5,0x27
ffffffff840069c4:	00fd6d33          	or	s10,s10,a5
ffffffff840069c8:	c00d7d93          	and	s11,s10,-1024
ffffffff840069cc:	856e                	mv	a0,s11
ffffffff840069ce:	d4dfd0ef          	jal	ffffffff8400471a <slotCapLongRunningDelete>
ffffffff840069d2:	0e051d63          	bnez	a0,ffffffff84006acc <decodeTCBConfigure+0x19a>
ffffffff840069d6:	020d8513          	add	a0,s11,32 # 1020 <KERNEL_OFFSET-0xfffffffeffffefe0>
ffffffff840069da:	d41fd0ef          	jal	ffffffff8400471a <slotCapLongRunningDelete>
ffffffff840069de:	0e051763          	bnez	a0,ffffffff84006acc <decodeTCBConfigure+0x19a>
ffffffff840069e2:	000b8a63          	beqz	s7,ffffffff840069f6 <decodeTCBConfigure+0xc4>
ffffffff840069e6:	8652                	mv	a2,s4
ffffffff840069e8:	66aa                	ld	a3,136(sp)
ffffffff840069ea:	85de                	mv	a1,s7
ffffffff840069ec:	4501                	li	a0,0
ffffffff840069ee:	c4cfd0ef          	jal	ffffffff84003e3a <updateCapData>
ffffffff840069f2:	e52e                	sd	a1,136(sp)
ffffffff840069f4:	8b2a                	mv	s6,a0
ffffffff840069f6:	865a                	mv	a2,s6
ffffffff840069f8:	66aa                	ld	a3,136(sp)
ffffffff840069fa:	85a6                	mv	a1,s1
ffffffff840069fc:	08a8                	add	a0,sp,88
ffffffff840069fe:	bf3fd0ef          	jal	ffffffff840045f0 <deriveCap>
ffffffff84006a02:	6566                	ld	a0,88(sp)
ffffffff84006a04:	e159                	bnez	a0,ffffffff84006a8a <decodeTCBConfigure+0x158>
ffffffff84006a06:	7a06                	ld	s4,96(sp)
ffffffff84006a08:	77a6                	ld	a5,104(sp)
ffffffff84006a0a:	e53e                	sd	a5,136(sp)
ffffffff84006a0c:	03ba5713          	srl	a4,s4,0x3b
ffffffff84006a10:	47a9                	li	a5,10
ffffffff84006a12:	0cf71263          	bne	a4,a5,ffffffff84006ad6 <decodeTCBConfigure+0x1a4>
ffffffff84006a16:	000c0a63          	beqz	s8,ffffffff84006a2a <decodeTCBConfigure+0xf8>
ffffffff84006a1a:	7646                	ld	a2,112(sp)
ffffffff84006a1c:	76e6                	ld	a3,120(sp)
ffffffff84006a1e:	85e2                	mv	a1,s8
ffffffff84006a20:	4501                	li	a0,0
ffffffff84006a22:	c18fd0ef          	jal	ffffffff84003e3a <updateCapData>
ffffffff84006a26:	f8aa                	sd	a0,112(sp)
ffffffff84006a28:	fcae                	sd	a1,120(sp)
ffffffff84006a2a:	7646                	ld	a2,112(sp)
ffffffff84006a2c:	76e6                	ld	a3,120(sp)
ffffffff84006a2e:	85ce                	mv	a1,s3
ffffffff84006a30:	08a8                	add	a0,sp,88
ffffffff84006a32:	bbffd0ef          	jal	ffffffff840045f0 <deriveCap>
ffffffff84006a36:	6566                	ld	a0,88(sp)
ffffffff84006a38:	e929                	bnez	a0,ffffffff84006a8a <decodeTCBConfigure+0x158>
ffffffff84006a3a:	7506                	ld	a0,96(sp)
ffffffff84006a3c:	f8aa                	sd	a0,112(sp)
ffffffff84006a3e:	75a6                	ld	a1,104(sp)
ffffffff84006a40:	fcae                	sd	a1,120(sp)
ffffffff84006a42:	eb6fc0ef          	jal	ffffffff840030f8 <isValidVTableRoot>
ffffffff84006a46:	cd49                	beqz	a0,ffffffff84006ae0 <decodeTCBConfigure+0x1ae>
ffffffff84006a48:	4589                	li	a1,2
ffffffff84006a4a:	a801b503          	ld	a0,-1408(gp) # ffffffff84008e98 <ksCurThread>
ffffffff84006a4e:	f77fd0ef          	jal	ffffffff840049c4 <setThreadState>
ffffffff84006a52:	4799                	li	a5,6
ffffffff84006a54:	fc3e                	sd	a5,56(sp)
ffffffff84006a56:	f84a                	sd	s2,48(sp)
ffffffff84006a58:	67ca                	ld	a5,144(sp)
ffffffff84006a5a:	f03e                	sd	a5,32(sp)
ffffffff84006a5c:	67ea                	ld	a5,152(sp)
ffffffff84006a5e:	f43e                	sd	a5,40(sp)
ffffffff84006a60:	ec56                	sd	s5,24(sp)
ffffffff84006a62:	e84e                	sd	s3,16(sp)
ffffffff84006a64:	77c6                	ld	a5,112(sp)
ffffffff84006a66:	e03e                	sd	a5,0(sp)
ffffffff84006a68:	77e6                	ld	a5,120(sp)
ffffffff84006a6a:	e43e                	sd	a5,8(sp)
ffffffff84006a6c:	88a6                	mv	a7,s1
ffffffff84006a6e:	87d2                	mv	a5,s4
ffffffff84006a70:	682a                	ld	a6,136(sp)
ffffffff84006a72:	4701                	li	a4,0
ffffffff84006a74:	4681                	li	a3,0
ffffffff84006a76:	8666                	mv	a2,s9
ffffffff84006a78:	85a2                	mv	a1,s0
ffffffff84006a7a:	856a                	mv	a0,s10
ffffffff84006a7c:	d67ff0ef          	jal	ffffffff840067e2 <invokeTCB_ThreadControl>
ffffffff84006a80:	a029                	j	ffffffff84006a8a <decodeTCBConfigure+0x158>
ffffffff84006a82:	479d                	li	a5,7
ffffffff84006a84:	d4f1b023          	sd	a5,-704(gp) # ffffffff84009158 <current_syscall_error+0x30>
ffffffff84006a88:	450d                	li	a0,3
ffffffff84006a8a:	60b2                	ld	ra,264(sp)
ffffffff84006a8c:	6412                	ld	s0,256(sp)
ffffffff84006a8e:	74ee                	ld	s1,248(sp)
ffffffff84006a90:	794e                	ld	s2,240(sp)
ffffffff84006a92:	79ae                	ld	s3,232(sp)
ffffffff84006a94:	7a0e                	ld	s4,224(sp)
ffffffff84006a96:	6aee                	ld	s5,216(sp)
ffffffff84006a98:	6b4e                	ld	s6,208(sp)
ffffffff84006a9a:	6bae                	ld	s7,200(sp)
ffffffff84006a9c:	6c0e                	ld	s8,192(sp)
ffffffff84006a9e:	7cea                	ld	s9,184(sp)
ffffffff84006aa0:	7d4a                	ld	s10,176(sp)
ffffffff84006aa2:	7daa                	ld	s11,168(sp)
ffffffff84006aa4:	6151                	add	sp,sp,272
ffffffff84006aa6:	8082                	ret
ffffffff84006aa8:	664a                	ld	a2,144(sp)
ffffffff84006aaa:	86be                	mv	a3,a5
ffffffff84006aac:	85ca                	mv	a1,s2
ffffffff84006aae:	08a8                	add	a0,sp,88
ffffffff84006ab0:	b41fd0ef          	jal	ffffffff840045f0 <deriveCap>
ffffffff84006ab4:	6566                	ld	a0,88(sp)
ffffffff84006ab6:	f971                	bnez	a0,ffffffff84006a8a <decodeTCBConfigure+0x158>
ffffffff84006ab8:	7586                	ld	a1,96(sp)
ffffffff84006aba:	e92e                	sd	a1,144(sp)
ffffffff84006abc:	7626                	ld	a2,104(sp)
ffffffff84006abe:	ed32                	sd	a2,152(sp)
ffffffff84006ac0:	8556                	mv	a0,s5
ffffffff84006ac2:	e4cfc0ef          	jal	ffffffff8400310e <checkValidIPCBuffer>
ffffffff84006ac6:	ee0505e3          	beqz	a0,ffffffff840069b0 <decodeTCBConfigure+0x7e>
ffffffff84006aca:	b7c1                	j	ffffffff84006a8a <decodeTCBConfigure+0x158>
ffffffff84006acc:	478d                	li	a5,3
ffffffff84006ace:	d4f1b023          	sd	a5,-704(gp) # ffffffff84009158 <current_syscall_error+0x30>
ffffffff84006ad2:	450d                	li	a0,3
ffffffff84006ad4:	bf5d                	j	ffffffff84006a8a <decodeTCBConfigure+0x158>
ffffffff84006ad6:	478d                	li	a5,3
ffffffff84006ad8:	d4f1b023          	sd	a5,-704(gp) # ffffffff84009158 <current_syscall_error+0x30>
ffffffff84006adc:	450d                	li	a0,3
ffffffff84006ade:	b775                	j	ffffffff84006a8a <decodeTCBConfigure+0x158>
ffffffff84006ae0:	478d                	li	a5,3
ffffffff84006ae2:	d4f1b023          	sd	a5,-704(gp) # ffffffff84009158 <current_syscall_error+0x30>
ffffffff84006ae6:	450d                	li	a0,3
ffffffff84006ae8:	b74d                	j	ffffffff84006a8a <decodeTCBConfigure+0x158>

ffffffff84006aea <decodeSetPriority>:
ffffffff84006aea:	7159                	add	sp,sp,-112
ffffffff84006aec:	f486                	sd	ra,104(sp)
ffffffff84006aee:	f0a2                	sd	s0,96(sp)
ffffffff84006af0:	e0aa                	sd	a0,64(sp)
ffffffff84006af2:	e4ae                	sd	a1,72(sp)
ffffffff84006af4:	ca35                	beqz	a2,ffffffff84006b68 <decodeSetPriority+0x7e>
ffffffff84006af6:	8781b783          	ld	a5,-1928(gp) # ffffffff84008c90 <current_extra_caps>
ffffffff84006afa:	c7bd                	beqz	a5,ffffffff84006b68 <decodeSetPriority+0x7e>
ffffffff84006afc:	a801b503          	ld	a0,-1408(gp) # ffffffff84008e98 <ksCurThread>
ffffffff84006b00:	6d20                	ld	s0,88(a0)
ffffffff84006b02:	639c                	ld	a5,0(a5)
ffffffff84006b04:	03b7d693          	srl	a3,a5,0x3b
ffffffff84006b08:	4731                	li	a4,12
ffffffff84006b0a:	06e69763          	bne	a3,a4,ffffffff84006b78 <decodeSetPriority+0x8e>
ffffffff84006b0e:	01979713          	sll	a4,a5,0x19
ffffffff84006b12:	8365                	srl	a4,a4,0x19
ffffffff84006b14:	9399                	srl	a5,a5,0x26
ffffffff84006b16:	8b85                	and	a5,a5,1
ffffffff84006b18:	c781                	beqz	a5,ffffffff84006b20 <decodeSetPriority+0x36>
ffffffff84006b1a:	57fd                	li	a5,-1
ffffffff84006b1c:	179e                	sll	a5,a5,0x27
ffffffff84006b1e:	8f5d                	or	a4,a4,a5
ffffffff84006b20:	16073783          	ld	a5,352(a4) # fffffffff8000160 <ki_end+0x73fe0160>
ffffffff84006b24:	0687e263          	bltu	a5,s0,ffffffff84006b88 <decodeSetPriority+0x9e>
ffffffff84006b28:	4589                	li	a1,2
ffffffff84006b2a:	e9bfd0ef          	jal	ffffffff840049c4 <setThreadState>
ffffffff84006b2e:	6786                	ld	a5,64(sp)
ffffffff84006b30:	01979513          	sll	a0,a5,0x19
ffffffff84006b34:	8165                	srl	a0,a0,0x19
ffffffff84006b36:	9399                	srl	a5,a5,0x26
ffffffff84006b38:	8b85                	and	a5,a5,1
ffffffff84006b3a:	c781                	beqz	a5,ffffffff84006b42 <decodeSetPriority+0x58>
ffffffff84006b3c:	57fd                	li	a5,-1
ffffffff84006b3e:	179e                	sll	a5,a5,0x27
ffffffff84006b40:	8d5d                	or	a0,a0,a5
ffffffff84006b42:	4785                	li	a5,1
ffffffff84006b44:	fc3e                	sd	a5,56(sp)
ffffffff84006b46:	f802                	sd	zero,48(sp)
ffffffff84006b48:	f002                	sd	zero,32(sp)
ffffffff84006b4a:	f402                	sd	zero,40(sp)
ffffffff84006b4c:	ec02                	sd	zero,24(sp)
ffffffff84006b4e:	e802                	sd	zero,16(sp)
ffffffff84006b50:	e002                	sd	zero,0(sp)
ffffffff84006b52:	e402                	sd	zero,8(sp)
ffffffff84006b54:	4881                	li	a7,0
ffffffff84006b56:	4781                	li	a5,0
ffffffff84006b58:	4801                	li	a6,0
ffffffff84006b5a:	8722                	mv	a4,s0
ffffffff84006b5c:	4681                	li	a3,0
ffffffff84006b5e:	4601                	li	a2,0
ffffffff84006b60:	4581                	li	a1,0
ffffffff84006b62:	c81ff0ef          	jal	ffffffff840067e2 <invokeTCB_ThreadControl>
ffffffff84006b66:	a029                	j	ffffffff84006b70 <decodeSetPriority+0x86>
ffffffff84006b68:	479d                	li	a5,7
ffffffff84006b6a:	d4f1b023          	sd	a5,-704(gp) # ffffffff84009158 <current_syscall_error+0x30>
ffffffff84006b6e:	450d                	li	a0,3
ffffffff84006b70:	70a6                	ld	ra,104(sp)
ffffffff84006b72:	7406                	ld	s0,96(sp)
ffffffff84006b74:	6165                	add	sp,sp,112
ffffffff84006b76:	8082                	ret
ffffffff84006b78:	d1018793          	add	a5,gp,-752 # ffffffff84009128 <current_syscall_error>
ffffffff84006b7c:	4709                	li	a4,2
ffffffff84006b7e:	fb98                	sd	a4,48(a5)
ffffffff84006b80:	4705                	li	a4,1
ffffffff84006b82:	e798                	sd	a4,8(a5)
ffffffff84006b84:	450d                	li	a0,3
ffffffff84006b86:	b7ed                	j	ffffffff84006b70 <decodeSetPriority+0x86>
ffffffff84006b88:	d1018713          	add	a4,gp,-752 # ffffffff84009128 <current_syscall_error>
ffffffff84006b8c:	4691                	li	a3,4
ffffffff84006b8e:	fb14                	sd	a3,48(a4)
ffffffff84006b90:	00073823          	sd	zero,16(a4)
ffffffff84006b94:	ef1c                	sd	a5,24(a4)
ffffffff84006b96:	450d                	li	a0,3
ffffffff84006b98:	bfe1                	j	ffffffff84006b70 <decodeSetPriority+0x86>

ffffffff84006b9a <decodeSetMCPriority>:
ffffffff84006b9a:	7159                	add	sp,sp,-112
ffffffff84006b9c:	f486                	sd	ra,104(sp)
ffffffff84006b9e:	f0a2                	sd	s0,96(sp)
ffffffff84006ba0:	e0aa                	sd	a0,64(sp)
ffffffff84006ba2:	e4ae                	sd	a1,72(sp)
ffffffff84006ba4:	ca35                	beqz	a2,ffffffff84006c18 <decodeSetMCPriority+0x7e>
ffffffff84006ba6:	8781b783          	ld	a5,-1928(gp) # ffffffff84008c90 <current_extra_caps>
ffffffff84006baa:	c7bd                	beqz	a5,ffffffff84006c18 <decodeSetMCPriority+0x7e>
ffffffff84006bac:	a801b503          	ld	a0,-1408(gp) # ffffffff84008e98 <ksCurThread>
ffffffff84006bb0:	6d20                	ld	s0,88(a0)
ffffffff84006bb2:	639c                	ld	a5,0(a5)
ffffffff84006bb4:	03b7d693          	srl	a3,a5,0x3b
ffffffff84006bb8:	4731                	li	a4,12
ffffffff84006bba:	06e69763          	bne	a3,a4,ffffffff84006c28 <decodeSetMCPriority+0x8e>
ffffffff84006bbe:	01979713          	sll	a4,a5,0x19
ffffffff84006bc2:	8365                	srl	a4,a4,0x19
ffffffff84006bc4:	9399                	srl	a5,a5,0x26
ffffffff84006bc6:	8b85                	and	a5,a5,1
ffffffff84006bc8:	c781                	beqz	a5,ffffffff84006bd0 <decodeSetMCPriority+0x36>
ffffffff84006bca:	57fd                	li	a5,-1
ffffffff84006bcc:	179e                	sll	a5,a5,0x27
ffffffff84006bce:	8f5d                	or	a4,a4,a5
ffffffff84006bd0:	16073783          	ld	a5,352(a4)
ffffffff84006bd4:	0687e263          	bltu	a5,s0,ffffffff84006c38 <decodeSetMCPriority+0x9e>
ffffffff84006bd8:	4589                	li	a1,2
ffffffff84006bda:	debfd0ef          	jal	ffffffff840049c4 <setThreadState>
ffffffff84006bde:	6786                	ld	a5,64(sp)
ffffffff84006be0:	01979513          	sll	a0,a5,0x19
ffffffff84006be4:	8165                	srl	a0,a0,0x19
ffffffff84006be6:	9399                	srl	a5,a5,0x26
ffffffff84006be8:	8b85                	and	a5,a5,1
ffffffff84006bea:	c781                	beqz	a5,ffffffff84006bf2 <decodeSetMCPriority+0x58>
ffffffff84006bec:	57fd                	li	a5,-1
ffffffff84006bee:	179e                	sll	a5,a5,0x27
ffffffff84006bf0:	8d5d                	or	a0,a0,a5
ffffffff84006bf2:	47a1                	li	a5,8
ffffffff84006bf4:	fc3e                	sd	a5,56(sp)
ffffffff84006bf6:	f802                	sd	zero,48(sp)
ffffffff84006bf8:	f002                	sd	zero,32(sp)
ffffffff84006bfa:	f402                	sd	zero,40(sp)
ffffffff84006bfc:	ec02                	sd	zero,24(sp)
ffffffff84006bfe:	e802                	sd	zero,16(sp)
ffffffff84006c00:	e002                	sd	zero,0(sp)
ffffffff84006c02:	e402                	sd	zero,8(sp)
ffffffff84006c04:	4881                	li	a7,0
ffffffff84006c06:	4781                	li	a5,0
ffffffff84006c08:	4801                	li	a6,0
ffffffff84006c0a:	4701                	li	a4,0
ffffffff84006c0c:	86a2                	mv	a3,s0
ffffffff84006c0e:	4601                	li	a2,0
ffffffff84006c10:	4581                	li	a1,0
ffffffff84006c12:	bd1ff0ef          	jal	ffffffff840067e2 <invokeTCB_ThreadControl>
ffffffff84006c16:	a029                	j	ffffffff84006c20 <decodeSetMCPriority+0x86>
ffffffff84006c18:	479d                	li	a5,7
ffffffff84006c1a:	d4f1b023          	sd	a5,-704(gp) # ffffffff84009158 <current_syscall_error+0x30>
ffffffff84006c1e:	450d                	li	a0,3
ffffffff84006c20:	70a6                	ld	ra,104(sp)
ffffffff84006c22:	7406                	ld	s0,96(sp)
ffffffff84006c24:	6165                	add	sp,sp,112
ffffffff84006c26:	8082                	ret
ffffffff84006c28:	d1018793          	add	a5,gp,-752 # ffffffff84009128 <current_syscall_error>
ffffffff84006c2c:	4709                	li	a4,2
ffffffff84006c2e:	fb98                	sd	a4,48(a5)
ffffffff84006c30:	4705                	li	a4,1
ffffffff84006c32:	e798                	sd	a4,8(a5)
ffffffff84006c34:	450d                	li	a0,3
ffffffff84006c36:	b7ed                	j	ffffffff84006c20 <decodeSetMCPriority+0x86>
ffffffff84006c38:	d1018713          	add	a4,gp,-752 # ffffffff84009128 <current_syscall_error>
ffffffff84006c3c:	4691                	li	a3,4
ffffffff84006c3e:	fb14                	sd	a3,48(a4)
ffffffff84006c40:	00073823          	sd	zero,16(a4)
ffffffff84006c44:	ef1c                	sd	a5,24(a4)
ffffffff84006c46:	450d                	li	a0,3
ffffffff84006c48:	bfe1                	j	ffffffff84006c20 <decodeSetMCPriority+0x86>

ffffffff84006c4a <decodeSetSchedParams>:
ffffffff84006c4a:	7119                	add	sp,sp,-128
ffffffff84006c4c:	fc86                	sd	ra,120(sp)
ffffffff84006c4e:	f8a2                	sd	s0,112(sp)
ffffffff84006c50:	f4a6                	sd	s1,104(sp)
ffffffff84006c52:	e0aa                	sd	a0,64(sp)
ffffffff84006c54:	e4ae                	sd	a1,72(sp)
ffffffff84006c56:	4785                	li	a5,1
ffffffff84006c58:	06c7fe63          	bgeu	a5,a2,ffffffff84006cd4 <decodeSetSchedParams+0x8a>
ffffffff84006c5c:	8781b783          	ld	a5,-1928(gp) # ffffffff84008c90 <current_extra_caps>
ffffffff84006c60:	cbb5                	beqz	a5,ffffffff84006cd4 <decodeSetSchedParams+0x8a>
ffffffff84006c62:	a801b503          	ld	a0,-1408(gp) # ffffffff84008e98 <ksCurThread>
ffffffff84006c66:	6d20                	ld	s0,88(a0)
ffffffff84006c68:	7124                	ld	s1,96(a0)
ffffffff84006c6a:	639c                	ld	a5,0(a5)
ffffffff84006c6c:	03b7d693          	srl	a3,a5,0x3b
ffffffff84006c70:	4731                	li	a4,12
ffffffff84006c72:	06e69663          	bne	a3,a4,ffffffff84006cde <decodeSetSchedParams+0x94>
ffffffff84006c76:	01979713          	sll	a4,a5,0x19
ffffffff84006c7a:	8365                	srl	a4,a4,0x19
ffffffff84006c7c:	9399                	srl	a5,a5,0x26
ffffffff84006c7e:	8b85                	and	a5,a5,1
ffffffff84006c80:	c781                	beqz	a5,ffffffff84006c88 <decodeSetSchedParams+0x3e>
ffffffff84006c82:	57fd                	li	a5,-1
ffffffff84006c84:	179e                	sll	a5,a5,0x27
ffffffff84006c86:	8f5d                	or	a4,a4,a5
ffffffff84006c88:	16073783          	ld	a5,352(a4)
ffffffff84006c8c:	0687e563          	bltu	a5,s0,ffffffff84006cf6 <decodeSetSchedParams+0xac>
ffffffff84006c90:	0697ec63          	bltu	a5,s1,ffffffff84006d08 <decodeSetSchedParams+0xbe>
ffffffff84006c94:	4589                	li	a1,2
ffffffff84006c96:	d2ffd0ef          	jal	ffffffff840049c4 <setThreadState>
ffffffff84006c9a:	6786                	ld	a5,64(sp)
ffffffff84006c9c:	01979513          	sll	a0,a5,0x19
ffffffff84006ca0:	8165                	srl	a0,a0,0x19
ffffffff84006ca2:	9399                	srl	a5,a5,0x26
ffffffff84006ca4:	8b85                	and	a5,a5,1
ffffffff84006ca6:	c781                	beqz	a5,ffffffff84006cae <decodeSetSchedParams+0x64>
ffffffff84006ca8:	57fd                	li	a5,-1
ffffffff84006caa:	179e                	sll	a5,a5,0x27
ffffffff84006cac:	8d5d                	or	a0,a0,a5
ffffffff84006cae:	47a5                	li	a5,9
ffffffff84006cb0:	fc3e                	sd	a5,56(sp)
ffffffff84006cb2:	f802                	sd	zero,48(sp)
ffffffff84006cb4:	f002                	sd	zero,32(sp)
ffffffff84006cb6:	f402                	sd	zero,40(sp)
ffffffff84006cb8:	ec02                	sd	zero,24(sp)
ffffffff84006cba:	e802                	sd	zero,16(sp)
ffffffff84006cbc:	e002                	sd	zero,0(sp)
ffffffff84006cbe:	e402                	sd	zero,8(sp)
ffffffff84006cc0:	4881                	li	a7,0
ffffffff84006cc2:	4781                	li	a5,0
ffffffff84006cc4:	4801                	li	a6,0
ffffffff84006cc6:	8726                	mv	a4,s1
ffffffff84006cc8:	86a2                	mv	a3,s0
ffffffff84006cca:	4601                	li	a2,0
ffffffff84006ccc:	4581                	li	a1,0
ffffffff84006cce:	b15ff0ef          	jal	ffffffff840067e2 <invokeTCB_ThreadControl>
ffffffff84006cd2:	a829                	j	ffffffff84006cec <decodeSetSchedParams+0xa2>
ffffffff84006cd4:	479d                	li	a5,7
ffffffff84006cd6:	d4f1b023          	sd	a5,-704(gp) # ffffffff84009158 <current_syscall_error+0x30>
ffffffff84006cda:	450d                	li	a0,3
ffffffff84006cdc:	a801                	j	ffffffff84006cec <decodeSetSchedParams+0xa2>
ffffffff84006cde:	d1018793          	add	a5,gp,-752 # ffffffff84009128 <current_syscall_error>
ffffffff84006ce2:	4709                	li	a4,2
ffffffff84006ce4:	fb98                	sd	a4,48(a5)
ffffffff84006ce6:	4705                	li	a4,1
ffffffff84006ce8:	e798                	sd	a4,8(a5)
ffffffff84006cea:	450d                	li	a0,3
ffffffff84006cec:	70e6                	ld	ra,120(sp)
ffffffff84006cee:	7446                	ld	s0,112(sp)
ffffffff84006cf0:	74a6                	ld	s1,104(sp)
ffffffff84006cf2:	6109                	add	sp,sp,128
ffffffff84006cf4:	8082                	ret
ffffffff84006cf6:	d1018713          	add	a4,gp,-752 # ffffffff84009128 <current_syscall_error>
ffffffff84006cfa:	4691                	li	a3,4
ffffffff84006cfc:	fb14                	sd	a3,48(a4)
ffffffff84006cfe:	00073823          	sd	zero,16(a4)
ffffffff84006d02:	ef1c                	sd	a5,24(a4)
ffffffff84006d04:	450d                	li	a0,3
ffffffff84006d06:	b7dd                	j	ffffffff84006cec <decodeSetSchedParams+0xa2>
ffffffff84006d08:	d1018713          	add	a4,gp,-752 # ffffffff84009128 <current_syscall_error>
ffffffff84006d0c:	4691                	li	a3,4
ffffffff84006d0e:	fb14                	sd	a3,48(a4)
ffffffff84006d10:	00073823          	sd	zero,16(a4)
ffffffff84006d14:	ef1c                	sd	a5,24(a4)
ffffffff84006d16:	450d                	li	a0,3
ffffffff84006d18:	bfd1                	j	ffffffff84006cec <decodeSetSchedParams+0xa2>

ffffffff84006d1a <decodeSetIPCBuffer>:
ffffffff84006d1a:	7171                	add	sp,sp,-176
ffffffff84006d1c:	f506                	sd	ra,168(sp)
ffffffff84006d1e:	f122                	sd	s0,160(sp)
ffffffff84006d20:	ed26                	sd	s1,152(sp)
ffffffff84006d22:	e94a                	sd	s2,144(sp)
ffffffff84006d24:	e0aa                	sd	a0,64(sp)
ffffffff84006d26:	e4ae                	sd	a1,72(sp)
ffffffff84006d28:	ce15                	beqz	a2,ffffffff84006d64 <decodeSetIPCBuffer+0x4a>
ffffffff84006d2a:	8936                	mv	s2,a3
ffffffff84006d2c:	8781b403          	ld	s0,-1928(gp) # ffffffff84008c90 <current_extra_caps>
ffffffff84006d30:	c815                	beqz	s0,ffffffff84006d64 <decodeSetIPCBuffer+0x4a>
ffffffff84006d32:	a801b783          	ld	a5,-1408(gp) # ffffffff84008e98 <ksCurThread>
ffffffff84006d36:	6fa4                	ld	s1,88(a5)
ffffffff84006d38:	601c                	ld	a5,0(s0)
ffffffff84006d3a:	f8be                	sd	a5,112(sp)
ffffffff84006d3c:	641c                	ld	a5,8(s0)
ffffffff84006d3e:	fcbe                	sd	a5,120(sp)
ffffffff84006d40:	c49d                	beqz	s1,ffffffff84006d6e <decodeSetIPCBuffer+0x54>
ffffffff84006d42:	7646                	ld	a2,112(sp)
ffffffff84006d44:	86be                	mv	a3,a5
ffffffff84006d46:	85a2                	mv	a1,s0
ffffffff84006d48:	08a8                	add	a0,sp,88
ffffffff84006d4a:	8a7fd0ef          	jal	ffffffff840045f0 <deriveCap>
ffffffff84006d4e:	6566                	ld	a0,88(sp)
ffffffff84006d50:	e13d                	bnez	a0,ffffffff84006db6 <decodeSetIPCBuffer+0x9c>
ffffffff84006d52:	7586                	ld	a1,96(sp)
ffffffff84006d54:	f8ae                	sd	a1,112(sp)
ffffffff84006d56:	7626                	ld	a2,104(sp)
ffffffff84006d58:	fcb2                	sd	a2,120(sp)
ffffffff84006d5a:	8526                	mv	a0,s1
ffffffff84006d5c:	bb2fc0ef          	jal	ffffffff8400310e <checkValidIPCBuffer>
ffffffff84006d60:	c901                	beqz	a0,ffffffff84006d70 <decodeSetIPCBuffer+0x56>
ffffffff84006d62:	a891                	j	ffffffff84006db6 <decodeSetIPCBuffer+0x9c>
ffffffff84006d64:	479d                	li	a5,7
ffffffff84006d66:	d4f1b023          	sd	a5,-704(gp) # ffffffff84009158 <current_syscall_error+0x30>
ffffffff84006d6a:	450d                	li	a0,3
ffffffff84006d6c:	a0a9                	j	ffffffff84006db6 <decodeSetIPCBuffer+0x9c>
ffffffff84006d6e:	4401                	li	s0,0
ffffffff84006d70:	4589                	li	a1,2
ffffffff84006d72:	a801b503          	ld	a0,-1408(gp) # ffffffff84008e98 <ksCurThread>
ffffffff84006d76:	c4ffd0ef          	jal	ffffffff840049c4 <setThreadState>
ffffffff84006d7a:	6786                	ld	a5,64(sp)
ffffffff84006d7c:	01979513          	sll	a0,a5,0x19
ffffffff84006d80:	8165                	srl	a0,a0,0x19
ffffffff84006d82:	9399                	srl	a5,a5,0x26
ffffffff84006d84:	8b85                	and	a5,a5,1
ffffffff84006d86:	c781                	beqz	a5,ffffffff84006d8e <decodeSetIPCBuffer+0x74>
ffffffff84006d88:	57fd                	li	a5,-1
ffffffff84006d8a:	179e                	sll	a5,a5,0x27
ffffffff84006d8c:	8d5d                	or	a0,a0,a5
ffffffff84006d8e:	4789                	li	a5,2
ffffffff84006d90:	fc3e                	sd	a5,56(sp)
ffffffff84006d92:	f822                	sd	s0,48(sp)
ffffffff84006d94:	77c6                	ld	a5,112(sp)
ffffffff84006d96:	f03e                	sd	a5,32(sp)
ffffffff84006d98:	77e6                	ld	a5,120(sp)
ffffffff84006d9a:	f43e                	sd	a5,40(sp)
ffffffff84006d9c:	ec26                	sd	s1,24(sp)
ffffffff84006d9e:	e802                	sd	zero,16(sp)
ffffffff84006da0:	e002                	sd	zero,0(sp)
ffffffff84006da2:	e402                	sd	zero,8(sp)
ffffffff84006da4:	4881                	li	a7,0
ffffffff84006da6:	4781                	li	a5,0
ffffffff84006da8:	4801                	li	a6,0
ffffffff84006daa:	4701                	li	a4,0
ffffffff84006dac:	4681                	li	a3,0
ffffffff84006dae:	4601                	li	a2,0
ffffffff84006db0:	85ca                	mv	a1,s2
ffffffff84006db2:	a31ff0ef          	jal	ffffffff840067e2 <invokeTCB_ThreadControl>
ffffffff84006db6:	70aa                	ld	ra,168(sp)
ffffffff84006db8:	740a                	ld	s0,160(sp)
ffffffff84006dba:	64ea                	ld	s1,152(sp)
ffffffff84006dbc:	694a                	ld	s2,144(sp)
ffffffff84006dbe:	614d                	add	sp,sp,176
ffffffff84006dc0:	8082                	ret

ffffffff84006dc2 <decodeSetSpace>:
ffffffff84006dc2:	7111                	add	sp,sp,-256
ffffffff84006dc4:	fd86                	sd	ra,248(sp)
ffffffff84006dc6:	f9a2                	sd	s0,240(sp)
ffffffff84006dc8:	f5a6                	sd	s1,232(sp)
ffffffff84006dca:	f1ca                	sd	s2,224(sp)
ffffffff84006dcc:	edce                	sd	s3,216(sp)
ffffffff84006dce:	e9d2                	sd	s4,208(sp)
ffffffff84006dd0:	e5d6                	sd	s5,200(sp)
ffffffff84006dd2:	e1da                	sd	s6,192(sp)
ffffffff84006dd4:	fd5e                	sd	s7,184(sp)
ffffffff84006dd6:	f962                	sd	s8,176(sp)
ffffffff84006dd8:	f566                	sd	s9,168(sp)
ffffffff84006dda:	e0aa                	sd	a0,64(sp)
ffffffff84006ddc:	e4ae                	sd	a1,72(sp)
ffffffff84006dde:	4789                	li	a5,2
ffffffff84006de0:	10c7f263          	bgeu	a5,a2,ffffffff84006ee4 <decodeSetSpace+0x122>
ffffffff84006de4:	8936                	mv	s2,a3
ffffffff84006de6:	8781b483          	ld	s1,-1928(gp) # ffffffff84008c90 <current_extra_caps>
ffffffff84006dea:	0e048d63          	beqz	s1,ffffffff84006ee4 <decodeSetSpace+0x122>
ffffffff84006dee:	8801b983          	ld	s3,-1920(gp) # ffffffff84008c98 <current_extra_caps+0x8>
ffffffff84006df2:	0e098963          	beqz	s3,ffffffff84006ee4 <decodeSetSpace+0x122>
ffffffff84006df6:	a801b783          	ld	a5,-1408(gp) # ffffffff84008e98 <ksCurThread>
ffffffff84006dfa:	0587bb03          	ld	s6,88(a5)
ffffffff84006dfe:	0607ba83          	ld	s5,96(a5)
ffffffff84006e02:	0687bb83          	ld	s7,104(a5)
ffffffff84006e06:	0004ba03          	ld	s4,0(s1)
ffffffff84006e0a:	e152                	sd	s4,128(sp)
ffffffff84006e0c:	649c                	ld	a5,8(s1)
ffffffff84006e0e:	e53e                	sd	a5,136(sp)
ffffffff84006e10:	8c52                	mv	s8,s4
ffffffff84006e12:	0009b783          	ld	a5,0(s3)
ffffffff84006e16:	f8be                	sd	a5,112(sp)
ffffffff84006e18:	0089b783          	ld	a5,8(s3)
ffffffff84006e1c:	fcbe                	sd	a5,120(sp)
ffffffff84006e1e:	6786                	ld	a5,64(sp)
ffffffff84006e20:	01979413          	sll	s0,a5,0x19
ffffffff84006e24:	8065                	srl	s0,s0,0x19
ffffffff84006e26:	9399                	srl	a5,a5,0x26
ffffffff84006e28:	8b85                	and	a5,a5,1
ffffffff84006e2a:	c781                	beqz	a5,ffffffff84006e32 <decodeSetSpace+0x70>
ffffffff84006e2c:	57fd                	li	a5,-1
ffffffff84006e2e:	179e                	sll	a5,a5,0x27
ffffffff84006e30:	8c5d                	or	s0,s0,a5
ffffffff84006e32:	c0047c93          	and	s9,s0,-1024
ffffffff84006e36:	8566                	mv	a0,s9
ffffffff84006e38:	8e3fd0ef          	jal	ffffffff8400471a <slotCapLongRunningDelete>
ffffffff84006e3c:	e569                	bnez	a0,ffffffff84006f06 <decodeSetSpace+0x144>
ffffffff84006e3e:	020c8513          	add	a0,s9,32
ffffffff84006e42:	8d9fd0ef          	jal	ffffffff8400471a <slotCapLongRunningDelete>
ffffffff84006e46:	e161                	bnez	a0,ffffffff84006f06 <decodeSetSpace+0x144>
ffffffff84006e48:	000a8a63          	beqz	s5,ffffffff84006e5c <decodeSetSpace+0x9a>
ffffffff84006e4c:	8652                	mv	a2,s4
ffffffff84006e4e:	66aa                	ld	a3,136(sp)
ffffffff84006e50:	85d6                	mv	a1,s5
ffffffff84006e52:	4501                	li	a0,0
ffffffff84006e54:	fe7fc0ef          	jal	ffffffff84003e3a <updateCapData>
ffffffff84006e58:	e52e                	sd	a1,136(sp)
ffffffff84006e5a:	8c2a                	mv	s8,a0
ffffffff84006e5c:	8662                	mv	a2,s8
ffffffff84006e5e:	66aa                	ld	a3,136(sp)
ffffffff84006e60:	85a6                	mv	a1,s1
ffffffff84006e62:	08a8                	add	a0,sp,88
ffffffff84006e64:	f8cfd0ef          	jal	ffffffff840045f0 <deriveCap>
ffffffff84006e68:	6566                	ld	a0,88(sp)
ffffffff84006e6a:	e149                	bnez	a0,ffffffff84006eec <decodeSetSpace+0x12a>
ffffffff84006e6c:	7a06                	ld	s4,96(sp)
ffffffff84006e6e:	77a6                	ld	a5,104(sp)
ffffffff84006e70:	e53e                	sd	a5,136(sp)
ffffffff84006e72:	03ba5713          	srl	a4,s4,0x3b
ffffffff84006e76:	47a9                	li	a5,10
ffffffff84006e78:	08f71c63          	bne	a4,a5,ffffffff84006f10 <decodeSetSpace+0x14e>
ffffffff84006e7c:	000b8a63          	beqz	s7,ffffffff84006e90 <decodeSetSpace+0xce>
ffffffff84006e80:	7646                	ld	a2,112(sp)
ffffffff84006e82:	76e6                	ld	a3,120(sp)
ffffffff84006e84:	85de                	mv	a1,s7
ffffffff84006e86:	4501                	li	a0,0
ffffffff84006e88:	fb3fc0ef          	jal	ffffffff84003e3a <updateCapData>
ffffffff84006e8c:	f8aa                	sd	a0,112(sp)
ffffffff84006e8e:	fcae                	sd	a1,120(sp)
ffffffff84006e90:	7646                	ld	a2,112(sp)
ffffffff84006e92:	76e6                	ld	a3,120(sp)
ffffffff84006e94:	85ce                	mv	a1,s3
ffffffff84006e96:	08a8                	add	a0,sp,88
ffffffff84006e98:	f58fd0ef          	jal	ffffffff840045f0 <deriveCap>
ffffffff84006e9c:	6566                	ld	a0,88(sp)
ffffffff84006e9e:	e539                	bnez	a0,ffffffff84006eec <decodeSetSpace+0x12a>
ffffffff84006ea0:	7506                	ld	a0,96(sp)
ffffffff84006ea2:	f8aa                	sd	a0,112(sp)
ffffffff84006ea4:	75a6                	ld	a1,104(sp)
ffffffff84006ea6:	fcae                	sd	a1,120(sp)
ffffffff84006ea8:	a50fc0ef          	jal	ffffffff840030f8 <isValidVTableRoot>
ffffffff84006eac:	c53d                	beqz	a0,ffffffff84006f1a <decodeSetSpace+0x158>
ffffffff84006eae:	4589                	li	a1,2
ffffffff84006eb0:	a801b503          	ld	a0,-1408(gp) # ffffffff84008e98 <ksCurThread>
ffffffff84006eb4:	b11fd0ef          	jal	ffffffff840049c4 <setThreadState>
ffffffff84006eb8:	4791                	li	a5,4
ffffffff84006eba:	fc3e                	sd	a5,56(sp)
ffffffff84006ebc:	f802                	sd	zero,48(sp)
ffffffff84006ebe:	f002                	sd	zero,32(sp)
ffffffff84006ec0:	f402                	sd	zero,40(sp)
ffffffff84006ec2:	ec02                	sd	zero,24(sp)
ffffffff84006ec4:	e84e                	sd	s3,16(sp)
ffffffff84006ec6:	77c6                	ld	a5,112(sp)
ffffffff84006ec8:	e03e                	sd	a5,0(sp)
ffffffff84006eca:	77e6                	ld	a5,120(sp)
ffffffff84006ecc:	e43e                	sd	a5,8(sp)
ffffffff84006ece:	88a6                	mv	a7,s1
ffffffff84006ed0:	87d2                	mv	a5,s4
ffffffff84006ed2:	682a                	ld	a6,136(sp)
ffffffff84006ed4:	4701                	li	a4,0
ffffffff84006ed6:	4681                	li	a3,0
ffffffff84006ed8:	865a                	mv	a2,s6
ffffffff84006eda:	85ca                	mv	a1,s2
ffffffff84006edc:	8522                	mv	a0,s0
ffffffff84006ede:	905ff0ef          	jal	ffffffff840067e2 <invokeTCB_ThreadControl>
ffffffff84006ee2:	a029                	j	ffffffff84006eec <decodeSetSpace+0x12a>
ffffffff84006ee4:	479d                	li	a5,7
ffffffff84006ee6:	d4f1b023          	sd	a5,-704(gp) # ffffffff84009158 <current_syscall_error+0x30>
ffffffff84006eea:	450d                	li	a0,3
ffffffff84006eec:	70ee                	ld	ra,248(sp)
ffffffff84006eee:	744e                	ld	s0,240(sp)
ffffffff84006ef0:	74ae                	ld	s1,232(sp)
ffffffff84006ef2:	790e                	ld	s2,224(sp)
ffffffff84006ef4:	69ee                	ld	s3,216(sp)
ffffffff84006ef6:	6a4e                	ld	s4,208(sp)
ffffffff84006ef8:	6aae                	ld	s5,200(sp)
ffffffff84006efa:	6b0e                	ld	s6,192(sp)
ffffffff84006efc:	7bea                	ld	s7,184(sp)
ffffffff84006efe:	7c4a                	ld	s8,176(sp)
ffffffff84006f00:	7caa                	ld	s9,168(sp)
ffffffff84006f02:	6111                	add	sp,sp,256
ffffffff84006f04:	8082                	ret
ffffffff84006f06:	478d                	li	a5,3
ffffffff84006f08:	d4f1b023          	sd	a5,-704(gp) # ffffffff84009158 <current_syscall_error+0x30>
ffffffff84006f0c:	450d                	li	a0,3
ffffffff84006f0e:	bff9                	j	ffffffff84006eec <decodeSetSpace+0x12a>
ffffffff84006f10:	478d                	li	a5,3
ffffffff84006f12:	d4f1b023          	sd	a5,-704(gp) # ffffffff84009158 <current_syscall_error+0x30>
ffffffff84006f16:	450d                	li	a0,3
ffffffff84006f18:	bfd1                	j	ffffffff84006eec <decodeSetSpace+0x12a>
ffffffff84006f1a:	478d                	li	a5,3
ffffffff84006f1c:	d4f1b023          	sd	a5,-704(gp) # ffffffff84009158 <current_syscall_error+0x30>
ffffffff84006f20:	450d                	li	a0,3
ffffffff84006f22:	b7e9                	j	ffffffff84006eec <decodeSetSpace+0x12a>

ffffffff84006f24 <invokeTCB_CopyRegisters>:
ffffffff84006f24:	7179                	add	sp,sp,-48
ffffffff84006f26:	f406                	sd	ra,40(sp)
ffffffff84006f28:	f022                	sd	s0,32(sp)
ffffffff84006f2a:	ec26                	sd	s1,24(sp)
ffffffff84006f2c:	e84a                	sd	s2,16(sp)
ffffffff84006f2e:	e44e                	sd	s3,8(sp)
ffffffff84006f30:	e052                	sd	s4,0(sp)
ffffffff84006f32:	842a                	mv	s0,a0
ffffffff84006f34:	84ae                	mv	s1,a1
ffffffff84006f36:	8a36                	mv	s4,a3
ffffffff84006f38:	89ba                	mv	s3,a4
ffffffff84006f3a:	893e                	mv	s2,a5
ffffffff84006f3c:	e635                	bnez	a2,ffffffff84006fa8 <invokeTCB_CopyRegisters+0x84>
ffffffff84006f3e:	060a1963          	bnez	s4,ffffffff84006fb0 <invokeTCB_CopyRegisters+0x8c>
ffffffff84006f42:	02098563          	beqz	s3,ffffffff84006f6c <invokeTCB_CopyRegisters+0x48>
ffffffff84006f46:	86018693          	add	a3,gp,-1952 # ffffffff84008c78 <frameRegisters>
ffffffff84006f4a:	87018593          	add	a1,gp,-1936 # ffffffff84008c88 <msgRegisters>
ffffffff84006f4e:	0006c703          	lbu	a4,0(a3) # ffffffffe0000000 <ki_end+0x5bfe0000>
ffffffff84006f52:	070e                	sll	a4,a4,0x3
ffffffff84006f54:	00e48633          	add	a2,s1,a4
ffffffff84006f58:	6210                	ld	a2,0(a2)
ffffffff84006f5a:	9722                	add	a4,a4,s0
ffffffff84006f5c:	e310                	sd	a2,0(a4)
ffffffff84006f5e:	0685                	add	a3,a3,1
ffffffff84006f60:	feb697e3          	bne	a3,a1,ffffffff84006f4e <invokeTCB_CopyRegisters+0x2a>
ffffffff84006f64:	10843783          	ld	a5,264(s0)
ffffffff84006f68:	10f43823          	sd	a5,272(s0)
ffffffff84006f6c:	02090163          	beqz	s2,ffffffff84006f8e <invokeTCB_CopyRegisters+0x6a>
ffffffff84006f70:	85018713          	add	a4,gp,-1968 # ffffffff84008c68 <gpRegisters>
ffffffff84006f74:	86018613          	add	a2,gp,-1952 # ffffffff84008c78 <frameRegisters>
ffffffff84006f78:	00074783          	lbu	a5,0(a4)
ffffffff84006f7c:	078e                	sll	a5,a5,0x3
ffffffff84006f7e:	00f486b3          	add	a3,s1,a5
ffffffff84006f82:	6294                	ld	a3,0(a3)
ffffffff84006f84:	97a2                	add	a5,a5,s0
ffffffff84006f86:	e394                	sd	a3,0(a5)
ffffffff84006f88:	0705                	add	a4,a4,1
ffffffff84006f8a:	fec717e3          	bne	a4,a2,ffffffff84006f78 <invokeTCB_CopyRegisters+0x54>
ffffffff84006f8e:	a801b783          	ld	a5,-1408(gp) # ffffffff84008e98 <ksCurThread>
ffffffff84006f92:	02878363          	beq	a5,s0,ffffffff84006fb8 <invokeTCB_CopyRegisters+0x94>
ffffffff84006f96:	4501                	li	a0,0
ffffffff84006f98:	70a2                	ld	ra,40(sp)
ffffffff84006f9a:	7402                	ld	s0,32(sp)
ffffffff84006f9c:	64e2                	ld	s1,24(sp)
ffffffff84006f9e:	6942                	ld	s2,16(sp)
ffffffff84006fa0:	69a2                	ld	s3,8(sp)
ffffffff84006fa2:	6a02                	ld	s4,0(sp)
ffffffff84006fa4:	6145                	add	sp,sp,48
ffffffff84006fa6:	8082                	ret
ffffffff84006fa8:	852e                	mv	a0,a1
ffffffff84006faa:	a66fe0ef          	jal	ffffffff84005210 <suspend>
ffffffff84006fae:	bf41                	j	ffffffff84006f3e <invokeTCB_CopyRegisters+0x1a>
ffffffff84006fb0:	8522                	mv	a0,s0
ffffffff84006fb2:	bf7fe0ef          	jal	ffffffff84005ba8 <restart>
ffffffff84006fb6:	b771                	j	ffffffff84006f42 <invokeTCB_CopyRegisters+0x1e>
ffffffff84006fb8:	9bbfd0ef          	jal	ffffffff84004972 <rescheduleRequired>
ffffffff84006fbc:	bfe9                	j	ffffffff84006f96 <invokeTCB_CopyRegisters+0x72>

ffffffff84006fbe <decodeCopyRegisters>:
ffffffff84006fbe:	7179                	add	sp,sp,-48
ffffffff84006fc0:	f406                	sd	ra,40(sp)
ffffffff84006fc2:	f022                	sd	s0,32(sp)
ffffffff84006fc4:	ec26                	sd	s1,24(sp)
ffffffff84006fc6:	e02a                	sd	a0,0(sp)
ffffffff84006fc8:	e42e                	sd	a1,8(sp)
ffffffff84006fca:	c62d                	beqz	a2,ffffffff84007034 <decodeCopyRegisters+0x76>
ffffffff84006fcc:	8781b783          	ld	a5,-1928(gp) # ffffffff84008c90 <current_extra_caps>
ffffffff84006fd0:	c3b5                	beqz	a5,ffffffff84007034 <decodeCopyRegisters+0x76>
ffffffff84006fd2:	a801b503          	ld	a0,-1408(gp) # ffffffff84008e98 <ksCurThread>
ffffffff84006fd6:	6d24                	ld	s1,88(a0)
ffffffff84006fd8:	639c                	ld	a5,0(a5)
ffffffff84006fda:	03b7d693          	srl	a3,a5,0x3b
ffffffff84006fde:	4731                	li	a4,12
ffffffff84006fe0:	04e69f63          	bne	a3,a4,ffffffff8400703e <decodeCopyRegisters+0x80>
ffffffff84006fe4:	01979593          	sll	a1,a5,0x19
ffffffff84006fe8:	81e5                	srl	a1,a1,0x19
ffffffff84006fea:	9399                	srl	a5,a5,0x26
ffffffff84006fec:	8b85                	and	a5,a5,1
ffffffff84006fee:	c781                	beqz	a5,ffffffff84006ff6 <decodeCopyRegisters+0x38>
ffffffff84006ff0:	57fd                	li	a5,-1
ffffffff84006ff2:	179e                	sll	a5,a5,0x27
ffffffff84006ff4:	8ddd                	or	a1,a1,a5
ffffffff84006ff6:	842e                	mv	s0,a1
ffffffff84006ff8:	4589                	li	a1,2
ffffffff84006ffa:	9cbfd0ef          	jal	ffffffff840049c4 <setThreadState>
ffffffff84006ffe:	6782                	ld	a5,0(sp)
ffffffff84007000:	01979513          	sll	a0,a5,0x19
ffffffff84007004:	8165                	srl	a0,a0,0x19
ffffffff84007006:	9399                	srl	a5,a5,0x26
ffffffff84007008:	8b85                	and	a5,a5,1
ffffffff8400700a:	c781                	beqz	a5,ffffffff84007012 <decodeCopyRegisters+0x54>
ffffffff8400700c:	57fd                	li	a5,-1
ffffffff8400700e:	179e                	sll	a5,a5,0x27
ffffffff84007010:	8d5d                	or	a0,a0,a5
ffffffff84007012:	4801                	li	a6,0
ffffffff84007014:	0084f793          	and	a5,s1,8
ffffffff84007018:	0044f713          	and	a4,s1,4
ffffffff8400701c:	0024f693          	and	a3,s1,2
ffffffff84007020:	0014f613          	and	a2,s1,1
ffffffff84007024:	85a2                	mv	a1,s0
ffffffff84007026:	effff0ef          	jal	ffffffff84006f24 <invokeTCB_CopyRegisters>
ffffffff8400702a:	70a2                	ld	ra,40(sp)
ffffffff8400702c:	7402                	ld	s0,32(sp)
ffffffff8400702e:	64e2                	ld	s1,24(sp)
ffffffff84007030:	6145                	add	sp,sp,48
ffffffff84007032:	8082                	ret
ffffffff84007034:	479d                	li	a5,7
ffffffff84007036:	d4f1b023          	sd	a5,-704(gp) # ffffffff84009158 <current_syscall_error+0x30>
ffffffff8400703a:	450d                	li	a0,3
ffffffff8400703c:	b7fd                	j	ffffffff8400702a <decodeCopyRegisters+0x6c>
ffffffff8400703e:	d1018793          	add	a5,gp,-752 # ffffffff84009128 <current_syscall_error>
ffffffff84007042:	4709                	li	a4,2
ffffffff84007044:	fb98                	sd	a4,48(a5)
ffffffff84007046:	4705                	li	a4,1
ffffffff84007048:	e798                	sd	a4,8(a5)
ffffffff8400704a:	450d                	li	a0,3
ffffffff8400704c:	bff9                	j	ffffffff8400702a <decodeCopyRegisters+0x6c>

ffffffff8400704e <invokeTCB_ReadRegisters>:
ffffffff8400704e:	7179                	add	sp,sp,-48
ffffffff84007050:	f406                	sd	ra,40(sp)
ffffffff84007052:	f022                	sd	s0,32(sp)
ffffffff84007054:	ec26                	sd	s1,24(sp)
ffffffff84007056:	e84a                	sd	s2,16(sp)
ffffffff84007058:	e44e                	sd	s3,8(sp)
ffffffff8400705a:	84aa                	mv	s1,a0
ffffffff8400705c:	8432                	mv	s0,a2
ffffffff8400705e:	89ba                	mv	s3,a4
ffffffff84007060:	a801b903          	ld	s2,-1408(gp) # ffffffff84008e98 <ksCurThread>
ffffffff84007064:	e1d5                	bnez	a1,ffffffff84007108 <invokeTCB_ReadRegisters+0xba>
ffffffff84007066:	0c098463          	beqz	s3,ffffffff8400712e <invokeTCB_ReadRegisters+0xe0>
ffffffff8400706a:	85ca                	mv	a1,s2
ffffffff8400706c:	4505                	li	a0,1
ffffffff8400706e:	b87fb0ef          	jal	ffffffff84002bf4 <lookupIPCBuffer>
ffffffff84007072:	04093423          	sd	zero,72(s2)
ffffffff84007076:	c055                	beqz	s0,ffffffff8400711a <invokeTCB_ReadRegisters+0xcc>
ffffffff84007078:	1084b783          	ld	a5,264(s1)
ffffffff8400707c:	04f93c23          	sd	a5,88(s2)
ffffffff84007080:	4785                	li	a5,1
ffffffff84007082:	0887f663          	bgeu	a5,s0,ffffffff8400710e <invokeTCB_ReadRegisters+0xc0>
ffffffff84007086:	609c                	ld	a5,0(s1)
ffffffff84007088:	06f93023          	sd	a5,96(s2)
ffffffff8400708c:	4789                	li	a5,2
ffffffff8400708e:	0887f263          	bgeu	a5,s0,ffffffff84007112 <invokeTCB_ReadRegisters+0xc4>
ffffffff84007092:	649c                	ld	a5,8(s1)
ffffffff84007094:	06f93423          	sd	a5,104(s2)
ffffffff84007098:	478d                	li	a5,3
ffffffff8400709a:	0687fe63          	bgeu	a5,s0,ffffffff84007116 <invokeTCB_ReadRegisters+0xc8>
ffffffff8400709e:	689c                	ld	a5,16(s1)
ffffffff840070a0:	06f93823          	sd	a5,112(s2)
ffffffff840070a4:	4711                	li	a4,4
ffffffff840070a6:	cd25                	beqz	a0,ffffffff8400711e <invokeTCB_ReadRegisters+0xd0>
ffffffff840070a8:	02877663          	bgeu	a4,s0,ffffffff840070d4 <invokeTCB_ReadRegisters+0x86>
ffffffff840070ac:	86018613          	add	a2,gp,-1952 # ffffffff84008c78 <frameRegisters>
ffffffff840070b0:	963a                	add	a2,a2,a4
ffffffff840070b2:	00371693          	sll	a3,a4,0x3
ffffffff840070b6:	96aa                	add	a3,a3,a0
ffffffff840070b8:	45c1                	li	a1,16
ffffffff840070ba:	0705                	add	a4,a4,1
ffffffff840070bc:	00064783          	lbu	a5,0(a2) # fffffffff8000000 <ki_end+0x73fe0000>
ffffffff840070c0:	078e                	sll	a5,a5,0x3
ffffffff840070c2:	97a6                	add	a5,a5,s1
ffffffff840070c4:	639c                	ld	a5,0(a5)
ffffffff840070c6:	e69c                	sd	a5,8(a3)
ffffffff840070c8:	00877663          	bgeu	a4,s0,ffffffff840070d4 <invokeTCB_ReadRegisters+0x86>
ffffffff840070cc:	0605                	add	a2,a2,1
ffffffff840070ce:	06a1                	add	a3,a3,8
ffffffff840070d0:	feb715e3          	bne	a4,a1,ffffffff840070ba <invokeTCB_ReadRegisters+0x6c>
ffffffff840070d4:	47c1                	li	a5,16
ffffffff840070d6:	0487f663          	bgeu	a5,s0,ffffffff84007122 <invokeTCB_ReadRegisters+0xd4>
ffffffff840070da:	85018693          	add	a3,gp,-1968 # ffffffff84008c68 <gpRegisters>
ffffffff840070de:	08850513          	add	a0,a0,136
ffffffff840070e2:	ff040593          	add	a1,s0,-16
ffffffff840070e6:	4401                	li	s0,0
ffffffff840070e8:	4641                	li	a2,16
ffffffff840070ea:	0006c783          	lbu	a5,0(a3)
ffffffff840070ee:	078e                	sll	a5,a5,0x3
ffffffff840070f0:	97a6                	add	a5,a5,s1
ffffffff840070f2:	639c                	ld	a5,0(a5)
ffffffff840070f4:	e11c                	sd	a5,0(a0)
ffffffff840070f6:	0405                	add	s0,s0,1
ffffffff840070f8:	02c40663          	beq	s0,a2,ffffffff84007124 <invokeTCB_ReadRegisters+0xd6>
ffffffff840070fc:	0685                	add	a3,a3,1
ffffffff840070fe:	0521                	add	a0,a0,8
ffffffff84007100:	feb415e3          	bne	s0,a1,ffffffff840070ea <invokeTCB_ReadRegisters+0x9c>
ffffffff84007104:	842e                	mv	s0,a1
ffffffff84007106:	a839                	j	ffffffff84007124 <invokeTCB_ReadRegisters+0xd6>
ffffffff84007108:	908fe0ef          	jal	ffffffff84005210 <suspend>
ffffffff8400710c:	bfa9                	j	ffffffff84007066 <invokeTCB_ReadRegisters+0x18>
ffffffff8400710e:	4705                	li	a4,1
ffffffff84007110:	bf59                	j	ffffffff840070a6 <invokeTCB_ReadRegisters+0x58>
ffffffff84007112:	4709                	li	a4,2
ffffffff84007114:	bf49                	j	ffffffff840070a6 <invokeTCB_ReadRegisters+0x58>
ffffffff84007116:	470d                	li	a4,3
ffffffff84007118:	b779                	j	ffffffff840070a6 <invokeTCB_ReadRegisters+0x58>
ffffffff8400711a:	8722                	mv	a4,s0
ffffffff8400711c:	a021                	j	ffffffff84007124 <invokeTCB_ReadRegisters+0xd6>
ffffffff8400711e:	4401                	li	s0,0
ffffffff84007120:	a011                	j	ffffffff84007124 <invokeTCB_ReadRegisters+0xd6>
ffffffff84007122:	4401                	li	s0,0
ffffffff84007124:	943a                	add	s0,s0,a4
ffffffff84007126:	07f47413          	and	s0,s0,127
ffffffff8400712a:	04893823          	sd	s0,80(s2)
ffffffff8400712e:	4585                	li	a1,1
ffffffff84007130:	854a                	mv	a0,s2
ffffffff84007132:	893fd0ef          	jal	ffffffff840049c4 <setThreadState>
ffffffff84007136:	4501                	li	a0,0
ffffffff84007138:	70a2                	ld	ra,40(sp)
ffffffff8400713a:	7402                	ld	s0,32(sp)
ffffffff8400713c:	64e2                	ld	s1,24(sp)
ffffffff8400713e:	6942                	ld	s2,16(sp)
ffffffff84007140:	69a2                	ld	s3,8(sp)
ffffffff84007142:	6145                	add	sp,sp,48
ffffffff84007144:	8082                	ret

ffffffff84007146 <decodeReadRegisters>:
ffffffff84007146:	7139                	add	sp,sp,-64
ffffffff84007148:	fc06                	sd	ra,56(sp)
ffffffff8400714a:	f822                	sd	s0,48(sp)
ffffffff8400714c:	f426                	sd	s1,40(sp)
ffffffff8400714e:	f04a                	sd	s2,32(sp)
ffffffff84007150:	ec4e                	sd	s3,24(sp)
ffffffff84007152:	e02a                	sd	a0,0(sp)
ffffffff84007154:	e42e                	sd	a1,8(sp)
ffffffff84007156:	4785                	li	a5,1
ffffffff84007158:	04c7fb63          	bgeu	a5,a2,ffffffff840071ae <decodeReadRegisters+0x68>
ffffffff8400715c:	8936                	mv	s2,a3
ffffffff8400715e:	a801b503          	ld	a0,-1408(gp) # ffffffff84008e98 <ksCurThread>
ffffffff84007162:	05853983          	ld	s3,88(a0)
ffffffff84007166:	7124                	ld	s1,96(a0)
ffffffff84007168:	fff48713          	add	a4,s1,-1
ffffffff8400716c:	47fd                	li	a5,31
ffffffff8400716e:	04e7e563          	bltu	a5,a4,ffffffff840071b8 <decodeReadRegisters+0x72>
ffffffff84007172:	6782                	ld	a5,0(sp)
ffffffff84007174:	01979413          	sll	s0,a5,0x19
ffffffff84007178:	8065                	srl	s0,s0,0x19
ffffffff8400717a:	9399                	srl	a5,a5,0x26
ffffffff8400717c:	8b85                	and	a5,a5,1
ffffffff8400717e:	c781                	beqz	a5,ffffffff84007186 <decodeReadRegisters+0x40>
ffffffff84007180:	57fd                	li	a5,-1
ffffffff84007182:	179e                	sll	a5,a5,0x27
ffffffff84007184:	8c5d                	or	s0,s0,a5
ffffffff84007186:	04850463          	beq	a0,s0,ffffffff840071ce <decodeReadRegisters+0x88>
ffffffff8400718a:	4589                	li	a1,2
ffffffff8400718c:	839fd0ef          	jal	ffffffff840049c4 <setThreadState>
ffffffff84007190:	874a                	mv	a4,s2
ffffffff84007192:	4681                	li	a3,0
ffffffff84007194:	8626                	mv	a2,s1
ffffffff84007196:	0019f593          	and	a1,s3,1
ffffffff8400719a:	8522                	mv	a0,s0
ffffffff8400719c:	eb3ff0ef          	jal	ffffffff8400704e <invokeTCB_ReadRegisters>
ffffffff840071a0:	70e2                	ld	ra,56(sp)
ffffffff840071a2:	7442                	ld	s0,48(sp)
ffffffff840071a4:	74a2                	ld	s1,40(sp)
ffffffff840071a6:	7902                	ld	s2,32(sp)
ffffffff840071a8:	69e2                	ld	s3,24(sp)
ffffffff840071aa:	6121                	add	sp,sp,64
ffffffff840071ac:	8082                	ret
ffffffff840071ae:	479d                	li	a5,7
ffffffff840071b0:	d4f1b023          	sd	a5,-704(gp) # ffffffff84009158 <current_syscall_error+0x30>
ffffffff840071b4:	450d                	li	a0,3
ffffffff840071b6:	b7ed                	j	ffffffff840071a0 <decodeReadRegisters+0x5a>
ffffffff840071b8:	d1018793          	add	a5,gp,-752 # ffffffff84009128 <current_syscall_error>
ffffffff840071bc:	4711                	li	a4,4
ffffffff840071be:	fb98                	sd	a4,48(a5)
ffffffff840071c0:	4705                	li	a4,1
ffffffff840071c2:	eb98                	sd	a4,16(a5)
ffffffff840071c4:	02000713          	li	a4,32
ffffffff840071c8:	ef98                	sd	a4,24(a5)
ffffffff840071ca:	450d                	li	a0,3
ffffffff840071cc:	bfd1                	j	ffffffff840071a0 <decodeReadRegisters+0x5a>
ffffffff840071ce:	478d                	li	a5,3
ffffffff840071d0:	d4f1b023          	sd	a5,-704(gp) # ffffffff84009158 <current_syscall_error+0x30>
ffffffff840071d4:	450d                	li	a0,3
ffffffff840071d6:	b7e9                	j	ffffffff840071a0 <decodeReadRegisters+0x5a>

ffffffff840071d8 <invokeTCB_WriteRegisters>:
ffffffff840071d8:	1141                	add	sp,sp,-16
ffffffff840071da:	e406                	sd	ra,8(sp)
ffffffff840071dc:	e022                	sd	s0,0(sp)
ffffffff840071de:	842a                	mv	s0,a0
ffffffff840071e0:	88b2                	mv	a7,a2
ffffffff840071e2:	02000793          	li	a5,32
ffffffff840071e6:	00c7f463          	bgeu	a5,a2,ffffffff840071ee <invokeTCB_WriteRegisters+0x16>
ffffffff840071ea:	02000893          	li	a7,32
ffffffff840071ee:	ca49                	beqz	a2,ffffffff84007280 <invokeTCB_WriteRegisters+0xa8>
ffffffff840071f0:	86018513          	add	a0,gp,-1952 # ffffffff84008c78 <frameRegisters>
ffffffff840071f4:	01870813          	add	a6,a4,24
ffffffff840071f8:	4681                	li	a3,0
ffffffff840071fa:	4e8d                	li	t4,3
ffffffff840071fc:	4f41                	li	t5,16
ffffffff840071fe:	a8018293          	add	t0,gp,-1408 # ffffffff84008e98 <ksCurThread>
ffffffff84007202:	87018f93          	add	t6,gp,-1936 # ffffffff84008c88 <msgRegisters>
ffffffff84007206:	a025                	j	ffffffff8400722e <invokeTCB_WriteRegisters+0x56>
ffffffff84007208:	0002b303          	ld	t1,0(t0)
ffffffff8400720c:	01f68e33          	add	t3,a3,t6
ffffffff84007210:	002e4e03          	lbu	t3,2(t3)
ffffffff84007214:	0e0e                	sll	t3,t3,0x3
ffffffff84007216:	9372                	add	t1,t1,t3
ffffffff84007218:	00033303          	ld	t1,0(t1)
ffffffff8400721c:	078e                	sll	a5,a5,0x3
ffffffff8400721e:	97a2                	add	a5,a5,s0
ffffffff84007220:	0067b023          	sd	t1,0(a5)
ffffffff84007224:	0685                	add	a3,a3,1
ffffffff84007226:	0505                	add	a0,a0,1
ffffffff84007228:	0821                	add	a6,a6,8
ffffffff8400722a:	0316f163          	bgeu	a3,a7,ffffffff8400724c <invokeTCB_WriteRegisters+0x74>
ffffffff8400722e:	00054783          	lbu	a5,0(a0)
ffffffff84007232:	00268313          	add	t1,a3,2
ffffffff84007236:	fc6ef9e3          	bgeu	t4,t1,ffffffff84007208 <invokeTCB_WriteRegisters+0x30>
ffffffff8400723a:	00083303          	ld	t1,0(a6)
ffffffff8400723e:	078e                	sll	a5,a5,0x3
ffffffff84007240:	97a2                	add	a5,a5,s0
ffffffff84007242:	0067b023          	sd	t1,0(a5)
ffffffff84007246:	0685                	add	a3,a3,1
ffffffff84007248:	fde69fe3          	bne	a3,t5,ffffffff84007226 <invokeTCB_WriteRegisters+0x4e>
ffffffff8400724c:	47c1                	li	a5,16
ffffffff8400724e:	02c7f963          	bgeu	a5,a2,ffffffff84007280 <invokeTCB_WriteRegisters+0xa8>
ffffffff84007252:	85018793          	add	a5,gp,-1968 # ffffffff84008c68 <gpRegisters>
ffffffff84007256:	09870713          	add	a4,a4,152
ffffffff8400725a:	85f18813          	add	a6,gp,-1953 # ffffffff84008c77 <gpRegisters+0xf>
ffffffff8400725e:	86be                	mv	a3,a5
ffffffff84007260:	4541                	li	a0,16
ffffffff84007262:	8d1d                	sub	a0,a0,a5
ffffffff84007264:	6310                	ld	a2,0(a4)
ffffffff84007266:	0006c783          	lbu	a5,0(a3)
ffffffff8400726a:	078e                	sll	a5,a5,0x3
ffffffff8400726c:	97a2                	add	a5,a5,s0
ffffffff8400726e:	e390                	sd	a2,0(a5)
ffffffff84007270:	01068863          	beq	a3,a6,ffffffff84007280 <invokeTCB_WriteRegisters+0xa8>
ffffffff84007274:	0685                	add	a3,a3,1
ffffffff84007276:	0721                	add	a4,a4,8
ffffffff84007278:	00d507b3          	add	a5,a0,a3
ffffffff8400727c:	ff17e4e3          	bltu	a5,a7,ffffffff84007264 <invokeTCB_WriteRegisters+0x8c>
ffffffff84007280:	10843783          	ld	a5,264(s0)
ffffffff84007284:	10f43823          	sd	a5,272(s0)
ffffffff84007288:	e991                	bnez	a1,ffffffff8400729c <invokeTCB_WriteRegisters+0xc4>
ffffffff8400728a:	a801b783          	ld	a5,-1408(gp) # ffffffff84008e98 <ksCurThread>
ffffffff8400728e:	00878b63          	beq	a5,s0,ffffffff840072a4 <invokeTCB_WriteRegisters+0xcc>
ffffffff84007292:	4501                	li	a0,0
ffffffff84007294:	60a2                	ld	ra,8(sp)
ffffffff84007296:	6402                	ld	s0,0(sp)
ffffffff84007298:	0141                	add	sp,sp,16
ffffffff8400729a:	8082                	ret
ffffffff8400729c:	8522                	mv	a0,s0
ffffffff8400729e:	90bfe0ef          	jal	ffffffff84005ba8 <restart>
ffffffff840072a2:	b7e5                	j	ffffffff8400728a <invokeTCB_WriteRegisters+0xb2>
ffffffff840072a4:	ecefd0ef          	jal	ffffffff84004972 <rescheduleRequired>
ffffffff840072a8:	b7ed                	j	ffffffff84007292 <invokeTCB_WriteRegisters+0xba>

ffffffff840072aa <decodeWriteRegisters>:
ffffffff840072aa:	7139                	add	sp,sp,-64
ffffffff840072ac:	fc06                	sd	ra,56(sp)
ffffffff840072ae:	f822                	sd	s0,48(sp)
ffffffff840072b0:	f426                	sd	s1,40(sp)
ffffffff840072b2:	f04a                	sd	s2,32(sp)
ffffffff840072b4:	ec4e                	sd	s3,24(sp)
ffffffff840072b6:	e02a                	sd	a0,0(sp)
ffffffff840072b8:	e42e                	sd	a1,8(sp)
ffffffff840072ba:	4785                	li	a5,1
ffffffff840072bc:	04c7fa63          	bgeu	a5,a2,ffffffff84007310 <decodeWriteRegisters+0x66>
ffffffff840072c0:	84b6                	mv	s1,a3
ffffffff840072c2:	a801b503          	ld	a0,-1408(gp) # ffffffff84008e98 <ksCurThread>
ffffffff840072c6:	05853983          	ld	s3,88(a0)
ffffffff840072ca:	06053903          	ld	s2,96(a0)
ffffffff840072ce:	1679                	add	a2,a2,-2
ffffffff840072d0:	05266563          	bltu	a2,s2,ffffffff8400731a <decodeWriteRegisters+0x70>
ffffffff840072d4:	6782                	ld	a5,0(sp)
ffffffff840072d6:	01979413          	sll	s0,a5,0x19
ffffffff840072da:	8065                	srl	s0,s0,0x19
ffffffff840072dc:	9399                	srl	a5,a5,0x26
ffffffff840072de:	8b85                	and	a5,a5,1
ffffffff840072e0:	c781                	beqz	a5,ffffffff840072e8 <decodeWriteRegisters+0x3e>
ffffffff840072e2:	57fd                	li	a5,-1
ffffffff840072e4:	179e                	sll	a5,a5,0x27
ffffffff840072e6:	8c5d                	or	s0,s0,a5
ffffffff840072e8:	02850e63          	beq	a0,s0,ffffffff84007324 <decodeWriteRegisters+0x7a>
ffffffff840072ec:	4589                	li	a1,2
ffffffff840072ee:	ed6fd0ef          	jal	ffffffff840049c4 <setThreadState>
ffffffff840072f2:	8726                	mv	a4,s1
ffffffff840072f4:	4681                	li	a3,0
ffffffff840072f6:	864a                	mv	a2,s2
ffffffff840072f8:	0019f593          	and	a1,s3,1
ffffffff840072fc:	8522                	mv	a0,s0
ffffffff840072fe:	edbff0ef          	jal	ffffffff840071d8 <invokeTCB_WriteRegisters>
ffffffff84007302:	70e2                	ld	ra,56(sp)
ffffffff84007304:	7442                	ld	s0,48(sp)
ffffffff84007306:	74a2                	ld	s1,40(sp)
ffffffff84007308:	7902                	ld	s2,32(sp)
ffffffff8400730a:	69e2                	ld	s3,24(sp)
ffffffff8400730c:	6121                	add	sp,sp,64
ffffffff8400730e:	8082                	ret
ffffffff84007310:	479d                	li	a5,7
ffffffff84007312:	d4f1b023          	sd	a5,-704(gp) # ffffffff84009158 <current_syscall_error+0x30>
ffffffff84007316:	450d                	li	a0,3
ffffffff84007318:	b7ed                	j	ffffffff84007302 <decodeWriteRegisters+0x58>
ffffffff8400731a:	479d                	li	a5,7
ffffffff8400731c:	d4f1b023          	sd	a5,-704(gp) # ffffffff84009158 <current_syscall_error+0x30>
ffffffff84007320:	450d                	li	a0,3
ffffffff84007322:	b7c5                	j	ffffffff84007302 <decodeWriteRegisters+0x58>
ffffffff84007324:	478d                	li	a5,3
ffffffff84007326:	d4f1b023          	sd	a5,-704(gp) # ffffffff84009158 <current_syscall_error+0x30>
ffffffff8400732a:	450d                	li	a0,3
ffffffff8400732c:	bfd9                	j	ffffffff84007302 <decodeWriteRegisters+0x58>

ffffffff8400732e <invokeTCB_NotificationControl>:
ffffffff8400732e:	1141                	add	sp,sp,-16
ffffffff84007330:	e406                	sd	ra,8(sp)
ffffffff84007332:	c599                	beqz	a1,ffffffff84007340 <invokeTCB_NotificationControl+0x12>
ffffffff84007334:	a75fc0ef          	jal	ffffffff84003da8 <bindNotification>
ffffffff84007338:	4501                	li	a0,0
ffffffff8400733a:	60a2                	ld	ra,8(sp)
ffffffff8400733c:	0141                	add	sp,sp,16
ffffffff8400733e:	8082                	ret
ffffffff84007340:	a55fc0ef          	jal	ffffffff84003d94 <unbindNotification>
ffffffff84007344:	bfd5                	j	ffffffff84007338 <invokeTCB_NotificationControl+0xa>

ffffffff84007346 <decodeBindNotification>:
ffffffff84007346:	7179                	add	sp,sp,-48
ffffffff84007348:	f406                	sd	ra,40(sp)
ffffffff8400734a:	f022                	sd	s0,32(sp)
ffffffff8400734c:	ec26                	sd	s1,24(sp)
ffffffff8400734e:	e02a                	sd	a0,0(sp)
ffffffff84007350:	e42e                	sd	a1,8(sp)
ffffffff84007352:	8781b683          	ld	a3,-1928(gp) # ffffffff84008c90 <current_extra_caps>
ffffffff84007356:	cab9                	beqz	a3,ffffffff840073ac <decodeBindNotification+0x66>
ffffffff84007358:	6782                	ld	a5,0(sp)
ffffffff8400735a:	01979713          	sll	a4,a5,0x19
ffffffff8400735e:	8365                	srl	a4,a4,0x19
ffffffff84007360:	9399                	srl	a5,a5,0x26
ffffffff84007362:	8b85                	and	a5,a5,1
ffffffff84007364:	c781                	beqz	a5,ffffffff8400736c <decodeBindNotification+0x26>
ffffffff84007366:	57fd                	li	a5,-1
ffffffff84007368:	179e                	sll	a5,a5,0x27
ffffffff8400736a:	8f5d                	or	a4,a4,a5
ffffffff8400736c:	843a                	mv	s0,a4
ffffffff8400736e:	13073783          	ld	a5,304(a4)
ffffffff84007372:	e3b1                	bnez	a5,ffffffff840073b6 <decodeBindNotification+0x70>
ffffffff84007374:	629c                	ld	a5,0(a3)
ffffffff84007376:	03b7d693          	srl	a3,a5,0x3b
ffffffff8400737a:	4719                	li	a4,6
ffffffff8400737c:	04e69663          	bne	a3,a4,ffffffff840073c8 <decodeBindNotification+0x82>
ffffffff84007380:	01979713          	sll	a4,a5,0x19
ffffffff84007384:	8365                	srl	a4,a4,0x19
ffffffff84007386:	0267d693          	srl	a3,a5,0x26
ffffffff8400738a:	8a85                	and	a3,a3,1
ffffffff8400738c:	c681                	beqz	a3,ffffffff84007394 <decodeBindNotification+0x4e>
ffffffff8400738e:	56fd                	li	a3,-1
ffffffff84007390:	169e                	sll	a3,a3,0x27
ffffffff84007392:	8f55                	or	a4,a4,a3
ffffffff84007394:	84ba                	mv	s1,a4
ffffffff84007396:	93e9                	srl	a5,a5,0x3a
ffffffff84007398:	8b85                	and	a5,a5,1
ffffffff8400739a:	cf85                	beqz	a5,ffffffff840073d2 <decodeBindNotification+0x8c>
ffffffff8400739c:	671c                	ld	a5,8(a4)
ffffffff8400739e:	07e6                	sll	a5,a5,0x19
ffffffff840073a0:	cf95                	beqz	a5,ffffffff840073dc <decodeBindNotification+0x96>
ffffffff840073a2:	478d                	li	a5,3
ffffffff840073a4:	d4f1b023          	sd	a5,-704(gp) # ffffffff84009158 <current_syscall_error+0x30>
ffffffff840073a8:	450d                	li	a0,3
ffffffff840073aa:	a811                	j	ffffffff840073be <decodeBindNotification+0x78>
ffffffff840073ac:	479d                	li	a5,7
ffffffff840073ae:	d4f1b023          	sd	a5,-704(gp) # ffffffff84009158 <current_syscall_error+0x30>
ffffffff840073b2:	450d                	li	a0,3
ffffffff840073b4:	a029                	j	ffffffff840073be <decodeBindNotification+0x78>
ffffffff840073b6:	478d                	li	a5,3
ffffffff840073b8:	d4f1b023          	sd	a5,-704(gp) # ffffffff84009158 <current_syscall_error+0x30>
ffffffff840073bc:	450d                	li	a0,3
ffffffff840073be:	70a2                	ld	ra,40(sp)
ffffffff840073c0:	7402                	ld	s0,32(sp)
ffffffff840073c2:	64e2                	ld	s1,24(sp)
ffffffff840073c4:	6145                	add	sp,sp,48
ffffffff840073c6:	8082                	ret
ffffffff840073c8:	478d                	li	a5,3
ffffffff840073ca:	d4f1b023          	sd	a5,-704(gp) # ffffffff84009158 <current_syscall_error+0x30>
ffffffff840073ce:	450d                	li	a0,3
ffffffff840073d0:	b7fd                	j	ffffffff840073be <decodeBindNotification+0x78>
ffffffff840073d2:	478d                	li	a5,3
ffffffff840073d4:	d4f1b023          	sd	a5,-704(gp) # ffffffff84009158 <current_syscall_error+0x30>
ffffffff840073d8:	450d                	li	a0,3
ffffffff840073da:	b7d5                	j	ffffffff840073be <decodeBindNotification+0x78>
ffffffff840073dc:	6f1c                	ld	a5,24(a4)
ffffffff840073de:	07e6                	sll	a5,a5,0x19
ffffffff840073e0:	f3e9                	bnez	a5,ffffffff840073a2 <decodeBindNotification+0x5c>
ffffffff840073e2:	4589                	li	a1,2
ffffffff840073e4:	a801b503          	ld	a0,-1408(gp) # ffffffff84008e98 <ksCurThread>
ffffffff840073e8:	ddcfd0ef          	jal	ffffffff840049c4 <setThreadState>
ffffffff840073ec:	85a6                	mv	a1,s1
ffffffff840073ee:	8522                	mv	a0,s0
ffffffff840073f0:	f3fff0ef          	jal	ffffffff8400732e <invokeTCB_NotificationControl>
ffffffff840073f4:	b7e9                	j	ffffffff840073be <decodeBindNotification+0x78>

ffffffff840073f6 <decodeUnbindNotification>:
ffffffff840073f6:	1101                	add	sp,sp,-32
ffffffff840073f8:	ec06                	sd	ra,24(sp)
ffffffff840073fa:	e822                	sd	s0,16(sp)
ffffffff840073fc:	e02a                	sd	a0,0(sp)
ffffffff840073fe:	e42e                	sd	a1,8(sp)
ffffffff84007400:	01951413          	sll	s0,a0,0x19
ffffffff84007404:	8065                	srl	s0,s0,0x19
ffffffff84007406:	9119                	srl	a0,a0,0x26
ffffffff84007408:	8905                	and	a0,a0,1
ffffffff8400740a:	c501                	beqz	a0,ffffffff84007412 <decodeUnbindNotification+0x1c>
ffffffff8400740c:	57fd                	li	a5,-1
ffffffff8400740e:	179e                	sll	a5,a5,0x27
ffffffff84007410:	8c5d                	or	s0,s0,a5
ffffffff84007412:	13043783          	ld	a5,304(s0)
ffffffff84007416:	cf91                	beqz	a5,ffffffff84007432 <decodeUnbindNotification+0x3c>
ffffffff84007418:	4589                	li	a1,2
ffffffff8400741a:	a801b503          	ld	a0,-1408(gp) # ffffffff84008e98 <ksCurThread>
ffffffff8400741e:	da6fd0ef          	jal	ffffffff840049c4 <setThreadState>
ffffffff84007422:	4581                	li	a1,0
ffffffff84007424:	8522                	mv	a0,s0
ffffffff84007426:	f09ff0ef          	jal	ffffffff8400732e <invokeTCB_NotificationControl>
ffffffff8400742a:	60e2                	ld	ra,24(sp)
ffffffff8400742c:	6442                	ld	s0,16(sp)
ffffffff8400742e:	6105                	add	sp,sp,32
ffffffff84007430:	8082                	ret
ffffffff84007432:	478d                	li	a5,3
ffffffff84007434:	d4f1b023          	sd	a5,-704(gp) # ffffffff84009158 <current_syscall_error+0x30>
ffffffff84007438:	450d                	li	a0,3
ffffffff8400743a:	bfc5                	j	ffffffff8400742a <decodeUnbindNotification+0x34>

ffffffff8400743c <decodeTCBInvocation>:
ffffffff8400743c:	7179                	add	sp,sp,-48
ffffffff8400743e:	f406                	sd	ra,40(sp)
ffffffff84007440:	f022                	sd	s0,32(sp)
ffffffff84007442:	ec26                	sd	s1,24(sp)
ffffffff84007444:	e032                	sd	a2,0(sp)
ffffffff84007446:	e436                	sd	a3,8(sp)
ffffffff84007448:	86ba                	mv	a3,a4
ffffffff8400744a:	473d                	li	a4,15
ffffffff8400744c:	14a76063          	bltu	a4,a0,ffffffff8400758c <decodeTCBInvocation+0x150>
ffffffff84007450:	8432                	mv	s0,a2
ffffffff84007452:	050a                	sll	a0,a0,0x2
ffffffff84007454:	00002717          	auipc	a4,0x2
ffffffff84007458:	2d470713          	add	a4,a4,724 # ffffffff84009728 <platform_interrupt_t+0x1a0>
ffffffff8400745c:	953a                	add	a0,a0,a4
ffffffff8400745e:	4108                	lw	a0,0(a0)
ffffffff84007460:	953a                	add	a0,a0,a4
ffffffff84007462:	8502                	jr	a0
ffffffff84007464:	8742                	mv	a4,a6
ffffffff84007466:	86be                	mv	a3,a5
ffffffff84007468:	862e                	mv	a2,a1
ffffffff8400746a:	6502                	ld	a0,0(sp)
ffffffff8400746c:	65a2                	ld	a1,8(sp)
ffffffff8400746e:	cd9ff0ef          	jal	ffffffff84007146 <decodeReadRegisters>
ffffffff84007472:	70a2                	ld	ra,40(sp)
ffffffff84007474:	7402                	ld	s0,32(sp)
ffffffff84007476:	64e2                	ld	s1,24(sp)
ffffffff84007478:	6145                	add	sp,sp,48
ffffffff8400747a:	8082                	ret
ffffffff8400747c:	86c2                	mv	a3,a6
ffffffff8400747e:	862e                	mv	a2,a1
ffffffff84007480:	6502                	ld	a0,0(sp)
ffffffff84007482:	65a2                	ld	a1,8(sp)
ffffffff84007484:	e27ff0ef          	jal	ffffffff840072aa <decodeWriteRegisters>
ffffffff84007488:	b7ed                	j	ffffffff84007472 <decodeTCBInvocation+0x36>
ffffffff8400748a:	86c2                	mv	a3,a6
ffffffff8400748c:	862e                	mv	a2,a1
ffffffff8400748e:	6502                	ld	a0,0(sp)
ffffffff84007490:	65a2                	ld	a1,8(sp)
ffffffff84007492:	b2dff0ef          	jal	ffffffff84006fbe <decodeCopyRegisters>
ffffffff84007496:	bff1                	j	ffffffff84007472 <decodeTCBInvocation+0x36>
ffffffff84007498:	4589                	li	a1,2
ffffffff8400749a:	a801b503          	ld	a0,-1408(gp) # ffffffff84008e98 <ksCurThread>
ffffffff8400749e:	d26fd0ef          	jal	ffffffff840049c4 <setThreadState>
ffffffff840074a2:	01941513          	sll	a0,s0,0x19
ffffffff840074a6:	8165                	srl	a0,a0,0x19
ffffffff840074a8:	02645613          	srl	a2,s0,0x26
ffffffff840074ac:	8a05                	and	a2,a2,1
ffffffff840074ae:	c601                	beqz	a2,ffffffff840074b6 <decodeTCBInvocation+0x7a>
ffffffff840074b0:	57fd                	li	a5,-1
ffffffff840074b2:	179e                	sll	a5,a5,0x27
ffffffff840074b4:	8d5d                	or	a0,a0,a5
ffffffff840074b6:	d5bfd0ef          	jal	ffffffff84005210 <suspend>
ffffffff840074ba:	4501                	li	a0,0
ffffffff840074bc:	bf5d                	j	ffffffff84007472 <decodeTCBInvocation+0x36>
ffffffff840074be:	4589                	li	a1,2
ffffffff840074c0:	a801b503          	ld	a0,-1408(gp) # ffffffff84008e98 <ksCurThread>
ffffffff840074c4:	d00fd0ef          	jal	ffffffff840049c4 <setThreadState>
ffffffff840074c8:	01941513          	sll	a0,s0,0x19
ffffffff840074cc:	8165                	srl	a0,a0,0x19
ffffffff840074ce:	02645613          	srl	a2,s0,0x26
ffffffff840074d2:	8a05                	and	a2,a2,1
ffffffff840074d4:	c601                	beqz	a2,ffffffff840074dc <decodeTCBInvocation+0xa0>
ffffffff840074d6:	57fd                	li	a5,-1
ffffffff840074d8:	179e                	sll	a5,a5,0x27
ffffffff840074da:	8d5d                	or	a0,a0,a5
ffffffff840074dc:	eccfe0ef          	jal	ffffffff84005ba8 <restart>
ffffffff840074e0:	4501                	li	a0,0
ffffffff840074e2:	bf41                	j	ffffffff84007472 <decodeTCBInvocation+0x36>
ffffffff840074e4:	8742                	mv	a4,a6
ffffffff840074e6:	862e                	mv	a2,a1
ffffffff840074e8:	6502                	ld	a0,0(sp)
ffffffff840074ea:	65a2                	ld	a1,8(sp)
ffffffff840074ec:	c46ff0ef          	jal	ffffffff84006932 <decodeTCBConfigure>
ffffffff840074f0:	b749                	j	ffffffff84007472 <decodeTCBInvocation+0x36>
ffffffff840074f2:	86c2                	mv	a3,a6
ffffffff840074f4:	862e                	mv	a2,a1
ffffffff840074f6:	6502                	ld	a0,0(sp)
ffffffff840074f8:	65a2                	ld	a1,8(sp)
ffffffff840074fa:	df0ff0ef          	jal	ffffffff84006aea <decodeSetPriority>
ffffffff840074fe:	bf95                	j	ffffffff84007472 <decodeTCBInvocation+0x36>
ffffffff84007500:	86c2                	mv	a3,a6
ffffffff84007502:	862e                	mv	a2,a1
ffffffff84007504:	6502                	ld	a0,0(sp)
ffffffff84007506:	65a2                	ld	a1,8(sp)
ffffffff84007508:	e92ff0ef          	jal	ffffffff84006b9a <decodeSetMCPriority>
ffffffff8400750c:	b79d                	j	ffffffff84007472 <decodeTCBInvocation+0x36>
ffffffff8400750e:	86c2                	mv	a3,a6
ffffffff84007510:	862e                	mv	a2,a1
ffffffff84007512:	6502                	ld	a0,0(sp)
ffffffff84007514:	65a2                	ld	a1,8(sp)
ffffffff84007516:	f34ff0ef          	jal	ffffffff84006c4a <decodeSetSchedParams>
ffffffff8400751a:	bfa1                	j	ffffffff84007472 <decodeTCBInvocation+0x36>
ffffffff8400751c:	8742                	mv	a4,a6
ffffffff8400751e:	862e                	mv	a2,a1
ffffffff84007520:	6502                	ld	a0,0(sp)
ffffffff84007522:	65a2                	ld	a1,8(sp)
ffffffff84007524:	ff6ff0ef          	jal	ffffffff84006d1a <decodeSetIPCBuffer>
ffffffff84007528:	b7a9                	j	ffffffff84007472 <decodeTCBInvocation+0x36>
ffffffff8400752a:	8742                	mv	a4,a6
ffffffff8400752c:	862e                	mv	a2,a1
ffffffff8400752e:	6502                	ld	a0,0(sp)
ffffffff84007530:	65a2                	ld	a1,8(sp)
ffffffff84007532:	891ff0ef          	jal	ffffffff84006dc2 <decodeSetSpace>
ffffffff84007536:	bf35                	j	ffffffff84007472 <decodeTCBInvocation+0x36>
ffffffff84007538:	6502                	ld	a0,0(sp)
ffffffff8400753a:	65a2                	ld	a1,8(sp)
ffffffff8400753c:	e0bff0ef          	jal	ffffffff84007346 <decodeBindNotification>
ffffffff84007540:	bf0d                	j	ffffffff84007472 <decodeTCBInvocation+0x36>
ffffffff84007542:	6502                	ld	a0,0(sp)
ffffffff84007544:	65a2                	ld	a1,8(sp)
ffffffff84007546:	eb1ff0ef          	jal	ffffffff840073f6 <decodeUnbindNotification>
ffffffff8400754a:	b725                	j	ffffffff84007472 <decodeTCBInvocation+0x36>
ffffffff8400754c:	c99d                	beqz	a1,ffffffff84007582 <decodeTCBInvocation+0x146>
ffffffff8400754e:	a801b503          	ld	a0,-1408(gp) # ffffffff84008e98 <ksCurThread>
ffffffff84007552:	6d24                	ld	s1,88(a0)
ffffffff84007554:	4589                	li	a1,2
ffffffff84007556:	c6efd0ef          	jal	ffffffff840049c4 <setThreadState>
ffffffff8400755a:	01941793          	sll	a5,s0,0x19
ffffffff8400755e:	83e5                	srl	a5,a5,0x19
ffffffff84007560:	02645613          	srl	a2,s0,0x26
ffffffff84007564:	8a05                	and	a2,a2,1
ffffffff84007566:	c601                	beqz	a2,ffffffff8400756e <decodeTCBInvocation+0x132>
ffffffff84007568:	577d                	li	a4,-1
ffffffff8400756a:	171e                	sll	a4,a4,0x27
ffffffff8400756c:	8fd9                	or	a5,a5,a4
ffffffff8400756e:	ef84                	sd	s1,24(a5)
ffffffff84007570:	a801b703          	ld	a4,-1408(gp) # ffffffff84008e98 <ksCurThread>
ffffffff84007574:	4501                	li	a0,0
ffffffff84007576:	eee79ee3          	bne	a5,a4,ffffffff84007472 <decodeTCBInvocation+0x36>
ffffffff8400757a:	bf8fd0ef          	jal	ffffffff84004972 <rescheduleRequired>
ffffffff8400757e:	4501                	li	a0,0
ffffffff84007580:	bdcd                	j	ffffffff84007472 <decodeTCBInvocation+0x36>
ffffffff84007582:	479d                	li	a5,7
ffffffff84007584:	d4f1b023          	sd	a5,-704(gp) # ffffffff84009158 <current_syscall_error+0x30>
ffffffff84007588:	450d                	li	a0,3
ffffffff8400758a:	b5e5                	j	ffffffff84007472 <decodeTCBInvocation+0x36>
ffffffff8400758c:	478d                	li	a5,3
ffffffff8400758e:	d4f1b023          	sd	a5,-704(gp) # ffffffff84009158 <current_syscall_error+0x30>
ffffffff84007592:	450d                	li	a0,3
ffffffff84007594:	bdf9                	j	ffffffff84007472 <decodeTCBInvocation+0x36>

ffffffff84007596 <setMRs_syscall_error>:
ffffffff84007596:	1141                	add	sp,sp,-16
ffffffff84007598:	e406                	sd	ra,8(sp)
ffffffff8400759a:	87aa                	mv	a5,a0
ffffffff8400759c:	d401b503          	ld	a0,-704(gp) # ffffffff84009158 <current_syscall_error+0x30>
ffffffff840075a0:	4729                	li	a4,10
ffffffff840075a2:	06a76263          	bltu	a4,a0,ffffffff84007606 <setMRs_syscall_error+0x70>
ffffffff840075a6:	00251713          	sll	a4,a0,0x2
ffffffff840075aa:	00002697          	auipc	a3,0x2
ffffffff840075ae:	1be68693          	add	a3,a3,446 # ffffffff84009768 <platform_interrupt_t+0x1e0>
ffffffff840075b2:	9736                	add	a4,a4,a3
ffffffff840075b4:	4318                	lw	a4,0(a4)
ffffffff840075b6:	9736                	add	a4,a4,a3
ffffffff840075b8:	8702                	jr	a4
ffffffff840075ba:	d101b703          	ld	a4,-752(gp) # ffffffff84009128 <current_syscall_error>
ffffffff840075be:	efb8                	sd	a4,88(a5)
ffffffff840075c0:	a0b1                	j	ffffffff8400760c <setMRs_syscall_error+0x76>
ffffffff840075c2:	d181b703          	ld	a4,-744(gp) # ffffffff84009130 <current_syscall_error+0x8>
ffffffff840075c6:	efb8                	sd	a4,88(a5)
ffffffff840075c8:	4505                	li	a0,1
ffffffff840075ca:	a089                	j	ffffffff8400760c <setMRs_syscall_error+0x76>
ffffffff840075cc:	d1018713          	add	a4,gp,-752 # ffffffff84009128 <current_syscall_error>
ffffffff840075d0:	6b14                	ld	a3,16(a4)
ffffffff840075d2:	efb4                	sd	a3,88(a5)
ffffffff840075d4:	6f18                	ld	a4,24(a4)
ffffffff840075d6:	f3b8                	sd	a4,96(a5)
ffffffff840075d8:	4509                	li	a0,2
ffffffff840075da:	a80d                	j	ffffffff8400760c <setMRs_syscall_error+0x76>
ffffffff840075dc:	d381b703          	ld	a4,-712(gp) # ffffffff84009150 <current_syscall_error+0x28>
ffffffff840075e0:	00e03733          	snez	a4,a4
ffffffff840075e4:	efb8                	sd	a4,88(a5)
ffffffff840075e6:	d5818693          	add	a3,gp,-680 # ffffffff84009170 <current_lookup_fault>
ffffffff840075ea:	4705                	li	a4,1
ffffffff840075ec:	6290                	ld	a2,0(a3)
ffffffff840075ee:	6694                	ld	a3,8(a3)
ffffffff840075f0:	853e                	mv	a0,a5
ffffffff840075f2:	a6afb0ef          	jal	ffffffff8400285c <setMRs_lookup_failure>
ffffffff840075f6:	1502                	sll	a0,a0,0x20
ffffffff840075f8:	9101                	srl	a0,a0,0x20
ffffffff840075fa:	a809                	j	ffffffff8400760c <setMRs_syscall_error+0x76>
ffffffff840075fc:	d301b703          	ld	a4,-720(gp) # ffffffff84009148 <current_syscall_error+0x20>
ffffffff84007600:	efb8                	sd	a4,88(a5)
ffffffff84007602:	4505                	li	a0,1
ffffffff84007604:	a021                	j	ffffffff8400760c <setMRs_syscall_error+0x76>
ffffffff84007606:	a4afb0ef          	jal	ffffffff84002850 <halt>
ffffffff8400760a:	4501                	li	a0,0
ffffffff8400760c:	60a2                	ld	ra,8(sp)
ffffffff8400760e:	0141                	add	sp,sp,16
ffffffff84007610:	8082                	ret

ffffffff84007612 <replyFromKernel_error>:
ffffffff84007612:	1141                	add	sp,sp,-16
ffffffff84007614:	e406                	sd	ra,8(sp)
ffffffff84007616:	e022                	sd	s0,0(sp)
ffffffff84007618:	842a                	mv	s0,a0
ffffffff8400761a:	85aa                	mv	a1,a0
ffffffff8400761c:	4505                	li	a0,1
ffffffff8400761e:	dd6fb0ef          	jal	ffffffff84002bf4 <lookupIPCBuffer>
ffffffff84007622:	85aa                	mv	a1,a0
ffffffff84007624:	04043423          	sd	zero,72(s0)
ffffffff84007628:	8522                	mv	a0,s0
ffffffff8400762a:	f6dff0ef          	jal	ffffffff84007596 <setMRs_syscall_error>
ffffffff8400762e:	d401b783          	ld	a5,-704(gp) # ffffffff84009158 <current_syscall_error+0x30>
ffffffff84007632:	07b2                	sll	a5,a5,0xc
ffffffff84007634:	07f57513          	and	a0,a0,127
ffffffff84007638:	8fc9                	or	a5,a5,a0
ffffffff8400763a:	e83c                	sd	a5,80(s0)
ffffffff8400763c:	60a2                	ld	ra,8(sp)
ffffffff8400763e:	6402                	ld	s0,0(sp)
ffffffff84007640:	0141                	add	sp,sp,16
ffffffff84007642:	8082                	ret

ffffffff84007644 <strnlen>:
ffffffff84007644:	86aa                	mv	a3,a0
ffffffff84007646:	852e                	mv	a0,a1
ffffffff84007648:	4781                	li	a5,0
ffffffff8400764a:	c991                	beqz	a1,ffffffff8400765e <strnlen+0x1a>
ffffffff8400764c:	00f68733          	add	a4,a3,a5
ffffffff84007650:	00074703          	lbu	a4,0(a4)
ffffffff84007654:	c711                	beqz	a4,ffffffff84007660 <strnlen+0x1c>
ffffffff84007656:	0785                	add	a5,a5,1
ffffffff84007658:	fef51ae3          	bne	a0,a5,ffffffff8400764c <strnlen+0x8>
ffffffff8400765c:	a019                	j	ffffffff84007662 <strnlen+0x1e>
ffffffff8400765e:	8082                	ret
ffffffff84007660:	853e                	mv	a0,a5
ffffffff84007662:	8082                	ret

ffffffff84007664 <strlcpy>:
ffffffff84007664:	86aa                	mv	a3,a0
ffffffff84007666:	4785                	li	a5,1
ffffffff84007668:	02c7f563          	bgeu	a5,a2,ffffffff84007692 <strlcpy+0x2e>
ffffffff8400766c:	167d                	add	a2,a2,-1
ffffffff8400766e:	4781                	li	a5,0
ffffffff84007670:	853e                	mv	a0,a5
ffffffff84007672:	0785                	add	a5,a5,1
ffffffff84007674:	00a58733          	add	a4,a1,a0
ffffffff84007678:	00074703          	lbu	a4,0(a4)
ffffffff8400767c:	c719                	beqz	a4,ffffffff8400768a <strlcpy+0x26>
ffffffff8400767e:	9536                	add	a0,a0,a3
ffffffff84007680:	00e50023          	sb	a4,0(a0)
ffffffff84007684:	fec796e3          	bne	a5,a2,ffffffff84007670 <strlcpy+0xc>
ffffffff84007688:	8532                	mv	a0,a2
ffffffff8400768a:	96aa                	add	a3,a3,a0
ffffffff8400768c:	00068023          	sb	zero,0(a3)
ffffffff84007690:	8082                	ret
ffffffff84007692:	4501                	li	a0,0
ffffffff84007694:	bfdd                	j	ffffffff8400768a <strlcpy+0x26>

ffffffff84007696 <strlcat>:
ffffffff84007696:	882a                	mv	a6,a0
ffffffff84007698:	8532                	mv	a0,a2
ffffffff8400769a:	4781                	li	a5,0
ffffffff8400769c:	ca11                	beqz	a2,ffffffff840076b0 <strlcat+0x1a>
ffffffff8400769e:	00f80733          	add	a4,a6,a5
ffffffff840076a2:	00074703          	lbu	a4,0(a4)
ffffffff840076a6:	c711                	beqz	a4,ffffffff840076b2 <strlcat+0x1c>
ffffffff840076a8:	0785                	add	a5,a5,1
ffffffff840076aa:	fef51ae3          	bne	a0,a5,ffffffff8400769e <strlcat+0x8>
ffffffff840076ae:	8082                	ret
ffffffff840076b0:	8082                	ret
ffffffff840076b2:	04a7f063          	bgeu	a5,a0,ffffffff840076f2 <strlcat+0x5c>
ffffffff840076b6:	00178713          	add	a4,a5,1
ffffffff840076ba:	02a77263          	bgeu	a4,a0,ffffffff840076de <strlcat+0x48>
ffffffff840076be:	40f706b3          	sub	a3,a4,a5
ffffffff840076c2:	96ae                	add	a3,a3,a1
ffffffff840076c4:	fff6c683          	lbu	a3,-1(a3)
ffffffff840076c8:	ce89                	beqz	a3,ffffffff840076e2 <strlcat+0x4c>
ffffffff840076ca:	00e80633          	add	a2,a6,a4
ffffffff840076ce:	fed60fa3          	sb	a3,-1(a2)
ffffffff840076d2:	00170693          	add	a3,a4,1
ffffffff840076d6:	00a6fc63          	bgeu	a3,a0,ffffffff840076ee <strlcat+0x58>
ffffffff840076da:	8736                	mv	a4,a3
ffffffff840076dc:	b7cd                	j	ffffffff840076be <strlcat+0x28>
ffffffff840076de:	853e                	mv	a0,a5
ffffffff840076e0:	a019                	j	ffffffff840076e6 <strlcat+0x50>
ffffffff840076e2:	fff70513          	add	a0,a4,-1
ffffffff840076e6:	982a                	add	a6,a6,a0
ffffffff840076e8:	00080023          	sb	zero,0(a6)
ffffffff840076ec:	8082                	ret
ffffffff840076ee:	853a                	mv	a0,a4
ffffffff840076f0:	bfdd                	j	ffffffff840076e6 <strlcat+0x50>
ffffffff840076f2:	853e                	mv	a0,a5
ffffffff840076f4:	bf6d                	j	ffffffff840076ae <strlcat+0x18>

ffffffff840076f6 <memzero>:
ffffffff840076f6:	c981                	beqz	a1,ffffffff84007706 <memzero+0x10>
ffffffff840076f8:	87aa                	mv	a5,a0
ffffffff840076fa:	952e                	add	a0,a0,a1
ffffffff840076fc:	0007b023          	sd	zero,0(a5)
ffffffff84007700:	07a1                	add	a5,a5,8
ffffffff84007702:	fea79de3          	bne	a5,a0,ffffffff840076fc <memzero+0x6>
ffffffff84007706:	8082                	ret

ffffffff84007708 <performPageTableInvocationUnmap>:
ffffffff84007708:	7179                	add	sp,sp,-48
ffffffff8400770a:	f406                	sd	ra,40(sp)
ffffffff8400770c:	f022                	sd	s0,32(sp)
ffffffff8400770e:	ec26                	sd	s1,24(sp)
ffffffff84007710:	e42e                	sd	a1,8(sp)
ffffffff84007712:	8432                	mv	s0,a2
ffffffff84007714:	02755713          	srl	a4,a0,0x27
ffffffff84007718:	8b05                	and	a4,a4,1
ffffffff8400771a:	c329                	beqz	a4,ffffffff8400775c <performPageTableInvocationUnmap+0x54>
ffffffff8400771c:	87aa                	mv	a5,a0
ffffffff8400771e:	86ae                	mv	a3,a1
ffffffff84007720:	0095d713          	srl	a4,a1,0x9
ffffffff84007724:	01971513          	sll	a0,a4,0x19
ffffffff84007728:	8165                	srl	a0,a0,0x19
ffffffff8400772a:	9319                	srl	a4,a4,0x26
ffffffff8400772c:	8b05                	and	a4,a4,1
ffffffff8400772e:	c701                	beqz	a4,ffffffff84007736 <performPageTableInvocationUnmap+0x2e>
ffffffff84007730:	577d                	li	a4,-1
ffffffff84007732:	171e                	sll	a4,a4,0x27
ffffffff84007734:	8d59                	or	a0,a0,a4
ffffffff84007736:	84aa                	mv	s1,a0
ffffffff84007738:	0306d513          	srl	a0,a3,0x30
ffffffff8400773c:	01979593          	sll	a1,a5,0x19
ffffffff84007740:	81e5                	srl	a1,a1,0x19
ffffffff84007742:	9399                	srl	a5,a5,0x26
ffffffff84007744:	8b85                	and	a5,a5,1
ffffffff84007746:	c781                	beqz	a5,ffffffff8400774e <performPageTableInvocationUnmap+0x46>
ffffffff84007748:	57fd                	li	a5,-1
ffffffff8400774a:	179e                	sll	a5,a5,0x27
ffffffff8400774c:	8ddd                	or	a1,a1,a5
ffffffff8400774e:	8626                	mv	a2,s1
ffffffff84007750:	f28fb0ef          	jal	ffffffff84002e78 <unmapPageTable>
ffffffff84007754:	6585                	lui	a1,0x1
ffffffff84007756:	8526                	mv	a0,s1
ffffffff84007758:	f9fff0ef          	jal	ffffffff840076f6 <memzero>
ffffffff8400775c:	6018                	ld	a4,0(s0)
ffffffff8400775e:	57fd                	li	a5,-1
ffffffff84007760:	179e                	sll	a5,a5,0x27
ffffffff84007762:	17fd                	add	a5,a5,-1
ffffffff84007764:	8ff9                	and	a5,a5,a4
ffffffff84007766:	e01c                	sd	a5,0(s0)
ffffffff84007768:	4501                	li	a0,0
ffffffff8400776a:	70a2                	ld	ra,40(sp)
ffffffff8400776c:	7402                	ld	s0,32(sp)
ffffffff8400776e:	64e2                	ld	s1,24(sp)
ffffffff84007770:	6145                	add	sp,sp,48
ffffffff84007772:	8082                	ret

ffffffff84007774 <decodeRISCVMMUInvocation>:
ffffffff84007774:	7155                	add	sp,sp,-208
ffffffff84007776:	e586                	sd	ra,200(sp)
ffffffff84007778:	e1a2                	sd	s0,192(sp)
ffffffff8400777a:	fd26                	sd	s1,184(sp)
ffffffff8400777c:	f94a                	sd	s2,176(sp)
ffffffff8400777e:	f54e                	sd	s3,168(sp)
ffffffff84007780:	f152                	sd	s4,160(sp)
ffffffff84007782:	ed56                	sd	s5,152(sp)
ffffffff84007784:	e95a                	sd	s6,144(sp)
ffffffff84007786:	e55e                	sd	s7,136(sp)
ffffffff84007788:	e162                	sd	s8,128(sp)
ffffffff8400778a:	fce6                	sd	s9,120(sp)
ffffffff8400778c:	f8ea                	sd	s10,112(sp)
ffffffff8400778e:	f4ee                	sd	s11,104(sp)
ffffffff84007790:	e03a                	sd	a4,0(sp)
ffffffff84007792:	e43e                	sd	a5,8(sp)
ffffffff84007794:	03b75413          	srl	s0,a4,0x3b
ffffffff84007798:	47ad                	li	a5,11
ffffffff8400779a:	56f40863          	beq	s0,a5,ffffffff84007d0a <decodeRISCVMMUInvocation+0x596>
ffffffff8400779e:	8936                	mv	s2,a3
ffffffff840077a0:	89c2                	mv	s3,a6
ffffffff840077a2:	84ba                	mv	s1,a4
ffffffff840077a4:	1287e963          	bltu	a5,s0,ffffffff840078d6 <decodeRISCVMMUInvocation+0x162>
ffffffff840077a8:	4785                	li	a5,1
ffffffff840077aa:	26f40363          	beq	s0,a5,ffffffff84007a10 <decodeRISCVMMUInvocation+0x29c>
ffffffff840077ae:	478d                	li	a5,3
ffffffff840077b0:	78f41e63          	bne	s0,a5,ffffffff84007f4c <decodeRISCVMMUInvocation+0x7d8>
ffffffff840077b4:	6782                	ld	a5,0(sp)
ffffffff840077b6:	e83e                	sd	a5,16(sp)
ffffffff840077b8:	69a2                	ld	s3,8(sp)
ffffffff840077ba:	ec4e                	sd	s3,24(sp)
ffffffff840077bc:	47fd                	li	a5,31
ffffffff840077be:	18f50463          	beq	a0,a5,ffffffff84007946 <decodeRISCVMMUInvocation+0x1d2>
ffffffff840077c2:	47f9                	li	a5,30
ffffffff840077c4:	1ef51363          	bne	a0,a5,ffffffff840079aa <decodeRISCVMMUInvocation+0x236>
ffffffff840077c8:	4785                	li	a5,1
ffffffff840077ca:	1eb7f463          	bgeu	a5,a1,ffffffff840079b2 <decodeRISCVMMUInvocation+0x23e>
ffffffff840077ce:	8781b703          	ld	a4,-1928(gp) # ffffffff84008c90 <current_extra_caps>
ffffffff840077d2:	1e070063          	beqz	a4,ffffffff840079b2 <decodeRISCVMMUInvocation+0x23e>
ffffffff840077d6:	0274d793          	srl	a5,s1,0x27
ffffffff840077da:	8b85                	and	a5,a5,1
ffffffff840077dc:	1c079f63          	bnez	a5,ffffffff840079ba <decodeRISCVMMUInvocation+0x246>
ffffffff840077e0:	a801b783          	ld	a5,-1408(gp) # ffffffff84008e98 <ksCurThread>
ffffffff840077e4:	0587bb03          	ld	s6,88(a5)
ffffffff840077e8:	631c                	ld	a5,0(a4)
ffffffff840077ea:	00873b83          	ld	s7,8(a4)
ffffffff840077ee:	03b7da93          	srl	s5,a5,0x3b
ffffffff840077f2:	470d                	li	a4,3
ffffffff840077f4:	1cea9a63          	bne	s5,a4,ffffffff840079c8 <decodeRISCVMMUInvocation+0x254>
ffffffff840077f8:	939d                	srl	a5,a5,0x27
ffffffff840077fa:	8b85                	and	a5,a5,1
ffffffff840077fc:	1c078663          	beqz	a5,ffffffff840079c8 <decodeRISCVMMUInvocation+0x254>
ffffffff84007800:	009bd793          	srl	a5,s7,0x9
ffffffff84007804:	01979513          	sll	a0,a5,0x19
ffffffff84007808:	8165                	srl	a0,a0,0x19
ffffffff8400780a:	9399                	srl	a5,a5,0x26
ffffffff8400780c:	8b85                	and	a5,a5,1
ffffffff8400780e:	c781                	beqz	a5,ffffffff84007816 <decodeRISCVMMUInvocation+0xa2>
ffffffff84007810:	57fd                	li	a5,-1
ffffffff84007812:	179e                	sll	a5,a5,0x27
ffffffff84007814:	8d5d                	or	a0,a0,a5
ffffffff84007816:	842a                	mv	s0,a0
ffffffff84007818:	030bd513          	srl	a0,s7,0x30
ffffffff8400781c:	fefff7b7          	lui	a5,0xfefff
ffffffff84007820:	07ba                	sll	a5,a5,0xe
ffffffff84007822:	83e9                	srl	a5,a5,0x1a
ffffffff84007824:	1b67e963          	bltu	a5,s6,ffffffff840079d6 <decodeRISCVMMUInvocation+0x262>
ffffffff84007828:	fe5fa0ef          	jal	ffffffff8400280c <findVSpaceForASID>
ffffffff8400782c:	e0aa                	sd	a0,64(sp)
ffffffff8400782e:	e4ae                	sd	a1,72(sp)
ffffffff84007830:	1a051b63          	bnez	a0,ffffffff840079e6 <decodeRISCVMMUInvocation+0x272>
ffffffff84007834:	67a6                	ld	a5,72(sp)
ffffffff84007836:	1cf41063          	bne	s0,a5,ffffffff840079f6 <decodeRISCVMMUInvocation+0x282>
ffffffff8400783a:	85da                	mv	a1,s6
ffffffff8400783c:	8522                	mv	a0,s0
ffffffff8400783e:	d84fb0ef          	jal	ffffffff84002dc2 <lookupPTSlot>
ffffffff84007842:	8c2a                	mv	s8,a0
ffffffff84007844:	8a2e                	mv	s4,a1
ffffffff84007846:	f82a                	sd	a0,48(sp)
ffffffff84007848:	fc2e                	sd	a1,56(sp)
ffffffff8400784a:	47b1                	li	a5,12
ffffffff8400784c:	1af58d63          	beq	a1,a5,ffffffff84007a06 <decodeRISCVMMUInvocation+0x292>
ffffffff84007850:	6100                	ld	s0,0(a0)
ffffffff84007852:	8805                	and	s0,s0,1
ffffffff84007854:	1a041963          	bnez	s0,ffffffff84007a06 <decodeRISCVMMUInvocation+0x292>
ffffffff84007858:	0099d793          	srl	a5,s3,0x9
ffffffff8400785c:	01979a93          	sll	s5,a5,0x19
ffffffff84007860:	019ada93          	srl	s5,s5,0x19
ffffffff84007864:	9399                	srl	a5,a5,0x26
ffffffff84007866:	8b85                	and	a5,a5,1
ffffffff84007868:	c789                	beqz	a5,ffffffff84007872 <decodeRISCVMMUInvocation+0xfe>
ffffffff8400786a:	57fd                	li	a5,-1
ffffffff8400786c:	179e                	sll	a5,a5,0x27
ffffffff8400786e:	00faeab3          	or	s5,s5,a5
ffffffff84007872:	5cfd                	li	s9,-1
ffffffff84007874:	010cd793          	srl	a5,s9,0x10
ffffffff84007878:	00f9f9b3          	and	s3,s3,a5
ffffffff8400787c:	030c9793          	sll	a5,s9,0x30
ffffffff84007880:	00fbfbb3          	and	s7,s7,a5
ffffffff84007884:	0179e9b3          	or	s3,s3,s7
ffffffff84007888:	4589                	li	a1,2
ffffffff8400788a:	a801b503          	ld	a0,-1408(gp) # ffffffff84008e98 <ksCurThread>
ffffffff8400788e:	936fd0ef          	jal	ffffffff840049c4 <setThreadState>
ffffffff84007892:	4705                	li	a4,1
ffffffff84007894:	014717b3          	sll	a5,a4,s4
ffffffff84007898:	40f007b3          	neg	a5,a5
ffffffff8400789c:	0167f7b3          	and	a5,a5,s6
ffffffff840078a0:	1ca2                	sll	s9,s9,0x28
ffffffff840078a2:	0194fcb3          	and	s9,s1,s9
ffffffff840078a6:	0197e7b3          	or	a5,a5,s9
ffffffff840078aa:	02771693          	sll	a3,a4,0x27
ffffffff840078ae:	8fd5                	or	a5,a5,a3
ffffffff840078b0:	00f93023          	sd	a5,0(s2)
ffffffff840078b4:	01393423          	sd	s3,8(s2)
ffffffff840078b8:	171a                	sll	a4,a4,0x26
ffffffff840078ba:	00ea87b3          	add	a5,s5,a4
ffffffff840078be:	8389                	srl	a5,a5,0x2
ffffffff840078c0:	fff00737          	lui	a4,0xfff00
ffffffff840078c4:	8329                	srl	a4,a4,0xa
ffffffff840078c6:	8ff9                	and	a5,a5,a4
ffffffff840078c8:	0017e793          	or	a5,a5,1
ffffffff840078cc:	00fc3023          	sd	a5,0(s8)
ffffffff840078d0:	12000073          	sfence.vma
ffffffff840078d4:	a199                	j	ffffffff84007d1a <decodeRISCVMMUInvocation+0x5a6>
ffffffff840078d6:	47b5                	li	a5,13
ffffffff840078d8:	66f41a63          	bne	s0,a5,ffffffff84007f4c <decodeRISCVMMUInvocation+0x7d8>
ffffffff840078dc:	02400793          	li	a5,36
ffffffff840078e0:	58f51e63          	bne	a0,a5,ffffffff84007e7c <decodeRISCVMMUInvocation+0x708>
ffffffff840078e4:	8781b983          	ld	s3,-1928(gp) # ffffffff84008c90 <current_extra_caps>
ffffffff840078e8:	58098f63          	beqz	s3,ffffffff84007e86 <decodeRISCVMMUInvocation+0x712>
ffffffff840078ec:	0009b903          	ld	s2,0(s3)
ffffffff840078f0:	03b95413          	srl	s0,s2,0x3b
ffffffff840078f4:	478d                	li	a5,3
ffffffff840078f6:	58f41d63          	bne	s0,a5,ffffffff84007e90 <decodeRISCVMMUInvocation+0x71c>
ffffffff840078fa:	02795913          	srl	s2,s2,0x27
ffffffff840078fe:	00197913          	and	s2,s2,1
ffffffff84007902:	58091763          	bnez	s2,ffffffff84007e90 <decodeRISCVMMUInvocation+0x71c>
ffffffff84007906:	02b75613          	srl	a2,a4,0x2b
ffffffff8400790a:	1642                	sll	a2,a2,0x30
ffffffff8400790c:	9241                	srl	a2,a2,0x30
ffffffff8400790e:	00965713          	srl	a4,a2,0x9
ffffffff84007912:	070e                	sll	a4,a4,0x3
ffffffff84007914:	d6818793          	add	a5,gp,-664 # ffffffff84009180 <riscvKSASIDTable>
ffffffff84007918:	97ba                	add	a5,a5,a4
ffffffff8400791a:	0007ba03          	ld	s4,0(a5) # fffffffffefff000 <ki_end+0x7afdf000>
ffffffff8400791e:	580a0163          	beqz	s4,ffffffff84007ea0 <decodeRISCVMMUInvocation+0x72c>
ffffffff84007922:	048a                	sll	s1,s1,0x2
ffffffff84007924:	f80007b7          	lui	a5,0xf8000
ffffffff84007928:	83e5                	srl	a5,a5,0x19
ffffffff8400792a:	8fe5                	and	a5,a5,s1
ffffffff8400792c:	9099                	srl	s1,s1,0x26
ffffffff8400792e:	8885                	and	s1,s1,1
ffffffff84007930:	c481                	beqz	s1,ffffffff84007938 <decodeRISCVMMUInvocation+0x1c4>
ffffffff84007932:	577d                	li	a4,-1
ffffffff84007934:	171e                	sll	a4,a4,0x27
ffffffff84007936:	8fd9                	or	a5,a5,a4
ffffffff84007938:	58fa1163          	bne	s4,a5,ffffffff84007eba <decodeRISCVMMUInvocation+0x746>
ffffffff8400793c:	8752                	mv	a4,s4
ffffffff8400793e:	87ca                	mv	a5,s2
ffffffff84007940:	20000593          	li	a1,512
ffffffff84007944:	a371                	j	ffffffff84007ed0 <decodeRISCVMMUInvocation+0x75c>
ffffffff84007946:	8536                	mv	a0,a3
ffffffff84007948:	d7bfc0ef          	jal	ffffffff840046c2 <isFinalCapability>
ffffffff8400794c:	c521                	beqz	a0,ffffffff84007994 <decodeRISCVMMUInvocation+0x220>
ffffffff8400794e:	0274d793          	srl	a5,s1,0x27
ffffffff84007952:	8b85                	and	a5,a5,1
ffffffff84007954:	c785                	beqz	a5,ffffffff8400797c <decodeRISCVMMUInvocation+0x208>
ffffffff84007956:	0309d513          	srl	a0,s3,0x30
ffffffff8400795a:	eb3fa0ef          	jal	ffffffff8400280c <findVSpaceForASID>
ffffffff8400795e:	e0aa                	sd	a0,64(sp)
ffffffff84007960:	e4ae                	sd	a1,72(sp)
ffffffff84007962:	0099d793          	srl	a5,s3,0x9
ffffffff84007966:	01979713          	sll	a4,a5,0x19
ffffffff8400796a:	8365                	srl	a4,a4,0x19
ffffffff8400796c:	9399                	srl	a5,a5,0x26
ffffffff8400796e:	8b85                	and	a5,a5,1
ffffffff84007970:	c781                	beqz	a5,ffffffff84007978 <decodeRISCVMMUInvocation+0x204>
ffffffff84007972:	57fd                	li	a5,-1
ffffffff84007974:	179e                	sll	a5,a5,0x27
ffffffff84007976:	8f5d                	or	a4,a4,a5
ffffffff84007978:	6786                	ld	a5,64(sp)
ffffffff8400797a:	c38d                	beqz	a5,ffffffff8400799c <decodeRISCVMMUInvocation+0x228>
ffffffff8400797c:	4589                	li	a1,2
ffffffff8400797e:	a801b503          	ld	a0,-1408(gp) # ffffffff84008e98 <ksCurThread>
ffffffff84007982:	842fd0ef          	jal	ffffffff840049c4 <setThreadState>
ffffffff84007986:	864a                	mv	a2,s2
ffffffff84007988:	8526                	mv	a0,s1
ffffffff8400798a:	85ce                	mv	a1,s3
ffffffff8400798c:	d7dff0ef          	jal	ffffffff84007708 <performPageTableInvocationUnmap>
ffffffff84007990:	842a                	mv	s0,a0
ffffffff84007992:	a661                	j	ffffffff84007d1a <decodeRISCVMMUInvocation+0x5a6>
ffffffff84007994:	47a5                	li	a5,9
ffffffff84007996:	d4f1b023          	sd	a5,-704(gp) # ffffffff84009158 <current_syscall_error+0x30>
ffffffff8400799a:	a641                	j	ffffffff84007d1a <decodeRISCVMMUInvocation+0x5a6>
ffffffff8400799c:	67a6                	ld	a5,72(sp)
ffffffff8400799e:	fce79fe3          	bne	a5,a4,ffffffff8400797c <decodeRISCVMMUInvocation+0x208>
ffffffff840079a2:	47a5                	li	a5,9
ffffffff840079a4:	d4f1b023          	sd	a5,-704(gp) # ffffffff84009158 <current_syscall_error+0x30>
ffffffff840079a8:	ae8d                	j	ffffffff84007d1a <decodeRISCVMMUInvocation+0x5a6>
ffffffff840079aa:	478d                	li	a5,3
ffffffff840079ac:	d4f1b023          	sd	a5,-704(gp) # ffffffff84009158 <current_syscall_error+0x30>
ffffffff840079b0:	a6ad                	j	ffffffff84007d1a <decodeRISCVMMUInvocation+0x5a6>
ffffffff840079b2:	479d                	li	a5,7
ffffffff840079b4:	d4f1b023          	sd	a5,-704(gp) # ffffffff84009158 <current_syscall_error+0x30>
ffffffff840079b8:	a68d                	j	ffffffff84007d1a <decodeRISCVMMUInvocation+0x5a6>
ffffffff840079ba:	d1018793          	add	a5,gp,-752 # ffffffff84009128 <current_syscall_error>
ffffffff840079be:	4709                	li	a4,2
ffffffff840079c0:	fb98                	sd	a4,48(a5)
ffffffff840079c2:	0007b423          	sd	zero,8(a5) # fffffffff8000008 <ki_end+0x73fe0008>
ffffffff840079c6:	ae91                	j	ffffffff84007d1a <decodeRISCVMMUInvocation+0x5a6>
ffffffff840079c8:	d1018793          	add	a5,gp,-752 # ffffffff84009128 <current_syscall_error>
ffffffff840079cc:	4709                	li	a4,2
ffffffff840079ce:	fb98                	sd	a4,48(a5)
ffffffff840079d0:	4705                	li	a4,1
ffffffff840079d2:	e798                	sd	a4,8(a5)
ffffffff840079d4:	a699                	j	ffffffff84007d1a <decodeRISCVMMUInvocation+0x5a6>
ffffffff840079d6:	d1018793          	add	a5,gp,-752 # ffffffff84009128 <current_syscall_error>
ffffffff840079da:	4705                	li	a4,1
ffffffff840079dc:	fb98                	sd	a4,48(a5)
ffffffff840079de:	0007b023          	sd	zero,0(a5)
ffffffff840079e2:	8456                	mv	s0,s5
ffffffff840079e4:	ae1d                	j	ffffffff84007d1a <decodeRISCVMMUInvocation+0x5a6>
ffffffff840079e6:	d1018793          	add	a5,gp,-752 # ffffffff84009128 <current_syscall_error>
ffffffff840079ea:	4719                	li	a4,6
ffffffff840079ec:	fb98                	sd	a4,48(a5)
ffffffff840079ee:	0207b423          	sd	zero,40(a5)
ffffffff840079f2:	8456                	mv	s0,s5
ffffffff840079f4:	a61d                	j	ffffffff84007d1a <decodeRISCVMMUInvocation+0x5a6>
ffffffff840079f6:	d1018793          	add	a5,gp,-752 # ffffffff84009128 <current_syscall_error>
ffffffff840079fa:	4709                	li	a4,2
ffffffff840079fc:	fb98                	sd	a4,48(a5)
ffffffff840079fe:	4705                	li	a4,1
ffffffff84007a00:	e798                	sd	a4,8(a5)
ffffffff84007a02:	8456                	mv	s0,s5
ffffffff84007a04:	ae19                	j	ffffffff84007d1a <decodeRISCVMMUInvocation+0x5a6>
ffffffff84007a06:	47a1                	li	a5,8
ffffffff84007a08:	d4f1b023          	sd	a5,-704(gp) # ffffffff84009158 <current_syscall_error+0x30>
ffffffff84007a0c:	8456                	mv	s0,s5
ffffffff84007a0e:	a631                	j	ffffffff84007d1a <decodeRISCVMMUInvocation+0x5a6>
ffffffff84007a10:	6782                	ld	a5,0(sp)
ffffffff84007a12:	f03e                	sd	a5,32(sp)
ffffffff84007a14:	6a22                	ld	s4,8(sp)
ffffffff84007a16:	f452                	sd	s4,40(sp)
ffffffff84007a18:	02100793          	li	a5,33
ffffffff84007a1c:	28f50763          	beq	a0,a5,ffffffff84007caa <decodeRISCVMMUInvocation+0x536>
ffffffff84007a20:	02200793          	li	a5,34
ffffffff84007a24:	28f50f63          	beq	a0,a5,ffffffff84007cc2 <decodeRISCVMMUInvocation+0x54e>
ffffffff84007a28:	02000793          	li	a5,32
ffffffff84007a2c:	00f50763          	beq	a0,a5,ffffffff84007a3a <decodeRISCVMMUInvocation+0x2c6>
ffffffff84007a30:	478d                	li	a5,3
ffffffff84007a32:	d4f1b023          	sd	a5,-704(gp) # ffffffff84009158 <current_syscall_error+0x30>
ffffffff84007a36:	440d                	li	s0,3
ffffffff84007a38:	a4cd                	j	ffffffff84007d1a <decodeRISCVMMUInvocation+0x5a6>
ffffffff84007a3a:	4789                	li	a5,2
ffffffff84007a3c:	06b7fc63          	bgeu	a5,a1,ffffffff84007ab4 <decodeRISCVMMUInvocation+0x340>
ffffffff84007a40:	8781b703          	ld	a4,-1928(gp) # ffffffff84008c90 <current_extra_caps>
ffffffff84007a44:	cb25                	beqz	a4,ffffffff84007ab4 <decodeRISCVMMUInvocation+0x340>
ffffffff84007a46:	a801b783          	ld	a5,-1408(gp) # ffffffff84008e98 <ksCurThread>
ffffffff84007a4a:	0587bb83          	ld	s7,88(a5)
ffffffff84007a4e:	0607bc83          	ld	s9,96(a5)
ffffffff84007a52:	0687bb03          	ld	s6,104(a5)
ffffffff84007a56:	631c                	ld	a5,0(a4)
ffffffff84007a58:	00873a83          	ld	s5,8(a4) # fffffffffff00008 <ki_end+0x7bee0008>
ffffffff84007a5c:	03b7dc13          	srl	s8,a5,0x3b
ffffffff84007a60:	470d                	li	a4,3
ffffffff84007a62:	04ec1e63          	bne	s8,a4,ffffffff84007abe <decodeRISCVMMUInvocation+0x34a>
ffffffff84007a66:	939d                	srl	a5,a5,0x27
ffffffff84007a68:	8b85                	and	a5,a5,1
ffffffff84007a6a:	cbb1                	beqz	a5,ffffffff84007abe <decodeRISCVMMUInvocation+0x34a>
ffffffff84007a6c:	009ad793          	srl	a5,s5,0x9
ffffffff84007a70:	01979513          	sll	a0,a5,0x19
ffffffff84007a74:	8165                	srl	a0,a0,0x19
ffffffff84007a76:	9399                	srl	a5,a5,0x26
ffffffff84007a78:	8b85                	and	a5,a5,1
ffffffff84007a7a:	c781                	beqz	a5,ffffffff84007a82 <decodeRISCVMMUInvocation+0x30e>
ffffffff84007a7c:	57fd                	li	a5,-1
ffffffff84007a7e:	179e                	sll	a5,a5,0x27
ffffffff84007a80:	8d5d                	or	a0,a0,a5
ffffffff84007a82:	89aa                	mv	s3,a0
ffffffff84007a84:	030add93          	srl	s11,s5,0x30
ffffffff84007a88:	856e                	mv	a0,s11
ffffffff84007a8a:	d83fa0ef          	jal	ffffffff8400280c <findVSpaceForASID>
ffffffff84007a8e:	f82a                	sd	a0,48(sp)
ffffffff84007a90:	fc2e                	sd	a1,56(sp)
ffffffff84007a92:	ed15                	bnez	a0,ffffffff84007ace <decodeRISCVMMUInvocation+0x35a>
ffffffff84007a94:	77e2                	ld	a5,56(sp)
ffffffff84007a96:	04f99463          	bne	s3,a5,ffffffff84007ade <decodeRISCVMMUInvocation+0x36a>
ffffffff84007a9a:	0394d793          	srl	a5,s1,0x39
ffffffff84007a9e:	8b8d                	and	a5,a5,3
ffffffff84007aa0:	4705                	li	a4,1
ffffffff84007aa2:	04e78663          	beq	a5,a4,ffffffff84007aee <decodeRISCVMMUInvocation+0x37a>
ffffffff84007aa6:	4709                	li	a4,2
ffffffff84007aa8:	04e78563          	beq	a5,a4,ffffffff84007af2 <decodeRISCVMMUInvocation+0x37e>
ffffffff84007aac:	14078163          	beqz	a5,ffffffff84007bee <decodeRISCVMMUInvocation+0x47a>
ffffffff84007ab0:	da1fa0ef          	jal	ffffffff84002850 <halt>
ffffffff84007ab4:	479d                	li	a5,7
ffffffff84007ab6:	d4f1b023          	sd	a5,-704(gp) # ffffffff84009158 <current_syscall_error+0x30>
ffffffff84007aba:	440d                	li	s0,3
ffffffff84007abc:	acb9                	j	ffffffff84007d1a <decodeRISCVMMUInvocation+0x5a6>
ffffffff84007abe:	d1018793          	add	a5,gp,-752 # ffffffff84009128 <current_syscall_error>
ffffffff84007ac2:	4709                	li	a4,2
ffffffff84007ac4:	fb98                	sd	a4,48(a5)
ffffffff84007ac6:	4705                	li	a4,1
ffffffff84007ac8:	e798                	sd	a4,8(a5)
ffffffff84007aca:	440d                	li	s0,3
ffffffff84007acc:	a4b9                	j	ffffffff84007d1a <decodeRISCVMMUInvocation+0x5a6>
ffffffff84007ace:	d1018793          	add	a5,gp,-752 # ffffffff84009128 <current_syscall_error>
ffffffff84007ad2:	4719                	li	a4,6
ffffffff84007ad4:	fb98                	sd	a4,48(a5)
ffffffff84007ad6:	0207b423          	sd	zero,40(a5)
ffffffff84007ada:	8462                	mv	s0,s8
ffffffff84007adc:	ac3d                	j	ffffffff84007d1a <decodeRISCVMMUInvocation+0x5a6>
ffffffff84007ade:	d1018793          	add	a5,gp,-752 # ffffffff84009128 <current_syscall_error>
ffffffff84007ae2:	4709                	li	a4,2
ffffffff84007ae4:	fb98                	sd	a4,48(a5)
ffffffff84007ae6:	4705                	li	a4,1
ffffffff84007ae8:	e798                	sd	a4,8(a5)
ffffffff84007aea:	8462                	mv	s0,s8
ffffffff84007aec:	a43d                	j	ffffffff84007d1a <decodeRISCVMMUInvocation+0x5a6>
ffffffff84007aee:	4d55                	li	s10,21
ffffffff84007af0:	a011                	j	ffffffff84007af4 <decodeRISCVMMUInvocation+0x380>
ffffffff84007af2:	4d79                	li	s10,30
ffffffff84007af4:	000d069b          	sext.w	a3,s10
ffffffff84007af8:	fffb8713          	add	a4,s7,-1
ffffffff84007afc:	4785                	li	a5,1
ffffffff84007afe:	01a797b3          	sll	a5,a5,s10
ffffffff84007b02:	973e                	add	a4,a4,a5
ffffffff84007b04:	fefff7b7          	lui	a5,0xfefff
ffffffff84007b08:	07ba                	sll	a5,a5,0xe
ffffffff84007b0a:	83e9                	srl	a5,a5,0x1a
ffffffff84007b0c:	0ee7e363          	bltu	a5,a4,ffffffff84007bf2 <decodeRISCVMMUInvocation+0x47e>
ffffffff84007b10:	547d                	li	s0,-1
ffffffff84007b12:	00d41433          	sll	s0,s0,a3
ffffffff84007b16:	fff44413          	not	s0,s0
ffffffff84007b1a:	01747433          	and	s0,s0,s7
ffffffff84007b1e:	e075                	bnez	s0,ffffffff84007c02 <decodeRISCVMMUInvocation+0x48e>
ffffffff84007b20:	85de                	mv	a1,s7
ffffffff84007b22:	854e                	mv	a0,s3
ffffffff84007b24:	a9efb0ef          	jal	ffffffff84002dc2 <lookupPTSlot>
ffffffff84007b28:	89aa                	mv	s3,a0
ffffffff84007b2a:	e0aa                	sd	a0,64(sp)
ffffffff84007b2c:	e4ae                	sd	a1,72(sp)
ffffffff84007b2e:	0da59f63          	bne	a1,s10,ffffffff84007c0c <decodeRISCVMMUInvocation+0x498>
ffffffff84007b32:	030a5793          	srl	a5,s4,0x30
ffffffff84007b36:	0e079e63          	bnez	a5,ffffffff84007c32 <decodeRISCVMMUInvocation+0x4be>
ffffffff84007b3a:	611c                	ld	a5,0(a0)
ffffffff84007b3c:	8b85                	and	a5,a5,1
ffffffff84007b3e:	14079d63          	bnez	a5,ffffffff84007c98 <decodeRISCVMMUInvocation+0x524>
ffffffff84007b42:	0374d513          	srl	a0,s1,0x37
ffffffff84007b46:	85e6                	mv	a1,s9
ffffffff84007b48:	890d                	and	a0,a0,3
ffffffff84007b4a:	dfefb0ef          	jal	ffffffff84003148 <maskVMRights>
ffffffff84007b4e:	009a5713          	srl	a4,s4,0x9
ffffffff84007b52:	01971793          	sll	a5,a4,0x19
ffffffff84007b56:	83e5                	srl	a5,a5,0x19
ffffffff84007b58:	9319                	srl	a4,a4,0x26
ffffffff84007b5a:	8b05                	and	a4,a4,1
ffffffff84007b5c:	c701                	beqz	a4,ffffffff84007b64 <decodeRISCVMMUInvocation+0x3f0>
ffffffff84007b5e:	577d                	li	a4,-1
ffffffff84007b60:	171e                	sll	a4,a4,0x27
ffffffff84007b62:	8fd9                	or	a5,a5,a4
ffffffff84007b64:	4585                	li	a1,1
ffffffff84007b66:	02659713          	sll	a4,a1,0x26
ffffffff84007b6a:	97ba                	add	a5,a5,a4
ffffffff84007b6c:	577d                	li	a4,-1
ffffffff84007b6e:	01075693          	srl	a3,a4,0x10
ffffffff84007b72:	00da7a33          	and	s4,s4,a3
ffffffff84007b76:	03071693          	sll	a3,a4,0x30
ffffffff84007b7a:	00dafab3          	and	s5,s5,a3
ffffffff84007b7e:	015a6a33          	or	s4,s4,s5
ffffffff84007b82:	02771a93          	sll	s5,a4,0x27
ffffffff84007b86:	0154fab3          	and	s5,s1,s5
ffffffff84007b8a:	8365                	srl	a4,a4,0x19
ffffffff84007b8c:	00ebfbb3          	and	s7,s7,a4
ffffffff84007b90:	017aeab3          	or	s5,s5,s7
ffffffff84007b94:	001b7b13          	and	s6,s6,1
ffffffff84007b98:	001b4613          	xor	a2,s6,1
ffffffff84007b9c:	ffd50693          	add	a3,a0,-3
ffffffff84007ba0:	0016b693          	seqz	a3,a3
ffffffff84007ba4:	fff50713          	add	a4,a0,-1
ffffffff84007ba8:	00e03733          	snez	a4,a4
ffffffff84007bac:	0eb50b63          	beq	a0,a1,ffffffff84007ca2 <decodeRISCVMMUInvocation+0x52e>
ffffffff84007bb0:	0027d493          	srl	s1,a5,0x2
ffffffff84007bb4:	fff007b7          	lui	a5,0xfff00
ffffffff84007bb8:	83a9                	srl	a5,a5,0xa
ffffffff84007bba:	8cfd                	and	s1,s1,a5
ffffffff84007bbc:	00361793          	sll	a5,a2,0x3
ffffffff84007bc0:	8cdd                	or	s1,s1,a5
ffffffff84007bc2:	00269793          	sll	a5,a3,0x2
ffffffff84007bc6:	8cdd                	or	s1,s1,a5
ffffffff84007bc8:	00171793          	sll	a5,a4,0x1
ffffffff84007bcc:	8cdd                	or	s1,s1,a5
ffffffff84007bce:	0d14e493          	or	s1,s1,209
ffffffff84007bd2:	4589                	li	a1,2
ffffffff84007bd4:	a801b503          	ld	a0,-1408(gp) # ffffffff84008e98 <ksCurThread>
ffffffff84007bd8:	dedfc0ef          	jal	ffffffff840049c4 <setThreadState>
ffffffff84007bdc:	01593023          	sd	s5,0(s2)
ffffffff84007be0:	01493423          	sd	s4,8(s2)
ffffffff84007be4:	0099b023          	sd	s1,0(s3)
ffffffff84007be8:	12000073          	sfence.vma
ffffffff84007bec:	a23d                	j	ffffffff84007d1a <decodeRISCVMMUInvocation+0x5a6>
ffffffff84007bee:	4d31                	li	s10,12
ffffffff84007bf0:	b711                	j	ffffffff84007af4 <decodeRISCVMMUInvocation+0x380>
ffffffff84007bf2:	d1018793          	add	a5,gp,-752 # ffffffff84009128 <current_syscall_error>
ffffffff84007bf6:	4705                	li	a4,1
ffffffff84007bf8:	fb98                	sd	a4,48(a5)
ffffffff84007bfa:	0007b023          	sd	zero,0(a5) # fffffffffff00000 <ki_end+0x7bee0000>
ffffffff84007bfe:	8462                	mv	s0,s8
ffffffff84007c00:	aa29                	j	ffffffff84007d1a <decodeRISCVMMUInvocation+0x5a6>
ffffffff84007c02:	4795                	li	a5,5
ffffffff84007c04:	d4f1b023          	sd	a5,-704(gp) # ffffffff84009158 <current_syscall_error+0x30>
ffffffff84007c08:	8462                	mv	s0,s8
ffffffff84007c0a:	aa01                	j	ffffffff84007d1a <decodeRISCVMMUInvocation+0x5a6>
ffffffff84007c0c:	d5818713          	add	a4,gp,-680 # ffffffff84009170 <current_lookup_fault>
ffffffff84007c10:	00259793          	sll	a5,a1,0x2
ffffffff84007c14:	1fc7f793          	and	a5,a5,508
ffffffff84007c18:	0017e793          	or	a5,a5,1
ffffffff84007c1c:	e31c                	sd	a5,0(a4)
ffffffff84007c1e:	00073423          	sd	zero,8(a4)
ffffffff84007c22:	d1018793          	add	a5,gp,-752 # ffffffff84009128 <current_syscall_error>
ffffffff84007c26:	4719                	li	a4,6
ffffffff84007c28:	fb98                	sd	a4,48(a5)
ffffffff84007c2a:	0207b423          	sd	zero,40(a5)
ffffffff84007c2e:	8462                	mv	s0,s8
ffffffff84007c30:	a0ed                	j	ffffffff84007d1a <decodeRISCVMMUInvocation+0x5a6>
ffffffff84007c32:	00fd8a63          	beq	s11,a5,ffffffff84007c46 <decodeRISCVMMUInvocation+0x4d2>
ffffffff84007c36:	d1018793          	add	a5,gp,-752 # ffffffff84009128 <current_syscall_error>
ffffffff84007c3a:	4709                	li	a4,2
ffffffff84007c3c:	fb98                	sd	a4,48(a5)
ffffffff84007c3e:	4705                	li	a4,1
ffffffff84007c40:	e798                	sd	a4,8(a5)
ffffffff84007c42:	8462                	mv	s0,s8
ffffffff84007c44:	a8d9                	j	ffffffff84007d1a <decodeRISCVMMUInvocation+0x5a6>
ffffffff84007c46:	01949793          	sll	a5,s1,0x19
ffffffff84007c4a:	83e5                	srl	a5,a5,0x19
ffffffff84007c4c:	0264d713          	srl	a4,s1,0x26
ffffffff84007c50:	8b05                	and	a4,a4,1
ffffffff84007c52:	c701                	beqz	a4,ffffffff84007c5a <decodeRISCVMMUInvocation+0x4e6>
ffffffff84007c54:	577d                	li	a4,-1
ffffffff84007c56:	171e                	sll	a4,a4,0x27
ffffffff84007c58:	8fd9                	or	a5,a5,a4
ffffffff84007c5a:	02fb9763          	bne	s7,a5,ffffffff84007c88 <decodeRISCVMMUInvocation+0x514>
ffffffff84007c5e:	0009b703          	ld	a4,0(s3)
ffffffff84007c62:	00177793          	and	a5,a4,1
ffffffff84007c66:	ec078ee3          	beqz	a5,ffffffff84007b42 <decodeRISCVMMUInvocation+0x3ce>
ffffffff84007c6a:	00175793          	srl	a5,a4,0x1
ffffffff84007c6e:	00275693          	srl	a3,a4,0x2
ffffffff84007c72:	8fd5                	or	a5,a5,a3
ffffffff84007c74:	830d                	srl	a4,a4,0x3
ffffffff84007c76:	8fd9                	or	a5,a5,a4
ffffffff84007c78:	8b85                	and	a5,a5,1
ffffffff84007c7a:	ec0794e3          	bnez	a5,ffffffff84007b42 <decodeRISCVMMUInvocation+0x3ce>
ffffffff84007c7e:	47a1                	li	a5,8
ffffffff84007c80:	d4f1b023          	sd	a5,-704(gp) # ffffffff84009158 <current_syscall_error+0x30>
ffffffff84007c84:	8462                	mv	s0,s8
ffffffff84007c86:	a851                	j	ffffffff84007d1a <decodeRISCVMMUInvocation+0x5a6>
ffffffff84007c88:	d1018793          	add	a5,gp,-752 # ffffffff84009128 <current_syscall_error>
ffffffff84007c8c:	4705                	li	a4,1
ffffffff84007c8e:	fb98                	sd	a4,48(a5)
ffffffff84007c90:	0007b023          	sd	zero,0(a5)
ffffffff84007c94:	8462                	mv	s0,s8
ffffffff84007c96:	a051                	j	ffffffff84007d1a <decodeRISCVMMUInvocation+0x5a6>
ffffffff84007c98:	47a1                	li	a5,8
ffffffff84007c9a:	d4f1b023          	sd	a5,-704(gp) # ffffffff84009158 <current_syscall_error+0x30>
ffffffff84007c9e:	8462                	mv	s0,s8
ffffffff84007ca0:	a8ad                	j	ffffffff84007d1a <decodeRISCVMMUInvocation+0x5a6>
ffffffff84007ca2:	f00b07e3          	beqz	s6,ffffffff84007bb0 <decodeRISCVMMUInvocation+0x43c>
ffffffff84007ca6:	84a2                	mv	s1,s0
ffffffff84007ca8:	b72d                	j	ffffffff84007bd2 <decodeRISCVMMUInvocation+0x45e>
ffffffff84007caa:	4589                	li	a1,2
ffffffff84007cac:	a801b503          	ld	a0,-1408(gp) # ffffffff84008e98 <ksCurThread>
ffffffff84007cb0:	d15fc0ef          	jal	ffffffff840049c4 <setThreadState>
ffffffff84007cb4:	864a                	mv	a2,s2
ffffffff84007cb6:	8526                	mv	a0,s1
ffffffff84007cb8:	85d2                	mv	a1,s4
ffffffff84007cba:	ce6fb0ef          	jal	ffffffff840031a0 <performPageInvocationUnmap>
ffffffff84007cbe:	842a                	mv	s0,a0
ffffffff84007cc0:	a8a9                	j	ffffffff84007d1a <decodeRISCVMMUInvocation+0x5a6>
ffffffff84007cc2:	4589                	li	a1,2
ffffffff84007cc4:	a801b503          	ld	a0,-1408(gp) # ffffffff84008e98 <ksCurThread>
ffffffff84007cc8:	cfdfc0ef          	jal	ffffffff840049c4 <setThreadState>
ffffffff84007ccc:	009a5a13          	srl	s4,s4,0x9
ffffffff84007cd0:	019a1793          	sll	a5,s4,0x19
ffffffff84007cd4:	83e5                	srl	a5,a5,0x19
ffffffff84007cd6:	026a5a13          	srl	s4,s4,0x26
ffffffff84007cda:	001a7a13          	and	s4,s4,1
ffffffff84007cde:	000a0563          	beqz	s4,ffffffff84007ce8 <decodeRISCVMMUInvocation+0x574>
ffffffff84007ce2:	577d                	li	a4,-1
ffffffff84007ce4:	171e                	sll	a4,a4,0x27
ffffffff84007ce6:	8fd9                	or	a5,a5,a4
ffffffff84007ce8:	a801b503          	ld	a0,-1408(gp) # ffffffff84008e98 <ksCurThread>
ffffffff84007cec:	00098a63          	beqz	s3,ffffffff84007d00 <decodeRISCVMMUInvocation+0x58c>
ffffffff84007cf0:	04053423          	sd	zero,72(a0)
ffffffff84007cf4:	4705                	li	a4,1
ffffffff84007cf6:	02671693          	sll	a3,a4,0x26
ffffffff84007cfa:	97b6                	add	a5,a5,a3
ffffffff84007cfc:	ed3c                	sd	a5,88(a0)
ffffffff84007cfe:	e938                	sd	a4,80(a0)
ffffffff84007d00:	4585                	li	a1,1
ffffffff84007d02:	cc3fc0ef          	jal	ffffffff840049c4 <setThreadState>
ffffffff84007d06:	4401                	li	s0,0
ffffffff84007d08:	a809                	j	ffffffff84007d1a <decodeRISCVMMUInvocation+0x5a6>
ffffffff84007d0a:	02300793          	li	a5,35
ffffffff84007d0e:	02f50663          	beq	a0,a5,ffffffff84007d3a <decodeRISCVMMUInvocation+0x5c6>
ffffffff84007d12:	478d                	li	a5,3
ffffffff84007d14:	d4f1b023          	sd	a5,-704(gp) # ffffffff84009158 <current_syscall_error+0x30>
ffffffff84007d18:	440d                	li	s0,3
ffffffff84007d1a:	8522                	mv	a0,s0
ffffffff84007d1c:	60ae                	ld	ra,200(sp)
ffffffff84007d1e:	640e                	ld	s0,192(sp)
ffffffff84007d20:	74ea                	ld	s1,184(sp)
ffffffff84007d22:	794a                	ld	s2,176(sp)
ffffffff84007d24:	79aa                	ld	s3,168(sp)
ffffffff84007d26:	7a0a                	ld	s4,160(sp)
ffffffff84007d28:	6aea                	ld	s5,152(sp)
ffffffff84007d2a:	6b4a                	ld	s6,144(sp)
ffffffff84007d2c:	6baa                	ld	s7,136(sp)
ffffffff84007d2e:	6c0a                	ld	s8,128(sp)
ffffffff84007d30:	7ce6                	ld	s9,120(sp)
ffffffff84007d32:	7d46                	ld	s10,112(sp)
ffffffff84007d34:	7da6                	ld	s11,104(sp)
ffffffff84007d36:	6169                	add	sp,sp,208
ffffffff84007d38:	8082                	ret
ffffffff84007d3a:	4785                	li	a5,1
ffffffff84007d3c:	04b7f763          	bgeu	a5,a1,ffffffff84007d8a <decodeRISCVMMUInvocation+0x616>
ffffffff84007d40:	8781b903          	ld	s2,-1928(gp) # ffffffff84008c90 <current_extra_caps>
ffffffff84007d44:	04090363          	beqz	s2,ffffffff84007d8a <decodeRISCVMMUInvocation+0x616>
ffffffff84007d48:	8801b783          	ld	a5,-1920(gp) # ffffffff84008c98 <current_extra_caps+0x8>
ffffffff84007d4c:	cf9d                	beqz	a5,ffffffff84007d8a <decodeRISCVMMUInvocation+0x616>
ffffffff84007d4e:	a801b703          	ld	a4,-1408(gp) # ffffffff84008e98 <ksCurThread>
ffffffff84007d52:	05873a03          	ld	s4,88(a4)
ffffffff84007d56:	06073a83          	ld	s5,96(a4)
ffffffff84007d5a:	00093983          	ld	s3,0(s2)
ffffffff84007d5e:	00893603          	ld	a2,8(s2)
ffffffff84007d62:	6398                	ld	a4,0(a5)
ffffffff84007d64:	f83a                	sd	a4,48(sp)
ffffffff84007d66:	679c                	ld	a5,8(a5)
ffffffff84007d68:	fc3e                	sd	a5,56(sp)
ffffffff84007d6a:	d6818793          	add	a5,gp,-664 # ffffffff84009180 <riscvKSASIDTable>
ffffffff84007d6e:	4481                	li	s1,0
ffffffff84007d70:	08000693          	li	a3,128
ffffffff84007d74:	6398                	ld	a4,0(a5)
ffffffff84007d76:	cf19                	beqz	a4,ffffffff84007d94 <decodeRISCVMMUInvocation+0x620>
ffffffff84007d78:	0485                	add	s1,s1,1
ffffffff84007d7a:	07a1                	add	a5,a5,8
ffffffff84007d7c:	fed49ce3          	bne	s1,a3,ffffffff84007d74 <decodeRISCVMMUInvocation+0x600>
ffffffff84007d80:	47a1                	li	a5,8
ffffffff84007d82:	d4f1b023          	sd	a5,-704(gp) # ffffffff84009158 <current_syscall_error+0x30>
ffffffff84007d86:	440d                	li	s0,3
ffffffff84007d88:	bf49                	j	ffffffff84007d1a <decodeRISCVMMUInvocation+0x5a6>
ffffffff84007d8a:	479d                	li	a5,7
ffffffff84007d8c:	d4f1b023          	sd	a5,-704(gp) # ffffffff84009158 <current_syscall_error+0x30>
ffffffff84007d90:	440d                	li	s0,3
ffffffff84007d92:	b761                	j	ffffffff84007d1a <decodeRISCVMMUInvocation+0x5a6>
ffffffff84007d94:	08000793          	li	a5,128
ffffffff84007d98:	fef484e3          	beq	s1,a5,ffffffff84007d80 <decodeRISCVMMUInvocation+0x60c>
ffffffff84007d9c:	03b9d793          	srl	a5,s3,0x3b
ffffffff84007da0:	4709                	li	a4,2
ffffffff84007da2:	00e79b63          	bne	a5,a4,ffffffff84007db8 <decodeRISCVMMUInvocation+0x644>
ffffffff84007da6:	03f67793          	and	a5,a2,63
ffffffff84007daa:	4731                	li	a4,12
ffffffff84007dac:	00e79663          	bne	a5,a4,ffffffff84007db8 <decodeRISCVMMUInvocation+0x644>
ffffffff84007db0:	00665793          	srl	a5,a2,0x6
ffffffff84007db4:	8b85                	and	a5,a5,1
ffffffff84007db6:	cb89                	beqz	a5,ffffffff84007dc8 <decodeRISCVMMUInvocation+0x654>
ffffffff84007db8:	d1018793          	add	a5,gp,-752 # ffffffff84009128 <current_syscall_error>
ffffffff84007dbc:	4709                	li	a4,2
ffffffff84007dbe:	fb98                	sd	a4,48(a5)
ffffffff84007dc0:	4705                	li	a4,1
ffffffff84007dc2:	e798                	sd	a4,8(a5)
ffffffff84007dc4:	440d                	li	s0,3
ffffffff84007dc6:	bf91                	j	ffffffff84007d1a <decodeRISCVMMUInvocation+0x5a6>
ffffffff84007dc8:	854a                	mv	a0,s2
ffffffff84007dca:	feafc0ef          	jal	ffffffff840045b4 <ensureNoChildren>
ffffffff84007dce:	842a                	mv	s0,a0
ffffffff84007dd0:	f529                	bnez	a0,ffffffff84007d1a <decodeRISCVMMUInvocation+0x5a6>
ffffffff84007dd2:	01999b13          	sll	s6,s3,0x19
ffffffff84007dd6:	019b5b13          	srl	s6,s6,0x19
ffffffff84007dda:	0269d793          	srl	a5,s3,0x26
ffffffff84007dde:	8b85                	and	a5,a5,1
ffffffff84007de0:	c789                	beqz	a5,ffffffff84007dea <decodeRISCVMMUInvocation+0x676>
ffffffff84007de2:	57fd                	li	a5,-1
ffffffff84007de4:	179e                	sll	a5,a5,0x27
ffffffff84007de6:	00fb6b33          	or	s6,s6,a5
ffffffff84007dea:	86d6                	mv	a3,s5
ffffffff84007dec:	8652                	mv	a2,s4
ffffffff84007dee:	7542                	ld	a0,48(sp)
ffffffff84007df0:	75e2                	ld	a1,56(sp)
ffffffff84007df2:	ae3fb0ef          	jal	ffffffff840038d4 <lookupTargetSlot>
ffffffff84007df6:	842a                	mv	s0,a0
ffffffff84007df8:	e0aa                	sd	a0,64(sp)
ffffffff84007dfa:	e4ae                	sd	a1,72(sp)
ffffffff84007dfc:	f0051fe3          	bnez	a0,ffffffff84007d1a <decodeRISCVMMUInvocation+0x5a6>
ffffffff84007e00:	89ae                	mv	s3,a1
ffffffff84007e02:	852e                	mv	a0,a1
ffffffff84007e04:	da1fb0ef          	jal	ffffffff84003ba4 <ensureEmptySlot>
ffffffff84007e08:	842a                	mv	s0,a0
ffffffff84007e0a:	f00518e3          	bnez	a0,ffffffff84007d1a <decodeRISCVMMUInvocation+0x5a6>
ffffffff84007e0e:	4589                	li	a1,2
ffffffff84007e10:	a801b503          	ld	a0,-1408(gp) # ffffffff84008e98 <ksCurThread>
ffffffff84007e14:	bb1fc0ef          	jal	ffffffff840049c4 <setThreadState>
ffffffff84007e18:	00893783          	ld	a5,8(s2)
ffffffff84007e1c:	03f7f693          	and	a3,a5,63
ffffffff84007e20:	36f1                	addw	a3,a3,-4
ffffffff84007e22:	02000737          	lui	a4,0x2000
ffffffff84007e26:	00d71733          	sll	a4,a4,a3
ffffffff84007e2a:	179e                	sll	a5,a5,0x27
ffffffff84007e2c:	939d                	srl	a5,a5,0x27
ffffffff84007e2e:	8fd9                	or	a5,a5,a4
ffffffff84007e30:	00f93423          	sd	a5,8(s2)
ffffffff84007e34:	6585                	lui	a1,0x1
ffffffff84007e36:	855a                	mv	a0,s6
ffffffff84007e38:	8bfff0ef          	jal	ffffffff840076f6 <memzero>
ffffffff84007e3c:	03449793          	sll	a5,s1,0x34
ffffffff84007e40:	0ffff737          	lui	a4,0xffff
ffffffff84007e44:	077e                	sll	a4,a4,0x1f
ffffffff84007e46:	8ff9                	and	a5,a5,a4
ffffffff84007e48:	002b5713          	srl	a4,s6,0x2
ffffffff84007e4c:	5a7d                	li	s4,-1
ffffffff84007e4e:	01ba5693          	srl	a3,s4,0x1b
ffffffff84007e52:	8f75                	and	a4,a4,a3
ffffffff84007e54:	8fd9                	or	a5,a5,a4
ffffffff84007e56:	86ce                	mv	a3,s3
ffffffff84007e58:	864a                	mv	a2,s2
ffffffff84007e5a:	4535                	li	a0,13
ffffffff84007e5c:	156e                	sll	a0,a0,0x3b
ffffffff84007e5e:	8d5d                	or	a0,a0,a5
ffffffff84007e60:	4581                	li	a1,0
ffffffff84007e62:	941fc0ef          	jal	ffffffff840047a2 <cteInsert>
ffffffff84007e66:	009a5a13          	srl	s4,s4,0x9
ffffffff84007e6a:	0144f7b3          	and	a5,s1,s4
ffffffff84007e6e:	078e                	sll	a5,a5,0x3
ffffffff84007e70:	d6818713          	add	a4,gp,-664 # ffffffff84009180 <riscvKSASIDTable>
ffffffff84007e74:	97ba                	add	a5,a5,a4
ffffffff84007e76:	0167b023          	sd	s6,0(a5)
ffffffff84007e7a:	b545                	j	ffffffff84007d1a <decodeRISCVMMUInvocation+0x5a6>
ffffffff84007e7c:	478d                	li	a5,3
ffffffff84007e7e:	d4f1b023          	sd	a5,-704(gp) # ffffffff84009158 <current_syscall_error+0x30>
ffffffff84007e82:	440d                	li	s0,3
ffffffff84007e84:	bd59                	j	ffffffff84007d1a <decodeRISCVMMUInvocation+0x5a6>
ffffffff84007e86:	479d                	li	a5,7
ffffffff84007e88:	d4f1b023          	sd	a5,-704(gp) # ffffffff84009158 <current_syscall_error+0x30>
ffffffff84007e8c:	440d                	li	s0,3
ffffffff84007e8e:	b571                	j	ffffffff84007d1a <decodeRISCVMMUInvocation+0x5a6>
ffffffff84007e90:	d1018793          	add	a5,gp,-752 # ffffffff84009128 <current_syscall_error>
ffffffff84007e94:	4709                	li	a4,2
ffffffff84007e96:	fb98                	sd	a4,48(a5)
ffffffff84007e98:	4705                	li	a4,1
ffffffff84007e9a:	e798                	sd	a4,8(a5)
ffffffff84007e9c:	440d                	li	s0,3
ffffffff84007e9e:	bdb5                	j	ffffffff84007d1a <decodeRISCVMMUInvocation+0x5a6>
ffffffff84007ea0:	d1018793          	add	a5,gp,-752 # ffffffff84009128 <current_syscall_error>
ffffffff84007ea4:	4719                	li	a4,6
ffffffff84007ea6:	fb98                	sd	a4,48(a5)
ffffffff84007ea8:	0207b423          	sd	zero,40(a5)
ffffffff84007eac:	d5818793          	add	a5,gp,-680 # ffffffff84009170 <current_lookup_fault>
ffffffff84007eb0:	0007b023          	sd	zero,0(a5)
ffffffff84007eb4:	0007b423          	sd	zero,8(a5)
ffffffff84007eb8:	b58d                	j	ffffffff84007d1a <decodeRISCVMMUInvocation+0x5a6>
ffffffff84007eba:	d1018793          	add	a5,gp,-752 # ffffffff84009128 <current_syscall_error>
ffffffff84007ebe:	4709                	li	a4,2
ffffffff84007ec0:	fb98                	sd	a4,48(a5)
ffffffff84007ec2:	0007b423          	sd	zero,8(a5)
ffffffff84007ec6:	bd91                	j	ffffffff84007d1a <decodeRISCVMMUInvocation+0x5a6>
ffffffff84007ec8:	0785                	add	a5,a5,1
ffffffff84007eca:	0721                	add	a4,a4,8 # ffff008 <KERNEL_OFFSET-0xfffffffef0000ff8>
ffffffff84007ecc:	06b78c63          	beq	a5,a1,ffffffff84007f44 <decodeRISCVMMUInvocation+0x7d0>
ffffffff84007ed0:	00c786b3          	add	a3,a5,a2
ffffffff84007ed4:	daf5                	beqz	a3,ffffffff84007ec8 <decodeRISCVMMUInvocation+0x754>
ffffffff84007ed6:	6314                	ld	a3,0(a4)
ffffffff84007ed8:	fae5                	bnez	a3,ffffffff84007ec8 <decodeRISCVMMUInvocation+0x754>
ffffffff84007eda:	20000713          	li	a4,512
ffffffff84007ede:	06e78363          	beq	a5,a4,ffffffff84007f44 <decodeRISCVMMUInvocation+0x7d0>
ffffffff84007ee2:	00c78433          	add	s0,a5,a2
ffffffff84007ee6:	4589                	li	a1,2
ffffffff84007ee8:	a801b503          	ld	a0,-1408(gp) # ffffffff84008e98 <ksCurThread>
ffffffff84007eec:	ad9fc0ef          	jal	ffffffff840049c4 <setThreadState>
ffffffff84007ef0:	0009b683          	ld	a3,0(s3)
ffffffff84007ef4:	0089b783          	ld	a5,8(s3)
ffffffff84007ef8:	0097d713          	srl	a4,a5,0x9
ffffffff84007efc:	01971493          	sll	s1,a4,0x19
ffffffff84007f00:	80e5                	srl	s1,s1,0x19
ffffffff84007f02:	9319                	srl	a4,a4,0x26
ffffffff84007f04:	8b05                	and	a4,a4,1
ffffffff84007f06:	c701                	beqz	a4,ffffffff84007f0e <decodeRISCVMMUInvocation+0x79a>
ffffffff84007f08:	577d                	li	a4,-1
ffffffff84007f0a:	171e                	sll	a4,a4,0x27
ffffffff84007f0c:	8cd9                	or	s1,s1,a4
ffffffff84007f0e:	567d                	li	a2,-1
ffffffff84007f10:	02861713          	sll	a4,a2,0x28
ffffffff84007f14:	8f75                	and	a4,a4,a3
ffffffff84007f16:	4685                	li	a3,1
ffffffff84007f18:	169e                	sll	a3,a3,0x27
ffffffff84007f1a:	8f55                	or	a4,a4,a3
ffffffff84007f1c:	00e9b023          	sd	a4,0(s3)
ffffffff84007f20:	8241                	srl	a2,a2,0x10
ffffffff84007f22:	8ff1                	and	a5,a5,a2
ffffffff84007f24:	03041713          	sll	a4,s0,0x30
ffffffff84007f28:	8fd9                	or	a5,a5,a4
ffffffff84007f2a:	00f9b423          	sd	a5,8(s3)
ffffffff84007f2e:	8526                	mv	a0,s1
ffffffff84007f30:	c9ffa0ef          	jal	ffffffff84002bce <copyGlobalMappings>
ffffffff84007f34:	1ff47793          	and	a5,s0,511
ffffffff84007f38:	078e                	sll	a5,a5,0x3
ffffffff84007f3a:	9a3e                	add	s4,s4,a5
ffffffff84007f3c:	009a3023          	sd	s1,0(s4)
ffffffff84007f40:	844a                	mv	s0,s2
ffffffff84007f42:	bbe1                	j	ffffffff84007d1a <decodeRISCVMMUInvocation+0x5a6>
ffffffff84007f44:	47a1                	li	a5,8
ffffffff84007f46:	d4f1b023          	sd	a5,-704(gp) # ffffffff84009158 <current_syscall_error+0x30>
ffffffff84007f4a:	bbc1                	j	ffffffff84007d1a <decodeRISCVMMUInvocation+0x5a6>
ffffffff84007f4c:	905fa0ef          	jal	ffffffff84002850 <halt>

ffffffff84007f50 <Arch_decodeInvocation>:
ffffffff84007f50:	1101                	add	sp,sp,-32
ffffffff84007f52:	ec06                	sd	ra,24(sp)
ffffffff84007f54:	821ff0ef          	jal	ffffffff84007774 <decodeRISCVMMUInvocation>
ffffffff84007f58:	60e2                	ld	ra,24(sp)
ffffffff84007f5a:	6105                	add	sp,sp,32
ffffffff84007f5c:	8082                	ret

ffffffff84007f5e <invokeUntyped_Retype>:
ffffffff84007f5e:	7159                	add	sp,sp,-112
ffffffff84007f60:	f486                	sd	ra,104(sp)
ffffffff84007f62:	f0a2                	sd	s0,96(sp)
ffffffff84007f64:	eca6                	sd	s1,88(sp)
ffffffff84007f66:	e8ca                	sd	s2,80(sp)
ffffffff84007f68:	e4ce                	sd	s3,72(sp)
ffffffff84007f6a:	e0d2                	sd	s4,64(sp)
ffffffff84007f6c:	fc56                	sd	s5,56(sp)
ffffffff84007f6e:	f85a                	sd	s6,48(sp)
ffffffff84007f70:	f45e                	sd	s7,40(sp)
ffffffff84007f72:	f062                	sd	s8,32(sp)
ffffffff84007f74:	ec66                	sd	s9,24(sp)
ffffffff84007f76:	e86a                	sd	s10,16(sp)
ffffffff84007f78:	e46e                	sd	s11,8(sp)
ffffffff84007f7a:	842a                	mv	s0,a0
ffffffff84007f7c:	89b2                	mv	s3,a2
ffffffff84007f7e:	84b6                	mv	s1,a3
ffffffff84007f80:	8a3a                	mv	s4,a4
ffffffff84007f82:	8abe                	mv	s5,a5
ffffffff84007f84:	8b42                	mv	s6,a6
ffffffff84007f86:	8946                	mv	s2,a7
ffffffff84007f88:	00053c83          	ld	s9,0(a0)
ffffffff84007f8c:	019c9b93          	sll	s7,s9,0x19
ffffffff84007f90:	019bdb93          	srl	s7,s7,0x19
ffffffff84007f94:	026cd793          	srl	a5,s9,0x26
ffffffff84007f98:	8b85                	and	a5,a5,1
ffffffff84007f9a:	c789                	beqz	a5,ffffffff84007fa4 <invokeUntyped_Retype+0x46>
ffffffff84007f9c:	57fd                	li	a5,-1
ffffffff84007f9e:	179e                	sll	a5,a5,0x27
ffffffff84007fa0:	00fbebb3          	or	s7,s7,a5
ffffffff84007fa4:	c9b5                	beqz	a1,ffffffff84008018 <invokeUntyped_Retype+0xba>
ffffffff84007fa6:	00843d03          	ld	s10,8(s0)
ffffffff84007faa:	019d5793          	srl	a5,s10,0x19
ffffffff84007fae:	00479c13          	sll	s8,a5,0x4
ffffffff84007fb2:	c3bd                	beqz	a5,ffffffff84008018 <invokeUntyped_Retype+0xba>
ffffffff84007fb4:	006d5793          	srl	a5,s10,0x6
ffffffff84007fb8:	8b85                	and	a5,a5,1
ffffffff84007fba:	eba1                	bnez	a5,ffffffff8400800a <invokeUntyped_Retype+0xac>
ffffffff84007fbc:	038d7793          	and	a5,s10,56
ffffffff84007fc0:	1c7d                	add	s8,s8,-1
ffffffff84007fc2:	f00c7c13          	and	s8,s8,-256
ffffffff84007fc6:	cf85                	beqz	a5,ffffffff84007ffe <invokeUntyped_Retype+0xa0>
ffffffff84007fc8:	1d1e                	sll	s10,s10,0x27
ffffffff84007fca:	027d5d13          	srl	s10,s10,0x27
ffffffff84007fce:	f0000d93          	li	s11,-256
ffffffff84007fd2:	10000593          	li	a1,256
ffffffff84007fd6:	018b8533          	add	a0,s7,s8
ffffffff84007fda:	f1cff0ef          	jal	ffffffff840076f6 <memzero>
ffffffff84007fde:	01943023          	sd	s9,0(s0)
ffffffff84007fe2:	004c5793          	srl	a5,s8,0x4
ffffffff84007fe6:	07e6                	sll	a5,a5,0x19
ffffffff84007fe8:	01a7e7b3          	or	a5,a5,s10
ffffffff84007fec:	e41c                	sd	a5,8(s0)
ffffffff84007fee:	979fb0ef          	jal	ffffffff84003966 <preemptionPoint>
ffffffff84007ff2:	e12d                	bnez	a0,ffffffff84008054 <invokeUntyped_Retype+0xf6>
ffffffff84007ff4:	f00c0c13          	add	s8,s8,-256
ffffffff84007ff8:	fdbc1de3          	bne	s8,s11,ffffffff84007fd2 <invokeUntyped_Retype+0x74>
ffffffff84007ffc:	a831                	j	ffffffff84008018 <invokeUntyped_Retype+0xba>
ffffffff84007ffe:	4585                	li	a1,1
ffffffff84008000:	01a595b3          	sll	a1,a1,s10
ffffffff84008004:	855e                	mv	a0,s7
ffffffff84008006:	ef0ff0ef          	jal	ffffffff840076f6 <memzero>
ffffffff8400800a:	01943023          	sd	s9,0(s0)
ffffffff8400800e:	1d1e                	sll	s10,s10,0x27
ffffffff84008010:	027d5d13          	srl	s10,s10,0x27
ffffffff84008014:	01a43423          	sd	s10,8(s0)
ffffffff84008018:	85d2                	mv	a1,s4
ffffffff8400801a:	8526                	mv	a0,s1
ffffffff8400801c:	da5fb0ef          	jal	ffffffff84003dc0 <getObjectSize>
ffffffff84008020:	00a91333          	sll	t1,s2,a0
ffffffff84008024:	41798bb3          	sub	s7,s3,s7
ffffffff84008028:	935e                	add	t1,t1,s7
ffffffff8400802a:	00435313          	srl	t1,t1,0x4
ffffffff8400802e:	0366                	sll	t1,t1,0x19
ffffffff84008030:	641c                	ld	a5,8(s0)
ffffffff84008032:	179e                	sll	a5,a5,0x27
ffffffff84008034:	939d                	srl	a5,a5,0x27
ffffffff84008036:	00f36333          	or	t1,t1,a5
ffffffff8400803a:	00643423          	sd	t1,8(s0)
ffffffff8400803e:	78c6                	ld	a7,112(sp)
ffffffff84008040:	8852                	mv	a6,s4
ffffffff84008042:	87ce                	mv	a5,s3
ffffffff84008044:	874a                	mv	a4,s2
ffffffff84008046:	86da                	mv	a3,s6
ffffffff84008048:	8656                	mv	a2,s5
ffffffff8400804a:	85a2                	mv	a1,s0
ffffffff8400804c:	8526                	mv	a0,s1
ffffffff8400804e:	85efc0ef          	jal	ffffffff840040ac <createNewObjects>
ffffffff84008052:	4501                	li	a0,0
ffffffff84008054:	70a6                	ld	ra,104(sp)
ffffffff84008056:	7406                	ld	s0,96(sp)
ffffffff84008058:	64e6                	ld	s1,88(sp)
ffffffff8400805a:	6946                	ld	s2,80(sp)
ffffffff8400805c:	69a6                	ld	s3,72(sp)
ffffffff8400805e:	6a06                	ld	s4,64(sp)
ffffffff84008060:	7ae2                	ld	s5,56(sp)
ffffffff84008062:	7b42                	ld	s6,48(sp)
ffffffff84008064:	7ba2                	ld	s7,40(sp)
ffffffff84008066:	7c02                	ld	s8,32(sp)
ffffffff84008068:	6ce2                	ld	s9,24(sp)
ffffffff8400806a:	6d42                	ld	s10,16(sp)
ffffffff8400806c:	6da2                	ld	s11,8(sp)
ffffffff8400806e:	6165                	add	sp,sp,112
ffffffff84008070:	8082                	ret

ffffffff84008072 <decodeUntypedInvocation>:
ffffffff84008072:	7171                	add	sp,sp,-176
ffffffff84008074:	f506                	sd	ra,168(sp)
ffffffff84008076:	f122                	sd	s0,160(sp)
ffffffff84008078:	ed26                	sd	s1,152(sp)
ffffffff8400807a:	e94a                	sd	s2,144(sp)
ffffffff8400807c:	e54e                	sd	s3,136(sp)
ffffffff8400807e:	e152                	sd	s4,128(sp)
ffffffff84008080:	fcd6                	sd	s5,120(sp)
ffffffff84008082:	f8da                	sd	s6,112(sp)
ffffffff84008084:	f4de                	sd	s7,104(sp)
ffffffff84008086:	f0e2                	sd	s8,96(sp)
ffffffff84008088:	ece6                	sd	s9,88(sp)
ffffffff8400808a:	e8ea                	sd	s10,80(sp)
ffffffff8400808c:	e4ee                	sd	s11,72(sp)
ffffffff8400808e:	e836                	sd	a3,16(sp)
ffffffff84008090:	ec3a                	sd	a4,24(sp)
ffffffff84008092:	4785                	li	a5,1
ffffffff84008094:	14f51f63          	bne	a0,a5,ffffffff840081f2 <decodeUntypedInvocation+0x180>
ffffffff84008098:	842a                	mv	s0,a0
ffffffff8400809a:	8932                	mv	s2,a2
ffffffff8400809c:	84ba                	mv	s1,a4
ffffffff8400809e:	4795                	li	a5,5
ffffffff840080a0:	16b7fc63          	bgeu	a5,a1,ffffffff84008218 <decodeUntypedInvocation+0x1a6>
ffffffff840080a4:	8781bb83          	ld	s7,-1928(gp) # ffffffff84008c90 <current_extra_caps>
ffffffff840080a8:	160b8863          	beqz	s7,ffffffff84008218 <decodeUntypedInvocation+0x1a6>
ffffffff840080ac:	a801b783          	ld	a5,-1408(gp) # ffffffff84008e98 <ksCurThread>
ffffffff840080b0:	0587b983          	ld	s3,88(a5)
ffffffff840080b4:	0607ba03          	ld	s4,96(a5)
ffffffff840080b8:	0687bd03          	ld	s10,104(a5)
ffffffff840080bc:	0707bb03          	ld	s6,112(a5)
ffffffff840080c0:	02883c03          	ld	s8,40(a6)
ffffffff840080c4:	03083c83          	ld	s9,48(a6)
ffffffff840080c8:	47a1                	li	a5,8
ffffffff840080ca:	1537ec63          	bltu	a5,s3,ffffffff84008222 <decodeUntypedInvocation+0x1b0>
ffffffff840080ce:	85d2                	mv	a1,s4
ffffffff840080d0:	854e                	mv	a0,s3
ffffffff840080d2:	ceffb0ef          	jal	ffffffff84003dc0 <getObjectSize>
ffffffff840080d6:	8aaa                	mv	s5,a0
ffffffff840080d8:	03f00793          	li	a5,63
ffffffff840080dc:	1547eb63          	bltu	a5,s4,ffffffff84008232 <decodeUntypedInvocation+0x1c0>
ffffffff840080e0:	02600793          	li	a5,38
ffffffff840080e4:	14a7e763          	bltu	a5,a0,ffffffff84008232 <decodeUntypedInvocation+0x1c0>
ffffffff840080e8:	4791                	li	a5,4
ffffffff840080ea:	14f98f63          	beq	s3,a5,ffffffff84008248 <decodeUntypedInvocation+0x1d6>
ffffffff840080ee:	00099563          	bnez	s3,ffffffff840080f8 <decodeUntypedInvocation+0x86>
ffffffff840080f2:	478d                	li	a5,3
ffffffff840080f4:	1747f363          	bgeu	a5,s4,ffffffff8400825a <decodeUntypedInvocation+0x1e8>
ffffffff840080f8:	160b1863          	bnez	s6,ffffffff84008268 <decodeUntypedInvocation+0x1f6>
ffffffff840080fc:	000bb783          	ld	a5,0(s7)
ffffffff84008100:	03b7d713          	srl	a4,a5,0x3b
ffffffff84008104:	46a9                	li	a3,10
ffffffff84008106:	18d71063          	bne	a4,a3,ffffffff84008286 <decodeUntypedInvocation+0x214>
ffffffff8400810a:	02f7d693          	srl	a3,a5,0x2f
ffffffff8400810e:	4705                	li	a4,1
ffffffff84008110:	00d71733          	sll	a4,a4,a3
ffffffff84008114:	fff70693          	add	a3,a4,-1
ffffffff84008118:	1986ea63          	bltu	a3,s8,ffffffff840082ac <decodeUntypedInvocation+0x23a>
ffffffff8400811c:	fffc8693          	add	a3,s9,-1
ffffffff84008120:	0ff00613          	li	a2,255
ffffffff84008124:	18d66d63          	bltu	a2,a3,ffffffff840082be <decodeUntypedInvocation+0x24c>
ffffffff84008128:	41870733          	sub	a4,a4,s8
ffffffff8400812c:	1b976463          	bltu	a4,s9,ffffffff840082d4 <decodeUntypedInvocation+0x262>
ffffffff84008130:	0786                	sll	a5,a5,0x1
ffffffff84008132:	fc000db7          	lui	s11,0xfc000
ffffffff84008136:	019ddd93          	srl	s11,s11,0x19
ffffffff8400813a:	01b7fdb3          	and	s11,a5,s11
ffffffff8400813e:	9399                	srl	a5,a5,0x26
ffffffff84008140:	8b85                	and	a5,a5,1
ffffffff84008142:	c789                	beqz	a5,ffffffff8400814c <decodeUntypedInvocation+0xda>
ffffffff84008144:	57fd                	li	a5,-1
ffffffff84008146:	179e                	sll	a5,a5,0x27
ffffffff84008148:	00fdedb3          	or	s11,s11,a5
ffffffff8400814c:	018c8d33          	add	s10,s9,s8
ffffffff84008150:	01ac7f63          	bgeu	s8,s10,ffffffff8400816e <decodeUntypedInvocation+0xfc>
ffffffff84008154:	005c1b13          	sll	s6,s8,0x5
ffffffff84008158:	9b6e                	add	s6,s6,s11
ffffffff8400815a:	8be2                	mv	s7,s8
ffffffff8400815c:	855a                	mv	a0,s6
ffffffff8400815e:	a47fb0ef          	jal	ffffffff84003ba4 <ensureEmptySlot>
ffffffff84008162:	ed41                	bnez	a0,ffffffff840081fa <decodeUntypedInvocation+0x188>
ffffffff84008164:	0b85                	add	s7,s7,1
ffffffff84008166:	020b0b13          	add	s6,s6,32
ffffffff8400816a:	ffab99e3          	bne	s7,s10,ffffffff8400815c <decodeUntypedInvocation+0xea>
ffffffff8400816e:	854a                	mv	a0,s2
ffffffff84008170:	c44fc0ef          	jal	ffffffff840045b4 <ensureNoChildren>
ffffffff84008174:	c501                	beqz	a0,ffffffff8400817c <decodeUntypedInvocation+0x10a>
ffffffff84008176:	0194d513          	srl	a0,s1,0x19
ffffffff8400817a:	4401                	li	s0,0
ffffffff8400817c:	67c2                	ld	a5,16(sp)
ffffffff8400817e:	01979713          	sll	a4,a5,0x19
ffffffff84008182:	8365                	srl	a4,a4,0x19
ffffffff84008184:	9399                	srl	a5,a5,0x26
ffffffff84008186:	8b85                	and	a5,a5,1
ffffffff84008188:	c781                	beqz	a5,ffffffff84008190 <decodeUntypedInvocation+0x11e>
ffffffff8400818a:	57fd                	li	a5,-1
ffffffff8400818c:	179e                	sll	a5,a5,0x27
ffffffff8400818e:	8f5d                	or	a4,a4,a5
ffffffff84008190:	0512                	sll	a0,a0,0x4
ffffffff84008192:	4785                	li	a5,1
ffffffff84008194:	009797b3          	sll	a5,a5,s1
ffffffff84008198:	8f89                	sub	a5,a5,a0
ffffffff8400819a:	000a869b          	sext.w	a3,s5
ffffffff8400819e:	0157dab3          	srl	s5,a5,s5
ffffffff840081a2:	159ae263          	bltu	s5,s9,ffffffff840082e6 <decodeUntypedInvocation+0x274>
ffffffff840081a6:	8099                	srl	s1,s1,0x6
ffffffff840081a8:	8885                	and	s1,s1,1
ffffffff840081aa:	c881                	beqz	s1,ffffffff840081ba <decodeUntypedInvocation+0x148>
ffffffff840081ac:	ffb98793          	add	a5,s3,-5
ffffffff840081b0:	4609                	li	a2,2
ffffffff840081b2:	00f67463          	bgeu	a2,a5,ffffffff840081ba <decodeUntypedInvocation+0x148>
ffffffff840081b6:	12099f63          	bnez	s3,ffffffff840082f4 <decodeUntypedInvocation+0x282>
ffffffff840081ba:	4785                	li	a5,1
ffffffff840081bc:	00d797b3          	sll	a5,a5,a3
ffffffff840081c0:	fff78a93          	add	s5,a5,-1
ffffffff840081c4:	9aaa                	add	s5,s5,a0
ffffffff840081c6:	9aba                	add	s5,s5,a4
ffffffff840081c8:	40f007b3          	neg	a5,a5
ffffffff840081cc:	00fafab3          	and	s5,s5,a5
ffffffff840081d0:	4589                	li	a1,2
ffffffff840081d2:	a801b503          	ld	a0,-1408(gp) # ffffffff84008e98 <ksCurThread>
ffffffff840081d6:	feefc0ef          	jal	ffffffff840049c4 <setThreadState>
ffffffff840081da:	e026                	sd	s1,0(sp)
ffffffff840081dc:	88e6                	mv	a7,s9
ffffffff840081de:	8862                	mv	a6,s8
ffffffff840081e0:	87ee                	mv	a5,s11
ffffffff840081e2:	8752                	mv	a4,s4
ffffffff840081e4:	86ce                	mv	a3,s3
ffffffff840081e6:	8656                	mv	a2,s5
ffffffff840081e8:	85a2                	mv	a1,s0
ffffffff840081ea:	854a                	mv	a0,s2
ffffffff840081ec:	d73ff0ef          	jal	ffffffff84007f5e <invokeUntyped_Retype>
ffffffff840081f0:	a029                	j	ffffffff840081fa <decodeUntypedInvocation+0x188>
ffffffff840081f2:	478d                	li	a5,3
ffffffff840081f4:	d4f1b023          	sd	a5,-704(gp) # ffffffff84009158 <current_syscall_error+0x30>
ffffffff840081f8:	450d                	li	a0,3
ffffffff840081fa:	70aa                	ld	ra,168(sp)
ffffffff840081fc:	740a                	ld	s0,160(sp)
ffffffff840081fe:	64ea                	ld	s1,152(sp)
ffffffff84008200:	694a                	ld	s2,144(sp)
ffffffff84008202:	69aa                	ld	s3,136(sp)
ffffffff84008204:	6a0a                	ld	s4,128(sp)
ffffffff84008206:	7ae6                	ld	s5,120(sp)
ffffffff84008208:	7b46                	ld	s6,112(sp)
ffffffff8400820a:	7ba6                	ld	s7,104(sp)
ffffffff8400820c:	7c06                	ld	s8,96(sp)
ffffffff8400820e:	6ce6                	ld	s9,88(sp)
ffffffff84008210:	6d46                	ld	s10,80(sp)
ffffffff84008212:	6da6                	ld	s11,72(sp)
ffffffff84008214:	614d                	add	sp,sp,176
ffffffff84008216:	8082                	ret
ffffffff84008218:	479d                	li	a5,7
ffffffff8400821a:	d4f1b023          	sd	a5,-704(gp) # ffffffff84009158 <current_syscall_error+0x30>
ffffffff8400821e:	450d                	li	a0,3
ffffffff84008220:	bfe9                	j	ffffffff840081fa <decodeUntypedInvocation+0x188>
ffffffff84008222:	d1018793          	add	a5,gp,-752 # ffffffff84009128 <current_syscall_error>
ffffffff84008226:	4705                	li	a4,1
ffffffff84008228:	fb98                	sd	a4,48(a5)
ffffffff8400822a:	0007b023          	sd	zero,0(a5)
ffffffff8400822e:	450d                	li	a0,3
ffffffff84008230:	b7e9                	j	ffffffff840081fa <decodeUntypedInvocation+0x188>
ffffffff84008232:	d1018793          	add	a5,gp,-752 # ffffffff84009128 <current_syscall_error>
ffffffff84008236:	4711                	li	a4,4
ffffffff84008238:	fb98                	sd	a4,48(a5)
ffffffff8400823a:	0007b823          	sd	zero,16(a5)
ffffffff8400823e:	02600713          	li	a4,38
ffffffff84008242:	ef98                	sd	a4,24(a5)
ffffffff84008244:	450d                	li	a0,3
ffffffff84008246:	bf55                	j	ffffffff840081fa <decodeUntypedInvocation+0x188>
ffffffff84008248:	ea0a18e3          	bnez	s4,ffffffff840080f8 <decodeUntypedInvocation+0x86>
ffffffff8400824c:	d1018793          	add	a5,gp,-752 # ffffffff84009128 <current_syscall_error>
ffffffff84008250:	4705                	li	a4,1
ffffffff84008252:	fb98                	sd	a4,48(a5)
ffffffff84008254:	e398                	sd	a4,0(a5)
ffffffff84008256:	450d                	li	a0,3
ffffffff84008258:	b74d                	j	ffffffff840081fa <decodeUntypedInvocation+0x188>
ffffffff8400825a:	d1018793          	add	a5,gp,-752 # ffffffff84009128 <current_syscall_error>
ffffffff8400825e:	4705                	li	a4,1
ffffffff84008260:	fb98                	sd	a4,48(a5)
ffffffff84008262:	e398                	sd	a4,0(a5)
ffffffff84008264:	450d                	li	a0,3
ffffffff84008266:	bf51                	j	ffffffff840081fa <decodeUntypedInvocation+0x188>
ffffffff84008268:	000bb503          	ld	a0,0(s7)
ffffffff8400826c:	f02a                	sd	a0,32(sp)
ffffffff8400826e:	008bb583          	ld	a1,8(s7)
ffffffff84008272:	f42e                	sd	a1,40(sp)
ffffffff84008274:	86da                	mv	a3,s6
ffffffff84008276:	866a                	mv	a2,s10
ffffffff84008278:	e5cfb0ef          	jal	ffffffff840038d4 <lookupTargetSlot>
ffffffff8400827c:	f82a                	sd	a0,48(sp)
ffffffff8400827e:	fc2e                	sd	a1,56(sp)
ffffffff84008280:	fd2d                	bnez	a0,ffffffff840081fa <decodeUntypedInvocation+0x188>
ffffffff84008282:	619c                	ld	a5,0(a1)
ffffffff84008284:	bdb5                	j	ffffffff84008100 <decodeUntypedInvocation+0x8e>
ffffffff84008286:	d1018793          	add	a5,gp,-752 # ffffffff84009128 <current_syscall_error>
ffffffff8400828a:	4719                	li	a4,6
ffffffff8400828c:	fb98                	sd	a4,48(a5)
ffffffff8400828e:	0207b423          	sd	zero,40(a5)
ffffffff84008292:	d5818713          	add	a4,gp,-680 # ffffffff84009170 <current_lookup_fault>
ffffffff84008296:	002b1793          	sll	a5,s6,0x2
ffffffff8400829a:	1fc7f793          	and	a5,a5,508
ffffffff8400829e:	0017e793          	or	a5,a5,1
ffffffff840082a2:	e31c                	sd	a5,0(a4)
ffffffff840082a4:	00073423          	sd	zero,8(a4)
ffffffff840082a8:	450d                	li	a0,3
ffffffff840082aa:	bf81                	j	ffffffff840081fa <decodeUntypedInvocation+0x188>
ffffffff840082ac:	d1018793          	add	a5,gp,-752 # ffffffff84009128 <current_syscall_error>
ffffffff840082b0:	4711                	li	a4,4
ffffffff840082b2:	fb98                	sd	a4,48(a5)
ffffffff840082b4:	0007b823          	sd	zero,16(a5)
ffffffff840082b8:	ef94                	sd	a3,24(a5)
ffffffff840082ba:	450d                	li	a0,3
ffffffff840082bc:	bf3d                	j	ffffffff840081fa <decodeUntypedInvocation+0x188>
ffffffff840082be:	d1018793          	add	a5,gp,-752 # ffffffff84009128 <current_syscall_error>
ffffffff840082c2:	4711                	li	a4,4
ffffffff840082c4:	fb98                	sd	a4,48(a5)
ffffffff840082c6:	4705                	li	a4,1
ffffffff840082c8:	eb98                	sd	a4,16(a5)
ffffffff840082ca:	10000713          	li	a4,256
ffffffff840082ce:	ef98                	sd	a4,24(a5)
ffffffff840082d0:	450d                	li	a0,3
ffffffff840082d2:	b725                	j	ffffffff840081fa <decodeUntypedInvocation+0x188>
ffffffff840082d4:	d1018793          	add	a5,gp,-752 # ffffffff84009128 <current_syscall_error>
ffffffff840082d8:	4691                	li	a3,4
ffffffff840082da:	fb94                	sd	a3,48(a5)
ffffffff840082dc:	4685                	li	a3,1
ffffffff840082de:	eb94                	sd	a3,16(a5)
ffffffff840082e0:	ef98                	sd	a4,24(a5)
ffffffff840082e2:	450d                	li	a0,3
ffffffff840082e4:	bf19                	j	ffffffff840081fa <decodeUntypedInvocation+0x188>
ffffffff840082e6:	d1018713          	add	a4,gp,-752 # ffffffff84009128 <current_syscall_error>
ffffffff840082ea:	46a9                	li	a3,10
ffffffff840082ec:	fb14                	sd	a3,48(a4)
ffffffff840082ee:	f31c                	sd	a5,32(a4)
ffffffff840082f0:	450d                	li	a0,3
ffffffff840082f2:	b721                	j	ffffffff840081fa <decodeUntypedInvocation+0x188>
ffffffff840082f4:	d1018793          	add	a5,gp,-752 # ffffffff84009128 <current_syscall_error>
ffffffff840082f8:	4705                	li	a4,1
ffffffff840082fa:	fb98                	sd	a4,48(a5)
ffffffff840082fc:	e398                	sd	a4,0(a5)
ffffffff840082fe:	450d                	li	a0,3
ffffffff84008300:	bded                	j	ffffffff840081fa <decodeUntypedInvocation+0x188>

ffffffff84008302 <decodeInvocation>:
ffffffff84008302:	711d                	add	sp,sp,-96
ffffffff84008304:	ec86                	sd	ra,88(sp)
ffffffff84008306:	e8a2                	sd	s0,80(sp)
ffffffff84008308:	e4a6                	sd	s1,72(sp)
ffffffff8400830a:	e0ca                	sd	s2,64(sp)
ffffffff8400830c:	fc4e                	sd	s3,56(sp)
ffffffff8400830e:	f852                	sd	s4,48(sp)
ffffffff84008310:	f456                	sd	s5,40(sp)
ffffffff84008312:	8a36                	mv	s4,a3
ffffffff84008314:	e03a                	sd	a4,0(sp)
ffffffff84008316:	e43e                	sd	a5,8(sp)
ffffffff84008318:	8946                	mv	s2,a7
ffffffff8400831a:	84ba                	mv	s1,a4
ffffffff8400831c:	89be                	mv	s3,a5
ffffffff8400831e:	03b75313          	srl	t1,a4,0x3b
ffffffff84008322:	00137413          	and	s0,t1,1
ffffffff84008326:	ec19                	bnez	s0,ffffffff84008344 <decodeInvocation+0x42>
ffffffff84008328:	8ac2                	mv	s5,a6
ffffffff8400832a:	47d1                	li	a5,20
ffffffff8400832c:	1667e563          	bltu	a5,t1,ffffffff84008496 <decodeInvocation+0x194>
ffffffff84008330:	030a                	sll	t1,t1,0x2
ffffffff84008332:	00001717          	auipc	a4,0x1
ffffffff84008336:	46270713          	add	a4,a4,1122 # ffffffff84009794 <platform_interrupt_t+0x20c>
ffffffff8400833a:	933a                	add	t1,t1,a4
ffffffff8400833c:	00032783          	lw	a5,0(t1)
ffffffff84008340:	97ba                	add	a5,a5,a4
ffffffff84008342:	8782                	jr	a5
ffffffff84008344:	7886                	ld	a7,96(sp)
ffffffff84008346:	884a                	mv	a6,s2
ffffffff84008348:	c2cff0ef          	jal	ffffffff84007774 <decodeRISCVMMUInvocation>
ffffffff8400834c:	842a                	mv	s0,a0
ffffffff8400834e:	8522                	mv	a0,s0
ffffffff84008350:	60e6                	ld	ra,88(sp)
ffffffff84008352:	6446                	ld	s0,80(sp)
ffffffff84008354:	64a6                	ld	s1,72(sp)
ffffffff84008356:	6906                	ld	s2,64(sp)
ffffffff84008358:	79e2                	ld	s3,56(sp)
ffffffff8400835a:	7a42                	ld	s4,48(sp)
ffffffff8400835c:	7aa2                	ld	s5,40(sp)
ffffffff8400835e:	6125                	add	sp,sp,96
ffffffff84008360:	8082                	ret
ffffffff84008362:	d1018793          	add	a5,gp,-752 # ffffffff84009128 <current_syscall_error>
ffffffff84008366:	4709                	li	a4,2
ffffffff84008368:	fb98                	sd	a4,48(a5)
ffffffff8400836a:	0007b423          	sd	zero,8(a5)
ffffffff8400836e:	440d                	li	s0,3
ffffffff84008370:	bff9                	j	ffffffff8400834e <decodeInvocation+0x4c>
ffffffff84008372:	d1018793          	add	a5,gp,-752 # ffffffff84009128 <current_syscall_error>
ffffffff84008376:	4709                	li	a4,2
ffffffff84008378:	fb98                	sd	a4,48(a5)
ffffffff8400837a:	0007b423          	sd	zero,8(a5)
ffffffff8400837e:	440d                	li	s0,3
ffffffff84008380:	b7f9                	j	ffffffff8400834e <decodeInvocation+0x4c>
ffffffff84008382:	0374d793          	srl	a5,s1,0x37
ffffffff84008386:	8b85                	and	a5,a5,1
ffffffff84008388:	cf8d                	beqz	a5,ffffffff840083c2 <decodeInvocation+0xc0>
ffffffff8400838a:	4589                	li	a1,2
ffffffff8400838c:	a801b503          	ld	a0,-1408(gp) # ffffffff84008e98 <ksCurThread>
ffffffff84008390:	e34fc0ef          	jal	ffffffff840049c4 <setThreadState>
ffffffff84008394:	01949513          	sll	a0,s1,0x19
ffffffff84008398:	8165                	srl	a0,a0,0x19
ffffffff8400839a:	0264d793          	srl	a5,s1,0x26
ffffffff8400839e:	8b85                	and	a5,a5,1
ffffffff840083a0:	c781                	beqz	a5,ffffffff840083a8 <decodeInvocation+0xa6>
ffffffff840083a2:	57fd                	li	a5,-1
ffffffff840083a4:	179e                	sll	a5,a5,0x27
ffffffff840083a6:	8d5d                	or	a0,a0,a5
ffffffff840083a8:	03a4d693          	srl	a3,s1,0x3a
ffffffff840083ac:	0394d613          	srl	a2,s1,0x39
ffffffff840083b0:	87ca                	mv	a5,s2
ffffffff840083b2:	8756                	mv	a4,s5
ffffffff840083b4:	8a85                	and	a3,a3,1
ffffffff840083b6:	8a05                	and	a2,a2,1
ffffffff840083b8:	85ce                	mv	a1,s3
ffffffff840083ba:	892fe0ef          	jal	ffffffff8400644c <performInvocation_Endpoint>
ffffffff840083be:	842a                	mv	s0,a0
ffffffff840083c0:	b779                	j	ffffffff8400834e <decodeInvocation+0x4c>
ffffffff840083c2:	d1018793          	add	a5,gp,-752 # ffffffff84009128 <current_syscall_error>
ffffffff840083c6:	4709                	li	a4,2
ffffffff840083c8:	fb98                	sd	a4,48(a5)
ffffffff840083ca:	0007b423          	sd	zero,8(a5)
ffffffff840083ce:	440d                	li	s0,3
ffffffff840083d0:	bfbd                	j	ffffffff8400834e <decodeInvocation+0x4c>
ffffffff840083d2:	0394d793          	srl	a5,s1,0x39
ffffffff840083d6:	8b85                	and	a5,a5,1
ffffffff840083d8:	c39d                	beqz	a5,ffffffff840083fe <decodeInvocation+0xfc>
ffffffff840083da:	4589                	li	a1,2
ffffffff840083dc:	a801b503          	ld	a0,-1408(gp) # ffffffff84008e98 <ksCurThread>
ffffffff840083e0:	de4fc0ef          	jal	ffffffff840049c4 <setThreadState>
ffffffff840083e4:	01949513          	sll	a0,s1,0x19
ffffffff840083e8:	8165                	srl	a0,a0,0x19
ffffffff840083ea:	9099                	srl	s1,s1,0x26
ffffffff840083ec:	8885                	and	s1,s1,1
ffffffff840083ee:	c481                	beqz	s1,ffffffff840083f6 <decodeInvocation+0xf4>
ffffffff840083f0:	57fd                	li	a5,-1
ffffffff840083f2:	179e                	sll	a5,a5,0x27
ffffffff840083f4:	8d5d                	or	a0,a0,a5
ffffffff840083f6:	85ce                	mv	a1,s3
ffffffff840083f8:	ff2fd0ef          	jal	ffffffff84005bea <sendSignal>
ffffffff840083fc:	bf89                	j	ffffffff8400834e <decodeInvocation+0x4c>
ffffffff840083fe:	d1018793          	add	a5,gp,-752 # ffffffff84009128 <current_syscall_error>
ffffffff84008402:	4709                	li	a4,2
ffffffff84008404:	fb98                	sd	a4,48(a5)
ffffffff84008406:	0007b423          	sd	zero,8(a5)
ffffffff8400840a:	440d                	li	s0,3
ffffffff8400840c:	b789                	j	ffffffff8400834e <decodeInvocation+0x4c>
ffffffff8400840e:	0014f793          	and	a5,s1,1
ffffffff84008412:	ef99                	bnez	a5,ffffffff84008430 <decodeInvocation+0x12e>
ffffffff84008414:	4589                	li	a1,2
ffffffff84008416:	a801b503          	ld	a0,-1408(gp) # ffffffff84008e98 <ksCurThread>
ffffffff8400841a:	daafc0ef          	jal	ffffffff840049c4 <setThreadState>
ffffffff8400841e:	8085                	srl	s1,s1,0x1
ffffffff84008420:	0014f613          	and	a2,s1,1
ffffffff84008424:	85d2                	mv	a1,s4
ffffffff84008426:	854e                	mv	a0,s3
ffffffff84008428:	da5fd0ef          	jal	ffffffff840061cc <performInvocation_Reply>
ffffffff8400842c:	842a                	mv	s0,a0
ffffffff8400842e:	b705                	j	ffffffff8400834e <decodeInvocation+0x4c>
ffffffff84008430:	d1018793          	add	a5,gp,-752 # ffffffff84009128 <current_syscall_error>
ffffffff84008434:	4709                	li	a4,2
ffffffff84008436:	fb98                	sd	a4,48(a5)
ffffffff84008438:	0007b423          	sd	zero,8(a5)
ffffffff8400843c:	440d                	li	s0,3
ffffffff8400843e:	bf01                	j	ffffffff8400834e <decodeInvocation+0x4c>
ffffffff84008440:	7806                	ld	a6,96(sp)
ffffffff84008442:	87c6                	mv	a5,a7
ffffffff84008444:	8736                	mv	a4,a3
ffffffff84008446:	6602                	ld	a2,0(sp)
ffffffff84008448:	66a2                	ld	a3,8(sp)
ffffffff8400844a:	ff3fe0ef          	jal	ffffffff8400743c <decodeTCBInvocation>
ffffffff8400844e:	842a                	mv	s0,a0
ffffffff84008450:	bdfd                	j	ffffffff8400834e <decodeInvocation+0x4c>
ffffffff84008452:	7606                	ld	a2,96(sp)
ffffffff84008454:	adafe0ef          	jal	ffffffff8400672e <decodeDomainInvocation>
ffffffff84008458:	842a                	mv	s0,a0
ffffffff8400845a:	bdd5                	j	ffffffff8400834e <decodeInvocation+0x4c>
ffffffff8400845c:	7706                	ld	a4,96(sp)
ffffffff8400845e:	6602                	ld	a2,0(sp)
ffffffff84008460:	66a2                	ld	a3,8(sp)
ffffffff84008462:	9e8fd0ef          	jal	ffffffff8400564a <decodeCNodeInvocation>
ffffffff84008466:	842a                	mv	s0,a0
ffffffff84008468:	b5dd                	j	ffffffff8400834e <decodeInvocation+0x4c>
ffffffff8400846a:	7806                	ld	a6,96(sp)
ffffffff8400846c:	87c6                	mv	a5,a7
ffffffff8400846e:	6682                	ld	a3,0(sp)
ffffffff84008470:	6722                	ld	a4,8(sp)
ffffffff84008472:	8652                	mv	a2,s4
ffffffff84008474:	bffff0ef          	jal	ffffffff84008072 <decodeUntypedInvocation>
ffffffff84008478:	842a                	mv	s0,a0
ffffffff8400847a:	bdd1                	j	ffffffff8400834e <decodeInvocation+0x4c>
ffffffff8400847c:	7686                	ld	a3,96(sp)
ffffffff8400847e:	8652                	mv	a2,s4
ffffffff84008480:	e54fc0ef          	jal	ffffffff84004ad4 <decodeIRQControlInvocation>
ffffffff84008484:	842a                	mv	s0,a0
ffffffff84008486:	b5e1                	j	ffffffff8400834e <decodeInvocation+0x4c>
ffffffff84008488:	03499593          	sll	a1,s3,0x34
ffffffff8400848c:	91d1                	srl	a1,a1,0x34
ffffffff8400848e:	e4cfd0ef          	jal	ffffffff84005ada <decodeIRQHandlerInvocation>
ffffffff84008492:	842a                	mv	s0,a0
ffffffff84008494:	bd6d                	j	ffffffff8400834e <decodeInvocation+0x4c>
ffffffff84008496:	bbafa0ef          	jal	ffffffff84002850 <halt>

ffffffff8400849a <handleInvocation>:
ffffffff8400849a:	7119                	add	sp,sp,-128
ffffffff8400849c:	fc86                	sd	ra,120(sp)
ffffffff8400849e:	f8a2                	sd	s0,112(sp)
ffffffff840084a0:	f4a6                	sd	s1,104(sp)
ffffffff840084a2:	f0ca                	sd	s2,96(sp)
ffffffff840084a4:	ecce                	sd	s3,88(sp)
ffffffff840084a6:	e8d2                	sd	s4,80(sp)
ffffffff840084a8:	e4d6                	sd	s5,72(sp)
ffffffff840084aa:	e0da                	sd	s6,64(sp)
ffffffff840084ac:	fc5e                	sd	s7,56(sp)
ffffffff840084ae:	8aaa                	mv	s5,a0
ffffffff840084b0:	8a2e                	mv	s4,a1
ffffffff840084b2:	a801b403          	ld	s0,-1408(gp) # ffffffff84008e98 <ksCurThread>
ffffffff840084b6:	6824                	ld	s1,80(s0)
ffffffff840084b8:	07f4f713          	and	a4,s1,127
ffffffff840084bc:	07800793          	li	a5,120
ffffffff840084c0:	00e7f663          	bgeu	a5,a4,ffffffff840084cc <handleInvocation+0x32>
ffffffff840084c4:	f804f493          	and	s1,s1,-128
ffffffff840084c8:	0784e493          	or	s1,s1,120
ffffffff840084cc:	04843b03          	ld	s6,72(s0)
ffffffff840084d0:	865a                	mv	a2,s6
ffffffff840084d2:	85a2                	mv	a1,s0
ffffffff840084d4:	0808                	add	a0,sp,16
ffffffff840084d6:	b0afb0ef          	jal	ffffffff840037e0 <lookupCapAndSlot>
ffffffff840084da:	6bc2                	ld	s7,16(sp)
ffffffff840084dc:	060b9663          	bnez	s7,ffffffff84008548 <handleInvocation+0xae>
ffffffff840084e0:	85a2                	mv	a1,s0
ffffffff840084e2:	4501                	li	a0,0
ffffffff840084e4:	f10fa0ef          	jal	ffffffff84002bf4 <lookupIPCBuffer>
ffffffff840084e8:	89aa                	mv	s3,a0
ffffffff840084ea:	8626                	mv	a2,s1
ffffffff840084ec:	85aa                	mv	a1,a0
ffffffff840084ee:	8522                	mv	a0,s0
ffffffff840084f0:	971fd0ef          	jal	ffffffff84005e60 <lookupExtraCaps>
ffffffff840084f4:	892a                	mv	s2,a0
ffffffff840084f6:	e53d                	bnez	a0,ffffffff84008564 <handleInvocation+0xca>
ffffffff840084f8:	07f4f593          	and	a1,s1,127
ffffffff840084fc:	4791                	li	a5,4
ffffffff840084fe:	06b7eb63          	bltu	a5,a1,ffffffff84008574 <handleInvocation+0xda>
ffffffff84008502:	e04e                	sd	s3,0(sp)
ffffffff84008504:	88d6                	mv	a7,s5
ffffffff84008506:	8852                	mv	a6,s4
ffffffff84008508:	6762                	ld	a4,24(sp)
ffffffff8400850a:	7782                	ld	a5,32(sp)
ffffffff8400850c:	76a2                	ld	a3,40(sp)
ffffffff8400850e:	865a                	mv	a2,s6
ffffffff84008510:	00c4d513          	srl	a0,s1,0xc
ffffffff84008514:	defff0ef          	jal	ffffffff84008302 <decodeInvocation>
ffffffff84008518:	4791                	li	a5,4
ffffffff8400851a:	08f50563          	beq	a0,a5,ffffffff840085a4 <handleInvocation+0x10a>
ffffffff8400851e:	478d                	li	a5,3
ffffffff84008520:	04f50e63          	beq	a0,a5,ffffffff8400857c <handleInvocation+0xe2>
ffffffff84008524:	11843783          	ld	a5,280(s0)
ffffffff84008528:	8bbd                	and	a5,a5,15
ffffffff8400852a:	4709                	li	a4,2
ffffffff8400852c:	06e78063          	beq	a5,a4,ffffffff8400858c <handleInvocation+0xf2>
ffffffff84008530:	854a                	mv	a0,s2
ffffffff84008532:	70e6                	ld	ra,120(sp)
ffffffff84008534:	7446                	ld	s0,112(sp)
ffffffff84008536:	74a6                	ld	s1,104(sp)
ffffffff84008538:	7906                	ld	s2,96(sp)
ffffffff8400853a:	69e6                	ld	s3,88(sp)
ffffffff8400853c:	6a46                	ld	s4,80(sp)
ffffffff8400853e:	6aa6                	ld	s5,72(sp)
ffffffff84008540:	6b06                	ld	s6,64(sp)
ffffffff84008542:	7be2                	ld	s7,56(sp)
ffffffff84008544:	6109                	add	sp,sp,128
ffffffff84008546:	8082                	ret
ffffffff84008548:	d4818793          	add	a5,gp,-696 # ffffffff84009160 <current_fault>
ffffffff8400854c:	4705                	li	a4,1
ffffffff8400854e:	e398                	sd	a4,0(a5)
ffffffff84008550:	0167b423          	sd	s6,8(a5)
ffffffff84008554:	8952                	mv	s2,s4
ffffffff84008556:	fc0a0de3          	beqz	s4,ffffffff84008530 <handleInvocation+0x96>
ffffffff8400855a:	8522                	mv	a0,s0
ffffffff8400855c:	ed1fd0ef          	jal	ffffffff8400642c <handleFault>
ffffffff84008560:	4901                	li	s2,0
ffffffff84008562:	b7f9                	j	ffffffff84008530 <handleInvocation+0x96>
ffffffff84008564:	8952                	mv	s2,s4
ffffffff84008566:	fc0a05e3          	beqz	s4,ffffffff84008530 <handleInvocation+0x96>
ffffffff8400856a:	8522                	mv	a0,s0
ffffffff8400856c:	ec1fd0ef          	jal	ffffffff8400642c <handleFault>
ffffffff84008570:	895e                	mv	s2,s7
ffffffff84008572:	bf7d                	j	ffffffff84008530 <handleInvocation+0x96>
ffffffff84008574:	f80997e3          	bnez	s3,ffffffff84008502 <handleInvocation+0x68>
ffffffff84008578:	4591                	li	a1,4
ffffffff8400857a:	b761                	j	ffffffff84008502 <handleInvocation+0x68>
ffffffff8400857c:	000a9463          	bnez	s5,ffffffff84008584 <handleInvocation+0xea>
ffffffff84008580:	8956                	mv	s2,s5
ffffffff84008582:	b77d                	j	ffffffff84008530 <handleInvocation+0x96>
ffffffff84008584:	8522                	mv	a0,s0
ffffffff84008586:	88cff0ef          	jal	ffffffff84007612 <replyFromKernel_error>
ffffffff8400858a:	b75d                	j	ffffffff84008530 <handleInvocation+0x96>
ffffffff8400858c:	000a9763          	bnez	s5,ffffffff8400859a <handleInvocation+0x100>
ffffffff84008590:	4585                	li	a1,1
ffffffff84008592:	8522                	mv	a0,s0
ffffffff84008594:	c30fc0ef          	jal	ffffffff840049c4 <setThreadState>
ffffffff84008598:	bf61                	j	ffffffff84008530 <handleInvocation+0x96>
ffffffff8400859a:	04043423          	sd	zero,72(s0)
ffffffff8400859e:	04043823          	sd	zero,80(s0)
ffffffff840085a2:	b7fd                	j	ffffffff84008590 <handleInvocation+0xf6>
ffffffff840085a4:	892a                	mv	s2,a0
ffffffff840085a6:	b769                	j	ffffffff84008530 <handleInvocation+0x96>

ffffffff840085a8 <memset>:
ffffffff840085a8:	1141                	add	sp,sp,-16
ffffffff840085aa:	e406                	sd	ra,8(sp)
ffffffff840085ac:	e022                	sd	s0,0(sp)
ffffffff840085ae:	842a                	mv	s0,a0
ffffffff840085b0:	872e                	mv	a4,a1
ffffffff840085b2:	85b2                	mv	a1,a2
ffffffff840085b4:	00c567b3          	or	a5,a0,a2
ffffffff840085b8:	8b9d                	and	a5,a5,7
ffffffff840085ba:	8fd9                	or	a5,a5,a4
ffffffff840085bc:	eb81                	bnez	a5,ffffffff840085cc <memset+0x24>
ffffffff840085be:	938ff0ef          	jal	ffffffff840076f6 <memzero>
ffffffff840085c2:	8522                	mv	a0,s0
ffffffff840085c4:	60a2                	ld	ra,8(sp)
ffffffff840085c6:	6402                	ld	s0,0(sp)
ffffffff840085c8:	0141                	add	sp,sp,16
ffffffff840085ca:	8082                	ret
ffffffff840085cc:	00c506b3          	add	a3,a0,a2
ffffffff840085d0:	87aa                	mv	a5,a0
ffffffff840085d2:	da65                	beqz	a2,ffffffff840085c2 <memset+0x1a>
ffffffff840085d4:	00e78023          	sb	a4,0(a5)
ffffffff840085d8:	0785                	add	a5,a5,1
ffffffff840085da:	fef69de3          	bne	a3,a5,ffffffff840085d4 <memset+0x2c>
ffffffff840085de:	b7d5                	j	ffffffff840085c2 <memset+0x1a>

ffffffff840085e0 <memcpy>:
ffffffff840085e0:	ca19                	beqz	a2,ffffffff840085f6 <memcpy+0x16>
ffffffff840085e2:	962a                	add	a2,a2,a0
ffffffff840085e4:	87aa                	mv	a5,a0
ffffffff840085e6:	0005c703          	lbu	a4,0(a1) # 1000 <KERNEL_OFFSET-0xfffffffefffff000>
ffffffff840085ea:	00e78023          	sb	a4,0(a5)
ffffffff840085ee:	0785                	add	a5,a5,1
ffffffff840085f0:	0585                	add	a1,a1,1
ffffffff840085f2:	fef61ae3          	bne	a2,a5,ffffffff840085e6 <memcpy+0x6>
ffffffff840085f6:	8082                	ret

ffffffff840085f8 <strncmp>:
ffffffff840085f8:	c20d                	beqz	a2,ffffffff8400861a <strncmp+0x22>
ffffffff840085fa:	87aa                	mv	a5,a0
ffffffff840085fc:	00c506b3          	add	a3,a0,a2
ffffffff84008600:	0007c703          	lbu	a4,0(a5)
ffffffff84008604:	0005c503          	lbu	a0,0(a1)
ffffffff84008608:	40a7053b          	subw	a0,a4,a0
ffffffff8400860c:	e901                	bnez	a0,ffffffff8400861c <strncmp+0x24>
ffffffff8400860e:	c719                	beqz	a4,ffffffff8400861c <strncmp+0x24>
ffffffff84008610:	0785                	add	a5,a5,1
ffffffff84008612:	0585                	add	a1,a1,1
ffffffff84008614:	fed796e3          	bne	a5,a3,ffffffff84008600 <strncmp+0x8>
ffffffff84008618:	8082                	ret
ffffffff8400861a:	8532                	mv	a0,a2
ffffffff8400861c:	8082                	ret

ffffffff8400861e <char_to_long>:
ffffffff8400861e:	fd05079b          	addw	a5,a0,-48
ffffffff84008622:	0ff7f793          	zext.b	a5,a5
ffffffff84008626:	4725                	li	a4,9
ffffffff84008628:	02f77363          	bgeu	a4,a5,ffffffff8400864e <char_to_long+0x30>
ffffffff8400862c:	fbf5079b          	addw	a5,a0,-65
ffffffff84008630:	0ff7f793          	zext.b	a5,a5
ffffffff84008634:	4715                	li	a4,5
ffffffff84008636:	00f77f63          	bgeu	a4,a5,ffffffff84008654 <char_to_long+0x36>
ffffffff8400863a:	f9f5079b          	addw	a5,a0,-97
ffffffff8400863e:	0ff7f793          	zext.b	a5,a5
ffffffff84008642:	4715                	li	a4,5
ffffffff84008644:	00f76b63          	bltu	a4,a5,ffffffff8400865a <char_to_long+0x3c>
ffffffff84008648:	fa95051b          	addw	a0,a0,-87
ffffffff8400864c:	8082                	ret
ffffffff8400864e:	fd05051b          	addw	a0,a0,-48
ffffffff84008652:	8082                	ret
ffffffff84008654:	fc95051b          	addw	a0,a0,-55
ffffffff84008658:	8082                	ret
ffffffff8400865a:	557d                	li	a0,-1
ffffffff8400865c:	8082                	ret

ffffffff8400865e <str_to_long>:
ffffffff8400865e:	7179                	add	sp,sp,-48
ffffffff84008660:	f406                	sd	ra,40(sp)
ffffffff84008662:	f022                	sd	s0,32(sp)
ffffffff84008664:	ec26                	sd	s1,24(sp)
ffffffff84008666:	e84a                	sd	s2,16(sp)
ffffffff84008668:	e44e                	sd	s3,8(sp)
ffffffff8400866a:	84aa                	mv	s1,a0
ffffffff8400866c:	00054503          	lbu	a0,0(a0)
ffffffff84008670:	03000793          	li	a5,48
ffffffff84008674:	4929                	li	s2,10
ffffffff84008676:	02f50963          	beq	a0,a5,ffffffff840086a8 <str_to_long+0x4a>
ffffffff8400867a:	0004c503          	lbu	a0,0(s1)
ffffffff8400867e:	c121                	beqz	a0,ffffffff840086be <str_to_long+0x60>
ffffffff84008680:	4401                	li	s0,0
ffffffff84008682:	59fd                	li	s3,-1
ffffffff84008684:	1902                	sll	s2,s2,0x20
ffffffff84008686:	02095913          	srl	s2,s2,0x20
ffffffff8400868a:	f95ff0ef          	jal	ffffffff8400861e <char_to_long>
ffffffff8400868e:	03350b63          	beq	a0,s3,ffffffff840086c4 <str_to_long+0x66>
ffffffff84008692:	03255863          	bge	a0,s2,ffffffff840086c2 <str_to_long+0x64>
ffffffff84008696:	02890433          	mul	s0,s2,s0
ffffffff8400869a:	942a                	add	s0,s0,a0
ffffffff8400869c:	0485                	add	s1,s1,1
ffffffff8400869e:	0004c503          	lbu	a0,0(s1)
ffffffff840086a2:	f565                	bnez	a0,ffffffff8400868a <str_to_long+0x2c>
ffffffff840086a4:	8522                	mv	a0,s0
ffffffff840086a6:	a839                	j	ffffffff840086c4 <str_to_long+0x66>
ffffffff840086a8:	0014c783          	lbu	a5,1(s1)
ffffffff840086ac:	0df7f793          	and	a5,a5,223
ffffffff840086b0:	05800713          	li	a4,88
ffffffff840086b4:	fce796e3          	bne	a5,a4,ffffffff84008680 <str_to_long+0x22>
ffffffff840086b8:	0489                	add	s1,s1,2
ffffffff840086ba:	4941                	li	s2,16
ffffffff840086bc:	bf7d                	j	ffffffff8400867a <str_to_long+0x1c>
ffffffff840086be:	557d                	li	a0,-1
ffffffff840086c0:	a011                	j	ffffffff840086c4 <str_to_long+0x66>
ffffffff840086c2:	557d                	li	a0,-1
ffffffff840086c4:	70a2                	ld	ra,40(sp)
ffffffff840086c6:	7402                	ld	s0,32(sp)
ffffffff840086c8:	64e2                	ld	s1,24(sp)
ffffffff840086ca:	6942                	ld	s2,16(sp)
ffffffff840086cc:	69a2                	ld	s3,8(sp)
ffffffff840086ce:	6145                	add	sp,sp,48
ffffffff840086d0:	8082                	ret

ffffffff840086d2 <__clzdi2>:
ffffffff840086d2:	4705                	li	a4,1
ffffffff840086d4:	1702                	sll	a4,a4,0x20
ffffffff840086d6:	00e53733          	sltu	a4,a0,a4
ffffffff840086da:	00174713          	xor	a4,a4,1
ffffffff840086de:	0057171b          	sllw	a4,a4,0x5
ffffffff840086e2:	00e557b3          	srl	a5,a0,a4
ffffffff840086e6:	04000513          	li	a0,64
ffffffff840086ea:	9d19                	subw	a0,a0,a4
ffffffff840086ec:	6741                	lui	a4,0x10
ffffffff840086ee:	00e7b733          	sltu	a4,a5,a4
ffffffff840086f2:	00174713          	xor	a4,a4,1
ffffffff840086f6:	0047171b          	sllw	a4,a4,0x4
ffffffff840086fa:	00e7d7b3          	srl	a5,a5,a4
ffffffff840086fe:	9d19                	subw	a0,a0,a4
ffffffff84008700:	1007b713          	sltiu	a4,a5,256
ffffffff84008704:	00174713          	xor	a4,a4,1
ffffffff84008708:	0037171b          	sllw	a4,a4,0x3
ffffffff8400870c:	00e7d7b3          	srl	a5,a5,a4
ffffffff84008710:	9d19                	subw	a0,a0,a4
ffffffff84008712:	0107b713          	sltiu	a4,a5,16
ffffffff84008716:	00174713          	xor	a4,a4,1
ffffffff8400871a:	0027171b          	sllw	a4,a4,0x2
ffffffff8400871e:	00e7d7b3          	srl	a5,a5,a4
ffffffff84008722:	9d19                	subw	a0,a0,a4
ffffffff84008724:	0047b713          	sltiu	a4,a5,4
ffffffff84008728:	00174713          	xor	a4,a4,1
ffffffff8400872c:	0017171b          	sllw	a4,a4,0x1
ffffffff84008730:	00e7d7b3          	srl	a5,a5,a4
ffffffff84008734:	9d19                	subw	a0,a0,a4
ffffffff84008736:	0027b713          	sltiu	a4,a5,2
ffffffff8400873a:	00174713          	xor	a4,a4,1
ffffffff8400873e:	9d19                	subw	a0,a0,a4
ffffffff84008740:	00e7d7b3          	srl	a5,a5,a4
ffffffff84008744:	9d1d                	subw	a0,a0,a5
ffffffff84008746:	8082                	ret

ffffffff84008748 <chooseThread>:
ffffffff84008748:	1101                	add	sp,sp,-32
ffffffff8400874a:	ec06                	sd	ra,24(sp)
ffffffff8400874c:	e822                	sd	s0,16(sp)
ffffffff8400874e:	e426                	sd	s1,8(sp)
ffffffff84008750:	8a81b483          	ld	s1,-1880(gp) # ffffffff84008cc0 <ksCurDomain>
ffffffff84008754:	00349713          	sll	a4,s1,0x3
ffffffff84008758:	c8818793          	add	a5,gp,-888 # ffffffff840090a0 <ksReadyQueuesL1Bitmap>
ffffffff8400875c:	97ba                	add	a5,a5,a4
ffffffff8400875e:	6388                	ld	a0,0(a5)
ffffffff84008760:	c539                	beqz	a0,ffffffff840087ae <chooseThread+0x66>
ffffffff84008762:	f71ff0ef          	jal	ffffffff840086d2 <__clzdi2>
ffffffff84008766:	842a                	mv	s0,a0
ffffffff84008768:	00249793          	sll	a5,s1,0x2
ffffffff8400876c:	fc450713          	add	a4,a0,-60
ffffffff84008770:	97ba                	add	a5,a5,a4
ffffffff84008772:	078e                	sll	a5,a5,0x3
ffffffff84008774:	a8818713          	add	a4,gp,-1400 # ffffffff84008ea0 <ksReadyQueuesL2Bitmap>
ffffffff84008778:	97ba                	add	a5,a5,a4
ffffffff8400877a:	6388                	ld	a0,0(a5)
ffffffff8400877c:	f57ff0ef          	jal	ffffffff840086d2 <__clzdi2>
ffffffff84008780:	03f00793          	li	a5,63
ffffffff84008784:	40878433          	sub	s0,a5,s0
ffffffff84008788:	041a                	sll	s0,s0,0x6
ffffffff8400878a:	8f89                	sub	a5,a5,a0
ffffffff8400878c:	8c5d                	or	s0,s0,a5
ffffffff8400878e:	04a2                	sll	s1,s1,0x8
ffffffff84008790:	94a2                	add	s1,s1,s0
ffffffff84008792:	0492                	sll	s1,s1,0x4
ffffffff84008794:	00002797          	auipc	a5,0x2
ffffffff84008798:	06c78793          	add	a5,a5,108 # ffffffff8400a800 <ksReadyQueues>
ffffffff8400879c:	97a6                	add	a5,a5,s1
ffffffff8400879e:	6388                	ld	a0,0(a5)
ffffffff840087a0:	f3efc0ef          	jal	ffffffff84004ede <switchToThread>
ffffffff840087a4:	60e2                	ld	ra,24(sp)
ffffffff840087a6:	6442                	ld	s0,16(sp)
ffffffff840087a8:	64a2                	ld	s1,8(sp)
ffffffff840087aa:	6105                	add	sp,sp,32
ffffffff840087ac:	8082                	ret
ffffffff840087ae:	99cfb0ef          	jal	ffffffff8400394a <switchToIdleThread>
ffffffff840087b2:	bfcd                	j	ffffffff840087a4 <chooseThread+0x5c>

ffffffff840087b4 <scheduleChooseNewThread>:
ffffffff840087b4:	1141                	add	sp,sp,-16
ffffffff840087b6:	e406                	sd	ra,8(sp)
ffffffff840087b8:	8a01b783          	ld	a5,-1888(gp) # ffffffff84008cb8 <ksDomainTime>
ffffffff840087bc:	c791                	beqz	a5,ffffffff840087c8 <scheduleChooseNewThread+0x14>
ffffffff840087be:	f8bff0ef          	jal	ffffffff84008748 <chooseThread>
ffffffff840087c2:	60a2                	ld	ra,8(sp)
ffffffff840087c4:	0141                	add	sp,sp,16
ffffffff840087c6:	8082                	ret
ffffffff840087c8:	8981b703          	ld	a4,-1896(gp) # ffffffff84008cb0 <ksDomScheduleIdx>
ffffffff840087cc:	0705                	add	a4,a4,1 # 10001 <KERNEL_OFFSET-0xfffffffefffeffff>
ffffffff840087ce:	4689                	li	a3,2
ffffffff840087d0:	00e6e363          	bltu	a3,a4,ffffffff840087d6 <scheduleChooseNewThread+0x22>
ffffffff840087d4:	87ba                	mv	a5,a4
ffffffff840087d6:	88f1bc23          	sd	a5,-1896(gp) # ffffffff84008cb0 <ksDomScheduleIdx>
ffffffff840087da:	a601b423          	sd	zero,-1432(gp) # ffffffff84008e80 <ksWorkUnitsCompleted>
ffffffff840087de:	0792                	sll	a5,a5,0x4
ffffffff840087e0:	00000717          	auipc	a4,0x0
ffffffff840087e4:	44070713          	add	a4,a4,1088 # ffffffff84008c20 <ksDomSchedule>
ffffffff840087e8:	97ba                	add	a5,a5,a4
ffffffff840087ea:	6398                	ld	a4,0(a5)
ffffffff840087ec:	8ae1b423          	sd	a4,-1880(gp) # ffffffff84008cc0 <ksCurDomain>
ffffffff840087f0:	679c                	ld	a5,8(a5)
ffffffff840087f2:	8af1b023          	sd	a5,-1888(gp) # ffffffff84008cb8 <ksDomainTime>
ffffffff840087f6:	b7e1                	j	ffffffff840087be <scheduleChooseNewThread+0xa>

ffffffff840087f8 <schedule>:
ffffffff840087f8:	a701b783          	ld	a5,-1424(gp) # ffffffff84008e88 <ksSchedulerAction>
ffffffff840087fc:	0e078763          	beqz	a5,ffffffff840088ea <schedule+0xf2>
ffffffff84008800:	7139                	add	sp,sp,-64
ffffffff84008802:	fc06                	sd	ra,56(sp)
ffffffff84008804:	f822                	sd	s0,48(sp)
ffffffff84008806:	f426                	sd	s1,40(sp)
ffffffff84008808:	f04a                	sd	s2,32(sp)
ffffffff8400880a:	ec4e                	sd	s3,24(sp)
ffffffff8400880c:	e852                	sd	s4,16(sp)
ffffffff8400880e:	e456                	sd	s5,8(sp)
ffffffff84008810:	a801b503          	ld	a0,-1408(gp) # ffffffff84008e98 <ksCurThread>
ffffffff84008814:	11853783          	ld	a5,280(a0)
ffffffff84008818:	8bbd                	and	a5,a5,15
ffffffff8400881a:	17fd                	add	a5,a5,-1
ffffffff8400881c:	4705                	li	a4,1
ffffffff8400881e:	4981                	li	s3,0
ffffffff84008820:	06f77f63          	bgeu	a4,a5,ffffffff8400889e <schedule+0xa6>
ffffffff84008824:	a701b403          	ld	s0,-1424(gp) # ffffffff84008e88 <ksSchedulerAction>
ffffffff84008828:	4785                	li	a5,1
ffffffff8400882a:	06f40e63          	beq	s0,a5,ffffffff840088a6 <schedule+0xae>
ffffffff8400882e:	a801ba03          	ld	s4,-1408(gp) # ffffffff84008e98 <ksCurThread>
ffffffff84008832:	a781b783          	ld	a5,-1416(gp) # ffffffff84008e90 <ksIdleThread>
ffffffff84008836:	00fa0863          	beq	s4,a5,ffffffff84008846 <schedule+0x4e>
ffffffff8400883a:	16843703          	ld	a4,360(s0)
ffffffff8400883e:	168a3783          	ld	a5,360(s4)
ffffffff84008842:	06f77563          	bgeu	a4,a5,ffffffff840088ac <schedule+0xb4>
ffffffff84008846:	8a81b483          	ld	s1,-1880(gp) # ffffffff84008cc0 <ksCurDomain>
ffffffff8400884a:	00349713          	sll	a4,s1,0x3
ffffffff8400884e:	c8818793          	add	a5,gp,-888 # ffffffff840090a0 <ksReadyQueuesL1Bitmap>
ffffffff84008852:	97ba                	add	a5,a5,a4
ffffffff84008854:	6388                	ld	a0,0(a5)
ffffffff84008856:	c939                	beqz	a0,ffffffff840088ac <schedule+0xb4>
ffffffff84008858:	16843a83          	ld	s5,360(s0)
ffffffff8400885c:	e77ff0ef          	jal	ffffffff840086d2 <__clzdi2>
ffffffff84008860:	892a                	mv	s2,a0
ffffffff84008862:	048a                	sll	s1,s1,0x2
ffffffff84008864:	fc450793          	add	a5,a0,-60
ffffffff84008868:	94be                	add	s1,s1,a5
ffffffff8400886a:	048e                	sll	s1,s1,0x3
ffffffff8400886c:	a8818793          	add	a5,gp,-1400 # ffffffff84008ea0 <ksReadyQueuesL2Bitmap>
ffffffff84008870:	97a6                	add	a5,a5,s1
ffffffff84008872:	6388                	ld	a0,0(a5)
ffffffff84008874:	e5fff0ef          	jal	ffffffff840086d2 <__clzdi2>
ffffffff84008878:	03f00793          	li	a5,63
ffffffff8400887c:	41278933          	sub	s2,a5,s2
ffffffff84008880:	091a                	sll	s2,s2,0x6
ffffffff84008882:	8f89                	sub	a5,a5,a0
ffffffff84008884:	00f96933          	or	s2,s2,a5
ffffffff84008888:	032af263          	bgeu	s5,s2,ffffffff840088ac <schedule+0xb4>
ffffffff8400888c:	8522                	mv	a0,s0
ffffffff8400888e:	850fc0ef          	jal	ffffffff840048de <tcbSchedEnqueue>
ffffffff84008892:	4785                	li	a5,1
ffffffff84008894:	a6f1b823          	sd	a5,-1424(gp) # ffffffff84008e88 <ksSchedulerAction>
ffffffff84008898:	f1dff0ef          	jal	ffffffff840087b4 <scheduleChooseNewThread>
ffffffff8400889c:	a01d                	j	ffffffff840088c2 <schedule+0xca>
ffffffff8400889e:	840fc0ef          	jal	ffffffff840048de <tcbSchedEnqueue>
ffffffff840088a2:	4985                	li	s3,1
ffffffff840088a4:	b741                	j	ffffffff84008824 <schedule+0x2c>
ffffffff840088a6:	f0fff0ef          	jal	ffffffff840087b4 <scheduleChooseNewThread>
ffffffff840088aa:	a821                	j	ffffffff840088c2 <schedule+0xca>
ffffffff840088ac:	00098863          	beqz	s3,ffffffff840088bc <schedule+0xc4>
ffffffff840088b0:	16843703          	ld	a4,360(s0)
ffffffff840088b4:	168a3783          	ld	a5,360(s4)
ffffffff840088b8:	02f70063          	beq	a4,a5,ffffffff840088d8 <schedule+0xe0>
ffffffff840088bc:	8522                	mv	a0,s0
ffffffff840088be:	e20fc0ef          	jal	ffffffff84004ede <switchToThread>
ffffffff840088c2:	a601b823          	sd	zero,-1424(gp) # ffffffff84008e88 <ksSchedulerAction>
ffffffff840088c6:	70e2                	ld	ra,56(sp)
ffffffff840088c8:	7442                	ld	s0,48(sp)
ffffffff840088ca:	74a2                	ld	s1,40(sp)
ffffffff840088cc:	7902                	ld	s2,32(sp)
ffffffff840088ce:	69e2                	ld	s3,24(sp)
ffffffff840088d0:	6a42                	ld	s4,16(sp)
ffffffff840088d2:	6aa2                	ld	s5,8(sp)
ffffffff840088d4:	6121                	add	sp,sp,64
ffffffff840088d6:	8082                	ret
ffffffff840088d8:	8522                	mv	a0,s0
ffffffff840088da:	c66fc0ef          	jal	ffffffff84004d40 <tcbSchedAppend>
ffffffff840088de:	4785                	li	a5,1
ffffffff840088e0:	a6f1b823          	sd	a5,-1424(gp) # ffffffff84008e88 <ksSchedulerAction>
ffffffff840088e4:	ed1ff0ef          	jal	ffffffff840087b4 <scheduleChooseNewThread>
ffffffff840088e8:	bfe9                	j	ffffffff840088c2 <schedule+0xca>
ffffffff840088ea:	a601b823          	sd	zero,-1424(gp) # ffffffff84008e88 <ksSchedulerAction>
ffffffff840088ee:	8082                	ret

ffffffff840088f0 <handleInterruptEntry>:
ffffffff840088f0:	1141                	add	sp,sp,-16
ffffffff840088f2:	e406                	sd	ra,8(sp)
ffffffff840088f4:	1681b503          	ld	a0,360(gp) # ffffffff84009580 <active_irq>
ffffffff840088f8:	fff50713          	add	a4,a0,-1
ffffffff840088fc:	03500793          	li	a5,53
ffffffff84008900:	02e7f463          	bgeu	a5,a4,ffffffff84008928 <handleInterruptEntry+0x38>
ffffffff84008904:	144027f3          	csrr	a5,sip
ffffffff84008908:	2007f713          	and	a4,a5,512
ffffffff8400890c:	cb05                	beqz	a4,ffffffff8400893c <handleInterruptEntry+0x4c>
ffffffff8400890e:	c04027b7          	lui	a5,0xc0402
ffffffff84008912:	43c8                	lw	a0,4(a5)
ffffffff84008914:	1502                	sll	a0,a0,0x20
ffffffff84008916:	9101                	srl	a0,a0,0x20
ffffffff84008918:	fff50713          	add	a4,a0,-1
ffffffff8400891c:	03500793          	li	a5,53
ffffffff84008920:	00e7e663          	bltu	a5,a4,ffffffff8400892c <handleInterruptEntry+0x3c>
ffffffff84008924:	16a1b423          	sd	a0,360(gp) # ffffffff84009580 <active_irq>
ffffffff84008928:	bbafd0ef          	jal	ffffffff84005ce2 <handleInterrupt>
ffffffff8400892c:	ecdff0ef          	jal	ffffffff840087f8 <schedule>
ffffffff84008930:	96cfc0ef          	jal	ffffffff84004a9c <activateThread>
ffffffff84008934:	4501                	li	a0,0
ffffffff84008936:	60a2                	ld	ra,8(sp)
ffffffff84008938:	0141                	add	sp,sp,16
ffffffff8400893a:	8082                	ret
ffffffff8400893c:	0207f793          	and	a5,a5,32
ffffffff84008940:	d7f5                	beqz	a5,ffffffff8400892c <handleInterruptEntry+0x3c>
ffffffff84008942:	03600513          	li	a0,54
ffffffff84008946:	bff9                	j	ffffffff84008924 <handleInterruptEntry+0x34>

ffffffff84008948 <handleUnknownSyscall>:
ffffffff84008948:	1141                	add	sp,sp,-16
ffffffff8400894a:	e406                	sd	ra,8(sp)
ffffffff8400894c:	d4818793          	add	a5,gp,-696 # ffffffff84009160 <current_fault>
ffffffff84008950:	4709                	li	a4,2
ffffffff84008952:	e398                	sd	a4,0(a5)
ffffffff84008954:	e788                	sd	a0,8(a5)
ffffffff84008956:	a801b503          	ld	a0,-1408(gp) # ffffffff84008e98 <ksCurThread>
ffffffff8400895a:	ad3fd0ef          	jal	ffffffff8400642c <handleFault>
ffffffff8400895e:	e9bff0ef          	jal	ffffffff840087f8 <schedule>
ffffffff84008962:	93afc0ef          	jal	ffffffff84004a9c <activateThread>
ffffffff84008966:	4501                	li	a0,0
ffffffff84008968:	60a2                	ld	ra,8(sp)
ffffffff8400896a:	0141                	add	sp,sp,16
ffffffff8400896c:	8082                	ret

ffffffff8400896e <handleUserLevelFault>:
ffffffff8400896e:	1141                	add	sp,sp,-16
ffffffff84008970:	e406                	sd	ra,8(sp)
ffffffff84008972:	d4818713          	add	a4,gp,-696 # ffffffff84009160 <current_fault>
ffffffff84008976:	0592                	sll	a1,a1,0x4
ffffffff84008978:	57fd                	li	a5,-1
ffffffff8400897a:	9381                	srl	a5,a5,0x20
ffffffff8400897c:	8dfd                	and	a1,a1,a5
ffffffff8400897e:	1502                	sll	a0,a0,0x20
ffffffff84008980:	8dc9                	or	a1,a1,a0
ffffffff84008982:	0035e593          	or	a1,a1,3
ffffffff84008986:	e30c                	sd	a1,0(a4)
ffffffff84008988:	00073423          	sd	zero,8(a4)
ffffffff8400898c:	a801b503          	ld	a0,-1408(gp) # ffffffff84008e98 <ksCurThread>
ffffffff84008990:	a9dfd0ef          	jal	ffffffff8400642c <handleFault>
ffffffff84008994:	e65ff0ef          	jal	ffffffff840087f8 <schedule>
ffffffff84008998:	904fc0ef          	jal	ffffffff84004a9c <activateThread>
ffffffff8400899c:	4501                	li	a0,0
ffffffff8400899e:	60a2                	ld	ra,8(sp)
ffffffff840089a0:	0141                	add	sp,sp,16
ffffffff840089a2:	8082                	ret

ffffffff840089a4 <handleVMFaultEvent>:
ffffffff840089a4:	1141                	add	sp,sp,-16
ffffffff840089a6:	e406                	sd	ra,8(sp)
ffffffff840089a8:	85aa                	mv	a1,a0
ffffffff840089aa:	a801b503          	ld	a0,-1408(gp) # ffffffff84008e98 <ksCurThread>
ffffffff840089ae:	c74fa0ef          	jal	ffffffff84002e22 <handleVMFault>
ffffffff840089b2:	e909                	bnez	a0,ffffffff840089c4 <handleVMFaultEvent+0x20>
ffffffff840089b4:	e45ff0ef          	jal	ffffffff840087f8 <schedule>
ffffffff840089b8:	8e4fc0ef          	jal	ffffffff84004a9c <activateThread>
ffffffff840089bc:	4501                	li	a0,0
ffffffff840089be:	60a2                	ld	ra,8(sp)
ffffffff840089c0:	0141                	add	sp,sp,16
ffffffff840089c2:	8082                	ret
ffffffff840089c4:	a801b503          	ld	a0,-1408(gp) # ffffffff84008e98 <ksCurThread>
ffffffff840089c8:	a65fd0ef          	jal	ffffffff8400642c <handleFault>
ffffffff840089cc:	b7e5                	j	ffffffff840089b4 <handleVMFaultEvent+0x10>

ffffffff840089ce <handleSyscall>:
ffffffff840089ce:	1141                	add	sp,sp,-16
ffffffff840089d0:	e406                	sd	ra,8(sp)
ffffffff840089d2:	e022                	sd	s0,0(sp)
ffffffff840089d4:	0521                	add	a0,a0,8
ffffffff840089d6:	479d                	li	a5,7
ffffffff840089d8:	14a7e863          	bltu	a5,a0,ffffffff84008b28 <handleSyscall+0x15a>
ffffffff840089dc:	050a                	sll	a0,a0,0x2
ffffffff840089de:	00001717          	auipc	a4,0x1
ffffffff840089e2:	e0a70713          	add	a4,a4,-502 # ffffffff840097e8 <platform_interrupt_t+0x260>
ffffffff840089e6:	953a                	add	a0,a0,a4
ffffffff840089e8:	411c                	lw	a5,0(a0)
ffffffff840089ea:	97ba                	add	a5,a5,a4
ffffffff840089ec:	8782                	jr	a5
ffffffff840089ee:	4585                	li	a1,1
ffffffff840089f0:	4501                	li	a0,0
ffffffff840089f2:	aa9ff0ef          	jal	ffffffff8400849a <handleInvocation>
ffffffff840089f6:	0e050863          	beqz	a0,ffffffff84008ae6 <handleSyscall+0x118>
ffffffff840089fa:	1681b503          	ld	a0,360(gp) # ffffffff84009580 <active_irq>
ffffffff840089fe:	fff50713          	add	a4,a0,-1
ffffffff84008a02:	03500793          	li	a5,53
ffffffff84008a06:	02e7f463          	bgeu	a5,a4,ffffffff84008a2e <handleSyscall+0x60>
ffffffff84008a0a:	144027f3          	csrr	a5,sip
ffffffff84008a0e:	2007f713          	and	a4,a5,512
ffffffff84008a12:	c30d                	beqz	a4,ffffffff84008a34 <handleSyscall+0x66>
ffffffff84008a14:	c04027b7          	lui	a5,0xc0402
ffffffff84008a18:	43c8                	lw	a0,4(a5)
ffffffff84008a1a:	1502                	sll	a0,a0,0x20
ffffffff84008a1c:	9101                	srl	a0,a0,0x20
ffffffff84008a1e:	fff50713          	add	a4,a0,-1
ffffffff84008a22:	03500793          	li	a5,53
ffffffff84008a26:	0ce7e063          	bltu	a5,a4,ffffffff84008ae6 <handleSyscall+0x118>
ffffffff84008a2a:	16a1b423          	sd	a0,360(gp) # ffffffff84009580 <active_irq>
ffffffff84008a2e:	ab4fd0ef          	jal	ffffffff84005ce2 <handleInterrupt>
ffffffff84008a32:	a855                	j	ffffffff84008ae6 <handleSyscall+0x118>
ffffffff84008a34:	0207f793          	and	a5,a5,32
ffffffff84008a38:	c7dd                	beqz	a5,ffffffff84008ae6 <handleSyscall+0x118>
ffffffff84008a3a:	03600513          	li	a0,54
ffffffff84008a3e:	b7f5                	j	ffffffff84008a2a <handleSyscall+0x5c>
ffffffff84008a40:	4581                	li	a1,0
ffffffff84008a42:	4501                	li	a0,0
ffffffff84008a44:	a57ff0ef          	jal	ffffffff8400849a <handleInvocation>
ffffffff84008a48:	cd59                	beqz	a0,ffffffff84008ae6 <handleSyscall+0x118>
ffffffff84008a4a:	1681b503          	ld	a0,360(gp) # ffffffff84009580 <active_irq>
ffffffff84008a4e:	fff50713          	add	a4,a0,-1
ffffffff84008a52:	03500793          	li	a5,53
ffffffff84008a56:	02e7f463          	bgeu	a5,a4,ffffffff84008a7e <handleSyscall+0xb0>
ffffffff84008a5a:	144027f3          	csrr	a5,sip
ffffffff84008a5e:	2007f713          	and	a4,a5,512
ffffffff84008a62:	c30d                	beqz	a4,ffffffff84008a84 <handleSyscall+0xb6>
ffffffff84008a64:	c04027b7          	lui	a5,0xc0402
ffffffff84008a68:	43c8                	lw	a0,4(a5)
ffffffff84008a6a:	1502                	sll	a0,a0,0x20
ffffffff84008a6c:	9101                	srl	a0,a0,0x20
ffffffff84008a6e:	fff50713          	add	a4,a0,-1
ffffffff84008a72:	03500793          	li	a5,53
ffffffff84008a76:	06e7e863          	bltu	a5,a4,ffffffff84008ae6 <handleSyscall+0x118>
ffffffff84008a7a:	16a1b423          	sd	a0,360(gp) # ffffffff84009580 <active_irq>
ffffffff84008a7e:	a64fd0ef          	jal	ffffffff84005ce2 <handleInterrupt>
ffffffff84008a82:	a095                	j	ffffffff84008ae6 <handleSyscall+0x118>
ffffffff84008a84:	0207f793          	and	a5,a5,32
ffffffff84008a88:	cfb9                	beqz	a5,ffffffff84008ae6 <handleSyscall+0x118>
ffffffff84008a8a:	03600513          	li	a0,54
ffffffff84008a8e:	b7f5                	j	ffffffff84008a7a <handleSyscall+0xac>
ffffffff84008a90:	4585                	li	a1,1
ffffffff84008a92:	4505                	li	a0,1
ffffffff84008a94:	a07ff0ef          	jal	ffffffff8400849a <handleInvocation>
ffffffff84008a98:	c539                	beqz	a0,ffffffff84008ae6 <handleSyscall+0x118>
ffffffff84008a9a:	1681b503          	ld	a0,360(gp) # ffffffff84009580 <active_irq>
ffffffff84008a9e:	fff50713          	add	a4,a0,-1
ffffffff84008aa2:	03500793          	li	a5,53
ffffffff84008aa6:	02e7f463          	bgeu	a5,a4,ffffffff84008ace <handleSyscall+0x100>
ffffffff84008aaa:	144027f3          	csrr	a5,sip
ffffffff84008aae:	2007f713          	and	a4,a5,512
ffffffff84008ab2:	c30d                	beqz	a4,ffffffff84008ad4 <handleSyscall+0x106>
ffffffff84008ab4:	c04027b7          	lui	a5,0xc0402
ffffffff84008ab8:	43c8                	lw	a0,4(a5)
ffffffff84008aba:	1502                	sll	a0,a0,0x20
ffffffff84008abc:	9101                	srl	a0,a0,0x20
ffffffff84008abe:	fff50713          	add	a4,a0,-1
ffffffff84008ac2:	03500793          	li	a5,53
ffffffff84008ac6:	02e7e063          	bltu	a5,a4,ffffffff84008ae6 <handleSyscall+0x118>
ffffffff84008aca:	16a1b423          	sd	a0,360(gp) # ffffffff84009580 <active_irq>
ffffffff84008ace:	a14fd0ef          	jal	ffffffff84005ce2 <handleInterrupt>
ffffffff84008ad2:	a811                	j	ffffffff84008ae6 <handleSyscall+0x118>
ffffffff84008ad4:	0207f793          	and	a5,a5,32
ffffffff84008ad8:	c799                	beqz	a5,ffffffff84008ae6 <handleSyscall+0x118>
ffffffff84008ada:	03600513          	li	a0,54
ffffffff84008ade:	b7f5                	j	ffffffff84008aca <handleSyscall+0xfc>
ffffffff84008ae0:	4505                	li	a0,1
ffffffff84008ae2:	b25fd0ef          	jal	ffffffff84006606 <handleRecv>
ffffffff84008ae6:	d13ff0ef          	jal	ffffffff840087f8 <schedule>
ffffffff84008aea:	fb3fb0ef          	jal	ffffffff84004a9c <activateThread>
ffffffff84008aee:	4501                	li	a0,0
ffffffff84008af0:	60a2                	ld	ra,8(sp)
ffffffff84008af2:	6402                	ld	s0,0(sp)
ffffffff84008af4:	0141                	add	sp,sp,16
ffffffff84008af6:	8082                	ret
ffffffff84008af8:	e9afd0ef          	jal	ffffffff84006192 <handleReply>
ffffffff84008afc:	b7ed                	j	ffffffff84008ae6 <handleSyscall+0x118>
ffffffff84008afe:	e94fd0ef          	jal	ffffffff84006192 <handleReply>
ffffffff84008b02:	4505                	li	a0,1
ffffffff84008b04:	b03fd0ef          	jal	ffffffff84006606 <handleRecv>
ffffffff84008b08:	bff9                	j	ffffffff84008ae6 <handleSyscall+0x118>
ffffffff84008b0a:	4501                	li	a0,0
ffffffff84008b0c:	afbfd0ef          	jal	ffffffff84006606 <handleRecv>
ffffffff84008b10:	bfd9                	j	ffffffff84008ae6 <handleSyscall+0x118>
ffffffff84008b12:	a8018413          	add	s0,gp,-1408 # ffffffff84008e98 <ksCurThread>
ffffffff84008b16:	6008                	ld	a0,0(s0)
ffffffff84008b18:	b06fc0ef          	jal	ffffffff84004e1e <tcbSchedDequeue>
ffffffff84008b1c:	6008                	ld	a0,0(s0)
ffffffff84008b1e:	a22fc0ef          	jal	ffffffff84004d40 <tcbSchedAppend>
ffffffff84008b22:	e51fb0ef          	jal	ffffffff84004972 <rescheduleRequired>
ffffffff84008b26:	b7c1                	j	ffffffff84008ae6 <handleSyscall+0x118>
ffffffff84008b28:	d29f90ef          	jal	ffffffff84002850 <halt>

ffffffff84008b2c <slowpath>:
ffffffff84008b2c:	1141                	add	sp,sp,-16
ffffffff84008b2e:	e406                	sd	ra,8(sp)
ffffffff84008b30:	57dd                	li	a5,-9
ffffffff84008b32:	00a7f663          	bgeu	a5,a0,ffffffff84008b3e <slowpath+0x12>
ffffffff84008b36:	e99ff0ef          	jal	ffffffff840089ce <handleSyscall>
ffffffff84008b3a:	dacf90ef          	jal	ffffffff840020e6 <restore_user_context>
ffffffff84008b3e:	e0bff0ef          	jal	ffffffff84008948 <handleUnknownSyscall>
ffffffff84008b42:	bfe5                	j	ffffffff84008b3a <slowpath+0xe>

ffffffff84008b44 <isHighestPrio>:
ffffffff84008b44:	1101                	add	sp,sp,-32
ffffffff84008b46:	ec06                	sd	ra,24(sp)
ffffffff84008b48:	e822                	sd	s0,16(sp)
ffffffff84008b4a:	e426                	sd	s1,8(sp)
ffffffff84008b4c:	e04a                	sd	s2,0(sp)
ffffffff84008b4e:	842a                	mv	s0,a0
ffffffff84008b50:	00351713          	sll	a4,a0,0x3
ffffffff84008b54:	c8818793          	add	a5,gp,-888 # ffffffff840090a0 <ksReadyQueuesL1Bitmap>
ffffffff84008b58:	97ba                	add	a5,a5,a4
ffffffff84008b5a:	6388                	ld	a0,0(a5)
ffffffff84008b5c:	c139                	beqz	a0,ffffffff84008ba2 <isHighestPrio+0x5e>
ffffffff84008b5e:	84ae                	mv	s1,a1
ffffffff84008b60:	b73ff0ef          	jal	ffffffff840086d2 <__clzdi2>
ffffffff84008b64:	892a                	mv	s2,a0
ffffffff84008b66:	040a                	sll	s0,s0,0x2
ffffffff84008b68:	fc450793          	add	a5,a0,-60
ffffffff84008b6c:	943e                	add	s0,s0,a5
ffffffff84008b6e:	040e                	sll	s0,s0,0x3
ffffffff84008b70:	a8818793          	add	a5,gp,-1400 # ffffffff84008ea0 <ksReadyQueuesL2Bitmap>
ffffffff84008b74:	97a2                	add	a5,a5,s0
ffffffff84008b76:	6388                	ld	a0,0(a5)
ffffffff84008b78:	b5bff0ef          	jal	ffffffff840086d2 <__clzdi2>
ffffffff84008b7c:	03f00793          	li	a5,63
ffffffff84008b80:	41278933          	sub	s2,a5,s2
ffffffff84008b84:	091a                	sll	s2,s2,0x6
ffffffff84008b86:	8f89                	sub	a5,a5,a0
ffffffff84008b88:	00f96933          	or	s2,s2,a5
ffffffff84008b8c:	0124b533          	sltu	a0,s1,s2
ffffffff84008b90:	00154513          	xor	a0,a0,1
ffffffff84008b94:	2501                	sext.w	a0,a0
ffffffff84008b96:	60e2                	ld	ra,24(sp)
ffffffff84008b98:	6442                	ld	s0,16(sp)
ffffffff84008b9a:	64a2                	ld	s1,8(sp)
ffffffff84008b9c:	6902                	ld	s2,0(sp)
ffffffff84008b9e:	6105                	add	sp,sp,32
ffffffff84008ba0:	8082                	ret
ffffffff84008ba2:	4505                	li	a0,1
ffffffff84008ba4:	bfcd                	j	ffffffff84008b96 <isHighestPrio+0x52>

ffffffff84008ba6 <__ctzdi2>:
ffffffff84008ba6:	00153713          	seqz	a4,a0
ffffffff84008baa:	02051693          	sll	a3,a0,0x20
ffffffff84008bae:	9281                	srl	a3,a3,0x20
ffffffff84008bb0:	0016b693          	seqz	a3,a3
ffffffff84008bb4:	0056969b          	sllw	a3,a3,0x5
ffffffff84008bb8:	00d557b3          	srl	a5,a0,a3
ffffffff84008bbc:	00d7053b          	addw	a0,a4,a3
ffffffff84008bc0:	03079713          	sll	a4,a5,0x30
ffffffff84008bc4:	9341                	srl	a4,a4,0x30
ffffffff84008bc6:	00173713          	seqz	a4,a4
ffffffff84008bca:	0047171b          	sllw	a4,a4,0x4
ffffffff84008bce:	00e7d7b3          	srl	a5,a5,a4
ffffffff84008bd2:	9d39                	addw	a0,a0,a4
ffffffff84008bd4:	0ff7f713          	zext.b	a4,a5
ffffffff84008bd8:	00173713          	seqz	a4,a4
ffffffff84008bdc:	0037171b          	sllw	a4,a4,0x3
ffffffff84008be0:	00e7d7b3          	srl	a5,a5,a4
ffffffff84008be4:	9d39                	addw	a0,a0,a4
ffffffff84008be6:	00f7f713          	and	a4,a5,15
ffffffff84008bea:	00173713          	seqz	a4,a4
ffffffff84008bee:	0027171b          	sllw	a4,a4,0x2
ffffffff84008bf2:	00e7d7b3          	srl	a5,a5,a4
ffffffff84008bf6:	9d39                	addw	a0,a0,a4
ffffffff84008bf8:	0037f713          	and	a4,a5,3
ffffffff84008bfc:	00173713          	seqz	a4,a4
ffffffff84008c00:	0017171b          	sllw	a4,a4,0x1
ffffffff84008c04:	9d39                	addw	a0,a0,a4
ffffffff84008c06:	00e7d7b3          	srl	a5,a5,a4
ffffffff84008c0a:	0017c793          	xor	a5,a5,1
ffffffff84008c0e:	8b85                	and	a5,a5,1
ffffffff84008c10:	9d3d                	addw	a0,a0,a5
ffffffff84008c12:	8082                	ret
