
/nix/store/5dw32mk0q0qqdj2jfzai853zci9k36lq-kernel/kernel.elf:     file format elf32-littlearm


Disassembly of section .boot:

e0000000 <_start>:
e0000000:	e8bd0180 	pop	{r7, r8}
e0000004:	e59f5040 	ldr	r5, [pc, #64]	@ e000004c <_start+0x4c>
e0000008:	e129f005 	msr	CPSR_fc, r5
e000000c:	ee114f10 	mrc	15, 0, r4, cr1, cr0, {0}
e0000010:	e59f5038 	ldr	r5, [pc, #56]	@ e0000050 <_start+0x50>
e0000014:	e59f6038 	ldr	r6, [pc, #56]	@ e0000054 <_start+0x54>
e0000018:	e1844005 	orr	r4, r4, r5
e000001c:	e1c44006 	bic	r4, r4, r6
e0000020:	ee014f10 	mcr	15, 0, r4, cr1, cr0, {0}
e0000024:	e59fd02c 	ldr	sp, [pc, #44]	@ e0000058 <_start+0x58>
e0000028:	e92d018f 	push	{r0, r1, r2, r3, r7, r8}
e000002c:	eb000155 	bl	e0000588 <arm_errata>
e0000030:	e8bd018f 	pop	{r0, r1, r2, r3, r7, r8}
e0000034:	f1020017 	cps	#23
e0000038:	e59fd01c 	ldr	sp, [pc, #28]	@ e000005c <_start+0x5c>
e000003c:	f1020013 	cps	#19
e0000040:	e92d0180 	push	{r7, r8}
e0000044:	eb0006fa 	bl	e0001c34 <init_kernel>
e0000048:	ea00422a 	b	e00108f8 <restore_user_context>
e000004c:	000001d3 	.word	0x000001d3
e0000050:	00c03805 	.word	0x00c03805
e0000054:	33004382 	.word	0x33004382
e0000058:	e0027000 	.word	0xe0027000
e000005c:	e0028001 	.word	0xe0028001

e0000060 <dist_init>:
e0000060:	e30130ff 	movw	r3, #4351	@ 0x10ff
e0000064:	e34f3ff0 	movt	r3, #65520	@ 0xfff0
e0000068:	e51320fb 	ldr	r2, [r3, #-251]	@ 0xffffff05
e000006c:	e202201f 	and	r2, r2, #31
e0000070:	e2822001 	add	r2, r2, #1
e0000074:	e1a02282 	lsl	r2, r2, #5
e0000078:	e3a01000 	mov	r1, #0
e000007c:	e50310ff 	str	r1, [r3, #-255]	@ 0xffffff01
e0000080:	e3e00000 	mvn	r0, #0
e0000084:	e1a032a1 	lsr	r3, r1, #5
e0000088:	e1a03103 	lsl	r3, r3, #2
e000008c:	e2433aff 	sub	r3, r3, #1044480	@ 0xff000
e0000090:	e5830180 	str	r0, [r3, #384]	@ 0x180
e0000094:	e5830280 	str	r0, [r3, #640]	@ 0x280
e0000098:	e2811020 	add	r1, r1, #32
e000009c:	e1520001 	cmp	r2, r1
e00000a0:	8afffff7 	bhi	e0000084 <dist_init+0x24>
e00000a4:	e3520020 	cmp	r2, #32
e00000a8:	9a00000a 	bls	e00000d8 <dist_init+0x78>
e00000ac:	e3a01020 	mov	r1, #32
e00000b0:	e30100ff 	movw	r0, #4351	@ 0x10ff
e00000b4:	e34f0ff0 	movt	r0, #65520	@ 0xfff0
e00000b8:	e3a0c000 	mov	ip, #0
e00000bc:	e3c13003 	bic	r3, r1, #3
e00000c0:	e2833b01 	add	r3, r3, #1024	@ 0x400
e00000c4:	e0803003 	add	r3, r0, r3
e00000c8:	e503c0ff 	str	ip, [r3, #-255]	@ 0xffffff01
e00000cc:	e2811004 	add	r1, r1, #4
e00000d0:	e1520001 	cmp	r2, r1
e00000d4:	8afffff8 	bhi	e00000bc <dist_init+0x5c>
e00000d8:	e3a01000 	mov	r1, #0
e00000dc:	e30100ff 	movw	r0, #4351	@ 0x10ff
e00000e0:	e34f0ff0 	movt	r0, #65520	@ 0xfff0
e00000e4:	e3c13003 	bic	r3, r1, #3
e00000e8:	e2833b02 	add	r3, r3, #2048	@ 0x800
e00000ec:	e0803003 	add	r3, r0, r3
e00000f0:	e51330ff 	ldr	r3, [r3, #-255]	@ 0xffffff01
e00000f4:	e1833823 	orr	r3, r3, r3, lsr #16
e00000f8:	e1933423 	orrs	r3, r3, r3, lsr #8
e00000fc:	1a000002 	bne	e000010c <dist_init+0xac>
e0000100:	e2811004 	add	r1, r1, #4
e0000104:	e1520001 	cmp	r2, r1
e0000108:	8afffff5 	bhi	e00000e4 <dist_init+0x84>
e000010c:	e3530001 	cmp	r3, #1
e0000110:	33a03001 	movcc	r3, #1
e0000114:	e6ef3073 	uxtb	r3, r3
e0000118:	e1a01803 	lsl	r1, r3, #16
e000011c:	e1811403 	orr	r1, r1, r3, lsl #8
e0000120:	e1811003 	orr	r1, r1, r3
e0000124:	e1813c03 	orr	r3, r1, r3, lsl #24
e0000128:	e3a00000 	mov	r0, #0
e000012c:	e301c0ff 	movw	ip, #4351	@ 0x10ff
e0000130:	e34fcff0 	movt	ip, #65520	@ 0xfff0
e0000134:	e3c01003 	bic	r1, r0, #3
e0000138:	e2811b02 	add	r1, r1, #2048	@ 0x800
e000013c:	e08c1001 	add	r1, ip, r1
e0000140:	e50130ff 	str	r3, [r1, #-255]	@ 0xffffff01
e0000144:	e2800004 	add	r0, r0, #4
e0000148:	e1520000 	cmp	r2, r0
e000014c:	8afffff8 	bhi	e0000134 <dist_init+0xd4>
e0000150:	e3520040 	cmp	r2, #64	@ 0x40
e0000154:	9a00000b 	bls	e0000188 <dist_init+0x128>
e0000158:	e3a01040 	mov	r1, #64	@ 0x40
e000015c:	e301c0ff 	movw	ip, #4351	@ 0x10ff
e0000160:	e34fcff0 	movt	ip, #65520	@ 0xfff0
e0000164:	e1a032a1 	lsr	r3, r1, #5
e0000168:	e2833c03 	add	r3, r3, #768	@ 0x300
e000016c:	e08c3103 	add	r3, ip, r3, lsl #2
e0000170:	e3050555 	movw	r0, #21845	@ 0x5555
e0000174:	e7df0810 	bfi	r0, r0, #16, #16
e0000178:	e50300ff 	str	r0, [r3, #-255]	@ 0xffffff01
e000017c:	e2811020 	add	r1, r1, #32
e0000180:	e1520001 	cmp	r2, r1
e0000184:	8afffff6 	bhi	e0000164 <dist_init+0x104>
e0000188:	e3a01000 	mov	r1, #0
e000018c:	e30100ff 	movw	r0, #4351	@ 0x10ff
e0000190:	e34f0ff0 	movt	r0, #65520	@ 0xfff0
e0000194:	e1a0c001 	mov	ip, r1
e0000198:	e1a032a1 	lsr	r3, r1, #5
e000019c:	e2833020 	add	r3, r3, #32
e00001a0:	e0803103 	add	r3, r0, r3, lsl #2
e00001a4:	e503c0ff 	str	ip, [r3, #-255]	@ 0xffffff01
e00001a8:	e2811020 	add	r1, r1, #32
e00001ac:	e1520001 	cmp	r2, r1
e00001b0:	8afffff8 	bhi	e0000198 <dist_init+0x138>
e00001b4:	e30130ff 	movw	r3, #4351	@ 0x10ff
e00001b8:	e34f3ff0 	movt	r3, #65520	@ 0xfff0
e00001bc:	e3a02001 	mov	r2, #1
e00001c0:	e50320ff 	str	r2, [r3, #-255]	@ 0xffffff01
e00001c4:	e12fff1e 	bx	lr

e00001c8 <cpu_iface_init>:
e00001c8:	e30130ff 	movw	r3, #4351	@ 0x10ff
e00001cc:	e34f3ff0 	movt	r3, #65520	@ 0xfff0
e00001d0:	e3e02000 	mvn	r2, #0
e00001d4:	e5832081 	str	r2, [r3, #129]	@ 0x81
e00001d8:	e5832181 	str	r2, [r3, #385]	@ 0x181
e00001dc:	e3a01000 	mov	r1, #0
e00001e0:	e503107f 	str	r1, [r3, #-127]	@ 0xffffff81
e00001e4:	e5831301 	str	r1, [r3, #769]	@ 0x301
e00001e8:	e5832e11 	str	r2, [r3, #3601]	@ 0xe11
e00001ec:	e5832e15 	str	r2, [r3, #3605]	@ 0xe15
e00001f0:	e5832e19 	str	r2, [r3, #3609]	@ 0xe19
e00001f4:	e5832e1d 	str	r2, [r3, #3613]	@ 0xe1d
e00001f8:	e30231ff 	movw	r3, #8703	@ 0x21ff
e00001fc:	e34f3ff0 	movt	r3, #65520	@ 0xfff0
e0000200:	e50310ff 	str	r1, [r3, #-255]	@ 0xffffff01
e0000204:	e3a020f0 	mov	r2, #240	@ 0xf0
e0000208:	e50320fb 	str	r2, [r3, #-251]	@ 0xffffff05
e000020c:	e3a02003 	mov	r2, #3
e0000210:	e50320f7 	str	r2, [r3, #-247]	@ 0xffffff09
e0000214:	e51330f3 	ldr	r3, [r3, #-243]	@ 0xffffff0d
e0000218:	e7e91053 	ubfx	r1, r3, #0, #10
e000021c:	e30023ff 	movw	r2, #1023	@ 0x3ff
e0000220:	e1510002 	cmp	r1, r2
e0000224:	0a000007 	beq	e0000248 <cpu_iface_init+0x80>
e0000228:	e30221ff 	movw	r2, #8703	@ 0x21ff
e000022c:	e34f2ff0 	movt	r2, #65520	@ 0xfff0
e0000230:	e30003ff 	movw	r0, #1023	@ 0x3ff
e0000234:	e50230ef 	str	r3, [r2, #-239]	@ 0xffffff11
e0000238:	e51230f3 	ldr	r3, [r2, #-243]	@ 0xffffff0d
e000023c:	e7e91053 	ubfx	r1, r3, #0, #10
e0000240:	e1510000 	cmp	r1, r0
e0000244:	1afffffa 	bne	e0000234 <cpu_iface_init+0x6c>
e0000248:	e30231ff 	movw	r3, #8703	@ 0x21ff
e000024c:	e34f3ff0 	movt	r3, #65520	@ 0xfff0
e0000250:	e3a02001 	mov	r2, #1
e0000254:	e50320ff 	str	r2, [r3, #-255]	@ 0xffffff01
e0000258:	e12fff1e 	bx	lr

e000025c <merge_regions>:
e000025c:	e92d4010 	push	{r4, lr}
e0000260:	e30b3600 	movw	r3, #46592	@ 0xb600
e0000264:	e34e3001 	movt	r3, #57345	@ 0xe001
e0000268:	e5934058 	ldr	r4, [r3, #88]	@ 0x58
e000026c:	e3540001 	cmp	r4, #1
e0000270:	98bd8010 	popls	{r4, pc}
e0000274:	e3a0c001 	mov	ip, #1
e0000278:	e1a0e003 	mov	lr, r3
e000027c:	ea000004 	b	e0000294 <merge_regions+0x38>
e0000280:	e2444001 	sub	r4, r4, #1
e0000284:	e58e4058 	str	r4, [lr, #88]	@ 0x58
e0000288:	e59e4058 	ldr	r4, [lr, #88]	@ 0x58
e000028c:	e15c0004 	cmp	ip, r4
e0000290:	28bd8010 	popcs	{r4, pc}
e0000294:	e24c3001 	sub	r3, ip, #1
e0000298:	e08e2183 	add	r2, lr, r3, lsl #3
e000029c:	e5921004 	ldr	r1, [r2, #4]
e00002a0:	e79e218c 	ldr	r2, [lr, ip, lsl #3]
e00002a4:	e1510002 	cmp	r1, r2
e00002a8:	128cc001 	addne	ip, ip, #1
e00002ac:	1afffff5 	bne	e0000288 <merge_regions+0x2c>
e00002b0:	e08e218c 	add	r2, lr, ip, lsl #3
e00002b4:	e5922004 	ldr	r2, [r2, #4]
e00002b8:	e08e3183 	add	r3, lr, r3, lsl #3
e00002bc:	e5832004 	str	r2, [r3, #4]
e00002c0:	e28c2001 	add	r2, ip, #1
e00002c4:	e1520004 	cmp	r2, r4
e00002c8:	2affffec 	bcs	e0000280 <merge_regions+0x24>
e00002cc:	e08e3182 	add	r3, lr, r2, lsl #3
e00002d0:	e8930003 	ldm	r3, {r0, r1}
e00002d4:	e9030003 	stmdb	r3, {r0, r1}
e00002d8:	e2822001 	add	r2, r2, #1
e00002dc:	e1520004 	cmp	r2, r4
e00002e0:	1afffff9 	bne	e00002cc <merge_regions+0x70>
e00002e4:	eaffffe5 	b	e0000280 <merge_regions+0x24>

e00002e8 <Arch_configureIdleThread>:
e00002e8:	e300315f 	movw	r3, #351	@ 0x15f
e00002ec:	e5803040 	str	r3, [r0, #64]	@ 0x40
e00002f0:	e300381c 	movw	r3, #2076	@ 0x81c
e00002f4:	e34e3001 	movt	r3, #57345	@ 0xe001
e00002f8:	e580303c 	str	r3, [r0, #60]	@ 0x3c
e00002fc:	e12fff1e 	bx	lr

e0000300 <map_kernel_frame>:
e0000300:	e92d4070 	push	{r4, r5, r6, lr}
e0000304:	e1a05000 	mov	r5, r0
e0000308:	e7e74651 	ubfx	r4, r1, #12, #8
e000030c:	e2136001 	ands	r6, r3, #1
e0000310:	13a06005 	movne	r6, #5
e0000314:	e1a00002 	mov	r0, r2
e0000318:	eb004218 	bl	e0010b80 <APFromVMRights>
e000031c:	e30c2000 	movw	r2, #49152	@ 0xc000
e0000320:	e34e2002 	movt	r2, #57346	@ 0xe002
e0000324:	e1a03200 	lsl	r3, r0, #4
e0000328:	e2033030 	and	r3, r3, #48	@ 0x30
e000032c:	e3c50eff 	bic	r0, r5, #4080	@ 0xff0
e0000330:	e3c0000f 	bic	r0, r0, #15
e0000334:	e1833000 	orr	r3, r3, r0
e0000338:	e1833306 	orr	r3, r3, r6, lsl #6
e000033c:	e3833006 	orr	r3, r3, #6
e0000340:	e7823104 	str	r3, [r2, r4, lsl #2]
e0000344:	e8bd8070 	pop	{r4, r5, r6, pc}

e0000348 <arch_get_n_paging>:
e0000348:	e24dd008 	sub	sp, sp, #8
e000034c:	e28d3008 	add	r3, sp, #8
e0000350:	e9030003 	stmdb	r3, {r0, r1}
e0000354:	e2410001 	sub	r0, r1, #1
e0000358:	e1a00a20 	lsr	r0, r0, #20
e000035c:	e1a00a00 	lsl	r0, r0, #20
e0000360:	e2800601 	add	r0, r0, #1048576	@ 0x100000
e0000364:	e59d3000 	ldr	r3, [sp]
e0000368:	e1a03a23 	lsr	r3, r3, #20
e000036c:	e1a03a03 	lsl	r3, r3, #20
e0000370:	e0400003 	sub	r0, r0, r3
e0000374:	e1a00a20 	lsr	r0, r0, #20
e0000378:	e28dd008 	add	sp, sp, #8
e000037c:	e12fff1e 	bx	lr

e0000380 <create_unmapped_it_frame_cap>:
e0000380:	e3520000 	cmp	r2, #0
e0000384:	0a000008 	beq	e00003ac <create_unmapped_it_frame_cap+0x2c>
e0000388:	e1a01521 	lsr	r1, r1, #10
e000038c:	e3c112ff 	bic	r1, r1, #-268435441	@ 0xf000000f
e0000390:	e3c1153f 	bic	r1, r1, #264241152	@ 0xfc00000
e0000394:	e3811003 	orr	r1, r1, #3
e0000398:	e5801000 	str	r1, [r0]
e000039c:	e3a03000 	mov	r3, #0
e00003a0:	e348300c 	movt	r3, #32780	@ 0x800c
e00003a4:	e5803004 	str	r3, [r0, #4]
e00003a8:	e12fff1e 	bx	lr
e00003ac:	e1a01421 	lsr	r1, r1, #8
e00003b0:	e3c1100f 	bic	r1, r1, #15
e00003b4:	e3811001 	orr	r1, r1, #1
e00003b8:	e5801000 	str	r1, [r0]
e00003bc:	e3a03603 	mov	r3, #3145728	@ 0x300000
e00003c0:	e5803004 	str	r3, [r0, #4]
e00003c4:	e12fff1e 	bx	lr

e00003c8 <create_mapped_it_frame_cap>:
e00003c8:	e92d43f0 	push	{r4, r5, r6, r7, r8, r9, lr}
e00003cc:	e24dd00c 	sub	sp, sp, #12
e00003d0:	e1a07000 	mov	r7, r0
e00003d4:	e28d0008 	add	r0, sp, #8
e00003d8:	e9000006 	stmdb	r0, {r1, r2}
e00003dc:	e59d2028 	ldr	r2, [sp, #40]	@ 0x28
e00003e0:	e59d102c 	ldr	r1, [sp, #44]	@ 0x2c
e00003e4:	e59d0030 	ldr	r0, [sp, #48]	@ 0x30
e00003e8:	e3500000 	cmp	r0, #0
e00003ec:	0a000016 	beq	e000044c <create_mapped_it_frame_cap+0x84>
e00003f0:	e1a04601 	lsl	r4, r1, #12
e00003f4:	e204457f 	and	r4, r4, #532676608	@ 0x1fc00000
e00003f8:	e1a03523 	lsr	r3, r3, #10
e00003fc:	e3c332ff 	bic	r3, r3, #-268435441	@ 0xf000000f
e0000400:	e3c3353f 	bic	r3, r3, #264241152	@ 0xfc00000
e0000404:	e1843003 	orr	r3, r4, r3
e0000408:	e3834003 	orr	r4, r3, #3
e000040c:	e3a03000 	mov	r3, #0
e0000410:	e3433ff0 	movt	r3, #16368	@ 0x3ff0
e0000414:	e0035a01 	and	r5, r3, r1, lsl #20
e0000418:	e1855722 	orr	r5, r5, r2, lsr #14
e000041c:	e3855102 	orr	r5, r5, #-2147483648	@ 0x80000000
e0000420:	e3855703 	orr	r5, r5, #786432	@ 0xc0000
e0000424:	e59d2000 	ldr	r2, [sp]
e0000428:	e3c22dff 	bic	r2, r2, #16320	@ 0x3fc0
e000042c:	e3c2203f 	bic	r2, r2, #63	@ 0x3f
e0000430:	e204100f 	and	r1, r4, #15
e0000434:	e3510001 	cmp	r1, #1
e0000438:	0a00000d 	beq	e0000474 <create_mapped_it_frame_cap+0xac>
e000043c:	e3510003 	cmp	r1, #3
e0000440:	0a000029 	beq	e00004ec <create_mapped_it_frame_cap+0x124>
e0000444:	e3a09000 	mov	r9, #0
e0000448:	ea00000c 	b	e0000480 <create_mapped_it_frame_cap+0xb8>
e000044c:	e1a04701 	lsl	r4, r1, #14
e0000450:	e204447f 	and	r4, r4, #2130706432	@ 0x7f000000
e0000454:	e1a03423 	lsr	r3, r3, #8
e0000458:	e3c3300f 	bic	r3, r3, #15
e000045c:	e1843003 	orr	r3, r4, r3
e0000460:	e3834001 	orr	r4, r3, #1
e0000464:	e1a05622 	lsr	r5, r2, #12
e0000468:	e1855b01 	orr	r5, r5, r1, lsl #22
e000046c:	e3855603 	orr	r5, r5, #3145728	@ 0x300000
e0000470:	eaffffeb 	b	e0000424 <create_mapped_it_frame_cap+0x5c>
e0000474:	e1a09404 	lsl	r9, r4, #8
e0000478:	e3c99eff 	bic	r9, r9, #4080	@ 0xff0
e000047c:	e3c9900f 	bic	r9, r9, #15
e0000480:	e6ef1071 	uxtb	r1, r1
e0000484:	e3510001 	cmp	r1, #1
e0000488:	01a08605 	lsleq	r8, r5, #12
e000048c:	11a08705 	lslne	r8, r5, #14
e0000490:	e1a03a28 	lsr	r3, r8, #20
e0000494:	e7926103 	ldr	r6, [r2, r3, lsl #2]
e0000498:	e3c66fff 	bic	r6, r6, #1020	@ 0x3fc
e000049c:	e3c66003 	bic	r6, r6, #3
e00004a0:	e286620d 	add	r6, r6, #-805306368	@ 0xd0000000
e00004a4:	e7e78658 	ubfx	r8, r8, #12, #8
e00004a8:	e3a00003 	mov	r0, #3
e00004ac:	eb0041b3 	bl	e0010b80 <APFromVMRights>
e00004b0:	e1a03200 	lsl	r3, r0, #4
e00004b4:	e2033030 	and	r3, r3, #48	@ 0x30
e00004b8:	e59d2034 	ldr	r2, [sp, #52]	@ 0x34
e00004bc:	e3520000 	cmp	r2, #0
e00004c0:	03833001 	orreq	r3, r3, #1
e00004c4:	e2899203 	add	r9, r9, #805306368	@ 0x30000000
e00004c8:	e1833009 	orr	r3, r3, r9
e00004cc:	e3833d25 	orr	r3, r3, #2368	@ 0x940
e00004d0:	e3833006 	orr	r3, r3, #6
e00004d4:	e7863108 	str	r3, [r6, r8, lsl #2]
e00004d8:	e5874000 	str	r4, [r7]
e00004dc:	e5875004 	str	r5, [r7, #4]
e00004e0:	e1a00007 	mov	r0, r7
e00004e4:	e28dd00c 	add	sp, sp, #12
e00004e8:	e8bd83f0 	pop	{r4, r5, r6, r7, r8, r9, pc}
e00004ec:	e1a09504 	lsl	r9, r4, #10
e00004f0:	e3c99dff 	bic	r9, r9, #16320	@ 0x3fc0
e00004f4:	e3c9903f 	bic	r9, r9, #63	@ 0x3f
e00004f8:	eaffffe0 	b	e0000480 <create_mapped_it_frame_cap+0xb8>

e00004fc <fpsimd_HWCapTest>:
e00004fc:	ee113f50 	mrc	15, 0, r3, cr1, cr0, {2}
e0000500:	e383360f 	orr	r3, r3, #15728640	@ 0xf00000
e0000504:	ee013f50 	mcr	15, 0, r3, cr1, cr0, {2}
e0000508:	f57ff06f 	isb	sy
e000050c:	eef00a10 	.word	0xeef00a10
e0000510:	e1a03000 	mov	r3, r0
e0000514:	e3130502 	tst	r3, #8388608	@ 0x800000
e0000518:	1a000005 	bne	e0000534 <fpsimd_HWCapTest+0x38>
e000051c:	eef83a10 	vmrs	r3, fpexc
e0000520:	e3833102 	orr	r3, r3, #-2147483648	@ 0x80000000
e0000524:	eee83a10 	vmsr	fpexc, r3
e0000528:	eef83a10 	vmrs	r3, fpexc
e000052c:	e3a00001 	mov	r0, #1
e0000530:	e12fff1e 	bx	lr
e0000534:	e3a00000 	mov	r0, #0
e0000538:	e12fff1e 	bx	lr

e000053c <activate_kernel_vspace>:
e000053c:	e92d4010 	push	{r4, lr}
e0000540:	eb0048ff 	bl	e0012944 <cleanInvalidateL1Caches>
e0000544:	f57ff04f 	dsb	sy
e0000548:	e59f3034 	ldr	r3, [pc, #52]	@ e0000584 <activate_kernel_vspace+0x48>
e000054c:	e3833018 	orr	r3, r3, #24
e0000550:	ee023f10 	mcr	15, 0, r3, cr2, cr0, {0}
e0000554:	f57ff06f 	isb	sy
e0000558:	f57ff04f 	dsb	sy
e000055c:	e3a03000 	mov	r3, #0
e0000560:	ee083f17 	mcr	15, 0, r3, cr8, cr7, {0}
e0000564:	f57ff04f 	dsb	sy
e0000568:	f57ff06f 	isb	sy
e000056c:	e3a0020e 	mov	r0, #-536870912	@ 0xe0000000
e0000570:	eb00469f 	bl	e0011ff4 <lockTLBEntry>
e0000574:	e3a00000 	mov	r0, #0
e0000578:	e34f0fff 	movt	r0, #65535	@ 0xffff
e000057c:	eb00469c 	bl	e0011ff4 <lockTLBEntry>
e0000580:	e8bd8010 	pop	{r4, pc}
e0000584:	10030000 	.word	0x10030000

e0000588 <arm_errata>:
e0000588:	e12fff1e 	bx	lr

e000058c <initIRQController>:
e000058c:	e92d4010 	push	{r4, lr}
e0000590:	ebfffeb2 	bl	e0000060 <dist_init>
e0000594:	e8bd8010 	pop	{r4, pc}

e0000598 <cpu_initLocalIRQController>:
e0000598:	e92d4010 	push	{r4, lr}
e000059c:	ebffff09 	bl	e00001c8 <cpu_iface_init>
e00005a0:	e8bd8010 	pop	{r4, pc}

e00005a4 <initL2Cache>:
e00005a4:	e30330ff 	movw	r3, #12543	@ 0x30ff
e00005a8:	e34f3ff0 	movt	r3, #65520	@ 0xfff0
e00005ac:	e5932001 	ldr	r2, [r3, #1]
e00005b0:	e3c22001 	bic	r2, r2, #1
e00005b4:	e5832001 	str	r2, [r3, #1]
e00005b8:	e3a02000 	mov	r2, #0
e00005bc:	e3432c07 	movt	r2, #15367	@ 0x3c07
e00005c0:	e5832005 	str	r2, [r3, #5]
e00005c4:	e3002121 	movw	r2, #289	@ 0x121
e00005c8:	e5832009 	str	r2, [r3, #9]
e00005cc:	e583200d 	str	r2, [r3, #13]
e00005d0:	e3a02203 	mov	r2, #805306368	@ 0x30000000
e00005d4:	e5832e61 	str	r2, [r3, #3681]	@ 0xe61
e00005d8:	e30f2fff 	movw	r2, #65535	@ 0xffff
e00005dc:	e583267d 	str	r2, [r3, #1661]	@ 0x67d
e00005e0:	e30320ff 	movw	r2, #12543	@ 0x30ff
e00005e4:	e34f2ff0 	movt	r2, #65520	@ 0xfff0
e00005e8:	e592367d 	ldr	r3, [r2, #1661]	@ 0x67d
e00005ec:	e6ff3073 	uxth	r3, r3
e00005f0:	e3530000 	cmp	r3, #0
e00005f4:	1afffffb 	bne	e00005e8 <initL2Cache+0x44>
e00005f8:	e30330ff 	movw	r3, #12543	@ 0x30ff
e00005fc:	e34f3ff0 	movt	r3, #65520	@ 0xfff0
e0000600:	e51330fb 	ldr	r3, [r3, #-251]	@ 0xffffff05
e0000604:	e203341e 	and	r3, r3, #503316480	@ 0x1e000000
e0000608:	e3530307 	cmp	r3, #469762048	@ 0x1c000000
e000060c:	0a000012 	beq	e000065c <initL2Cache+0xb8>
e0000610:	e30330ff 	movw	r3, #12543	@ 0x30ff
e0000614:	e34f3ff0 	movt	r3, #65520	@ 0xfff0
e0000618:	e51330fb 	ldr	r3, [r3, #-251]	@ 0xffffff05
e000061c:	e203341e 	and	r3, r3, #503316480	@ 0x1e000000
e0000620:	e353041e 	cmp	r3, #503316480	@ 0x1e000000
e0000624:	030330ff 	movweq	r3, #12543	@ 0x30ff
e0000628:	034f3ff0 	movteq	r3, #65520	@ 0xfff0
e000062c:	03a02000 	moveq	r2, #0
e0000630:	05832851 	streq	r2, [r3, #2129]	@ 0x851
e0000634:	e30330ff 	movw	r3, #12543	@ 0x30ff
e0000638:	e34f3ff0 	movt	r3, #65520	@ 0xfff0
e000063c:	e3a02000 	mov	r2, #0
e0000640:	e5832115 	str	r2, [r3, #277]	@ 0x115
e0000644:	e30021ff 	movw	r2, #511	@ 0x1ff
e0000648:	e5832121 	str	r2, [r3, #289]	@ 0x121
e000064c:	e5932001 	ldr	r2, [r3, #1]
e0000650:	e3822001 	orr	r2, r2, #1
e0000654:	e5832001 	str	r2, [r3, #1]
e0000658:	e12fff1e 	bx	lr
e000065c:	e30330ff 	movw	r3, #12543	@ 0x30ff
e0000660:	e34f3ff0 	movt	r3, #65520	@ 0xfff0
e0000664:	e3a02000 	mov	r2, #0
e0000668:	e5832801 	str	r2, [r3, #2049]	@ 0x801
e000066c:	e5832805 	str	r2, [r3, #2053]	@ 0x805
e0000670:	e5832809 	str	r2, [r3, #2057]	@ 0x809
e0000674:	e583280d 	str	r2, [r3, #2061]	@ 0x80d
e0000678:	e5832811 	str	r2, [r3, #2065]	@ 0x811
e000067c:	e5832815 	str	r2, [r3, #2069]	@ 0x815
e0000680:	e5832819 	str	r2, [r3, #2073]	@ 0x819
e0000684:	e583281d 	str	r2, [r3, #2077]	@ 0x81d
e0000688:	e5832821 	str	r2, [r3, #2081]	@ 0x821
e000068c:	e5832825 	str	r2, [r3, #2085]	@ 0x825
e0000690:	e5832829 	str	r2, [r3, #2089]	@ 0x829
e0000694:	e583282d 	str	r2, [r3, #2093]	@ 0x82d
e0000698:	e5832831 	str	r2, [r3, #2097]	@ 0x831
e000069c:	e5832835 	str	r2, [r3, #2101]	@ 0x835
e00006a0:	e5832839 	str	r2, [r3, #2105]	@ 0x839
e00006a4:	e583283d 	str	r2, [r3, #2109]	@ 0x83d
e00006a8:	eaffffd8 	b	e0000610 <initL2Cache+0x6c>

e00006ac <initTimer>:
e00006ac:	e30236ff 	movw	r3, #9983	@ 0x26ff
e00006b0:	e34f3ff0 	movt	r3, #65520	@ 0xfff0
e00006b4:	e3a02000 	mov	r2, #0
e00006b8:	e50320f7 	str	r2, [r3, #-247]	@ 0xffffff09
e00006bc:	e50320f3 	str	r2, [r3, #-243]	@ 0xffffff0d
e00006c0:	e30322a0 	movw	r2, #12960	@ 0x32a0
e00006c4:	e340200f 	movt	r2, #15
e00006c8:	e50320ff 	str	r2, [r3, #-255]	@ 0xffffff01
e00006cc:	e51320f7 	ldr	r2, [r3, #-247]	@ 0xffffff09
e00006d0:	e3822006 	orr	r2, r2, #6
e00006d4:	e50320f7 	str	r2, [r3, #-247]	@ 0xffffff09
e00006d8:	e51320f7 	ldr	r2, [r3, #-247]	@ 0xffffff09
e00006dc:	e3822001 	orr	r2, r2, #1
e00006e0:	e50320f7 	str	r2, [r3, #-247]	@ 0xffffff09
e00006e4:	e12fff1e 	bx	lr

e00006e8 <get_p_reg_kernel_img_boot>:
e00006e8:	e3a02201 	mov	r2, #268435456	@ 0x10000000
e00006ec:	e5802000 	str	r2, [r0]
e00006f0:	e59f2004 	ldr	r2, [pc, #4]	@ e00006fc <get_p_reg_kernel_img_boot+0x14>
e00006f4:	e5802004 	str	r2, [r0, #4]
e00006f8:	e12fff1e 	bx	lr
e00006fc:	10010000 	.word	0x10010000

e0000700 <get_p_reg_kernel_img>:
e0000700:	e3a02201 	mov	r2, #268435456	@ 0x10000000
e0000704:	e5802000 	str	r2, [r0]
e0000708:	e59f2004 	ldr	r2, [pc, #4]	@ e0000714 <get_p_reg_kernel_img+0x14>
e000070c:	e5802004 	str	r2, [r0, #4]
e0000710:	e12fff1e 	bx	lr
e0000714:	10034000 	.word	0x10034000

e0000718 <reserve_region>:
e0000718:	e92d4070 	push	{r4, r5, r6, lr}
e000071c:	e24dd008 	sub	sp, sp, #8
e0000720:	e28d3008 	add	r3, sp, #8
e0000724:	e9030003 	stmdb	r3, {r0, r1}
e0000728:	e1500001 	cmp	r0, r1
e000072c:	03a00001 	moveq	r0, #1
e0000730:	0a000026 	beq	e00007d0 <reserve_region+0xb8>
e0000734:	e1a04000 	mov	r4, r0
e0000738:	e1a0c001 	mov	ip, r1
e000073c:	e30b3600 	movw	r3, #46592	@ 0xb600
e0000740:	e34e3001 	movt	r3, #57345	@ 0xe001
e0000744:	e593e058 	ldr	lr, [r3, #88]	@ 0x58
e0000748:	e35e0000 	cmp	lr, #0
e000074c:	0a000011 	beq	e0000798 <reserve_region+0x80>
e0000750:	e3a03000 	mov	r3, #0
e0000754:	e30b1600 	movw	r1, #46592	@ 0xb600
e0000758:	e34e1001 	movt	r1, #57345	@ 0xe001
e000075c:	e7912183 	ldr	r2, [r1, r3, lsl #3]
e0000760:	e152000c 	cmp	r2, ip
e0000764:	0a000014 	beq	e00007bc <reserve_region+0xa4>
e0000768:	e0810183 	add	r0, r1, r3, lsl #3
e000076c:	e5900004 	ldr	r0, [r0, #4]
e0000770:	e1500004 	cmp	r0, r4
e0000774:	0a000017 	beq	e00007d8 <reserve_region+0xc0>
e0000778:	e152000c 	cmp	r2, ip
e000077c:	8a00001c 	bhi	e00007f4 <reserve_region+0xdc>
e0000780:	e2833001 	add	r3, r3, #1
e0000784:	e153000e 	cmp	r3, lr
e0000788:	1afffff3 	bne	e000075c <reserve_region+0x44>
e000078c:	e35e000a 	cmp	lr, #10
e0000790:	03a00000 	moveq	r0, #0
e0000794:	0a00000d 	beq	e00007d0 <reserve_region+0xb8>
e0000798:	e30b3600 	movw	r3, #46592	@ 0xb600
e000079c:	e34e3001 	movt	r3, #57345	@ 0xe001
e00007a0:	e783418e 	str	r4, [r3, lr, lsl #3]
e00007a4:	e083218e 	add	r2, r3, lr, lsl #3
e00007a8:	e582c004 	str	ip, [r2, #4]
e00007ac:	e28ee001 	add	lr, lr, #1
e00007b0:	e583e058 	str	lr, [r3, #88]	@ 0x58
e00007b4:	e3a00001 	mov	r0, #1
e00007b8:	ea000004 	b	e00007d0 <reserve_region+0xb8>
e00007bc:	e30b2600 	movw	r2, #46592	@ 0xb600
e00007c0:	e34e2001 	movt	r2, #57345	@ 0xe001
e00007c4:	e7824183 	str	r4, [r2, r3, lsl #3]
e00007c8:	ebfffea3 	bl	e000025c <merge_regions>
e00007cc:	e3a00001 	mov	r0, #1
e00007d0:	e28dd008 	add	sp, sp, #8
e00007d4:	e8bd8070 	pop	{r4, r5, r6, pc}
e00007d8:	e30b2600 	movw	r2, #46592	@ 0xb600
e00007dc:	e34e2001 	movt	r2, #57345	@ 0xe001
e00007e0:	e0823183 	add	r3, r2, r3, lsl #3
e00007e4:	e583c004 	str	ip, [r3, #4]
e00007e8:	ebfffe9b 	bl	e000025c <merge_regions>
e00007ec:	e3a00001 	mov	r0, #1
e00007f0:	eafffff6 	b	e00007d0 <reserve_region+0xb8>
e00007f4:	e28e6001 	add	r6, lr, #1
e00007f8:	e356000a 	cmp	r6, #10
e00007fc:	83a00000 	movhi	r0, #0
e0000800:	8afffff2 	bhi	e00007d0 <reserve_region+0xb8>
e0000804:	e15e0003 	cmp	lr, r3
e0000808:	9a000009 	bls	e0000834 <reserve_region+0x11c>
e000080c:	e30b5600 	movw	r5, #46592	@ 0xb600
e0000810:	e34e5001 	movt	r5, #57345	@ 0xe001
e0000814:	e085e18e 	add	lr, r5, lr, lsl #3
e0000818:	e0855183 	add	r5, r5, r3, lsl #3
e000081c:	e24e2008 	sub	r2, lr, #8
e0000820:	e8920003 	ldm	r2, {r0, r1}
e0000824:	e88e0003 	stm	lr, {r0, r1}
e0000828:	e1a0e002 	mov	lr, r2
e000082c:	e1520005 	cmp	r2, r5
e0000830:	1afffff9 	bne	e000081c <reserve_region+0x104>
e0000834:	e30b2600 	movw	r2, #46592	@ 0xb600
e0000838:	e34e2001 	movt	r2, #57345	@ 0xe001
e000083c:	e7824183 	str	r4, [r2, r3, lsl #3]
e0000840:	e0823183 	add	r3, r2, r3, lsl #3
e0000844:	e583c004 	str	ip, [r3, #4]
e0000848:	e5826058 	str	r6, [r2, #88]	@ 0x58
e000084c:	e3a00001 	mov	r0, #1
e0000850:	eaffffde 	b	e00007d0 <reserve_region+0xb8>

e0000854 <map_kernel_devices>:
e0000854:	e92d41f0 	push	{r4, r5, r6, r7, r8, lr}
e0000858:	e24dd008 	sub	sp, sp, #8
e000085c:	e30241d4 	movw	r4, #8660	@ 0x21d4
e0000860:	e34e4000 	movt	r4, #57344	@ 0xe000
e0000864:	e2847030 	add	r7, r4, #48	@ 0x30
e0000868:	e3a06001 	mov	r6, #1
e000086c:	e1a0800d 	mov	r8, sp
e0000870:	ea000002 	b	e0000880 <map_kernel_devices+0x2c>
e0000874:	e2844010 	add	r4, r4, #16
e0000878:	e1540007 	cmp	r4, r7
e000087c:	0a000010 	beq	e00008c4 <map_kernel_devices+0x70>
e0000880:	e5945000 	ldr	r5, [r4]
e0000884:	e5943008 	ldr	r3, [r4, #8]
e0000888:	e1a03103 	lsl	r3, r3, #2
e000088c:	e2033004 	and	r3, r3, #4
e0000890:	e1a02006 	mov	r2, r6
e0000894:	e5941004 	ldr	r1, [r4, #4]
e0000898:	e1a00005 	mov	r0, r5
e000089c:	ebfffe97 	bl	e0000300 <map_kernel_frame>
e00008a0:	e594300c 	ldr	r3, [r4, #12]
e00008a4:	e3530000 	cmp	r3, #0
e00008a8:	1afffff1 	bne	e0000874 <map_kernel_devices+0x20>
e00008ac:	e58d5000 	str	r5, [sp]
e00008b0:	e2855a01 	add	r5, r5, #4096	@ 0x1000
e00008b4:	e58d5004 	str	r5, [sp, #4]
e00008b8:	e8980003 	ldm	r8, {r0, r1}
e00008bc:	ebffff95 	bl	e0000718 <reserve_region>
e00008c0:	eaffffeb 	b	e0000874 <map_kernel_devices+0x20>
e00008c4:	e28dd008 	add	sp, sp, #8
e00008c8:	e8bd81f0 	pop	{r4, r5, r6, r7, r8, pc}

e00008cc <insert_region>:
e00008cc:	e92d4010 	push	{r4, lr}
e00008d0:	e24dd010 	sub	sp, sp, #16
e00008d4:	e1a0300d 	mov	r3, sp
e00008d8:	e8830003 	stm	r3, {r0, r1}
e00008dc:	e1a0c000 	mov	ip, r0
e00008e0:	e1510000 	cmp	r1, r0
e00008e4:	03a00001 	moveq	r0, #1
e00008e8:	0a00000c 	beq	e0000920 <insert_region+0x54>
e00008ec:	e1a00001 	mov	r0, r1
e00008f0:	e30b3600 	movw	r3, #46592	@ 0xb600
e00008f4:	e34e3001 	movt	r3, #57345	@ 0xe001
e00008f8:	e3a04000 	mov	r4, #0
e00008fc:	e593105c 	ldr	r1, [r3, #92]	@ 0x5c
e0000900:	e5932060 	ldr	r2, [r3, #96]	@ 0x60
e0000904:	e1510002 	cmp	r1, r2
e0000908:	0a000006 	beq	e0000928 <insert_region+0x5c>
e000090c:	e2844001 	add	r4, r4, #1
e0000910:	e2833008 	add	r3, r3, #8
e0000914:	e3540004 	cmp	r4, #4
e0000918:	1afffff7 	bne	e00008fc <insert_region+0x30>
e000091c:	e3a00000 	mov	r0, #0
e0000920:	e28dd010 	add	sp, sp, #16
e0000924:	e8bd8010 	pop	{r4, pc}
e0000928:	e28cc203 	add	ip, ip, #805306368	@ 0x30000000
e000092c:	e58dc008 	str	ip, [sp, #8]
e0000930:	e2800203 	add	r0, r0, #805306368	@ 0x30000000
e0000934:	e58d000c 	str	r0, [sp, #12]
e0000938:	e28d3010 	add	r3, sp, #16
e000093c:	e9130003 	ldmdb	r3, {r0, r1}
e0000940:	ebffff74 	bl	e0000718 <reserve_region>
e0000944:	e30b3600 	movw	r3, #46592	@ 0xb600
e0000948:	e34e3001 	movt	r3, #57345	@ 0xe001
e000094c:	e0833184 	add	r3, r3, r4, lsl #3
e0000950:	e283305c 	add	r3, r3, #92	@ 0x5c
e0000954:	e1a0200d 	mov	r2, sp
e0000958:	e8920003 	ldm	r2, {r0, r1}
e000095c:	e8830003 	stm	r3, {r0, r1}
e0000960:	e3a00001 	mov	r0, #1
e0000964:	eaffffed 	b	e0000920 <insert_region+0x54>

e0000968 <write_slot>:
e0000968:	e24dd008 	sub	sp, sp, #8
e000096c:	e1a03000 	mov	r3, r0
e0000970:	e1a0000d 	mov	r0, sp
e0000974:	e8800006 	stm	r0, {r1, r2}
e0000978:	e8900003 	ldm	r0, {r0, r1}
e000097c:	e8830005 	stm	r3, {r0, r2}
e0000980:	e3a02000 	mov	r2, #0
e0000984:	e5832008 	str	r2, [r3, #8]
e0000988:	e3a02003 	mov	r2, #3
e000098c:	e583200c 	str	r2, [r3, #12]
e0000990:	e28dd008 	add	sp, sp, #8
e0000994:	e12fff1e 	bx	lr

e0000998 <create_root_cnode>:
e0000998:	e52de004 	push	{lr}		@ (str lr, [sp, #-4]!)
e000099c:	e30b2600 	movw	r2, #46592	@ 0xb600
e00009a0:	e34e2001 	movt	r2, #57345	@ 0xe001
e00009a4:	e592c084 	ldr	ip, [r2, #132]	@ 0x84
e00009a8:	e3cc201f 	bic	r2, ip, #31
e00009ac:	e382200a 	orr	r2, r2, #10
e00009b0:	e28c1020 	add	r1, ip, #32
e00009b4:	e58c2020 	str	r2, [ip, #32]
e00009b8:	e3a0c6a3 	mov	ip, #170917888	@ 0xa300000
e00009bc:	e581c004 	str	ip, [r1, #4]
e00009c0:	e3a0e000 	mov	lr, #0
e00009c4:	e581e008 	str	lr, [r1, #8]
e00009c8:	e3a0e003 	mov	lr, #3
e00009cc:	e581e00c 	str	lr, [r1, #12]
e00009d0:	e5802000 	str	r2, [r0]
e00009d4:	e580c004 	str	ip, [r0, #4]
e00009d8:	e49df004 	pop	{pc}		@ (ldr pc, [sp], #4)

e00009dc <calculate_extra_bi_size_bits>:
e00009dc:	e2502000 	subs	r2, r0, #0
e00009e0:	0a000009 	beq	e0000a0c <calculate_extra_bi_size_bits+0x30>
e00009e4:	e2423001 	sub	r3, r2, #1
e00009e8:	e3c33eff 	bic	r3, r3, #4080	@ 0xff0
e00009ec:	e3c3300f 	bic	r3, r3, #15
e00009f0:	e2833a01 	add	r3, r3, #4096	@ 0x1000
e00009f4:	e16f3f13 	clz	r3, r3
e00009f8:	e263001f 	rsb	r0, r3, #31
e00009fc:	e3a01001 	mov	r1, #1
e0000a00:	e1520011 	cmp	r2, r1, lsl r0
e0000a04:	82630020 	rsbhi	r0, r3, #32
e0000a08:	e12fff1e 	bx	lr
e0000a0c:	e1a00002 	mov	r0, r2
e0000a10:	e12fff1e 	bx	lr

e0000a14 <init_core_state>:
e0000a14:	e30c3000 	movw	r3, #49152	@ 0xc000
e0000a18:	e34e3001 	movt	r3, #57345	@ 0xe001
e0000a1c:	e583087c 	str	r0, [r3, #2172]	@ 0x87c
e0000a20:	e593286c 	ldr	r2, [r3, #2156]	@ 0x86c
e0000a24:	e5832840 	str	r2, [r3, #2112]	@ 0x840
e0000a28:	e12fff1e 	bx	lr

e0000a2c <bi_finalise>:
e0000a2c:	e30b3600 	movw	r3, #46592	@ 0xb600
e0000a30:	e34e3001 	movt	r3, #57345	@ 0xe001
e0000a34:	e593207c 	ldr	r2, [r3, #124]	@ 0x7c
e0000a38:	e5933080 	ldr	r3, [r3, #128]	@ 0x80
e0000a3c:	e5823014 	str	r3, [r2, #20]
e0000a40:	e3a03a01 	mov	r3, #4096	@ 0x1000
e0000a44:	e5823018 	str	r3, [r2, #24]
e0000a48:	e12fff1e 	bx	lr

e0000a4c <write_it_asid_pool>:
e0000a4c:	e92d4030 	push	{r4, r5, lr}
e0000a50:	e24dd014 	sub	sp, sp, #20
e0000a54:	e28dc008 	add	ip, sp, #8
e0000a58:	e88c0003 	stm	ip, {r0, r1}
e0000a5c:	e1a0500d 	mov	r5, sp
e0000a60:	e885000c 	stm	r5, {r2, r3}
e0000a64:	e89c0003 	ldm	ip, {r0, r1}
e0000a68:	eb004d3c 	bl	e0013f60 <cap_get_capPtr>
e0000a6c:	e1a04000 	mov	r4, r0
e0000a70:	e8950003 	ldm	r5, {r0, r1}
e0000a74:	eb004d39 	bl	e0013f60 <cap_get_capPtr>
e0000a78:	e5840004 	str	r0, [r4, #4]
e0000a7c:	e30c3000 	movw	r3, #49152	@ 0xc000
e0000a80:	e34e3001 	movt	r3, #57345	@ 0xe001
e0000a84:	e5834000 	str	r4, [r3]
e0000a88:	e28dd014 	add	sp, sp, #20
e0000a8c:	e8bd8030 	pop	{r4, r5, pc}

e0000a90 <create_domain_cap>:
e0000a90:	e52de004 	push	{lr}		@ (str lr, [sp, #-4]!)
e0000a94:	e24dd00c 	sub	sp, sp, #12
e0000a98:	e1a0300d 	mov	r3, sp
e0000a9c:	e8830003 	stm	r3, {r0, r1}
e0000aa0:	e8930003 	ldm	r3, {r0, r1}
e0000aa4:	eb004d2d 	bl	e0013f60 <cap_get_capPtr>
e0000aa8:	e3a0303e 	mov	r3, #62	@ 0x3e
e0000aac:	e58030b0 	str	r3, [r0, #176]	@ 0xb0
e0000ab0:	e3a03000 	mov	r3, #0
e0000ab4:	e58030b4 	str	r3, [r0, #180]	@ 0xb4
e0000ab8:	e58030b8 	str	r3, [r0, #184]	@ 0xb8
e0000abc:	e3a03003 	mov	r3, #3
e0000ac0:	e58030bc 	str	r3, [r0, #188]	@ 0xbc
e0000ac4:	e28dd00c 	add	sp, sp, #12
e0000ac8:	e49df004 	pop	{pc}		@ (ldr pc, [sp], #4)

e0000acc <create_bi_frame_cap>:
e0000acc:	e92d4030 	push	{r4, r5, lr}
e0000ad0:	e24dd02c 	sub	sp, sp, #44	@ 0x2c
e0000ad4:	e28d4018 	add	r4, sp, #24
e0000ad8:	e8840003 	stm	r4, {r0, r1}
e0000adc:	e28d1010 	add	r1, sp, #16
e0000ae0:	e881000c 	stm	r1, {r2, r3}
e0000ae4:	e30b3600 	movw	r3, #46592	@ 0xb600
e0000ae8:	e34e3001 	movt	r3, #57345	@ 0xe001
e0000aec:	e3a05000 	mov	r5, #0
e0000af0:	e58d500c 	str	r5, [sp, #12]
e0000af4:	e58d5008 	str	r5, [sp, #8]
e0000af8:	e3a02001 	mov	r2, #1
e0000afc:	e58d2004 	str	r2, [sp, #4]
e0000b00:	e59d2038 	ldr	r2, [sp, #56]	@ 0x38
e0000b04:	e58d2000 	str	r2, [sp]
e0000b08:	e5933094 	ldr	r3, [r3, #148]	@ 0x94
e0000b0c:	e8910006 	ldm	r1, {r1, r2}
e0000b10:	e28d0020 	add	r0, sp, #32
e0000b14:	ebfffe2b 	bl	e00003c8 <create_mapped_it_frame_cap>
e0000b18:	e8940003 	ldm	r4, {r0, r1}
e0000b1c:	eb004d0f 	bl	e0013f60 <cap_get_capPtr>
e0000b20:	e59d3020 	ldr	r3, [sp, #32]
e0000b24:	e5803090 	str	r3, [r0, #144]	@ 0x90
e0000b28:	e59d3024 	ldr	r3, [sp, #36]	@ 0x24
e0000b2c:	e5803094 	str	r3, [r0, #148]	@ 0x94
e0000b30:	e5805098 	str	r5, [r0, #152]	@ 0x98
e0000b34:	e3a03003 	mov	r3, #3
e0000b38:	e580309c 	str	r3, [r0, #156]	@ 0x9c
e0000b3c:	e28dd02c 	add	sp, sp, #44	@ 0x2c
e0000b40:	e8bd8030 	pop	{r4, r5, pc}

e0000b44 <provide_cap>:
e0000b44:	e92d4010 	push	{r4, lr}
e0000b48:	e24dd010 	sub	sp, sp, #16
e0000b4c:	e28dc010 	add	ip, sp, #16
e0000b50:	e90c0003 	stmdb	ip, {r0, r1}
e0000b54:	e1a0100d 	mov	r1, sp
e0000b58:	e881000c 	stm	r1, {r2, r3}
e0000b5c:	e30b3600 	movw	r3, #46592	@ 0xb600
e0000b60:	e34e3001 	movt	r3, #57345	@ 0xe001
e0000b64:	e5934080 	ldr	r4, [r3, #128]	@ 0x80
e0000b68:	e3540a01 	cmp	r4, #4096	@ 0x1000
e0000b6c:	23a00000 	movcs	r0, #0
e0000b70:	3a000001 	bcc	e0000b7c <provide_cap+0x38>
e0000b74:	e28dd010 	add	sp, sp, #16
e0000b78:	e8bd8010 	pop	{r4, pc}
e0000b7c:	e14c00d8 	ldrd	r0, [ip, #-8]
e0000b80:	eb004cf6 	bl	e0013f60 <cap_get_capPtr>
e0000b84:	e0803204 	add	r3, r0, r4, lsl #4
e0000b88:	e59d2000 	ldr	r2, [sp]
e0000b8c:	e7802204 	str	r2, [r0, r4, lsl #4]
e0000b90:	e59d2004 	ldr	r2, [sp, #4]
e0000b94:	e5832004 	str	r2, [r3, #4]
e0000b98:	e3a02000 	mov	r2, #0
e0000b9c:	e5832008 	str	r2, [r3, #8]
e0000ba0:	e3a02003 	mov	r2, #3
e0000ba4:	e583200c 	str	r2, [r3, #12]
e0000ba8:	e30b3600 	movw	r3, #46592	@ 0xb600
e0000bac:	e34e3001 	movt	r3, #57345	@ 0xe001
e0000bb0:	e5932080 	ldr	r2, [r3, #128]	@ 0x80
e0000bb4:	e2822001 	add	r2, r2, #1
e0000bb8:	e5832080 	str	r2, [r3, #128]	@ 0x80
e0000bbc:	e3a00001 	mov	r0, #1
e0000bc0:	eaffffeb 	b	e0000b74 <provide_cap+0x30>

e0000bc4 <create_frames_of_region>:
e0000bc4:	e24dd008 	sub	sp, sp, #8
e0000bc8:	e92d4ff0 	push	{r4, r5, r6, r7, r8, r9, sl, fp, lr}
e0000bcc:	e24dd02c 	sub	sp, sp, #44	@ 0x2c
e0000bd0:	e1a09000 	mov	r9, r0
e0000bd4:	e28d0018 	add	r0, sp, #24
e0000bd8:	e8800006 	stm	r0, {r1, r2}
e0000bdc:	e58d3054 	str	r3, [sp, #84]	@ 0x54
e0000be0:	e59d8064 	ldr	r8, [sp, #100]	@ 0x64
e0000be4:	e59d6068 	ldr	r6, [sp, #104]	@ 0x68
e0000be8:	e59d7060 	ldr	r7, [sp, #96]	@ 0x60
e0000bec:	e30b3600 	movw	r3, #46592	@ 0xb600
e0000bf0:	e34e3001 	movt	r3, #57345	@ 0xe001
e0000bf4:	e5933080 	ldr	r3, [r3, #128]	@ 0x80
e0000bf8:	e58d3014 	str	r3, [sp, #20]
e0000bfc:	e59d405c 	ldr	r4, [sp, #92]	@ 0x5c
e0000c00:	e1570004 	cmp	r7, r4
e0000c04:	9a000026 	bls	e0000ca4 <create_frames_of_region+0xe0>
e0000c08:	e0444006 	sub	r4, r4, r6
e0000c0c:	e3a0a603 	mov	sl, #3145728	@ 0x300000
e0000c10:	e28d5020 	add	r5, sp, #32
e0000c14:	e3a0b001 	mov	fp, #1
e0000c18:	ea00000e 	b	e0000c58 <create_frames_of_region+0x94>
e0000c1c:	e1a03423 	lsr	r3, r3, #8
e0000c20:	e3c3300f 	bic	r3, r3, #15
e0000c24:	e3833001 	orr	r3, r3, #1
e0000c28:	e58d3020 	str	r3, [sp, #32]
e0000c2c:	e58da024 	str	sl, [sp, #36]	@ 0x24
e0000c30:	e895000c 	ldm	r5, {r2, r3}
e0000c34:	e28d1018 	add	r1, sp, #24
e0000c38:	e8910003 	ldm	r1, {r0, r1}
e0000c3c:	ebffffc0 	bl	e0000b44 <provide_cap>
e0000c40:	e3500000 	cmp	r0, #0
e0000c44:	0a000011 	beq	e0000c90 <create_frames_of_region+0xcc>
e0000c48:	e2844a01 	add	r4, r4, #4096	@ 0x1000
e0000c4c:	e0843006 	add	r3, r4, r6
e0000c50:	e1570003 	cmp	r7, r3
e0000c54:	9a000012 	bls	e0000ca4 <create_frames_of_region+0xe0>
e0000c58:	e0863004 	add	r3, r6, r4
e0000c5c:	e3580000 	cmp	r8, #0
e0000c60:	0affffed 	beq	e0000c1c <create_frames_of_region+0x58>
e0000c64:	e58db00c 	str	fp, [sp, #12]
e0000c68:	e3a02000 	mov	r2, #0
e0000c6c:	e58d2008 	str	r2, [sp, #8]
e0000c70:	e58db004 	str	fp, [sp, #4]
e0000c74:	e2842203 	add	r2, r4, #805306368	@ 0x30000000
e0000c78:	e58d2000 	str	r2, [sp]
e0000c7c:	e28d2054 	add	r2, sp, #84	@ 0x54
e0000c80:	e8920006 	ldm	r2, {r1, r2}
e0000c84:	e1a00005 	mov	r0, r5
e0000c88:	ebfffdce 	bl	e00003c8 <create_mapped_it_frame_cap>
e0000c8c:	eaffffe7 	b	e0000c30 <create_frames_of_region+0x6c>
e0000c90:	e3a03000 	mov	r3, #0
e0000c94:	e5893000 	str	r3, [r9]
e0000c98:	e5893004 	str	r3, [r9, #4]
e0000c9c:	e5893008 	str	r3, [r9, #8]
e0000ca0:	ea000007 	b	e0000cc4 <create_frames_of_region+0x100>
e0000ca4:	e30b3600 	movw	r3, #46592	@ 0xb600
e0000ca8:	e34e3001 	movt	r3, #57345	@ 0xe001
e0000cac:	e5933080 	ldr	r3, [r3, #128]	@ 0x80
e0000cb0:	e59d2014 	ldr	r2, [sp, #20]
e0000cb4:	e5892000 	str	r2, [r9]
e0000cb8:	e5893004 	str	r3, [r9, #4]
e0000cbc:	e3a03001 	mov	r3, #1
e0000cc0:	e5893008 	str	r3, [r9, #8]
e0000cc4:	e1a00009 	mov	r0, r9
e0000cc8:	e28dd02c 	add	sp, sp, #44	@ 0x2c
e0000ccc:	e8bd4ff0 	pop	{r4, r5, r6, r7, r8, r9, sl, fp, lr}
e0000cd0:	e28dd008 	add	sp, sp, #8
e0000cd4:	e12fff1e 	bx	lr

e0000cd8 <create_untypeds_for_region>:
e0000cd8:	e24dd008 	sub	sp, sp, #8
e0000cdc:	e92d4ff0 	push	{r4, r5, r6, r7, r8, r9, sl, fp, lr}
e0000ce0:	e24dd01c 	sub	sp, sp, #28
e0000ce4:	e1a0c00d 	mov	ip, sp
e0000ce8:	e88c0003 	stm	ip, {r0, r1}
e0000cec:	e58d3044 	str	r3, [sp, #68]	@ 0x44
e0000cf0:	e59d6048 	ldr	r6, [sp, #72]	@ 0x48
e0000cf4:	e1530006 	cmp	r3, r6
e0000cf8:	0a00000e 	beq	e0000d38 <create_untypeds_for_region+0x60>
e0000cfc:	e1a08002 	mov	r8, r2
e0000d00:	e1a04003 	mov	r4, r3
e0000d04:	e1a0a282 	lsl	sl, r2, #5
e0000d08:	e20aa020 	and	sl, sl, #32
e0000d0c:	e28d7008 	add	r7, sp, #8
e0000d10:	e30b9600 	movw	r9, #46592	@ 0xb600
e0000d14:	e34e9001 	movt	r9, #57345	@ 0xe001
e0000d18:	e30fbfff 	movw	fp, #65535	@ 0xffff
e0000d1c:	e341bfef 	movt	fp, #8175	@ 0x1fef
e0000d20:	ea000035 	b	e0000dfc <create_untypeds_for_region+0x124>
e0000d24:	e1a00003 	mov	r0, r3
e0000d28:	e28dd01c 	add	sp, sp, #28
e0000d2c:	e8bd4ff0 	pop	{r4, r5, r6, r7, r8, r9, sl, fp, lr}
e0000d30:	e28dd008 	add	sp, sp, #8
e0000d34:	e12fff1e 	bx	lr
e0000d38:	e3a00001 	mov	r0, #1
e0000d3c:	eafffff9 	b	e0000d28 <create_untypeds_for_region+0x50>
e0000d40:	e1a0300d 	mov	r3, sp
e0000d44:	e8930003 	ldm	r3, {r0, r1}
e0000d48:	e8870003 	stm	r7, {r0, r1}
e0000d4c:	e3580000 	cmp	r8, #0
e0000d50:	1a000007 	bne	e0000d74 <create_untypeds_for_region+0x9c>
e0000d54:	e2843202 	add	r3, r4, #536870912	@ 0x20000000
e0000d58:	e153000b 	cmp	r3, fp
e0000d5c:	8a00003a 	bhi	e0000e4c <create_untypeds_for_region+0x174>
e0000d60:	e244321e 	sub	r3, r4, #-536870911	@ 0xe0000001
e0000d64:	e3a02001 	mov	r2, #1
e0000d68:	e0833512 	add	r3, r3, r2, lsl r5
e0000d6c:	e153000b 	cmp	r3, fp
e0000d70:	8a000035 	bhi	e0000e4c <create_untypeds_for_region+0x174>
e0000d74:	e5993080 	ldr	r3, [r9, #128]	@ 0x80
e0000d78:	e59d204c 	ldr	r2, [sp, #76]	@ 0x4c
e0000d7c:	e0432002 	sub	r2, r3, r2
e0000d80:	e35200e5 	cmp	r2, #229	@ 0xe5
e0000d84:	8a000018 	bhi	e0000dec <create_untypeds_for_region+0x114>
e0000d88:	e599307c 	ldr	r3, [r9, #124]	@ 0x7c
e0000d8c:	e0833182 	add	r3, r3, r2, lsl #3
e0000d90:	e3a01000 	mov	r1, #0
e0000d94:	e5831058 	str	r1, [r3, #88]	@ 0x58
e0000d98:	e2842203 	add	r2, r4, #805306368	@ 0x30000000
e0000d9c:	e5832054 	str	r2, [r3, #84]	@ 0x54
e0000da0:	e5c35058 	strb	r5, [r3, #88]	@ 0x58
e0000da4:	e5c38059 	strb	r8, [r3, #89]	@ 0x59
e0000da8:	e3c4300f 	bic	r3, r4, #15
e0000dac:	e3833002 	orr	r3, r3, #2
e0000db0:	e58d3010 	str	r3, [sp, #16]
e0000db4:	e2452004 	sub	r2, r5, #4
e0000db8:	e18a3005 	orr	r3, sl, r5
e0000dbc:	e3a01040 	mov	r1, #64	@ 0x40
e0000dc0:	e1833211 	orr	r3, r3, r1, lsl r2
e0000dc4:	e58d3014 	str	r3, [sp, #20]
e0000dc8:	e28d3018 	add	r3, sp, #24
e0000dcc:	e913000c 	ldmdb	r3, {r2, r3}
e0000dd0:	e8970003 	ldm	r7, {r0, r1}
e0000dd4:	ebffff5a 	bl	e0000b44 <provide_cap>
e0000dd8:	e3500000 	cmp	r0, #0
e0000ddc:	1a000002 	bne	e0000dec <create_untypeds_for_region+0x114>
e0000de0:	eaffffd0 	b	e0000d28 <create_untypeds_for_region+0x50>
e0000de4:	e3530003 	cmp	r3, #3
e0000de8:	8affffd4 	bhi	e0000d40 <create_untypeds_for_region+0x68>
e0000dec:	e3a03001 	mov	r3, #1
e0000df0:	e0844513 	add	r4, r4, r3, lsl r5
e0000df4:	e1540006 	cmp	r4, r6
e0000df8:	0affffc9 	beq	e0000d24 <create_untypeds_for_region+0x4c>
e0000dfc:	e0463004 	sub	r3, r6, r4
e0000e00:	e16f3f13 	clz	r3, r3
e0000e04:	e263301f 	rsb	r3, r3, #31
e0000e08:	e353001d 	cmp	r3, #29
e0000e0c:	31a05003 	movcc	r5, r3
e0000e10:	23a0501d 	movcs	r5, #29
e0000e14:	e3540000 	cmp	r4, #0
e0000e18:	0afffff1 	beq	e0000de4 <create_untypeds_for_region+0x10c>
e0000e1c:	e6ff3f34 	rbit	r3, r4
e0000e20:	e16f3f13 	clz	r3, r3
e0000e24:	e1550003 	cmp	r5, r3
e0000e28:	21a05003 	movcs	r5, r3
e0000e2c:	e3550003 	cmp	r5, #3
e0000e30:	9affffed 	bls	e0000dec <create_untypeds_for_region+0x114>
e0000e34:	e1a0300d 	mov	r3, sp
e0000e38:	e8930003 	ldm	r3, {r0, r1}
e0000e3c:	e8870003 	stm	r7, {r0, r1}
e0000e40:	e3e03000 	mvn	r3, #0
e0000e44:	e1d43513 	bics	r3, r4, r3, lsl r5
e0000e48:	0affffbf 	beq	e0000d4c <create_untypeds_for_region+0x74>
e0000e4c:	e3a00000 	mov	r0, #0
e0000e50:	eaffffb4 	b	e0000d28 <create_untypeds_for_region+0x50>

e0000e54 <create_untypeds>:
e0000e54:	e92d47f0 	push	{r4, r5, r6, r7, r8, r9, sl, lr}
e0000e58:	e24dd020 	sub	sp, sp, #32
e0000e5c:	e28d3008 	add	r3, sp, #8
e0000e60:	e8830003 	stm	r3, {r0, r1}
e0000e64:	e30b3600 	movw	r3, #46592	@ 0xb600
e0000e68:	e34e3001 	movt	r3, #57345	@ 0xe001
e0000e6c:	e5939080 	ldr	r9, [r3, #128]	@ 0x80
e0000e70:	e5933058 	ldr	r3, [r3, #88]	@ 0x58
e0000e74:	e3530000 	cmp	r3, #0
e0000e78:	0a00001f 	beq	e0000efc <create_untypeds+0xa8>
e0000e7c:	e30b4600 	movw	r4, #46592	@ 0xb600
e0000e80:	e34e4001 	movt	r4, #57345	@ 0xe001
e0000e84:	e3a05000 	mov	r5, #0
e0000e88:	e1a03005 	mov	r3, r5
e0000e8c:	e3a0a001 	mov	sl, #1
e0000e90:	e28d8008 	add	r8, sp, #8
e0000e94:	e1a07004 	mov	r7, r4
e0000e98:	ea000005 	b	e0000eb4 <create_untypeds+0x60>
e0000e9c:	e5963004 	ldr	r3, [r6, #4]
e0000ea0:	e2855001 	add	r5, r5, #1
e0000ea4:	e2844008 	add	r4, r4, #8
e0000ea8:	e5972058 	ldr	r2, [r7, #88]	@ 0x58
e0000eac:	e1520005 	cmp	r2, r5
e0000eb0:	9a00000f 	bls	e0000ef4 <create_untypeds+0xa0>
e0000eb4:	e1a06004 	mov	r6, r4
e0000eb8:	e5942000 	ldr	r2, [r4]
e0000ebc:	e1520003 	cmp	r2, r3
e0000ec0:	9afffff5 	bls	e0000e9c <create_untypeds+0x48>
e0000ec4:	e283320d 	add	r3, r3, #-805306368	@ 0xd0000000
e0000ec8:	e58d3010 	str	r3, [sp, #16]
e0000ecc:	e282220d 	add	r2, r2, #-805306368	@ 0xd0000000
e0000ed0:	e58d2014 	str	r2, [sp, #20]
e0000ed4:	e58d9004 	str	r9, [sp, #4]
e0000ed8:	e58d2000 	str	r2, [sp]
e0000edc:	e1a0200a 	mov	r2, sl
e0000ee0:	e8980003 	ldm	r8, {r0, r1}
e0000ee4:	ebffff7b 	bl	e0000cd8 <create_untypeds_for_region>
e0000ee8:	e3500000 	cmp	r0, #0
e0000eec:	1affffea 	bne	e0000e9c <create_untypeds+0x48>
e0000ef0:	ea000036 	b	e0000fd0 <create_untypeds+0x17c>
e0000ef4:	e3730001 	cmn	r3, #1
e0000ef8:	0a00000b 	beq	e0000f2c <create_untypeds+0xd8>
e0000efc:	e283320d 	add	r3, r3, #-805306368	@ 0xd0000000
e0000f00:	e58d3010 	str	r3, [sp, #16]
e0000f04:	e3e02203 	mvn	r2, #805306368	@ 0x30000000
e0000f08:	e58d2014 	str	r2, [sp, #20]
e0000f0c:	e58d9004 	str	r9, [sp, #4]
e0000f10:	e58d2000 	str	r2, [sp]
e0000f14:	e3a02001 	mov	r2, #1
e0000f18:	e28d1008 	add	r1, sp, #8
e0000f1c:	e8910003 	ldm	r1, {r0, r1}
e0000f20:	ebffff6c 	bl	e0000cd8 <create_untypeds_for_region>
e0000f24:	e3500000 	cmp	r0, #0
e0000f28:	0a000028 	beq	e0000fd0 <create_untypeds+0x17c>
e0000f2c:	e3003000 	movw	r3, #0
e0000f30:	e34e3001 	movt	r3, #57345	@ 0xe001
e0000f34:	e58d9004 	str	r9, [sp, #4]
e0000f38:	e58d3000 	str	r3, [sp]
e0000f3c:	e3a0320e 	mov	r3, #-536870912	@ 0xe0000000
e0000f40:	e3a02000 	mov	r2, #0
e0000f44:	e28d1008 	add	r1, sp, #8
e0000f48:	e8910003 	ldm	r1, {r0, r1}
e0000f4c:	ebffff61 	bl	e0000cd8 <create_untypeds_for_region>
e0000f50:	e3500000 	cmp	r0, #0
e0000f54:	0a00001d 	beq	e0000fd0 <create_untypeds+0x17c>
e0000f58:	e30b4600 	movw	r4, #46592	@ 0xb600
e0000f5c:	e34e4001 	movt	r4, #57345	@ 0xe001
e0000f60:	e2848020 	add	r8, r4, #32
e0000f64:	e28d7010 	add	r7, sp, #16
e0000f68:	e3a05000 	mov	r5, #0
e0000f6c:	e28d6008 	add	r6, sp, #8
e0000f70:	e284305c 	add	r3, r4, #92	@ 0x5c
e0000f74:	e8930003 	ldm	r3, {r0, r1}
e0000f78:	e8870003 	stm	r7, {r0, r1}
e0000f7c:	e584505c 	str	r5, [r4, #92]	@ 0x5c
e0000f80:	e5845060 	str	r5, [r4, #96]	@ 0x60
e0000f84:	e58d9004 	str	r9, [sp, #4]
e0000f88:	e59d3014 	ldr	r3, [sp, #20]
e0000f8c:	e58d3000 	str	r3, [sp]
e0000f90:	e59d3010 	ldr	r3, [sp, #16]
e0000f94:	e1a02005 	mov	r2, r5
e0000f98:	e8960003 	ldm	r6, {r0, r1}
e0000f9c:	ebffff4d 	bl	e0000cd8 <create_untypeds_for_region>
e0000fa0:	e3500000 	cmp	r0, #0
e0000fa4:	0a000009 	beq	e0000fd0 <create_untypeds+0x17c>
e0000fa8:	e2844008 	add	r4, r4, #8
e0000fac:	e1580004 	cmp	r8, r4
e0000fb0:	1affffee 	bne	e0000f70 <create_untypeds+0x11c>
e0000fb4:	e30b3600 	movw	r3, #46592	@ 0xb600
e0000fb8:	e34e3001 	movt	r3, #57345	@ 0xe001
e0000fbc:	e593207c 	ldr	r2, [r3, #124]	@ 0x7c
e0000fc0:	e5933080 	ldr	r3, [r3, #128]	@ 0x80
e0000fc4:	e582904c 	str	r9, [r2, #76]	@ 0x4c
e0000fc8:	e5823050 	str	r3, [r2, #80]	@ 0x50
e0000fcc:	e3a00001 	mov	r0, #1
e0000fd0:	e28dd020 	add	sp, sp, #32
e0000fd4:	e8bd87f0 	pop	{r4, r5, r6, r7, r8, r9, sl, pc}

e0000fd8 <create_it_address_space>:
e0000fd8:	e24dd008 	sub	sp, sp, #8
e0000fdc:	e92d4ff0 	push	{r4, r5, r6, r7, r8, r9, sl, fp, lr}
e0000fe0:	e24dd01c 	sub	sp, sp, #28
e0000fe4:	e1a0a000 	mov	sl, r0
e0000fe8:	e28d5008 	add	r5, sp, #8
e0000fec:	e8850006 	stm	r5, {r1, r2}
e0000ff0:	e58d3044 	str	r3, [sp, #68]	@ 0x44
e0000ff4:	e59d8048 	ldr	r8, [sp, #72]	@ 0x48
e0000ff8:	e30b4600 	movw	r4, #46592	@ 0xb600
e0000ffc:	e34e4001 	movt	r4, #57345	@ 0xe001
e0001000:	e5940088 	ldr	r0, [r4, #136]	@ 0x88
e0001004:	eb00411a 	bl	e0011474 <copyGlobalMappings>
e0001008:	e5940088 	ldr	r0, [r4, #136]	@ 0x88
e000100c:	e2802203 	add	r2, r0, #805306368	@ 0x30000000
e0001010:	e2801dff 	add	r1, r0, #16320	@ 0x3fc0
e0001014:	e281103f 	add	r1, r1, #63	@ 0x3f
e0001018:	eb00445f 	bl	e001219c <cleanCacheRange_PoU>
e000101c:	e5947088 	ldr	r7, [r4, #136]	@ 0x88
e0001020:	e3c77dff 	bic	r7, r7, #16320	@ 0x3fc0
e0001024:	e3c7703f 	bic	r7, r7, #63	@ 0x3f
e0001028:	e387b019 	orr	fp, r7, #25
e000102c:	e5943080 	ldr	r3, [r4, #128]	@ 0x80
e0001030:	e58d3004 	str	r3, [sp, #4]
e0001034:	e8950003 	ldm	r5, {r0, r1}
e0001038:	eb004bc8 	bl	e0013f60 <cap_get_capPtr>
e000103c:	e580b030 	str	fp, [r0, #48]	@ 0x30
e0001040:	e3a03001 	mov	r3, #1
e0001044:	e5803034 	str	r3, [r0, #52]	@ 0x34
e0001048:	e3a03000 	mov	r3, #0
e000104c:	e5803038 	str	r3, [r0, #56]	@ 0x38
e0001050:	e3a03003 	mov	r3, #3
e0001054:	e580303c 	str	r3, [r0, #60]	@ 0x3c
e0001058:	e59d4044 	ldr	r4, [sp, #68]	@ 0x44
e000105c:	e1a04a24 	lsr	r4, r4, #20
e0001060:	e1a04a04 	lsl	r4, r4, #20
e0001064:	e1580004 	cmp	r8, r4
e0001068:	9a00001a 	bls	e00010d8 <create_it_address_space+0x100>
e000106c:	e30b5600 	movw	r5, #46592	@ 0xb600
e0001070:	e34e5001 	movt	r5, #57345	@ 0xe001
e0001074:	e3009201 	movw	r9, #513	@ 0x201
e0001078:	e28d6010 	add	r6, sp, #16
e000107c:	e59530a0 	ldr	r3, [r5, #160]	@ 0xa0
e0001080:	e2832b01 	add	r2, r3, #1024	@ 0x400
e0001084:	e58520a0 	str	r2, [r5, #160]	@ 0xa0
e0001088:	e3c33fff 	bic	r3, r3, #1020	@ 0x3fc
e000108c:	e3c33003 	bic	r3, r3, #3
e0001090:	e1a02a24 	lsr	r2, r4, #20
e0001094:	e2831203 	add	r1, r3, #805306368	@ 0x30000000
e0001098:	e1811009 	orr	r1, r1, r9
e000109c:	e7871102 	str	r1, [r7, r2, lsl #2]
e00010a0:	e3833007 	orr	r3, r3, #7
e00010a4:	e58d3010 	str	r3, [sp, #16]
e00010a8:	e3823202 	orr	r3, r2, #536870912	@ 0x20000000
e00010ac:	e3833a01 	orr	r3, r3, #4096	@ 0x1000
e00010b0:	e58d3014 	str	r3, [sp, #20]
e00010b4:	e896000c 	ldm	r6, {r2, r3}
e00010b8:	e28d1008 	add	r1, sp, #8
e00010bc:	e8910003 	ldm	r1, {r0, r1}
e00010c0:	ebfffe9f 	bl	e0000b44 <provide_cap>
e00010c4:	e3500000 	cmp	r0, #0
e00010c8:	0a000011 	beq	e0001114 <create_it_address_space+0x13c>
e00010cc:	e2844601 	add	r4, r4, #1048576	@ 0x100000
e00010d0:	e1580004 	cmp	r8, r4
e00010d4:	8affffe8 	bhi	e000107c <create_it_address_space+0xa4>
e00010d8:	e30b3600 	movw	r3, #46592	@ 0xb600
e00010dc:	e34e3001 	movt	r3, #57345	@ 0xe001
e00010e0:	e5932080 	ldr	r2, [r3, #128]	@ 0x80
e00010e4:	e593307c 	ldr	r3, [r3, #124]	@ 0x7c
e00010e8:	e59d1004 	ldr	r1, [sp, #4]
e00010ec:	e583102c 	str	r1, [r3, #44]	@ 0x2c
e00010f0:	e5832030 	str	r2, [r3, #48]	@ 0x30
e00010f4:	e58ab000 	str	fp, [sl]
e00010f8:	e3a03001 	mov	r3, #1
e00010fc:	e58a3004 	str	r3, [sl, #4]
e0001100:	e1a0000a 	mov	r0, sl
e0001104:	e28dd01c 	add	sp, sp, #28
e0001108:	e8bd4ff0 	pop	{r4, r5, r6, r7, r8, r9, sl, fp, lr}
e000110c:	e28dd008 	add	sp, sp, #8
e0001110:	e12fff1e 	bx	lr
e0001114:	e3a03000 	mov	r3, #0
e0001118:	e58a3000 	str	r3, [sl]
e000111c:	e58a3004 	str	r3, [sl, #4]
e0001120:	eafffff6 	b	e0001100 <create_it_address_space+0x128>

e0001124 <create_it_asid_pool>:
e0001124:	e92d41f0 	push	{r4, r5, r6, r7, r8, lr}
e0001128:	e24dd008 	sub	sp, sp, #8
e000112c:	e1a06000 	mov	r6, r0
e0001130:	e1a0700d 	mov	r7, sp
e0001134:	e8870006 	stm	r7, {r1, r2}
e0001138:	e30b3600 	movw	r3, #46592	@ 0xb600
e000113c:	e34e3001 	movt	r3, #57345	@ 0xe001
e0001140:	e593408c 	ldr	r4, [r3, #140]	@ 0x8c
e0001144:	e3c4400f 	bic	r4, r4, #15
e0001148:	e3844005 	orr	r4, r4, #5
e000114c:	e8970003 	ldm	r7, {r0, r1}
e0001150:	eb004b82 	bl	e0013f60 <cap_get_capPtr>
e0001154:	e5804060 	str	r4, [r0, #96]	@ 0x60
e0001158:	e3a05000 	mov	r5, #0
e000115c:	e5805064 	str	r5, [r0, #100]	@ 0x64
e0001160:	e5805068 	str	r5, [r0, #104]	@ 0x68
e0001164:	e3a08003 	mov	r8, #3
e0001168:	e580806c 	str	r8, [r0, #108]	@ 0x6c
e000116c:	e8970003 	ldm	r7, {r0, r1}
e0001170:	eb004b7a 	bl	e0013f60 <cap_get_capPtr>
e0001174:	e3a0300b 	mov	r3, #11
e0001178:	e5803050 	str	r3, [r0, #80]	@ 0x50
e000117c:	e5805054 	str	r5, [r0, #84]	@ 0x54
e0001180:	e5805058 	str	r5, [r0, #88]	@ 0x58
e0001184:	e580805c 	str	r8, [r0, #92]	@ 0x5c
e0001188:	e5864000 	str	r4, [r6]
e000118c:	e5865004 	str	r5, [r6, #4]
e0001190:	e1a00006 	mov	r0, r6
e0001194:	e28dd008 	add	sp, sp, #8
e0001198:	e8bd81f0 	pop	{r4, r5, r6, r7, r8, pc}

e000119c <create_initial_thread>:
e000119c:	e92d41f0 	push	{r4, r5, r6, r7, r8, lr}
e00011a0:	e24dd020 	sub	sp, sp, #32
e00011a4:	e28dc008 	add	ip, sp, #8
e00011a8:	e88c0003 	stm	ip, {r0, r1}
e00011ac:	e1a0100d 	mov	r1, sp
e00011b0:	e881000c 	stm	r1, {r2, r3}
e00011b4:	e30b3600 	movw	r3, #46592	@ 0xb600
e00011b8:	e34e3001 	movt	r3, #57345	@ 0xe001
e00011bc:	e593809c 	ldr	r8, [r3, #156]	@ 0x9c
e00011c0:	e3a03005 	mov	r3, #5
e00011c4:	e588317c 	str	r3, [r8, #380]	@ 0x17c
e00011c8:	e3a03e15 	mov	r3, #336	@ 0x150
e00011cc:	e5883140 	str	r3, [r8, #320]	@ 0x140
e00011d0:	e89c0003 	ldm	ip, {r0, r1}
e00011d4:	eb004b61 	bl	e0013f60 <cap_get_capPtr>
e00011d8:	e28d3044 	add	r3, sp, #68	@ 0x44
e00011dc:	e893000c 	ldm	r3, {r2, r3}
e00011e0:	e28010a0 	add	r1, r0, #160	@ 0xa0
e00011e4:	e28d0014 	add	r0, sp, #20
e00011e8:	eb004cf6 	bl	e00145c8 <deriveCap>
e00011ec:	e59d3014 	ldr	r3, [sp, #20]
e00011f0:	e3530000 	cmp	r3, #0
e00011f4:	13a07000 	movne	r7, #0
e00011f8:	1a000040 	bne	e0001300 <create_initial_thread+0x164>
e00011fc:	e2884c01 	add	r4, r8, #256	@ 0x100
e0001200:	e1a07004 	mov	r7, r4
e0001204:	e28d5008 	add	r5, sp, #8
e0001208:	e8950003 	ldm	r5, {r0, r1}
e000120c:	eb004b53 	bl	e0013f60 <cap_get_capPtr>
e0001210:	e30b6600 	movw	r6, #46592	@ 0xb600
e0001214:	e34e6001 	movt	r6, #57345	@ 0xe001
e0001218:	e596309c 	ldr	r3, [r6, #156]	@ 0x9c
e000121c:	e2802020 	add	r2, r0, #32
e0001220:	e8950003 	ldm	r5, {r0, r1}
e0001224:	eb004db3 	bl	e00148f8 <cteInsert>
e0001228:	e8950003 	ldm	r5, {r0, r1}
e000122c:	eb004b4b 	bl	e0013f60 <cap_get_capPtr>
e0001230:	e596309c 	ldr	r3, [r6, #156]	@ 0x9c
e0001234:	e2833010 	add	r3, r3, #16
e0001238:	e2802030 	add	r2, r0, #48	@ 0x30
e000123c:	e1a0100d 	mov	r1, sp
e0001240:	e8910003 	ldm	r1, {r0, r1}
e0001244:	eb004dab 	bl	e00148f8 <cteInsert>
e0001248:	e8950003 	ldm	r5, {r0, r1}
e000124c:	eb004b43 	bl	e0013f60 <cap_get_capPtr>
e0001250:	e596309c 	ldr	r3, [r6, #156]	@ 0x9c
e0001254:	e2833040 	add	r3, r3, #64	@ 0x40
e0001258:	e28020a0 	add	r2, r0, #160	@ 0xa0
e000125c:	e28d1020 	add	r1, sp, #32
e0001260:	e9110003 	ldmdb	r1, {r0, r1}
e0001264:	eb004da3 	bl	e00148f8 <cteInsert>
e0001268:	e59d3040 	ldr	r3, [sp, #64]	@ 0x40
e000126c:	e5883184 	str	r3, [r8, #388]	@ 0x184
e0001270:	e59d303c 	ldr	r3, [sp, #60]	@ 0x3c
e0001274:	e5883100 	str	r3, [r8, #256]	@ 0x100
e0001278:	e59d3038 	ldr	r3, [sp, #56]	@ 0x38
e000127c:	e588313c 	str	r3, [r8, #316]	@ 0x13c
e0001280:	e3a030ff 	mov	r3, #255	@ 0xff
e0001284:	e5883178 	str	r3, [r8, #376]	@ 0x178
e0001288:	e5883174 	str	r3, [r8, #372]	@ 0x174
e000128c:	e30b6228 	movw	r6, #45608	@ 0xb228
e0001290:	e34e6001 	movt	r6, #57345	@ 0xe001
e0001294:	e30c8000 	movw	r8, #49152	@ 0xc000
e0001298:	e34e8001 	movt	r8, #57345	@ 0xe001
e000129c:	e5983b14 	ldr	r3, [r8, #2836]	@ 0xb14
e00012a0:	e0863183 	add	r3, r6, r3, lsl #3
e00012a4:	e5933070 	ldr	r3, [r3, #112]	@ 0x70
e00012a8:	e5843070 	str	r3, [r4, #112]	@ 0x70
e00012ac:	e1a00004 	mov	r0, r4
e00012b0:	eb004822 	bl	e0013340 <setupReplyMaster>
e00012b4:	e3a01001 	mov	r1, #1
e00012b8:	e1a00004 	mov	r0, r4
e00012bc:	eb004e40 	bl	e0014bc4 <setThreadState>
e00012c0:	e5983b14 	ldr	r3, [r8, #2836]	@ 0xb14
e00012c4:	e0866183 	add	r6, r6, r3, lsl #3
e00012c8:	e5963070 	ldr	r3, [r6, #112]	@ 0x70
e00012cc:	e5883b04 	str	r3, [r8, #2820]	@ 0xb04
e00012d0:	e5963074 	ldr	r3, [r6, #116]	@ 0x74
e00012d4:	e5883b18 	str	r3, [r8, #2840]	@ 0xb18
e00012d8:	e8950003 	ldm	r5, {r0, r1}
e00012dc:	eb004b1f 	bl	e0013f60 <cap_get_capPtr>
e00012e0:	e3c4400f 	bic	r4, r4, #15
e00012e4:	e384400c 	orr	r4, r4, #12
e00012e8:	e5804010 	str	r4, [r0, #16]
e00012ec:	e3a03000 	mov	r3, #0
e00012f0:	e5803014 	str	r3, [r0, #20]
e00012f4:	e5803018 	str	r3, [r0, #24]
e00012f8:	e3a03003 	mov	r3, #3
e00012fc:	e580301c 	str	r3, [r0, #28]
e0001300:	e1a00007 	mov	r0, r7
e0001304:	e28dd020 	add	sp, sp, #32
e0001308:	e8bd81f0 	pop	{r4, r5, r6, r7, r8, pc}

e000130c <configureIdleThread>:
e000130c:	e92d4010 	push	{r4, lr}
e0001310:	e300215f 	movw	r2, #351	@ 0x15f
e0001314:	e5802040 	str	r2, [r0, #64]	@ 0x40
e0001318:	e300281c 	movw	r2, #2076	@ 0x81c
e000131c:	e34e2001 	movt	r2, #57345	@ 0xe001
e0001320:	e580203c 	str	r2, [r0, #60]	@ 0x3c
e0001324:	e3a01007 	mov	r1, #7
e0001328:	eb004e25 	bl	e0014bc4 <setThreadState>
e000132c:	e8bd8010 	pop	{r4, pc}

e0001330 <create_idle_thread>:
e0001330:	e92d4010 	push	{r4, lr}
e0001334:	e59f0010 	ldr	r0, [pc, #16]	@ e000134c <create_idle_thread+0x1c>
e0001338:	e30c3000 	movw	r3, #49152	@ 0xc000
e000133c:	e34e3001 	movt	r3, #57345	@ 0xe001
e0001340:	e583086c 	str	r0, [r3, #2156]	@ 0x86c
e0001344:	ebfffff0 	bl	e000130c <configureIdleThread>
e0001348:	e8bd8010 	pop	{r4, pc}
e000134c:	e001b500 	.word	0xe001b500

e0001350 <map_kernel_window>:
e0001350:	e92d4070 	push	{r4, r5, r6, lr}
e0001354:	e59fe0cc 	ldr	lr, [pc, #204]	@ e0001428 <map_kernel_window+0xd8>
e0001358:	e3a0cc0e 	mov	ip, #3584	@ 0xe00
e000135c:	e3a00201 	mov	r0, #268435456	@ 0x10000000
e0001360:	e3054606 	movw	r4, #22022	@ 0x5606
e0001364:	e3404004 	movt	r4, #4
e0001368:	e24e5b0e 	sub	r5, lr, #14336	@ 0x3800
e000136c:	ea000006 	b	e000138c <map_kernel_window+0x3c>
e0001370:	e5a31004 	str	r1, [r3, #4]!
e0001374:	e1530002 	cmp	r3, r2
e0001378:	1afffffc 	bne	e0001370 <map_kernel_window+0x20>
e000137c:	e2800401 	add	r0, r0, #16777216	@ 0x1000000
e0001380:	e28ee040 	add	lr, lr, #64	@ 0x40
e0001384:	e350042f 	cmp	r0, #788529152	@ 0x2f000000
e0001388:	0a00000c 	beq	e00013c0 <map_kernel_window+0x70>
e000138c:	e1801004 	orr	r1, r0, r4
e0001390:	e1a0300c 	mov	r3, ip
e0001394:	e28cc010 	add	ip, ip, #16
e0001398:	e15c0003 	cmp	ip, r3
e000139c:	9afffff6 	bls	e000137c <map_kernel_window+0x2c>
e00013a0:	e2832001 	add	r2, r3, #1
e00013a4:	e152000c 	cmp	r2, ip
e00013a8:	83a02001 	movhi	r2, #1
e00013ac:	93a02010 	movls	r2, #16
e00013b0:	e0822003 	add	r2, r2, r3
e00013b4:	e0852102 	add	r2, r5, r2, lsl #2
e00013b8:	e1a0300e 	mov	r3, lr
e00013bc:	eaffffeb 	b	e0001370 <map_kernel_window+0x20>
e00013c0:	e59f3064 	ldr	r3, [pc, #100]	@ e000142c <map_kernel_window+0xdc>
e00013c4:	e305c606 	movw	ip, #22022	@ 0x5606
e00013c8:	e3a01000 	mov	r1, #0
e00013cc:	e3421ff0 	movt	r1, #12272	@ 0x2ff0
e00013d0:	e180200c 	orr	r2, r0, ip
e00013d4:	e4832004 	str	r2, [r3], #4
e00013d8:	e2800601 	add	r0, r0, #1048576	@ 0x100000
e00013dc:	e1500001 	cmp	r0, r1
e00013e0:	1afffffa 	bne	e00013d0 <map_kernel_window+0x80>
e00013e4:	e30c0000 	movw	r0, #49152	@ 0xc000
e00013e8:	e34e0002 	movt	r0, #57346	@ 0xe002
e00013ec:	e2803203 	add	r3, r0, #805306368	@ 0x30000000
e00013f0:	e3833c02 	orr	r3, r3, #512	@ 0x200
e00013f4:	e3833001 	orr	r3, r3, #1
e00013f8:	e59f2030 	ldr	r2, [pc, #48]	@ e0001430 <map_kernel_window+0xe0>
e00013fc:	e5823ffc 	str	r3, [r2, #4092]	@ 0xffc
e0001400:	e3a01b01 	mov	r1, #1024	@ 0x400
e0001404:	eb005f15 	bl	e0019060 <memzero>
e0001408:	e3a03003 	mov	r3, #3
e000140c:	e3a02001 	mov	r2, #1
e0001410:	e3a01000 	mov	r1, #0
e0001414:	e34f1fff 	movt	r1, #65535	@ 0xffff
e0001418:	e59f0014 	ldr	r0, [pc, #20]	@ e0001434 <map_kernel_window+0xe4>
e000141c:	ebfffbb7 	bl	e0000300 <map_kernel_frame>
e0001420:	ebfffd0b 	bl	e0000854 <map_kernel_devices>
e0001424:	e8bd8070 	pop	{r4, r5, r6, pc}
e0001428:	e00337fc 	.word	0xe00337fc
e000142c:	e0033fc0 	.word	0xe0033fc0
e0001430:	e0033000 	.word	0xe0033000
e0001434:	10010000 	.word	0x10010000

e0001438 <alloc_rootserver_obj>:
e0001438:	e92d4010 	push	{r4, lr}
e000143c:	e30b3600 	movw	r3, #46592	@ 0xb600
e0001440:	e34e3001 	movt	r3, #57345	@ 0xe001
e0001444:	e59340a8 	ldr	r4, [r3, #168]	@ 0xa8
e0001448:	e1a01011 	lsl	r1, r1, r0
e000144c:	e0812004 	add	r2, r1, r4
e0001450:	e58320a8 	str	r2, [r3, #168]	@ 0xa8
e0001454:	e1a00004 	mov	r0, r4
e0001458:	eb005f00 	bl	e0019060 <memzero>
e000145c:	e1a00004 	mov	r0, r4
e0001460:	e8bd8010 	pop	{r4, pc}

e0001464 <maybe_alloc_extra_bi>:
e0001464:	e1510000 	cmp	r1, r0
e0001468:	312fff1e 	bxcc	lr
e000146c:	e1a03001 	mov	r3, r1
e0001470:	e30b2600 	movw	r2, #46592	@ 0xb600
e0001474:	e34e2001 	movt	r2, #57345	@ 0xe001
e0001478:	e5922098 	ldr	r2, [r2, #152]	@ 0x98
e000147c:	e3520000 	cmp	r2, #0
e0001480:	112fff1e 	bxne	lr
e0001484:	e92d4010 	push	{r4, lr}
e0001488:	e3a01001 	mov	r1, #1
e000148c:	e1a00003 	mov	r0, r3
e0001490:	ebffffe8 	bl	e0001438 <alloc_rootserver_obj>
e0001494:	e30b3600 	movw	r3, #46592	@ 0xb600
e0001498:	e34e3001 	movt	r3, #57345	@ 0xe001
e000149c:	e5830098 	str	r0, [r3, #152]	@ 0x98
e00014a0:	e8bd8010 	pop	{r4, pc}

e00014a4 <init_freemem>:
e00014a4:	e3500000 	cmp	r0, #0
e00014a8:	012fff1e 	bxeq	lr
e00014ac:	e92d4ff0 	push	{r4, r5, r6, r7, r8, r9, sl, fp, lr}
e00014b0:	e24dd03c 	sub	sp, sp, #60	@ 0x3c
e00014b4:	e1a0b002 	mov	fp, r2
e00014b8:	e1a07003 	mov	r7, r3
e00014bc:	e3a04000 	mov	r4, #0
e00014c0:	e281c004 	add	ip, r1, #4
e00014c4:	e241e004 	sub	lr, r1, #4
e00014c8:	ea000003 	b	e00014dc <init_freemem+0x38>
e00014cc:	e2846001 	add	r6, r4, #1
e00014d0:	e1500006 	cmp	r0, r6
e00014d4:	0a00015b 	beq	e0001a48 <init_freemem+0x5a4>
e00014d8:	e1a04006 	mov	r4, r6
e00014dc:	e7913184 	ldr	r3, [r1, r4, lsl #3]
e00014e0:	e79c2184 	ldr	r2, [ip, r4, lsl #3]
e00014e4:	e1530002 	cmp	r3, r2
e00014e8:	2a00014d 	bcs	e0001a24 <init_freemem+0x580>
e00014ec:	e3540000 	cmp	r4, #0
e00014f0:	0afffff5 	beq	e00014cc <init_freemem+0x28>
e00014f4:	e79e2184 	ldr	r2, [lr, r4, lsl #3]
e00014f8:	e1530002 	cmp	r3, r2
e00014fc:	2afffff2 	bcs	e00014cc <init_freemem+0x28>
e0001500:	e3a00000 	mov	r0, #0
e0001504:	ea000147 	b	e0001a28 <init_freemem+0x584>
e0001508:	e2833001 	add	r3, r3, #1
e000150c:	e15b0003 	cmp	fp, r3
e0001510:	0a000151 	beq	e0001a5c <init_freemem+0x5b8>
e0001514:	e7972183 	ldr	r2, [r7, r3, lsl #3]
e0001518:	e79e0183 	ldr	r0, [lr, r3, lsl #3]
e000151c:	e1520000 	cmp	r2, r0
e0001520:	8a000142 	bhi	e0001a30 <init_freemem+0x58c>
e0001524:	e3530000 	cmp	r3, #0
e0001528:	0afffff6 	beq	e0001508 <init_freemem+0x64>
e000152c:	e7950183 	ldr	r0, [r5, r3, lsl #3]
e0001530:	e1520000 	cmp	r2, r0
e0001534:	2afffff3 	bcs	e0001508 <init_freemem+0x64>
e0001538:	e3a00000 	mov	r0, #0
e000153c:	ea000139 	b	e0001a28 <init_freemem+0x584>
e0001540:	e1a03002 	mov	r3, r2
e0001544:	e7912183 	ldr	r2, [r1, r3, lsl #3]
e0001548:	e79c0183 	ldr	r0, [ip, r3, lsl #3]
e000154c:	e150000e 	cmp	r0, lr
e0001550:	9280020d 	addls	r0, r0, #-805306368	@ 0xd0000000
e0001554:	81a00008 	movhi	r0, r8
e0001558:	e0859183 	add	r9, r5, r3, lsl #3
e000155c:	e5890004 	str	r0, [r9, #4]
e0001560:	e152000e 	cmp	r2, lr
e0001564:	9282220d 	addls	r2, r2, #-805306368	@ 0xd0000000
e0001568:	81a02008 	movhi	r2, r8
e000156c:	e7852183 	str	r2, [r5, r3, lsl #3]
e0001570:	e2832001 	add	r2, r3, #1
e0001574:	e1530004 	cmp	r3, r4
e0001578:	1afffff0 	bne	e0001540 <init_freemem+0x9c>
e000157c:	e35b0000 	cmp	fp, #0
e0001580:	0a00006c 	beq	e0001738 <init_freemem+0x294>
e0001584:	e3a05000 	mov	r5, #0
e0001588:	e1a08005 	mov	r8, r5
e000158c:	e30b3600 	movw	r3, #46592	@ 0xb600
e0001590:	e34e3001 	movt	r3, #57345	@ 0xe001
e0001594:	e58d3000 	str	r3, [sp]
e0001598:	e58d4004 	str	r4, [sp, #4]
e000159c:	ea00000e 	b	e00015dc <init_freemem+0x138>
e00015a0:	e2822203 	add	r2, r2, #805306368	@ 0x30000000
e00015a4:	e58d2018 	str	r2, [sp, #24]
e00015a8:	e2833203 	add	r3, r3, #805306368	@ 0x30000000
e00015ac:	e58d301c 	str	r3, [sp, #28]
e00015b0:	e28d3018 	add	r3, sp, #24
e00015b4:	e8930003 	ldm	r3, {r0, r1}
e00015b8:	ebfffc56 	bl	e0000718 <reserve_region>
e00015bc:	e2855001 	add	r5, r5, #1
e00015c0:	e1580006 	cmp	r8, r6
e00015c4:	23a03000 	movcs	r3, #0
e00015c8:	33a03001 	movcc	r3, #1
e00015cc:	e15b0005 	cmp	fp, r5
e00015d0:	93a03000 	movls	r3, #0
e00015d4:	e3530000 	cmp	r3, #0
e00015d8:	0a000042 	beq	e00016e8 <init_freemem+0x244>
e00015dc:	e1a09185 	lsl	r9, r5, #3
e00015e0:	e0874009 	add	r4, r7, r9
e00015e4:	e7972185 	ldr	r2, [r7, r5, lsl #3]
e00015e8:	e5943004 	ldr	r3, [r4, #4]
e00015ec:	e1520003 	cmp	r2, r3
e00015f0:	02855001 	addeq	r5, r5, #1
e00015f4:	0afffff1 	beq	e00015c0 <init_freemem+0x11c>
e00015f8:	e59d1000 	ldr	r1, [sp]
e00015fc:	e0811188 	add	r1, r1, r8, lsl #3
e0001600:	e59100b0 	ldr	r0, [r1, #176]	@ 0xb0
e0001604:	e591a0b4 	ldr	sl, [r1, #180]	@ 0xb4
e0001608:	e150000a 	cmp	r0, sl
e000160c:	22888001 	addcs	r8, r8, #1
e0001610:	2affffea 	bcs	e00015c0 <init_freemem+0x11c>
e0001614:	e1530000 	cmp	r3, r0
e0001618:	9affffe0 	bls	e00015a0 <init_freemem+0xfc>
e000161c:	e152000a 	cmp	r2, sl
e0001620:	2a00000f 	bcs	e0001664 <init_freemem+0x1c0>
e0001624:	e1520000 	cmp	r2, r0
e0001628:	8a000014 	bhi	e0001680 <init_freemem+0x1dc>
e000162c:	e59d1000 	ldr	r1, [sp]
e0001630:	e0811188 	add	r1, r1, r8, lsl #3
e0001634:	e153000a 	cmp	r3, sl
e0001638:	31a0a003 	movcc	sl, r3
e000163c:	e581a0b0 	str	sl, [r1, #176]	@ 0xb0
e0001640:	e2822203 	add	r2, r2, #805306368	@ 0x30000000
e0001644:	e58d2020 	str	r2, [sp, #32]
e0001648:	e2833203 	add	r3, r3, #805306368	@ 0x30000000
e000164c:	e58d3024 	str	r3, [sp, #36]	@ 0x24
e0001650:	e28d3020 	add	r3, sp, #32
e0001654:	e8930003 	ldm	r3, {r0, r1}
e0001658:	ebfffc2e 	bl	e0000718 <reserve_region>
e000165c:	e2855001 	add	r5, r5, #1
e0001660:	eaffffd6 	b	e00015c0 <init_freemem+0x11c>
e0001664:	e59d3000 	ldr	r3, [sp]
e0001668:	e0833188 	add	r3, r3, r8, lsl #3
e000166c:	e28330b0 	add	r3, r3, #176	@ 0xb0
e0001670:	e8930003 	ldm	r3, {r0, r1}
e0001674:	ebfffc94 	bl	e00008cc <insert_region>
e0001678:	e2888001 	add	r8, r8, #1
e000167c:	eaffffcf 	b	e00015c0 <init_freemem+0x11c>
e0001680:	e59d3000 	ldr	r3, [sp]
e0001684:	e0833188 	add	r3, r3, r8, lsl #3
e0001688:	e28330b0 	add	r3, r3, #176	@ 0xb0
e000168c:	e8930003 	ldm	r3, {r0, r1}
e0001690:	e28d3010 	add	r3, sp, #16
e0001694:	e8830003 	stm	r3, {r0, r1}
e0001698:	e58d2014 	str	r2, [sp, #20]
e000169c:	e8930003 	ldm	r3, {r0, r1}
e00016a0:	ebfffc89 	bl	e00008cc <insert_region>
e00016a4:	e5943004 	ldr	r3, [r4, #4]
e00016a8:	e15a0003 	cmp	sl, r3
e00016ac:	92888001 	addls	r8, r8, #1
e00016b0:	9affffc2 	bls	e00015c0 <init_freemem+0x11c>
e00016b4:	e59d2000 	ldr	r2, [sp]
e00016b8:	e0822188 	add	r2, r2, r8, lsl #3
e00016bc:	e58230b0 	str	r3, [r2, #176]	@ 0xb0
e00016c0:	e7972009 	ldr	r2, [r7, r9]
e00016c4:	e2822203 	add	r2, r2, #805306368	@ 0x30000000
e00016c8:	e58d2028 	str	r2, [sp, #40]	@ 0x28
e00016cc:	e2833203 	add	r3, r3, #805306368	@ 0x30000000
e00016d0:	e58d302c 	str	r3, [sp, #44]	@ 0x2c
e00016d4:	e28d3028 	add	r3, sp, #40	@ 0x28
e00016d8:	e8930003 	ldm	r3, {r0, r1}
e00016dc:	ebfffc0d 	bl	e0000718 <reserve_region>
e00016e0:	e2855001 	add	r5, r5, #1
e00016e4:	eaffffb5 	b	e00015c0 <init_freemem+0x11c>
e00016e8:	e59d4004 	ldr	r4, [sp, #4]
e00016ec:	e15b0005 	cmp	fp, r5
e00016f0:	9a000011 	bls	e000173c <init_freemem+0x298>
e00016f4:	e2879004 	add	r9, r7, #4
e00016f8:	e28da030 	add	sl, sp, #48	@ 0x30
e00016fc:	ea000008 	b	e0001724 <init_freemem+0x280>
e0001700:	e2822203 	add	r2, r2, #805306368	@ 0x30000000
e0001704:	e58d2030 	str	r2, [sp, #48]	@ 0x30
e0001708:	e2833203 	add	r3, r3, #805306368	@ 0x30000000
e000170c:	e58d3034 	str	r3, [sp, #52]	@ 0x34
e0001710:	e89a0003 	ldm	sl, {r0, r1}
e0001714:	ebfffbff 	bl	e0000718 <reserve_region>
e0001718:	e2855001 	add	r5, r5, #1
e000171c:	e15b0005 	cmp	fp, r5
e0001720:	0a000005 	beq	e000173c <init_freemem+0x298>
e0001724:	e7972185 	ldr	r2, [r7, r5, lsl #3]
e0001728:	e7993185 	ldr	r3, [r9, r5, lsl #3]
e000172c:	e1520003 	cmp	r2, r3
e0001730:	2afffff8 	bcs	e0001718 <init_freemem+0x274>
e0001734:	eafffff1 	b	e0001700 <init_freemem+0x25c>
e0001738:	e1a0800b 	mov	r8, fp
e000173c:	e1560008 	cmp	r6, r8
e0001740:	9a000011 	bls	e000178c <init_freemem+0x2e8>
e0001744:	e30b6600 	movw	r6, #46592	@ 0xb600
e0001748:	e34e6001 	movt	r6, #57345	@ 0xe001
e000174c:	e28650b0 	add	r5, r6, #176	@ 0xb0
e0001750:	ea000003 	b	e0001764 <init_freemem+0x2c0>
e0001754:	e2883001 	add	r3, r8, #1
e0001758:	e1580004 	cmp	r8, r4
e000175c:	0a00000a 	beq	e000178c <init_freemem+0x2e8>
e0001760:	e1a08003 	mov	r8, r3
e0001764:	e0853188 	add	r3, r5, r8, lsl #3
e0001768:	e7952188 	ldr	r2, [r5, r8, lsl #3]
e000176c:	e5933004 	ldr	r3, [r3, #4]
e0001770:	e1520003 	cmp	r2, r3
e0001774:	2afffff6 	bcs	e0001754 <init_freemem+0x2b0>
e0001778:	e0863188 	add	r3, r6, r8, lsl #3
e000177c:	e28330b0 	add	r3, r3, #176	@ 0xb0
e0001780:	e8930003 	ldm	r3, {r0, r1}
e0001784:	ebfffc50 	bl	e00008cc <insert_region>
e0001788:	eafffff1 	b	e0001754 <init_freemem+0x2b0>
e000178c:	e30b3600 	movw	r3, #46592	@ 0xb600
e0001790:	e34e3001 	movt	r3, #57345	@ 0xe001
e0001794:	e5932078 	ldr	r2, [r3, #120]	@ 0x78
e0001798:	e5933074 	ldr	r3, [r3, #116]	@ 0x74
e000179c:	e1520003 	cmp	r2, r3
e00017a0:	13a00000 	movne	r0, #0
e00017a4:	1a00009f 	bne	e0001a28 <init_freemem+0x584>
e00017a8:	e30b3600 	movw	r3, #46592	@ 0xb600
e00017ac:	e34e3001 	movt	r3, #57345	@ 0xe001
e00017b0:	e593206c 	ldr	r2, [r3, #108]	@ 0x6c
e00017b4:	e5933070 	ldr	r3, [r3, #112]	@ 0x70
e00017b8:	e1520003 	cmp	r2, r3
e00017bc:	1a000027 	bne	e0001860 <init_freemem+0x3bc>
e00017c0:	e30b3600 	movw	r3, #46592	@ 0xb600
e00017c4:	e34e3001 	movt	r3, #57345	@ 0xe001
e00017c8:	e5932064 	ldr	r2, [r3, #100]	@ 0x64
e00017cc:	e5933068 	ldr	r3, [r3, #104]	@ 0x68
e00017d0:	e1520003 	cmp	r2, r3
e00017d4:	1a000036 	bne	e00018b4 <init_freemem+0x410>
e00017d8:	e30b3600 	movw	r3, #46592	@ 0xb600
e00017dc:	e34e3001 	movt	r3, #57345	@ 0xe001
e00017e0:	e593205c 	ldr	r2, [r3, #92]	@ 0x5c
e00017e4:	e5933060 	ldr	r3, [r3, #96]	@ 0x60
e00017e8:	e1520003 	cmp	r2, r3
e00017ec:	1a000032 	bne	e00018bc <init_freemem+0x418>
e00017f0:	e28d3010 	add	r3, sp, #16
e00017f4:	e28d205c 	add	r2, sp, #92	@ 0x5c
e00017f8:	e9920003 	ldmib	r2, {r0, r1}
e00017fc:	e8830003 	stm	r3, {r0, r1}
e0001800:	e59d3068 	ldr	r3, [sp, #104]	@ 0x68
e0001804:	e3530000 	cmp	r3, #0
e0001808:	13e04000 	mvnne	r4, #0
e000180c:	0a00008b 	beq	e0001a40 <init_freemem+0x59c>
e0001810:	e3a08001 	mov	r8, #1
e0001814:	e59d3068 	ldr	r3, [sp, #104]	@ 0x68
e0001818:	e1a08318 	lsl	r8, r8, r3
e000181c:	e2888a17 	add	r8, r8, #94208	@ 0x17000
e0001820:	e2888c02 	add	r8, r8, #512	@ 0x200
e0001824:	e28d3010 	add	r3, sp, #16
e0001828:	e8930003 	ldm	r3, {r0, r1}
e000182c:	ebfffac5 	bl	e0000348 <arch_get_n_paging>
e0001830:	e0885500 	add	r5, r8, r0, lsl #10
e0001834:	e59d3068 	ldr	r3, [sp, #104]	@ 0x68
e0001838:	e3530010 	cmp	r3, #16
e000183c:	21a06003 	movcs	r6, r3
e0001840:	33a06010 	movcc	r6, #16
e0001844:	e3540000 	cmp	r4, #0
e0001848:	ba00007a 	blt	e0001a38 <init_freemem+0x594>
e000184c:	e30b2600 	movw	r2, #46592	@ 0xb600
e0001850:	e34e2001 	movt	r2, #57345	@ 0xe001
e0001854:	e0822184 	add	r2, r2, r4, lsl #3
e0001858:	e3a0c000 	mov	ip, #0
e000185c:	ea000022 	b	e00018ec <init_freemem+0x448>
e0001860:	e3a04002 	mov	r4, #2
e0001864:	e28d3010 	add	r3, sp, #16
e0001868:	e28d205c 	add	r2, sp, #92	@ 0x5c
e000186c:	e9920003 	ldmib	r2, {r0, r1}
e0001870:	e8830003 	stm	r3, {r0, r1}
e0001874:	e59d3068 	ldr	r3, [sp, #104]	@ 0x68
e0001878:	e3530000 	cmp	r3, #0
e000187c:	1affffe3 	bne	e0001810 <init_freemem+0x36c>
e0001880:	e28d3010 	add	r3, sp, #16
e0001884:	e8930003 	ldm	r3, {r0, r1}
e0001888:	ebfffaae 	bl	e0000348 <arch_get_n_paging>
e000188c:	e1a05500 	lsl	r5, r0, #10
e0001890:	e2855a17 	add	r5, r5, #94208	@ 0x17000
e0001894:	e2855c02 	add	r5, r5, #512	@ 0x200
e0001898:	e59d3068 	ldr	r3, [sp, #104]	@ 0x68
e000189c:	e3530010 	cmp	r3, #16
e00018a0:	21a06003 	movcs	r6, r3
e00018a4:	33a06010 	movcc	r6, #16
e00018a8:	e3a08c72 	mov	r8, #29184	@ 0x7200
e00018ac:	e3408001 	movt	r8, #1
e00018b0:	eaffffe5 	b	e000184c <init_freemem+0x3a8>
e00018b4:	e3a04001 	mov	r4, #1
e00018b8:	eaffffe9 	b	e0001864 <init_freemem+0x3c0>
e00018bc:	e3a04000 	mov	r4, #0
e00018c0:	eaffffe7 	b	e0001864 <init_freemem+0x3c0>
e00018c4:	e283e064 	add	lr, r3, #100	@ 0x64
e00018c8:	e283105c 	add	r1, r3, #92	@ 0x5c
e00018cc:	e8910003 	ldm	r1, {r0, r1}
e00018d0:	e88e0003 	stm	lr, {r0, r1}
e00018d4:	e583c05c 	str	ip, [r3, #92]	@ 0x5c
e00018d8:	e583c060 	str	ip, [r3, #96]	@ 0x60
e00018dc:	e2444001 	sub	r4, r4, #1
e00018e0:	e2422008 	sub	r2, r2, #8
e00018e4:	e3740001 	cmn	r4, #1
e00018e8:	0a00004b 	beq	e0001a1c <init_freemem+0x578>
e00018ec:	e1a03002 	mov	r3, r2
e00018f0:	e5920060 	ldr	r0, [r2, #96]	@ 0x60
e00018f4:	e0401005 	sub	r1, r0, r5
e00018f8:	e1500001 	cmp	r0, r1
e00018fc:	3afffff0 	bcc	e00018c4 <init_freemem+0x420>
e0001900:	e1a01631 	lsr	r1, r1, r6
e0001904:	e1a09611 	lsl	r9, r1, r6
e0001908:	e592105c 	ldr	r1, [r2, #92]	@ 0x5c
e000190c:	e1510009 	cmp	r1, r9
e0001910:	8affffeb 	bhi	e00018c4 <init_freemem+0x420>
e0001914:	e28db008 	add	fp, sp, #8
e0001918:	e28d305c 	add	r3, sp, #92	@ 0x5c
e000191c:	e9930003 	ldmib	r3, {r0, r1}
e0001920:	e88b0003 	stm	fp, {r0, r1}
e0001924:	e28d3010 	add	r3, sp, #16
e0001928:	e8830003 	stm	r3, {r0, r1}
e000192c:	ebfffa85 	bl	e0000348 <arch_get_n_paging>
e0001930:	e30ba600 	movw	sl, #46592	@ 0xb600
e0001934:	e34ea001 	movt	sl, #57345	@ 0xe001
e0001938:	e58a90a8 	str	r9, [sl, #168]	@ 0xa8
e000193c:	e0898008 	add	r8, r9, r8
e0001940:	e0888500 	add	r8, r8, r0, lsl #10
e0001944:	e58a80ac 	str	r8, [sl, #172]	@ 0xac
e0001948:	e59d1068 	ldr	r1, [sp, #104]	@ 0x68
e000194c:	e1a00006 	mov	r0, r6
e0001950:	ebfffec3 	bl	e0001464 <maybe_alloc_extra_bi>
e0001954:	e3a01001 	mov	r1, #1
e0001958:	e3a00010 	mov	r0, #16
e000195c:	ebfffeb5 	bl	e0001438 <alloc_rootserver_obj>
e0001960:	e58a0084 	str	r0, [sl, #132]	@ 0x84
e0001964:	e59d1068 	ldr	r1, [sp, #104]	@ 0x68
e0001968:	e3a0000e 	mov	r0, #14
e000196c:	ebfffebc 	bl	e0001464 <maybe_alloc_extra_bi>
e0001970:	e3a01001 	mov	r1, #1
e0001974:	e3a0000e 	mov	r0, #14
e0001978:	ebfffeae 	bl	e0001438 <alloc_rootserver_obj>
e000197c:	e58a0088 	str	r0, [sl, #136]	@ 0x88
e0001980:	e59d1068 	ldr	r1, [sp, #104]	@ 0x68
e0001984:	e3a0000c 	mov	r0, #12
e0001988:	ebfffeb5 	bl	e0001464 <maybe_alloc_extra_bi>
e000198c:	e3a01001 	mov	r1, #1
e0001990:	e3a0000c 	mov	r0, #12
e0001994:	ebfffea7 	bl	e0001438 <alloc_rootserver_obj>
e0001998:	e58a008c 	str	r0, [sl, #140]	@ 0x8c
e000199c:	e3a01001 	mov	r1, #1
e00019a0:	e3a0000c 	mov	r0, #12
e00019a4:	ebfffea3 	bl	e0001438 <alloc_rootserver_obj>
e00019a8:	e58a0090 	str	r0, [sl, #144]	@ 0x90
e00019ac:	e3a01001 	mov	r1, #1
e00019b0:	e3a0000c 	mov	r0, #12
e00019b4:	ebfffe9f 	bl	e0001438 <alloc_rootserver_obj>
e00019b8:	e58a0094 	str	r0, [sl, #148]	@ 0x94
e00019bc:	e89b0003 	ldm	fp, {r0, r1}
e00019c0:	ebfffa60 	bl	e0000348 <arch_get_n_paging>
e00019c4:	e1a06000 	mov	r6, r0
e00019c8:	e1a01000 	mov	r1, r0
e00019cc:	e3a0000a 	mov	r0, #10
e00019d0:	ebfffe98 	bl	e0001438 <alloc_rootserver_obj>
e00019d4:	e58a00a0 	str	r0, [sl, #160]	@ 0xa0
e00019d8:	e0800506 	add	r0, r0, r6, lsl #10
e00019dc:	e58a00a4 	str	r0, [sl, #164]	@ 0xa4
e00019e0:	e3a01001 	mov	r1, #1
e00019e4:	e3a00009 	mov	r0, #9
e00019e8:	ebfffe92 	bl	e0001438 <alloc_rootserver_obj>
e00019ec:	e58a009c 	str	r0, [sl, #156]	@ 0x9c
e00019f0:	e284300b 	add	r3, r4, #11
e00019f4:	e08a3183 	add	r3, sl, r3, lsl #3
e00019f8:	e5932008 	ldr	r2, [r3, #8]
e00019fc:	e284700c 	add	r7, r4, #12
e0001a00:	e08a7187 	add	r7, sl, r7, lsl #3
e0001a04:	e0895005 	add	r5, r9, r5
e0001a08:	e5875004 	str	r5, [r7, #4]
e0001a0c:	e5872008 	str	r2, [r7, #8]
e0001a10:	e5839008 	str	r9, [r3, #8]
e0001a14:	e3a00001 	mov	r0, #1
e0001a18:	ea000002 	b	e0001a28 <init_freemem+0x584>
e0001a1c:	e3a00000 	mov	r0, #0
e0001a20:	ea000000 	b	e0001a28 <init_freemem+0x584>
e0001a24:	e3a00000 	mov	r0, #0
e0001a28:	e28dd03c 	add	sp, sp, #60	@ 0x3c
e0001a2c:	e8bd8ff0 	pop	{r4, r5, r6, r7, r8, r9, sl, fp, pc}
e0001a30:	e3a00000 	mov	r0, #0
e0001a34:	eafffffb 	b	e0001a28 <init_freemem+0x584>
e0001a38:	e3a00000 	mov	r0, #0
e0001a3c:	eafffff9 	b	e0001a28 <init_freemem+0x584>
e0001a40:	e59d0068 	ldr	r0, [sp, #104]	@ 0x68
e0001a44:	eafffff7 	b	e0001a28 <init_freemem+0x584>
e0001a48:	e35b0000 	cmp	fp, #0
e0001a4c:	13a03000 	movne	r3, #0
e0001a50:	1287e004 	addne	lr, r7, #4
e0001a54:	12475004 	subne	r5, r7, #4
e0001a58:	1afffead 	bne	e0001514 <init_freemem+0x70>
e0001a5c:	e30b2600 	movw	r2, #46592	@ 0xb600
e0001a60:	e34e2001 	movt	r2, #57345	@ 0xe001
e0001a64:	e3a03000 	mov	r3, #0
e0001a68:	e582305c 	str	r3, [r2, #92]	@ 0x5c
e0001a6c:	e5823060 	str	r3, [r2, #96]	@ 0x60
e0001a70:	e5823064 	str	r3, [r2, #100]	@ 0x64
e0001a74:	e5823068 	str	r3, [r2, #104]	@ 0x68
e0001a78:	e582306c 	str	r3, [r2, #108]	@ 0x6c
e0001a7c:	e5823070 	str	r3, [r2, #112]	@ 0x70
e0001a80:	e5823074 	str	r3, [r2, #116]	@ 0x74
e0001a84:	e5823078 	str	r3, [r2, #120]	@ 0x78
e0001a88:	e1a0e003 	mov	lr, r3
e0001a8c:	e342eff0 	movt	lr, #12272	@ 0x2ff0
e0001a90:	e1a08003 	mov	r8, r3
e0001a94:	e34f8ff0 	movt	r8, #65520	@ 0xfff0
e0001a98:	e28250b0 	add	r5, r2, #176	@ 0xb0
e0001a9c:	eafffea8 	b	e0001544 <init_freemem+0xa0>

e0001aa0 <create_ipcbuf_frame_cap>:
e0001aa0:	e24dd008 	sub	sp, sp, #8
e0001aa4:	e92d40f0 	push	{r4, r5, r6, r7, lr}
e0001aa8:	e24dd01c 	sub	sp, sp, #28
e0001aac:	e1a04000 	mov	r4, r0
e0001ab0:	e28d5010 	add	r5, sp, #16
e0001ab4:	e8850006 	stm	r5, {r1, r2}
e0001ab8:	e58d3034 	str	r3, [sp, #52]	@ 0x34
e0001abc:	e30b6600 	movw	r6, #46592	@ 0xb600
e0001ac0:	e34e6001 	movt	r6, #57345	@ 0xe001
e0001ac4:	e5967090 	ldr	r7, [r6, #144]	@ 0x90
e0001ac8:	e3a01a01 	mov	r1, #4096	@ 0x1000
e0001acc:	e1a00007 	mov	r0, r7
e0001ad0:	eb005d62 	bl	e0019060 <memzero>
e0001ad4:	e2872203 	add	r2, r7, #805306368	@ 0x30000000
e0001ad8:	e2871eff 	add	r1, r7, #4080	@ 0xff0
e0001adc:	e281100f 	add	r1, r1, #15
e0001ae0:	e1a00007 	mov	r0, r7
e0001ae4:	eb004187 	bl	e0012108 <cleanCacheRange_RAM>
e0001ae8:	e3a07000 	mov	r7, #0
e0001aec:	e58d700c 	str	r7, [sp, #12]
e0001af0:	e58d7008 	str	r7, [sp, #8]
e0001af4:	e3a03001 	mov	r3, #1
e0001af8:	e58d3004 	str	r3, [sp, #4]
e0001afc:	e59d303c 	ldr	r3, [sp, #60]	@ 0x3c
e0001b00:	e58d3000 	str	r3, [sp]
e0001b04:	e5963090 	ldr	r3, [r6, #144]	@ 0x90
e0001b08:	e28d2034 	add	r2, sp, #52	@ 0x34
e0001b0c:	e8920006 	ldm	r2, {r1, r2}
e0001b10:	e1a00004 	mov	r0, r4
e0001b14:	ebfffa2b 	bl	e00003c8 <create_mapped_it_frame_cap>
e0001b18:	e8950003 	ldm	r5, {r0, r1}
e0001b1c:	eb00490f 	bl	e0013f60 <cap_get_capPtr>
e0001b20:	e5943004 	ldr	r3, [r4, #4]
e0001b24:	e5942000 	ldr	r2, [r4]
e0001b28:	e58020a0 	str	r2, [r0, #160]	@ 0xa0
e0001b2c:	e58030a4 	str	r3, [r0, #164]	@ 0xa4
e0001b30:	e58070a8 	str	r7, [r0, #168]	@ 0xa8
e0001b34:	e3a03003 	mov	r3, #3
e0001b38:	e58030ac 	str	r3, [r0, #172]	@ 0xac
e0001b3c:	e1a00004 	mov	r0, r4
e0001b40:	e28dd01c 	add	sp, sp, #28
e0001b44:	e8bd40f0 	pop	{r4, r5, r6, r7, lr}
e0001b48:	e28dd008 	add	sp, sp, #8
e0001b4c:	e12fff1e 	bx	lr

e0001b50 <populate_bi_frame>:
e0001b50:	e92d47f0 	push	{r4, r5, r6, r7, r8, r9, sl, lr}
e0001b54:	e1a08000 	mov	r8, r0
e0001b58:	e1a07001 	mov	r7, r1
e0001b5c:	e1a06002 	mov	r6, r2
e0001b60:	e1a04003 	mov	r4, r3
e0001b64:	e30b3600 	movw	r3, #46592	@ 0xb600
e0001b68:	e34e3001 	movt	r3, #57345	@ 0xe001
e0001b6c:	e5935094 	ldr	r5, [r3, #148]	@ 0x94
e0001b70:	e3a01a01 	mov	r1, #4096	@ 0x1000
e0001b74:	e1a00005 	mov	r0, r5
e0001b78:	eb005d38 	bl	e0019060 <memzero>
e0001b7c:	e2852203 	add	r2, r5, #805306368	@ 0x30000000
e0001b80:	e2851eff 	add	r1, r5, #4080	@ 0xff0
e0001b84:	e281100f 	add	r1, r1, #15
e0001b88:	e1a00005 	mov	r0, r5
e0001b8c:	eb00415d 	bl	e0012108 <cleanCacheRange_RAM>
e0001b90:	e3540000 	cmp	r4, #0
e0001b94:	1a000016 	bne	e0001bf4 <populate_bi_frame+0xa4>
e0001b98:	e30be600 	movw	lr, #46592	@ 0xb600
e0001b9c:	e34ee001 	movt	lr, #57345	@ 0xe001
e0001ba0:	e59ec094 	ldr	ip, [lr, #148]	@ 0x94
e0001ba4:	e58c8004 	str	r8, [ip, #4]
e0001ba8:	e58c7008 	str	r7, [ip, #8]
e0001bac:	e3a03000 	mov	r3, #0
e0001bb0:	e58c300c 	str	r3, [ip, #12]
e0001bb4:	e58c6010 	str	r6, [ip, #16]
e0001bb8:	e3a0300c 	mov	r3, #12
e0001bbc:	e58c3044 	str	r3, [ip, #68]	@ 0x44
e0001bc0:	e30b2228 	movw	r2, #45608	@ 0xb228
e0001bc4:	e34e2001 	movt	r2, #57345	@ 0xe001
e0001bc8:	e30c3000 	movw	r3, #49152	@ 0xc000
e0001bcc:	e34e3001 	movt	r3, #57345	@ 0xe001
e0001bd0:	e5933b14 	ldr	r3, [r3, #2836]	@ 0xb14
e0001bd4:	e0822183 	add	r2, r2, r3, lsl #3
e0001bd8:	e5923070 	ldr	r3, [r2, #112]	@ 0x70
e0001bdc:	e58c3048 	str	r3, [ip, #72]	@ 0x48
e0001be0:	e58c4000 	str	r4, [ip]
e0001be4:	e58ec07c 	str	ip, [lr, #124]	@ 0x7c
e0001be8:	e3a03010 	mov	r3, #16
e0001bec:	e58e3080 	str	r3, [lr, #128]	@ 0x80
e0001bf0:	e8bd87f0 	pop	{r4, r5, r6, r7, r8, r9, sl, pc}
e0001bf4:	e30b3600 	movw	r3, #46592	@ 0xb600
e0001bf8:	e34e3001 	movt	r3, #57345	@ 0xe001
e0001bfc:	e5935098 	ldr	r5, [r3, #152]	@ 0x98
e0001c00:	e1a00004 	mov	r0, r4
e0001c04:	ebfffb74 	bl	e00009dc <calculate_extra_bi_size_bits>
e0001c08:	e3a09001 	mov	r9, #1
e0001c0c:	e1a09019 	lsl	r9, r9, r0
e0001c10:	e1a01009 	mov	r1, r9
e0001c14:	e1a00005 	mov	r0, r5
e0001c18:	eb005d10 	bl	e0019060 <memzero>
e0001c1c:	e2451001 	sub	r1, r5, #1
e0001c20:	e2852203 	add	r2, r5, #805306368	@ 0x30000000
e0001c24:	e0811009 	add	r1, r1, r9
e0001c28:	e1a00005 	mov	r0, r5
e0001c2c:	eb004135 	bl	e0012108 <cleanCacheRange_RAM>
e0001c30:	eaffffd8 	b	e0001b98 <populate_bi_frame+0x48>

e0001c34 <init_kernel>:
e0001c34:	e92d4ff0 	push	{r4, r5, r6, r7, r8, r9, sl, fp, lr}
e0001c38:	e24dd07c 	sub	sp, sp, #124	@ 0x7c
e0001c3c:	e1a05000 	mov	r5, r0
e0001c40:	e1a04001 	mov	r4, r1
e0001c44:	e58d2018 	str	r2, [sp, #24]
e0001c48:	e58d3020 	str	r3, [sp, #32]
e0001c4c:	e280720d 	add	r7, r0, #-805306368	@ 0xd0000000
e0001c50:	e281620d 	add	r6, r1, #-805306368	@ 0xd0000000
e0001c54:	e58d7050 	str	r7, [sp, #80]	@ 0x50
e0001c58:	e58d6054 	str	r6, [sp, #84]	@ 0x54
e0001c5c:	ebfffdbb 	bl	e0001350 <map_kernel_window>
e0001c60:	ebfffa35 	bl	e000053c <activate_kernel_vspace>
e0001c64:	e59f3558 	ldr	r3, [pc, #1368]	@ e00021c4 <init_kernel+0x590>
e0001c68:	ee0d3f90 	mcr	15, 0, r3, cr13, cr0, {4}
e0001c6c:	ebfffa22 	bl	e00004fc <fpsimd_HWCapTest>
e0001c70:	e3500000 	cmp	r0, #0
e0001c74:	1a000015 	bne	e0001cd0 <init_kernel+0x9c>
e0001c78:	ebfff952 	bl	e00001c8 <cpu_iface_init>
e0001c7c:	eb0040e7 	bl	e0012020 <armv_init_user_access>
e0001c80:	ebfffa89 	bl	e00006ac <initTimer>
e0001c84:	ebfff8f5 	bl	e0000060 <dist_init>
e0001c88:	ebfffa45 	bl	e00005a4 <initL2Cache>
e0001c8c:	e59d30a4 	ldr	r3, [sp, #164]	@ 0xa4
e0001c90:	e3530000 	cmp	r3, #0
e0001c94:	0a000015 	beq	e0001cf0 <init_kernel+0xbc>
e0001c98:	e59d30a0 	ldr	r3, [sp, #160]	@ 0xa0
e0001c9c:	e59d20a4 	ldr	r2, [sp, #164]	@ 0xa4
e0001ca0:	e0839002 	add	r9, r3, r2
e0001ca4:	e30f3fff 	movw	r3, #65535	@ 0xffff
e0001ca8:	e3423fef 	movt	r3, #12271	@ 0x2fef
e0001cac:	e59d20a0 	ldr	r2, [sp, #160]	@ 0xa0
e0001cb0:	e1520009 	cmp	r2, r9
e0001cb4:	91590003 	cmpls	r9, r3
e0001cb8:	8a000019 	bhi	e0001d24 <init_kernel+0xf0>
e0001cbc:	e59d30a4 	ldr	r3, [sp, #164]	@ 0xa4
e0001cc0:	e2833008 	add	r3, r3, #8
e0001cc4:	e58d301c 	str	r3, [sp, #28]
e0001cc8:	e58d2024 	str	r2, [sp, #36]	@ 0x24
e0001ccc:	ea00000a 	b	e0001cfc <init_kernel+0xc8>
e0001cd0:	eef83a10 	vmrs	r3, fpexc
e0001cd4:	e3c33101 	bic	r3, r3, #1073741824	@ 0x40000000
e0001cd8:	eee83a10 	vmsr	fpexc, r3
e0001cdc:	e30c3000 	movw	r3, #49152	@ 0xc000
e0001ce0:	e34e3001 	movt	r3, #57345	@ 0xe001
e0001ce4:	e3a02000 	mov	r2, #0
e0001ce8:	e5832b1c 	str	r2, [r3, #2844]	@ 0xb1c
e0001cec:	eaffffe1 	b	e0001c78 <init_kernel+0x44>
e0001cf0:	e59d90a4 	ldr	r9, [sp, #164]	@ 0xa4
e0001cf4:	e58d9024 	str	r9, [sp, #36]	@ 0x24
e0001cf8:	e58d901c 	str	r9, [sp, #28]
e0001cfc:	e59d3018 	ldr	r3, [sp, #24]
e0001d00:	e044a003 	sub	sl, r4, r3
e0001d04:	e28aba02 	add	fp, sl, #8192	@ 0x2000
e0001d08:	e59d001c 	ldr	r0, [sp, #28]
e0001d0c:	ebfffb32 	bl	e00009dc <calculate_extra_bi_size_bits>
e0001d10:	e58d0028 	str	r0, [sp, #40]	@ 0x28
e0001d14:	e3a08001 	mov	r8, #1
e0001d18:	e08b8018 	add	r8, fp, r8, lsl r0
e0001d1c:	e3780212 	cmn	r8, #536870913	@ 0x20000001
e0001d20:	9a000000 	bls	e0001d28 <init_kernel+0xf4>
e0001d24:	eb003afe 	bl	e0010924 <halt>
e0001d28:	e59d3018 	ldr	r3, [sp, #24]
e0001d2c:	e0453003 	sub	r3, r5, r3
e0001d30:	e58d302c 	str	r3, [sp, #44]	@ 0x2c
e0001d34:	e58d5060 	str	r5, [sp, #96]	@ 0x60
e0001d38:	e58d4064 	str	r4, [sp, #100]	@ 0x64
e0001d3c:	e58d306c 	str	r3, [sp, #108]	@ 0x6c
e0001d40:	e58d8070 	str	r8, [sp, #112]	@ 0x70
e0001d44:	e30b3600 	movw	r3, #46592	@ 0xb600
e0001d48:	e34e3001 	movt	r3, #57345	@ 0xe001
e0001d4c:	e3a0220e 	mov	r2, #-536870912	@ 0xe0000000
e0001d50:	e58320d0 	str	r2, [r3, #208]	@ 0xd0
e0001d54:	e3042000 	movw	r2, #16384	@ 0x4000
e0001d58:	e34e2003 	movt	r2, #57347	@ 0xe003
e0001d5c:	e58320d4 	str	r2, [r3, #212]	@ 0xd4
e0001d60:	e59d3024 	ldr	r3, [sp, #36]	@ 0x24
e0001d64:	e3530000 	cmp	r3, #0
e0001d68:	130b2600 	movwne	r2, #46592	@ 0xb600
e0001d6c:	134e2001 	movtne	r2, #57345	@ 0xe001
e0001d70:	1283320d 	addne	r3, r3, #-805306368	@ 0xd0000000
e0001d74:	158230d8 	strne	r3, [r2, #216]	@ 0xd8
e0001d78:	1289920d 	addne	r9, r9, #-805306368	@ 0xd0000000
e0001d7c:	158290dc 	strne	r9, [r2, #220]	@ 0xdc
e0001d80:	13a04002 	movne	r4, #2
e0001d84:	03a04001 	moveq	r4, #1
e0001d88:	e30f3fff 	movw	r3, #65535	@ 0xffff
e0001d8c:	e3423fef 	movt	r3, #12271	@ 0x2fef
e0001d90:	e1550003 	cmp	r5, r3
e0001d94:	8a000019 	bhi	e0001e00 <init_kernel+0x1cc>
e0001d98:	e2842001 	add	r2, r4, #1
e0001d9c:	e35604ff 	cmp	r6, #-16777216	@ 0xff000000
e0001da0:	9a00000b 	bls	e0001dd4 <init_kernel+0x1a0>
e0001da4:	e30b3600 	movw	r3, #46592	@ 0xb600
e0001da8:	e34e3001 	movt	r3, #57345	@ 0xe001
e0001dac:	e083c184 	add	ip, r3, r4, lsl #3
e0001db0:	e28cc0d0 	add	ip, ip, #208	@ 0xd0
e0001db4:	e59f140c 	ldr	r1, [pc, #1036]	@ e00021c8 <init_kernel+0x594>
e0001db8:	e8910003 	ldm	r1, {r0, r1}
e0001dbc:	e88c0003 	stm	ip, {r0, r1}
e0001dc0:	e0833182 	add	r3, r3, r2, lsl #3
e0001dc4:	e58370d0 	str	r7, [r3, #208]	@ 0xd0
e0001dc8:	e58360d4 	str	r6, [r3, #212]	@ 0xd4
e0001dcc:	e2844002 	add	r4, r4, #2
e0001dd0:	ea000015 	b	e0001e2c <init_kernel+0x1f8>
e0001dd4:	e30b3600 	movw	r3, #46592	@ 0xb600
e0001dd8:	e34e3001 	movt	r3, #57345	@ 0xe001
e0001ddc:	e0831184 	add	r1, r3, r4, lsl #3
e0001de0:	e58170d0 	str	r7, [r1, #208]	@ 0xd0
e0001de4:	e58160d4 	str	r6, [r1, #212]	@ 0xd4
e0001de8:	e0833182 	add	r3, r3, r2, lsl #3
e0001dec:	e28330d0 	add	r3, r3, #208	@ 0xd0
e0001df0:	e59f23d0 	ldr	r2, [pc, #976]	@ e00021c8 <init_kernel+0x594>
e0001df4:	e8920003 	ldm	r2, {r0, r1}
e0001df8:	e8830003 	stm	r3, {r0, r1}
e0001dfc:	eafffff2 	b	e0001dcc <init_kernel+0x198>
e0001e00:	e30b3600 	movw	r3, #46592	@ 0xb600
e0001e04:	e34e3001 	movt	r3, #57345	@ 0xe001
e0001e08:	e0833184 	add	r3, r3, r4, lsl #3
e0001e0c:	e28330d0 	add	r3, r3, #208	@ 0xd0
e0001e10:	e59f23b0 	ldr	r2, [pc, #944]	@ e00021c8 <init_kernel+0x594>
e0001e14:	e8920003 	ldm	r2, {r0, r1}
e0001e18:	e8830003 	stm	r3, {r0, r1}
e0001e1c:	e2844001 	add	r4, r4, #1
e0001e20:	e28d3060 	add	r3, sp, #96	@ 0x60
e0001e24:	e8930003 	ldm	r3, {r0, r1}
e0001e28:	ebfffa3a 	bl	e0000718 <reserve_region>
e0001e2c:	e59d3028 	ldr	r3, [sp, #40]	@ 0x28
e0001e30:	e58d3008 	str	r3, [sp, #8]
e0001e34:	e28d306c 	add	r3, sp, #108	@ 0x6c
e0001e38:	e8930003 	ldm	r3, {r0, r1}
e0001e3c:	e88d0003 	stm	sp, {r0, r1}
e0001e40:	e59f3384 	ldr	r3, [pc, #900]	@ e00021cc <init_kernel+0x598>
e0001e44:	e1a02004 	mov	r2, r4
e0001e48:	e59f1380 	ldr	r1, [pc, #896]	@ e00021d0 <init_kernel+0x59c>
e0001e4c:	e3a00001 	mov	r0, #1
e0001e50:	ebfffd93 	bl	e00014a4 <init_freemem>
e0001e54:	e3500000 	cmp	r0, #0
e0001e58:	0affffb1 	beq	e0001d24 <init_kernel+0xf0>
e0001e5c:	e28d0030 	add	r0, sp, #48	@ 0x30
e0001e60:	ebfffacc 	bl	e0000998 <create_root_cnode>
e0001e64:	e59d3030 	ldr	r3, [sp, #48]	@ 0x30
e0001e68:	e203200e 	and	r2, r3, #14
e0001e6c:	e352000e 	cmp	r2, #14
e0001e70:	1203300f 	andne	r3, r3, #15
e0001e74:	06ef3073 	uxtbeq	r3, r3
e0001e78:	e3530000 	cmp	r3, #0
e0001e7c:	0affffa8 	beq	e0001d24 <init_kernel+0xf0>
e0001e80:	e28d4030 	add	r4, sp, #48	@ 0x30
e0001e84:	e8940003 	ldm	r4, {r0, r1}
e0001e88:	ebfffb00 	bl	e0000a90 <create_domain_cap>
e0001e8c:	e28d306c 	add	r3, sp, #108	@ 0x6c
e0001e90:	e8940003 	ldm	r4, {r0, r1}
e0001e94:	e8830003 	stm	r3, {r0, r1}
e0001e98:	e3a04000 	mov	r4, #0
e0001e9c:	e1a05004 	mov	r5, r4
e0001ea0:	e1a01004 	mov	r1, r4
e0001ea4:	e1a00005 	mov	r0, r5
e0001ea8:	eb004587 	bl	e00134cc <setIRQState>
e0001eac:	e2844001 	add	r4, r4, #1
e0001eb0:	e35400a0 	cmp	r4, #160	@ 0xa0
e0001eb4:	1afffff9 	bne	e0001ea0 <init_kernel+0x26c>
e0001eb8:	e3a0101d 	mov	r1, #29
e0001ebc:	e3a00002 	mov	r0, #2
e0001ec0:	eb004581 	bl	e00134cc <setIRQState>
e0001ec4:	e28d306c 	add	r3, sp, #108	@ 0x6c
e0001ec8:	e8930003 	ldm	r3, {r0, r1}
e0001ecc:	eb004823 	bl	e0013f60 <cap_get_capPtr>
e0001ed0:	e1a03000 	mov	r3, r0
e0001ed4:	e3a0200e 	mov	r2, #14
e0001ed8:	e5802040 	str	r2, [r0, #64]	@ 0x40
e0001edc:	e3a00000 	mov	r0, #0
e0001ee0:	e5830044 	str	r0, [r3, #68]	@ 0x44
e0001ee4:	e5830048 	str	r0, [r3, #72]	@ 0x48
e0001ee8:	e3a02003 	mov	r2, #3
e0001eec:	e583204c 	str	r2, [r3, #76]	@ 0x4c
e0001ef0:	e59d301c 	ldr	r3, [sp, #28]
e0001ef4:	e1a0200a 	mov	r2, sl
e0001ef8:	e3a01001 	mov	r1, #1
e0001efc:	ebffff13 	bl	e0001b50 <populate_bi_frame>
e0001f00:	e59d30a4 	ldr	r3, [sp, #164]	@ 0xa4
e0001f04:	e3530000 	cmp	r3, #0
e0001f08:	1a00009e 	bne	e0002188 <init_kernel+0x554>
e0001f0c:	e30b3600 	movw	r3, #46592	@ 0xb600
e0001f10:	e34e3001 	movt	r3, #57345	@ 0xe001
e0001f14:	e593307c 	ldr	r3, [r3, #124]	@ 0x7c
e0001f18:	e3a02000 	mov	r2, #0
e0001f1c:	e5832034 	str	r2, [r3, #52]	@ 0x34
e0001f20:	e5832038 	str	r2, [r3, #56]	@ 0x38
e0001f24:	e59d302c 	ldr	r3, [sp, #44]	@ 0x2c
e0001f28:	e58d3058 	str	r3, [sp, #88]	@ 0x58
e0001f2c:	e58d805c 	str	r8, [sp, #92]	@ 0x5c
e0001f30:	e58d8000 	str	r8, [sp]
e0001f34:	e28d2030 	add	r2, sp, #48	@ 0x30
e0001f38:	e8920006 	ldm	r2, {r1, r2}
e0001f3c:	e28d0040 	add	r0, sp, #64	@ 0x40
e0001f40:	ebfffc24 	bl	e0000fd8 <create_it_address_space>
e0001f44:	e59d3040 	ldr	r3, [sp, #64]	@ 0x40
e0001f48:	e203200e 	and	r2, r3, #14
e0001f4c:	e352000e 	cmp	r2, #14
e0001f50:	1203300f 	andne	r3, r3, #15
e0001f54:	06ef3073 	uxtbeq	r3, r3
e0001f58:	e3530000 	cmp	r3, #0
e0001f5c:	0affff70 	beq	e0001d24 <init_kernel+0xf0>
e0001f60:	e28a4a01 	add	r4, sl, #4096	@ 0x1000
e0001f64:	e58d4000 	str	r4, [sp]
e0001f68:	e28d3040 	add	r3, sp, #64	@ 0x40
e0001f6c:	e893000c 	ldm	r3, {r2, r3}
e0001f70:	e28d1030 	add	r1, sp, #48	@ 0x30
e0001f74:	e8910003 	ldm	r1, {r0, r1}
e0001f78:	ebfffad3 	bl	e0000acc <create_bi_frame_cap>
e0001f7c:	e59d101c 	ldr	r1, [sp, #28]
e0001f80:	e3510000 	cmp	r1, #0
e0001f84:	0a00001e 	beq	e0002004 <init_kernel+0x3d0>
e0001f88:	e30b3600 	movw	r3, #46592	@ 0xb600
e0001f8c:	e34e3001 	movt	r3, #57345	@ 0xe001
e0001f90:	e5932098 	ldr	r2, [r3, #152]	@ 0x98
e0001f94:	e0813002 	add	r3, r1, r2
e0001f98:	e58d3064 	str	r3, [sp, #100]	@ 0x64
e0001f9c:	e58d2060 	str	r2, [sp, #96]	@ 0x60
e0001fa0:	e2822203 	add	r2, r2, #805306368	@ 0x30000000
e0001fa4:	e042b00b 	sub	fp, r2, fp
e0001fa8:	e58db010 	str	fp, [sp, #16]
e0001fac:	e3a03001 	mov	r3, #1
e0001fb0:	e58d300c 	str	r3, [sp, #12]
e0001fb4:	e28d3060 	add	r3, sp, #96	@ 0x60
e0001fb8:	e8930003 	ldm	r3, {r0, r1}
e0001fbc:	e98d0003 	stmib	sp, {r0, r1}
e0001fc0:	e59d3044 	ldr	r3, [sp, #68]	@ 0x44
e0001fc4:	e58d3000 	str	r3, [sp]
e0001fc8:	e59d3040 	ldr	r3, [sp, #64]	@ 0x40
e0001fcc:	e28d2030 	add	r2, sp, #48	@ 0x30
e0001fd0:	e8920006 	ldm	r2, {r1, r2}
e0001fd4:	e28d006c 	add	r0, sp, #108	@ 0x6c
e0001fd8:	ebfffaf9 	bl	e0000bc4 <create_frames_of_region>
e0001fdc:	e59d3074 	ldr	r3, [sp, #116]	@ 0x74
e0001fe0:	e3530000 	cmp	r3, #0
e0001fe4:	0affff4e 	beq	e0001d24 <init_kernel+0xf0>
e0001fe8:	e30b3600 	movw	r3, #46592	@ 0xb600
e0001fec:	e34e3001 	movt	r3, #57345	@ 0xe001
e0001ff0:	e593307c 	ldr	r3, [r3, #124]	@ 0x7c
e0001ff4:	e283303c 	add	r3, r3, #60	@ 0x3c
e0001ff8:	e28d206c 	add	r2, sp, #108	@ 0x6c
e0001ffc:	e8920003 	ldm	r2, {r0, r1}
e0002000:	e8830003 	stm	r3, {r0, r1}
e0002004:	e58da004 	str	sl, [sp, #4]
e0002008:	e59d3044 	ldr	r3, [sp, #68]	@ 0x44
e000200c:	e58d3000 	str	r3, [sp]
e0002010:	e59d3040 	ldr	r3, [sp, #64]	@ 0x40
e0002014:	e28d2030 	add	r2, sp, #48	@ 0x30
e0002018:	e8920006 	ldm	r2, {r1, r2}
e000201c:	e28d0048 	add	r0, sp, #72	@ 0x48
e0002020:	ebfffe9e 	bl	e0001aa0 <create_ipcbuf_frame_cap>
e0002024:	e59d3048 	ldr	r3, [sp, #72]	@ 0x48
e0002028:	e203200e 	and	r2, r3, #14
e000202c:	e352000e 	cmp	r2, #14
e0002030:	1203300f 	andne	r3, r3, #15
e0002034:	06ef3073 	uxtbeq	r3, r3
e0002038:	e3530000 	cmp	r3, #0
e000203c:	0affff38 	beq	e0001d24 <init_kernel+0xf0>
e0002040:	e59d3018 	ldr	r3, [sp, #24]
e0002044:	e58d3010 	str	r3, [sp, #16]
e0002048:	e3a03001 	mov	r3, #1
e000204c:	e58d300c 	str	r3, [sp, #12]
e0002050:	e28d3050 	add	r3, sp, #80	@ 0x50
e0002054:	e8930003 	ldm	r3, {r0, r1}
e0002058:	e98d0003 	stmib	sp, {r0, r1}
e000205c:	e59d3044 	ldr	r3, [sp, #68]	@ 0x44
e0002060:	e58d3000 	str	r3, [sp]
e0002064:	e59d3040 	ldr	r3, [sp, #64]	@ 0x40
e0002068:	e28d2030 	add	r2, sp, #48	@ 0x30
e000206c:	e8920006 	ldm	r2, {r1, r2}
e0002070:	e28d0060 	add	r0, sp, #96	@ 0x60
e0002074:	ebfffad2 	bl	e0000bc4 <create_frames_of_region>
e0002078:	e59d3068 	ldr	r3, [sp, #104]	@ 0x68
e000207c:	e3530000 	cmp	r3, #0
e0002080:	0affff27 	beq	e0001d24 <init_kernel+0xf0>
e0002084:	e30b3600 	movw	r3, #46592	@ 0xb600
e0002088:	e34e3001 	movt	r3, #57345	@ 0xe001
e000208c:	e593307c 	ldr	r3, [r3, #124]	@ 0x7c
e0002090:	e2833024 	add	r3, r3, #36	@ 0x24
e0002094:	e28d2060 	add	r2, sp, #96	@ 0x60
e0002098:	e8920003 	ldm	r2, {r0, r1}
e000209c:	e8830003 	stm	r3, {r0, r1}
e00020a0:	e28d3030 	add	r3, sp, #48	@ 0x30
e00020a4:	e8930006 	ldm	r3, {r1, r2}
e00020a8:	e28d0038 	add	r0, sp, #56	@ 0x38
e00020ac:	ebfffc1c 	bl	e0001124 <create_it_asid_pool>
e00020b0:	e59d3038 	ldr	r3, [sp, #56]	@ 0x38
e00020b4:	e203200e 	and	r2, r3, #14
e00020b8:	e352000e 	cmp	r2, #14
e00020bc:	1203300f 	andne	r3, r3, #15
e00020c0:	06ef3073 	uxtbeq	r3, r3
e00020c4:	e3530000 	cmp	r3, #0
e00020c8:	0affff15 	beq	e0001d24 <init_kernel+0xf0>
e00020cc:	e28d5040 	add	r5, sp, #64	@ 0x40
e00020d0:	e895000c 	ldm	r5, {r2, r3}
e00020d4:	e28d1038 	add	r1, sp, #56	@ 0x38
e00020d8:	e8910003 	ldm	r1, {r0, r1}
e00020dc:	ebfffa5a 	bl	e0000a4c <write_it_asid_pool>
e00020e0:	ebfffc92 	bl	e0001330 <create_idle_thread>
e00020e4:	eb004216 	bl	e0012944 <cleanInvalidateL1Caches>
e00020e8:	e28d300c 	add	r3, sp, #12
e00020ec:	e28d2048 	add	r2, sp, #72	@ 0x48
e00020f0:	e8920003 	ldm	r2, {r0, r1}
e00020f4:	e8830003 	stm	r3, {r0, r1}
e00020f8:	e58da008 	str	sl, [sp, #8]
e00020fc:	e58d4004 	str	r4, [sp, #4]
e0002100:	e59d3020 	ldr	r3, [sp, #32]
e0002104:	e58d3000 	str	r3, [sp]
e0002108:	e895000c 	ldm	r5, {r2, r3}
e000210c:	e28d1030 	add	r1, sp, #48	@ 0x30
e0002110:	e8910003 	ldm	r1, {r0, r1}
e0002114:	ebfffc20 	bl	e000119c <create_initial_thread>
e0002118:	e3500000 	cmp	r0, #0
e000211c:	0affff00 	beq	e0001d24 <init_kernel+0xf0>
e0002120:	ebfffa3b 	bl	e0000a14 <init_core_state>
e0002124:	e28d3030 	add	r3, sp, #48	@ 0x30
e0002128:	e8930003 	ldm	r3, {r0, r1}
e000212c:	ebfffb48 	bl	e0000e54 <create_untypeds>
e0002130:	e3500000 	cmp	r0, #0
e0002134:	0afffefa 	beq	e0001d24 <init_kernel+0xf0>
e0002138:	e30b3600 	movw	r3, #46592	@ 0xb600
e000213c:	e34e3001 	movt	r3, #57345	@ 0xe001
e0002140:	e593307c 	ldr	r3, [r3, #124]	@ 0x7c
e0002144:	e3a04000 	mov	r4, #0
e0002148:	e583401c 	str	r4, [r3, #28]
e000214c:	e5834020 	str	r4, [r3, #32]
e0002150:	ebfffa35 	bl	e0000a2c <bi_finalise>
e0002154:	eb0041fa 	bl	e0012944 <cleanInvalidateL1Caches>
e0002158:	f57ff04f 	dsb	sy
e000215c:	ee084f17 	mcr	15, 0, r4, cr8, cr7, {0}
e0002160:	f57ff04f 	dsb	sy
e0002164:	f57ff06f 	isb	sy
e0002168:	e30c3000 	movw	r3, #49152	@ 0xc000
e000216c:	e34e3001 	movt	r3, #57345	@ 0xe001
e0002170:	e3a02001 	mov	r2, #1
e0002174:	e5832b20 	str	r2, [r3, #2848]	@ 0xb20
e0002178:	eb004c92 	bl	e00153c8 <schedule>
e000217c:	eb004af5 	bl	e0014d58 <activateThread>
e0002180:	e28dd07c 	add	sp, sp, #124	@ 0x7c
e0002184:	e8bd8ff0 	pop	{r4, r5, r6, r7, r8, r9, sl, fp, pc}
e0002188:	e30b3600 	movw	r3, #46592	@ 0xb600
e000218c:	e34e3001 	movt	r3, #57345	@ 0xe001
e0002190:	e5932098 	ldr	r2, [r3, #152]	@ 0x98
e0002194:	e3a01006 	mov	r1, #6
e0002198:	e5821000 	str	r1, [r2]
e000219c:	e59d10a4 	ldr	r1, [sp, #164]	@ 0xa4
e00021a0:	e2811008 	add	r1, r1, #8
e00021a4:	e5821004 	str	r1, [r2, #4]
e00021a8:	e5930098 	ldr	r0, [r3, #152]	@ 0x98
e00021ac:	e59d20a4 	ldr	r2, [sp, #164]	@ 0xa4
e00021b0:	e59d30a0 	ldr	r3, [sp, #160]	@ 0xa0
e00021b4:	e283120d 	add	r1, r3, #-805306368	@ 0xd0000000
e00021b8:	e2800008 	add	r0, r0, #8
e00021bc:	eb0063c8 	bl	e001b0e4 <memcpy>
e00021c0:	eaffff51 	b	e0001f0c <init_kernel+0x2d8>
e00021c4:	e0027000 	.word	0xe0027000
e00021c8:	e0002204 	.word	0xe0002204
e00021cc:	e001b6d0 	.word	0xe001b6d0
e00021d0:	e000220c 	.word	0xe000220c

e00021d4 <kernel_device_frames>:
e00021d4:	00a01000 fff01000 00000001 00000000     ................
e00021e4:	00a00000 fff02000 00000001 00000000     ..... ..........
e00021f4:	00a02000 fff03000 00000001 00000000     . ...0..........

e0002204 <mode_reserved_region>:
e0002204:	ff000000 ff100000                       ........

e000220c <avail_p_regs>:
e000220c:	10000000 2ff00000 00000000 00000000     ......./........
e000221c:	00000000 00000000 00000000 00000000     ................
e000222c:	00000000 00000000 00000000 00000000     ................
e000223c:	00000000 00000000 00000000 00000000     ................
e000224c:	00000000 00000000 00000000 00000000     ................
e000225c:	00000000 00000000 00000000 00000000     ................
e000226c:	00000000 00000000 00000000 00000000     ................
e000227c:	00000000 00000000 00000000 00000000     ................
e000228c:	00000000 00000000 00000000 00000000     ................
e000229c:	00000000 00000000 00000000 00000000     ................
e00022ac:	00000000 00000000 00000000 00000000     ................
e00022bc:	00000000 00000000 00000000 00000000     ................
e00022cc:	00000000 00000000 00000000 00000000     ................
e00022dc:	00000000 00000000 00000000 00000000     ................
e00022ec:	00000000 00000000 00000000 00000000     ................
e00022fc:	00000000 00000000 00000000 00000000     ................
e000230c:	00000000 00000000 00000000 00000000     ................
e000231c:	00000000 00000000 00000000 00000000     ................
e000232c:	00000000 00000000 00000000 00000000     ................
e000233c:	00000000 00000000 00000000 00000000     ................
e000234c:	00000000 00000000 00000000 00000000     ................
e000235c:	00000000 00000000 00000000 00000000     ................
e000236c:	00000000 00000000 00000000 00000000     ................
e000237c:	00000000 00000000 00000000 00000000     ................
e000238c:	00000000 00000000 00000000 00000000     ................
e000239c:	00000000 00000000 00000000 00000000     ................
e00023ac:	00000000 00000000 00000000 00000000     ................
e00023bc:	00000000 00000000 00000000 00000000     ................
e00023cc:	00000000 00000000 00000000 00000000     ................
e00023dc:	00000000 00000000 00000000 00000000     ................
e00023ec:	00000000 00000000 00000000 00000000     ................
e00023fc:	00000000 00000000 00000000 00000000     ................
e000240c:	00000000 00000000 00000000 00000000     ................
e000241c:	00000000 00000000 00000000 00000000     ................
e000242c:	00000000 00000000 00000000 00000000     ................
e000243c:	00000000 00000000 00000000 00000000     ................
e000244c:	00000000 00000000 00000000 00000000     ................
e000245c:	00000000 00000000 00000000 00000000     ................
e000246c:	00000000 00000000 00000000 00000000     ................
e000247c:	00000000 00000000 00000000 00000000     ................
e000248c:	00000000 00000000 00000000 00000000     ................
e000249c:	00000000 00000000 00000000 00000000     ................
e00024ac:	00000000 00000000 00000000 00000000     ................
e00024bc:	00000000 00000000 00000000 00000000     ................
e00024cc:	00000000 00000000 00000000 00000000     ................
e00024dc:	00000000 00000000 00000000 00000000     ................
e00024ec:	00000000 00000000 00000000 00000000     ................
e00024fc:	00000000 00000000 00000000 00000000     ................
e000250c:	00000000 00000000 00000000 00000000     ................
e000251c:	00000000 00000000 00000000 00000000     ................
e000252c:	00000000 00000000 00000000 00000000     ................
e000253c:	00000000 00000000 00000000 00000000     ................
e000254c:	00000000 00000000 00000000 00000000     ................
e000255c:	00000000 00000000 00000000 00000000     ................
e000256c:	00000000 00000000 00000000 00000000     ................
e000257c:	00000000 00000000 00000000 00000000     ................
e000258c:	00000000 00000000 00000000 00000000     ................
e000259c:	00000000 00000000 00000000 00000000     ................
e00025ac:	00000000 00000000 00000000 00000000     ................
e00025bc:	00000000 00000000 00000000 00000000     ................
e00025cc:	00000000 00000000 00000000 00000000     ................
e00025dc:	00000000 00000000 00000000 00000000     ................
e00025ec:	00000000 00000000 00000000 00000000     ................
e00025fc:	00000000 00000000 00000000 00000000     ................
e000260c:	00000000 00000000 00000000 00000000     ................
e000261c:	00000000 00000000 00000000 00000000     ................
e000262c:	00000000 00000000 00000000 00000000     ................
e000263c:	00000000 00000000 00000000 00000000     ................
e000264c:	00000000 00000000 00000000 00000000     ................
e000265c:	00000000 00000000 00000000 00000000     ................
e000266c:	00000000 00000000 00000000 00000000     ................
e000267c:	00000000 00000000 00000000 00000000     ................
e000268c:	00000000 00000000 00000000 00000000     ................
e000269c:	00000000 00000000 00000000 00000000     ................
e00026ac:	00000000 00000000 00000000 00000000     ................
e00026bc:	00000000 00000000 00000000 00000000     ................
e00026cc:	00000000 00000000 00000000 00000000     ................
e00026dc:	00000000 00000000 00000000 00000000     ................
e00026ec:	00000000 00000000 00000000 00000000     ................
e00026fc:	00000000 00000000 00000000 00000000     ................
e000270c:	00000000 00000000 00000000 00000000     ................
e000271c:	00000000 00000000 00000000 00000000     ................
e000272c:	00000000 00000000 00000000 00000000     ................
e000273c:	00000000 00000000 00000000 00000000     ................
e000274c:	00000000 00000000 00000000 00000000     ................
e000275c:	00000000 00000000 00000000 00000000     ................
e000276c:	00000000 00000000 00000000 00000000     ................
e000277c:	00000000 00000000 00000000 00000000     ................
e000278c:	00000000 00000000 00000000 00000000     ................
e000279c:	00000000 00000000 00000000 00000000     ................
e00027ac:	00000000 00000000 00000000 00000000     ................
e00027bc:	00000000 00000000 00000000 00000000     ................
e00027cc:	00000000 00000000 00000000 00000000     ................
e00027dc:	00000000 00000000 00000000 00000000     ................
e00027ec:	00000000 00000000 00000000 00000000     ................
e00027fc:	00000000 00000000 00000000 00000000     ................
e000280c:	00000000 00000000 00000000 00000000     ................
e000281c:	00000000 00000000 00000000 00000000     ................
e000282c:	00000000 00000000 00000000 00000000     ................
e000283c:	00000000 00000000 00000000 00000000     ................
e000284c:	00000000 00000000 00000000 00000000     ................
e000285c:	00000000 00000000 00000000 00000000     ................
e000286c:	00000000 00000000 00000000 00000000     ................
e000287c:	00000000 00000000 00000000 00000000     ................
e000288c:	00000000 00000000 00000000 00000000     ................
e000289c:	00000000 00000000 00000000 00000000     ................
e00028ac:	00000000 00000000 00000000 00000000     ................
e00028bc:	00000000 00000000 00000000 00000000     ................
e00028cc:	00000000 00000000 00000000 00000000     ................
e00028dc:	00000000 00000000 00000000 00000000     ................
e00028ec:	00000000 00000000 00000000 00000000     ................
e00028fc:	00000000 00000000 00000000 00000000     ................
e000290c:	00000000 00000000 00000000 00000000     ................
e000291c:	00000000 00000000 00000000 00000000     ................
e000292c:	00000000 00000000 00000000 00000000     ................
e000293c:	00000000 00000000 00000000 00000000     ................
e000294c:	00000000 00000000 00000000 00000000     ................
e000295c:	00000000 00000000 00000000 00000000     ................
e000296c:	00000000 00000000 00000000 00000000     ................
e000297c:	00000000 00000000 00000000 00000000     ................
e000298c:	00000000 00000000 00000000 00000000     ................
e000299c:	00000000 00000000 00000000 00000000     ................
e00029ac:	00000000 00000000 00000000 00000000     ................
e00029bc:	00000000 00000000 00000000 00000000     ................
e00029cc:	00000000 00000000 00000000 00000000     ................
e00029dc:	00000000 00000000 00000000 00000000     ................
e00029ec:	00000000 00000000 00000000 00000000     ................
e00029fc:	00000000 00000000 00000000 00000000     ................
e0002a0c:	00000000 00000000 00000000 00000000     ................
e0002a1c:	00000000 00000000 00000000 00000000     ................
e0002a2c:	00000000 00000000 00000000 00000000     ................
e0002a3c:	00000000 00000000 00000000 00000000     ................
e0002a4c:	00000000 00000000 00000000 00000000     ................
e0002a5c:	00000000 00000000 00000000 00000000     ................
e0002a6c:	00000000 00000000 00000000 00000000     ................
e0002a7c:	00000000 00000000 00000000 00000000     ................
e0002a8c:	00000000 00000000 00000000 00000000     ................
e0002a9c:	00000000 00000000 00000000 00000000     ................
e0002aac:	00000000 00000000 00000000 00000000     ................
e0002abc:	00000000 00000000 00000000 00000000     ................
e0002acc:	00000000 00000000 00000000 00000000     ................
e0002adc:	00000000 00000000 00000000 00000000     ................
e0002aec:	00000000 00000000 00000000 00000000     ................
e0002afc:	00000000 00000000 00000000 00000000     ................
e0002b0c:	00000000 00000000 00000000 00000000     ................
e0002b1c:	00000000 00000000 00000000 00000000     ................
e0002b2c:	00000000 00000000 00000000 00000000     ................
e0002b3c:	00000000 00000000 00000000 00000000     ................
e0002b4c:	00000000 00000000 00000000 00000000     ................
e0002b5c:	00000000 00000000 00000000 00000000     ................
e0002b6c:	00000000 00000000 00000000 00000000     ................
e0002b7c:	00000000 00000000 00000000 00000000     ................
e0002b8c:	00000000 00000000 00000000 00000000     ................
e0002b9c:	00000000 00000000 00000000 00000000     ................
e0002bac:	00000000 00000000 00000000 00000000     ................
e0002bbc:	00000000 00000000 00000000 00000000     ................
e0002bcc:	00000000 00000000 00000000 00000000     ................
e0002bdc:	00000000 00000000 00000000 00000000     ................
e0002bec:	00000000 00000000 00000000 00000000     ................
e0002bfc:	00000000 00000000 00000000 00000000     ................
e0002c0c:	00000000 00000000 00000000 00000000     ................
e0002c1c:	00000000 00000000 00000000 00000000     ................
e0002c2c:	00000000 00000000 00000000 00000000     ................
e0002c3c:	00000000 00000000 00000000 00000000     ................
e0002c4c:	00000000 00000000 00000000 00000000     ................
e0002c5c:	00000000 00000000 00000000 00000000     ................
e0002c6c:	00000000 00000000 00000000 00000000     ................
e0002c7c:	00000000 00000000 00000000 00000000     ................
e0002c8c:	00000000 00000000 00000000 00000000     ................
e0002c9c:	00000000 00000000 00000000 00000000     ................
e0002cac:	00000000 00000000 00000000 00000000     ................
e0002cbc:	00000000 00000000 00000000 00000000     ................
e0002ccc:	00000000 00000000 00000000 00000000     ................
e0002cdc:	00000000 00000000 00000000 00000000     ................
e0002cec:	00000000 00000000 00000000 00000000     ................
e0002cfc:	00000000 00000000 00000000 00000000     ................
e0002d0c:	00000000 00000000 00000000 00000000     ................
e0002d1c:	00000000 00000000 00000000 00000000     ................
e0002d2c:	00000000 00000000 00000000 00000000     ................
e0002d3c:	00000000 00000000 00000000 00000000     ................
e0002d4c:	00000000 00000000 00000000 00000000     ................
e0002d5c:	00000000 00000000 00000000 00000000     ................
e0002d6c:	00000000 00000000 00000000 00000000     ................
e0002d7c:	00000000 00000000 00000000 00000000     ................
e0002d8c:	00000000 00000000 00000000 00000000     ................
e0002d9c:	00000000 00000000 00000000 00000000     ................
e0002dac:	00000000 00000000 00000000 00000000     ................
e0002dbc:	00000000 00000000 00000000 00000000     ................
e0002dcc:	00000000 00000000 00000000 00000000     ................
e0002ddc:	00000000 00000000 00000000 00000000     ................
e0002dec:	00000000 00000000 00000000 00000000     ................
e0002dfc:	00000000 00000000 00000000 00000000     ................
e0002e0c:	00000000 00000000 00000000 00000000     ................
e0002e1c:	00000000 00000000 00000000 00000000     ................
e0002e2c:	00000000 00000000 00000000 00000000     ................
e0002e3c:	00000000 00000000 00000000 00000000     ................
e0002e4c:	00000000 00000000 00000000 00000000     ................
e0002e5c:	00000000 00000000 00000000 00000000     ................
e0002e6c:	00000000 00000000 00000000 00000000     ................
e0002e7c:	00000000 00000000 00000000 00000000     ................
e0002e8c:	00000000 00000000 00000000 00000000     ................
e0002e9c:	00000000 00000000 00000000 00000000     ................
e0002eac:	00000000 00000000 00000000 00000000     ................
e0002ebc:	00000000 00000000 00000000 00000000     ................
e0002ecc:	00000000 00000000 00000000 00000000     ................
e0002edc:	00000000 00000000 00000000 00000000     ................
e0002eec:	00000000 00000000 00000000 00000000     ................
e0002efc:	00000000 00000000 00000000 00000000     ................
e0002f0c:	00000000 00000000 00000000 00000000     ................
e0002f1c:	00000000 00000000 00000000 00000000     ................
e0002f2c:	00000000 00000000 00000000 00000000     ................
e0002f3c:	00000000 00000000 00000000 00000000     ................
e0002f4c:	00000000 00000000 00000000 00000000     ................
e0002f5c:	00000000 00000000 00000000 00000000     ................
e0002f6c:	00000000 00000000 00000000 00000000     ................
e0002f7c:	00000000 00000000 00000000 00000000     ................
e0002f8c:	00000000 00000000 00000000 00000000     ................
e0002f9c:	00000000 00000000 00000000 00000000     ................
e0002fac:	00000000 00000000 00000000 00000000     ................
e0002fbc:	00000000 00000000 00000000 00000000     ................
e0002fcc:	00000000 00000000 00000000 00000000     ................
e0002fdc:	00000000 00000000 00000000 00000000     ................
e0002fec:	00000000 00000000 00000000 00000000     ................
e0002ffc:	00000000 00000000 00000000 00000000     ................
e000300c:	00000000 00000000 00000000 00000000     ................
e000301c:	00000000 00000000 00000000 00000000     ................
e000302c:	00000000 00000000 00000000 00000000     ................
e000303c:	00000000 00000000 00000000 00000000     ................
e000304c:	00000000 00000000 00000000 00000000     ................
e000305c:	00000000 00000000 00000000 00000000     ................
e000306c:	00000000 00000000 00000000 00000000     ................
e000307c:	00000000 00000000 00000000 00000000     ................
e000308c:	00000000 00000000 00000000 00000000     ................
e000309c:	00000000 00000000 00000000 00000000     ................
e00030ac:	00000000 00000000 00000000 00000000     ................
e00030bc:	00000000 00000000 00000000 00000000     ................
e00030cc:	00000000 00000000 00000000 00000000     ................
e00030dc:	00000000 00000000 00000000 00000000     ................
e00030ec:	00000000 00000000 00000000 00000000     ................
e00030fc:	00000000 00000000 00000000 00000000     ................
e000310c:	00000000 00000000 00000000 00000000     ................
e000311c:	00000000 00000000 00000000 00000000     ................
e000312c:	00000000 00000000 00000000 00000000     ................
e000313c:	00000000 00000000 00000000 00000000     ................
e000314c:	00000000 00000000 00000000 00000000     ................
e000315c:	00000000 00000000 00000000 00000000     ................
e000316c:	00000000 00000000 00000000 00000000     ................
e000317c:	00000000 00000000 00000000 00000000     ................
e000318c:	00000000 00000000 00000000 00000000     ................
e000319c:	00000000 00000000 00000000 00000000     ................
e00031ac:	00000000 00000000 00000000 00000000     ................
e00031bc:	00000000 00000000 00000000 00000000     ................
e00031cc:	00000000 00000000 00000000 00000000     ................
e00031dc:	00000000 00000000 00000000 00000000     ................
e00031ec:	00000000 00000000 00000000 00000000     ................
e00031fc:	00000000 00000000 00000000 00000000     ................
e000320c:	00000000 00000000 00000000 00000000     ................
e000321c:	00000000 00000000 00000000 00000000     ................
e000322c:	00000000 00000000 00000000 00000000     ................
e000323c:	00000000 00000000 00000000 00000000     ................
e000324c:	00000000 00000000 00000000 00000000     ................
e000325c:	00000000 00000000 00000000 00000000     ................
e000326c:	00000000 00000000 00000000 00000000     ................
e000327c:	00000000 00000000 00000000 00000000     ................
e000328c:	00000000 00000000 00000000 00000000     ................
e000329c:	00000000 00000000 00000000 00000000     ................
e00032ac:	00000000 00000000 00000000 00000000     ................
e00032bc:	00000000 00000000 00000000 00000000     ................
e00032cc:	00000000 00000000 00000000 00000000     ................
e00032dc:	00000000 00000000 00000000 00000000     ................
e00032ec:	00000000 00000000 00000000 00000000     ................
e00032fc:	00000000 00000000 00000000 00000000     ................
e000330c:	00000000 00000000 00000000 00000000     ................
e000331c:	00000000 00000000 00000000 00000000     ................
e000332c:	00000000 00000000 00000000 00000000     ................
e000333c:	00000000 00000000 00000000 00000000     ................
e000334c:	00000000 00000000 00000000 00000000     ................
e000335c:	00000000 00000000 00000000 00000000     ................
e000336c:	00000000 00000000 00000000 00000000     ................
e000337c:	00000000 00000000 00000000 00000000     ................
e000338c:	00000000 00000000 00000000 00000000     ................
e000339c:	00000000 00000000 00000000 00000000     ................
e00033ac:	00000000 00000000 00000000 00000000     ................
e00033bc:	00000000 00000000 00000000 00000000     ................
e00033cc:	00000000 00000000 00000000 00000000     ................
e00033dc:	00000000 00000000 00000000 00000000     ................
e00033ec:	00000000 00000000 00000000 00000000     ................
e00033fc:	00000000 00000000 00000000 00000000     ................
e000340c:	00000000 00000000 00000000 00000000     ................
e000341c:	00000000 00000000 00000000 00000000     ................
e000342c:	00000000 00000000 00000000 00000000     ................
e000343c:	00000000 00000000 00000000 00000000     ................
e000344c:	00000000 00000000 00000000 00000000     ................
e000345c:	00000000 00000000 00000000 00000000     ................
e000346c:	00000000 00000000 00000000 00000000     ................
e000347c:	00000000 00000000 00000000 00000000     ................
e000348c:	00000000 00000000 00000000 00000000     ................
e000349c:	00000000 00000000 00000000 00000000     ................
e00034ac:	00000000 00000000 00000000 00000000     ................
e00034bc:	00000000 00000000 00000000 00000000     ................
e00034cc:	00000000 00000000 00000000 00000000     ................
e00034dc:	00000000 00000000 00000000 00000000     ................
e00034ec:	00000000 00000000 00000000 00000000     ................
e00034fc:	00000000 00000000 00000000 00000000     ................
e000350c:	00000000 00000000 00000000 00000000     ................
e000351c:	00000000 00000000 00000000 00000000     ................
e000352c:	00000000 00000000 00000000 00000000     ................
e000353c:	00000000 00000000 00000000 00000000     ................
e000354c:	00000000 00000000 00000000 00000000     ................
e000355c:	00000000 00000000 00000000 00000000     ................
e000356c:	00000000 00000000 00000000 00000000     ................
e000357c:	00000000 00000000 00000000 00000000     ................
e000358c:	00000000 00000000 00000000 00000000     ................
e000359c:	00000000 00000000 00000000 00000000     ................
e00035ac:	00000000 00000000 00000000 00000000     ................
e00035bc:	00000000 00000000 00000000 00000000     ................
e00035cc:	00000000 00000000 00000000 00000000     ................
e00035dc:	00000000 00000000 00000000 00000000     ................
e00035ec:	00000000 00000000 00000000 00000000     ................
e00035fc:	00000000 00000000 00000000 00000000     ................
e000360c:	00000000 00000000 00000000 00000000     ................
e000361c:	00000000 00000000 00000000 00000000     ................
e000362c:	00000000 00000000 00000000 00000000     ................
e000363c:	00000000 00000000 00000000 00000000     ................
e000364c:	00000000 00000000 00000000 00000000     ................
e000365c:	00000000 00000000 00000000 00000000     ................
e000366c:	00000000 00000000 00000000 00000000     ................
e000367c:	00000000 00000000 00000000 00000000     ................
e000368c:	00000000 00000000 00000000 00000000     ................
e000369c:	00000000 00000000 00000000 00000000     ................
e00036ac:	00000000 00000000 00000000 00000000     ................
e00036bc:	00000000 00000000 00000000 00000000     ................
e00036cc:	00000000 00000000 00000000 00000000     ................
e00036dc:	00000000 00000000 00000000 00000000     ................
e00036ec:	00000000 00000000 00000000 00000000     ................
e00036fc:	00000000 00000000 00000000 00000000     ................
e000370c:	00000000 00000000 00000000 00000000     ................
e000371c:	00000000 00000000 00000000 00000000     ................
e000372c:	00000000 00000000 00000000 00000000     ................
e000373c:	00000000 00000000 00000000 00000000     ................
e000374c:	00000000 00000000 00000000 00000000     ................
e000375c:	00000000 00000000 00000000 00000000     ................
e000376c:	00000000 00000000 00000000 00000000     ................
e000377c:	00000000 00000000 00000000 00000000     ................
e000378c:	00000000 00000000 00000000 00000000     ................
e000379c:	00000000 00000000 00000000 00000000     ................
e00037ac:	00000000 00000000 00000000 00000000     ................
e00037bc:	00000000 00000000 00000000 00000000     ................
e00037cc:	00000000 00000000 00000000 00000000     ................
e00037dc:	00000000 00000000 00000000 00000000     ................
e00037ec:	00000000 00000000 00000000 00000000     ................
e00037fc:	00000000 00000000 00000000 00000000     ................
e000380c:	00000000 00000000 00000000 00000000     ................
e000381c:	00000000 00000000 00000000 00000000     ................
e000382c:	00000000 00000000 00000000 00000000     ................
e000383c:	00000000 00000000 00000000 00000000     ................
e000384c:	00000000 00000000 00000000 00000000     ................
e000385c:	00000000 00000000 00000000 00000000     ................
e000386c:	00000000 00000000 00000000 00000000     ................
e000387c:	00000000 00000000 00000000 00000000     ................
e000388c:	00000000 00000000 00000000 00000000     ................
e000389c:	00000000 00000000 00000000 00000000     ................
e00038ac:	00000000 00000000 00000000 00000000     ................
e00038bc:	00000000 00000000 00000000 00000000     ................
e00038cc:	00000000 00000000 00000000 00000000     ................
e00038dc:	00000000 00000000 00000000 00000000     ................
e00038ec:	00000000 00000000 00000000 00000000     ................
e00038fc:	00000000 00000000 00000000 00000000     ................
e000390c:	00000000 00000000 00000000 00000000     ................
e000391c:	00000000 00000000 00000000 00000000     ................
e000392c:	00000000 00000000 00000000 00000000     ................
e000393c:	00000000 00000000 00000000 00000000     ................
e000394c:	00000000 00000000 00000000 00000000     ................
e000395c:	00000000 00000000 00000000 00000000     ................
e000396c:	00000000 00000000 00000000 00000000     ................
e000397c:	00000000 00000000 00000000 00000000     ................
e000398c:	00000000 00000000 00000000 00000000     ................
e000399c:	00000000 00000000 00000000 00000000     ................
e00039ac:	00000000 00000000 00000000 00000000     ................
e00039bc:	00000000 00000000 00000000 00000000     ................
e00039cc:	00000000 00000000 00000000 00000000     ................
e00039dc:	00000000 00000000 00000000 00000000     ................
e00039ec:	00000000 00000000 00000000 00000000     ................
e00039fc:	00000000 00000000 00000000 00000000     ................
e0003a0c:	00000000 00000000 00000000 00000000     ................
e0003a1c:	00000000 00000000 00000000 00000000     ................
e0003a2c:	00000000 00000000 00000000 00000000     ................
e0003a3c:	00000000 00000000 00000000 00000000     ................
e0003a4c:	00000000 00000000 00000000 00000000     ................
e0003a5c:	00000000 00000000 00000000 00000000     ................
e0003a6c:	00000000 00000000 00000000 00000000     ................
e0003a7c:	00000000 00000000 00000000 00000000     ................
e0003a8c:	00000000 00000000 00000000 00000000     ................
e0003a9c:	00000000 00000000 00000000 00000000     ................
e0003aac:	00000000 00000000 00000000 00000000     ................
e0003abc:	00000000 00000000 00000000 00000000     ................
e0003acc:	00000000 00000000 00000000 00000000     ................
e0003adc:	00000000 00000000 00000000 00000000     ................
e0003aec:	00000000 00000000 00000000 00000000     ................
e0003afc:	00000000 00000000 00000000 00000000     ................
e0003b0c:	00000000 00000000 00000000 00000000     ................
e0003b1c:	00000000 00000000 00000000 00000000     ................
e0003b2c:	00000000 00000000 00000000 00000000     ................
e0003b3c:	00000000 00000000 00000000 00000000     ................
e0003b4c:	00000000 00000000 00000000 00000000     ................
e0003b5c:	00000000 00000000 00000000 00000000     ................
e0003b6c:	00000000 00000000 00000000 00000000     ................
e0003b7c:	00000000 00000000 00000000 00000000     ................
e0003b8c:	00000000 00000000 00000000 00000000     ................
e0003b9c:	00000000 00000000 00000000 00000000     ................
e0003bac:	00000000 00000000 00000000 00000000     ................
e0003bbc:	00000000 00000000 00000000 00000000     ................
e0003bcc:	00000000 00000000 00000000 00000000     ................
e0003bdc:	00000000 00000000 00000000 00000000     ................
e0003bec:	00000000 00000000 00000000 00000000     ................
e0003bfc:	00000000 00000000 00000000 00000000     ................
e0003c0c:	00000000 00000000 00000000 00000000     ................
e0003c1c:	00000000 00000000 00000000 00000000     ................
e0003c2c:	00000000 00000000 00000000 00000000     ................
e0003c3c:	00000000 00000000 00000000 00000000     ................
e0003c4c:	00000000 00000000 00000000 00000000     ................
e0003c5c:	00000000 00000000 00000000 00000000     ................
e0003c6c:	00000000 00000000 00000000 00000000     ................
e0003c7c:	00000000 00000000 00000000 00000000     ................
e0003c8c:	00000000 00000000 00000000 00000000     ................
e0003c9c:	00000000 00000000 00000000 00000000     ................
e0003cac:	00000000 00000000 00000000 00000000     ................
e0003cbc:	00000000 00000000 00000000 00000000     ................
e0003ccc:	00000000 00000000 00000000 00000000     ................
e0003cdc:	00000000 00000000 00000000 00000000     ................
e0003cec:	00000000 00000000 00000000 00000000     ................
e0003cfc:	00000000 00000000 00000000 00000000     ................
e0003d0c:	00000000 00000000 00000000 00000000     ................
e0003d1c:	00000000 00000000 00000000 00000000     ................
e0003d2c:	00000000 00000000 00000000 00000000     ................
e0003d3c:	00000000 00000000 00000000 00000000     ................
e0003d4c:	00000000 00000000 00000000 00000000     ................
e0003d5c:	00000000 00000000 00000000 00000000     ................
e0003d6c:	00000000 00000000 00000000 00000000     ................
e0003d7c:	00000000 00000000 00000000 00000000     ................
e0003d8c:	00000000 00000000 00000000 00000000     ................
e0003d9c:	00000000 00000000 00000000 00000000     ................
e0003dac:	00000000 00000000 00000000 00000000     ................
e0003dbc:	00000000 00000000 00000000 00000000     ................
e0003dcc:	00000000 00000000 00000000 00000000     ................
e0003ddc:	00000000 00000000 00000000 00000000     ................
e0003dec:	00000000 00000000 00000000 00000000     ................
e0003dfc:	00000000 00000000 00000000 00000000     ................
e0003e0c:	00000000 00000000 00000000 00000000     ................
e0003e1c:	00000000 00000000 00000000 00000000     ................
e0003e2c:	00000000 00000000 00000000 00000000     ................
e0003e3c:	00000000 00000000 00000000 00000000     ................
e0003e4c:	00000000 00000000 00000000 00000000     ................
e0003e5c:	00000000 00000000 00000000 00000000     ................
e0003e6c:	00000000 00000000 00000000 00000000     ................
e0003e7c:	00000000 00000000 00000000 00000000     ................
e0003e8c:	00000000 00000000 00000000 00000000     ................
e0003e9c:	00000000 00000000 00000000 00000000     ................
e0003eac:	00000000 00000000 00000000 00000000     ................
e0003ebc:	00000000 00000000 00000000 00000000     ................
e0003ecc:	00000000 00000000 00000000 00000000     ................
e0003edc:	00000000 00000000 00000000 00000000     ................
e0003eec:	00000000 00000000 00000000 00000000     ................
e0003efc:	00000000 00000000 00000000 00000000     ................
e0003f0c:	00000000 00000000 00000000 00000000     ................
e0003f1c:	00000000 00000000 00000000 00000000     ................
e0003f2c:	00000000 00000000 00000000 00000000     ................
e0003f3c:	00000000 00000000 00000000 00000000     ................
e0003f4c:	00000000 00000000 00000000 00000000     ................
e0003f5c:	00000000 00000000 00000000 00000000     ................
e0003f6c:	00000000 00000000 00000000 00000000     ................
e0003f7c:	00000000 00000000 00000000 00000000     ................
e0003f8c:	00000000 00000000 00000000 00000000     ................
e0003f9c:	00000000 00000000 00000000 00000000     ................
e0003fac:	00000000 00000000 00000000 00000000     ................
e0003fbc:	00000000 00000000 00000000 00000000     ................
e0003fcc:	00000000 00000000 00000000 00000000     ................
e0003fdc:	00000000 00000000 00000000 00000000     ................
e0003fec:	00000000 00000000 00000000 00000000     ................
e0003ffc:	00000000 00000000 00000000 00000000     ................
e000400c:	00000000 00000000 00000000 00000000     ................
e000401c:	00000000 00000000 00000000 00000000     ................
e000402c:	00000000 00000000 00000000 00000000     ................
e000403c:	00000000 00000000 00000000 00000000     ................
e000404c:	00000000 00000000 00000000 00000000     ................
e000405c:	00000000 00000000 00000000 00000000     ................
e000406c:	00000000 00000000 00000000 00000000     ................
e000407c:	00000000 00000000 00000000 00000000     ................
e000408c:	00000000 00000000 00000000 00000000     ................
e000409c:	00000000 00000000 00000000 00000000     ................
e00040ac:	00000000 00000000 00000000 00000000     ................
e00040bc:	00000000 00000000 00000000 00000000     ................
e00040cc:	00000000 00000000 00000000 00000000     ................
e00040dc:	00000000 00000000 00000000 00000000     ................
e00040ec:	00000000 00000000 00000000 00000000     ................
e00040fc:	00000000 00000000 00000000 00000000     ................
e000410c:	00000000 00000000 00000000 00000000     ................
e000411c:	00000000 00000000 00000000 00000000     ................
e000412c:	00000000 00000000 00000000 00000000     ................
e000413c:	00000000 00000000 00000000 00000000     ................
e000414c:	00000000 00000000 00000000 00000000     ................
e000415c:	00000000 00000000 00000000 00000000     ................
e000416c:	00000000 00000000 00000000 00000000     ................
e000417c:	00000000 00000000 00000000 00000000     ................
e000418c:	00000000 00000000 00000000 00000000     ................
e000419c:	00000000 00000000 00000000 00000000     ................
e00041ac:	00000000 00000000 00000000 00000000     ................
e00041bc:	00000000 00000000 00000000 00000000     ................
e00041cc:	00000000 00000000 00000000 00000000     ................
e00041dc:	00000000 00000000 00000000 00000000     ................
e00041ec:	00000000 00000000 00000000 00000000     ................
e00041fc:	00000000 00000000 00000000 00000000     ................
e000420c:	00000000 00000000 00000000 00000000     ................
e000421c:	00000000 00000000 00000000 00000000     ................
e000422c:	00000000 00000000 00000000 00000000     ................
e000423c:	00000000 00000000 00000000 00000000     ................
e000424c:	00000000 00000000 00000000 00000000     ................
e000425c:	00000000 00000000 00000000 00000000     ................
e000426c:	00000000 00000000 00000000 00000000     ................
e000427c:	00000000 00000000 00000000 00000000     ................
e000428c:	00000000 00000000 00000000 00000000     ................
e000429c:	00000000 00000000 00000000 00000000     ................
e00042ac:	00000000 00000000 00000000 00000000     ................
e00042bc:	00000000 00000000 00000000 00000000     ................
e00042cc:	00000000 00000000 00000000 00000000     ................
e00042dc:	00000000 00000000 00000000 00000000     ................
e00042ec:	00000000 00000000 00000000 00000000     ................
e00042fc:	00000000 00000000 00000000 00000000     ................
e000430c:	00000000 00000000 00000000 00000000     ................
e000431c:	00000000 00000000 00000000 00000000     ................
e000432c:	00000000 00000000 00000000 00000000     ................
e000433c:	00000000 00000000 00000000 00000000     ................
e000434c:	00000000 00000000 00000000 00000000     ................
e000435c:	00000000 00000000 00000000 00000000     ................
e000436c:	00000000 00000000 00000000 00000000     ................
e000437c:	00000000 00000000 00000000 00000000     ................
e000438c:	00000000 00000000 00000000 00000000     ................
e000439c:	00000000 00000000 00000000 00000000     ................
e00043ac:	00000000 00000000 00000000 00000000     ................
e00043bc:	00000000 00000000 00000000 00000000     ................
e00043cc:	00000000 00000000 00000000 00000000     ................
e00043dc:	00000000 00000000 00000000 00000000     ................
e00043ec:	00000000 00000000 00000000 00000000     ................
e00043fc:	00000000 00000000 00000000 00000000     ................
e000440c:	00000000 00000000 00000000 00000000     ................
e000441c:	00000000 00000000 00000000 00000000     ................
e000442c:	00000000 00000000 00000000 00000000     ................
e000443c:	00000000 00000000 00000000 00000000     ................
e000444c:	00000000 00000000 00000000 00000000     ................
e000445c:	00000000 00000000 00000000 00000000     ................
e000446c:	00000000 00000000 00000000 00000000     ................
e000447c:	00000000 00000000 00000000 00000000     ................
e000448c:	00000000 00000000 00000000 00000000     ................
e000449c:	00000000 00000000 00000000 00000000     ................
e00044ac:	00000000 00000000 00000000 00000000     ................
e00044bc:	00000000 00000000 00000000 00000000     ................
e00044cc:	00000000 00000000 00000000 00000000     ................
e00044dc:	00000000 00000000 00000000 00000000     ................
e00044ec:	00000000 00000000 00000000 00000000     ................
e00044fc:	00000000 00000000 00000000 00000000     ................
e000450c:	00000000 00000000 00000000 00000000     ................
e000451c:	00000000 00000000 00000000 00000000     ................
e000452c:	00000000 00000000 00000000 00000000     ................
e000453c:	00000000 00000000 00000000 00000000     ................
e000454c:	00000000 00000000 00000000 00000000     ................
e000455c:	00000000 00000000 00000000 00000000     ................
e000456c:	00000000 00000000 00000000 00000000     ................
e000457c:	00000000 00000000 00000000 00000000     ................
e000458c:	00000000 00000000 00000000 00000000     ................
e000459c:	00000000 00000000 00000000 00000000     ................
e00045ac:	00000000 00000000 00000000 00000000     ................
e00045bc:	00000000 00000000 00000000 00000000     ................
e00045cc:	00000000 00000000 00000000 00000000     ................
e00045dc:	00000000 00000000 00000000 00000000     ................
e00045ec:	00000000 00000000 00000000 00000000     ................
e00045fc:	00000000 00000000 00000000 00000000     ................
e000460c:	00000000 00000000 00000000 00000000     ................
e000461c:	00000000 00000000 00000000 00000000     ................
e000462c:	00000000 00000000 00000000 00000000     ................
e000463c:	00000000 00000000 00000000 00000000     ................
e000464c:	00000000 00000000 00000000 00000000     ................
e000465c:	00000000 00000000 00000000 00000000     ................
e000466c:	00000000 00000000 00000000 00000000     ................
e000467c:	00000000 00000000 00000000 00000000     ................
e000468c:	00000000 00000000 00000000 00000000     ................
e000469c:	00000000 00000000 00000000 00000000     ................
e00046ac:	00000000 00000000 00000000 00000000     ................
e00046bc:	00000000 00000000 00000000 00000000     ................
e00046cc:	00000000 00000000 00000000 00000000     ................
e00046dc:	00000000 00000000 00000000 00000000     ................
e00046ec:	00000000 00000000 00000000 00000000     ................
e00046fc:	00000000 00000000 00000000 00000000     ................
e000470c:	00000000 00000000 00000000 00000000     ................
e000471c:	00000000 00000000 00000000 00000000     ................
e000472c:	00000000 00000000 00000000 00000000     ................
e000473c:	00000000 00000000 00000000 00000000     ................
e000474c:	00000000 00000000 00000000 00000000     ................
e000475c:	00000000 00000000 00000000 00000000     ................
e000476c:	00000000 00000000 00000000 00000000     ................
e000477c:	00000000 00000000 00000000 00000000     ................
e000478c:	00000000 00000000 00000000 00000000     ................
e000479c:	00000000 00000000 00000000 00000000     ................
e00047ac:	00000000 00000000 00000000 00000000     ................
e00047bc:	00000000 00000000 00000000 00000000     ................
e00047cc:	00000000 00000000 00000000 00000000     ................
e00047dc:	00000000 00000000 00000000 00000000     ................
e00047ec:	00000000 00000000 00000000 00000000     ................
e00047fc:	00000000 00000000 00000000 00000000     ................
e000480c:	00000000 00000000 00000000 00000000     ................
e000481c:	00000000 00000000 00000000 00000000     ................
e000482c:	00000000 00000000 00000000 00000000     ................
e000483c:	00000000 00000000 00000000 00000000     ................
e000484c:	00000000 00000000 00000000 00000000     ................
e000485c:	00000000 00000000 00000000 00000000     ................
e000486c:	00000000 00000000 00000000 00000000     ................
e000487c:	00000000 00000000 00000000 00000000     ................
e000488c:	00000000 00000000 00000000 00000000     ................
e000489c:	00000000 00000000 00000000 00000000     ................
e00048ac:	00000000 00000000 00000000 00000000     ................
e00048bc:	00000000 00000000 00000000 00000000     ................
e00048cc:	00000000 00000000 00000000 00000000     ................
e00048dc:	00000000 00000000 00000000 00000000     ................
e00048ec:	00000000 00000000 00000000 00000000     ................
e00048fc:	00000000 00000000 00000000 00000000     ................
e000490c:	00000000 00000000 00000000 00000000     ................
e000491c:	00000000 00000000 00000000 00000000     ................
e000492c:	00000000 00000000 00000000 00000000     ................
e000493c:	00000000 00000000 00000000 00000000     ................
e000494c:	00000000 00000000 00000000 00000000     ................
e000495c:	00000000 00000000 00000000 00000000     ................
e000496c:	00000000 00000000 00000000 00000000     ................
e000497c:	00000000 00000000 00000000 00000000     ................
e000498c:	00000000 00000000 00000000 00000000     ................
e000499c:	00000000 00000000 00000000 00000000     ................
e00049ac:	00000000 00000000 00000000 00000000     ................
e00049bc:	00000000 00000000 00000000 00000000     ................
e00049cc:	00000000 00000000 00000000 00000000     ................
e00049dc:	00000000 00000000 00000000 00000000     ................
e00049ec:	00000000 00000000 00000000 00000000     ................
e00049fc:	00000000 00000000 00000000 00000000     ................
e0004a0c:	00000000 00000000 00000000 00000000     ................
e0004a1c:	00000000 00000000 00000000 00000000     ................
e0004a2c:	00000000 00000000 00000000 00000000     ................
e0004a3c:	00000000 00000000 00000000 00000000     ................
e0004a4c:	00000000 00000000 00000000 00000000     ................
e0004a5c:	00000000 00000000 00000000 00000000     ................
e0004a6c:	00000000 00000000 00000000 00000000     ................
e0004a7c:	00000000 00000000 00000000 00000000     ................
e0004a8c:	00000000 00000000 00000000 00000000     ................
e0004a9c:	00000000 00000000 00000000 00000000     ................
e0004aac:	00000000 00000000 00000000 00000000     ................
e0004abc:	00000000 00000000 00000000 00000000     ................
e0004acc:	00000000 00000000 00000000 00000000     ................
e0004adc:	00000000 00000000 00000000 00000000     ................
e0004aec:	00000000 00000000 00000000 00000000     ................
e0004afc:	00000000 00000000 00000000 00000000     ................
e0004b0c:	00000000 00000000 00000000 00000000     ................
e0004b1c:	00000000 00000000 00000000 00000000     ................
e0004b2c:	00000000 00000000 00000000 00000000     ................
e0004b3c:	00000000 00000000 00000000 00000000     ................
e0004b4c:	00000000 00000000 00000000 00000000     ................
e0004b5c:	00000000 00000000 00000000 00000000     ................
e0004b6c:	00000000 00000000 00000000 00000000     ................
e0004b7c:	00000000 00000000 00000000 00000000     ................
e0004b8c:	00000000 00000000 00000000 00000000     ................
e0004b9c:	00000000 00000000 00000000 00000000     ................
e0004bac:	00000000 00000000 00000000 00000000     ................
e0004bbc:	00000000 00000000 00000000 00000000     ................
e0004bcc:	00000000 00000000 00000000 00000000     ................
e0004bdc:	00000000 00000000 00000000 00000000     ................
e0004bec:	00000000 00000000 00000000 00000000     ................
e0004bfc:	00000000 00000000 00000000 00000000     ................
e0004c0c:	00000000 00000000 00000000 00000000     ................
e0004c1c:	00000000 00000000 00000000 00000000     ................
e0004c2c:	00000000 00000000 00000000 00000000     ................
e0004c3c:	00000000 00000000 00000000 00000000     ................
e0004c4c:	00000000 00000000 00000000 00000000     ................
e0004c5c:	00000000 00000000 00000000 00000000     ................
e0004c6c:	00000000 00000000 00000000 00000000     ................
e0004c7c:	00000000 00000000 00000000 00000000     ................
e0004c8c:	00000000 00000000 00000000 00000000     ................
e0004c9c:	00000000 00000000 00000000 00000000     ................
e0004cac:	00000000 00000000 00000000 00000000     ................
e0004cbc:	00000000 00000000 00000000 00000000     ................
e0004ccc:	00000000 00000000 00000000 00000000     ................
e0004cdc:	00000000 00000000 00000000 00000000     ................
e0004cec:	00000000 00000000 00000000 00000000     ................
e0004cfc:	00000000 00000000 00000000 00000000     ................
e0004d0c:	00000000 00000000 00000000 00000000     ................
e0004d1c:	00000000 00000000 00000000 00000000     ................
e0004d2c:	00000000 00000000 00000000 00000000     ................
e0004d3c:	00000000 00000000 00000000 00000000     ................
e0004d4c:	00000000 00000000 00000000 00000000     ................
e0004d5c:	00000000 00000000 00000000 00000000     ................
e0004d6c:	00000000 00000000 00000000 00000000     ................
e0004d7c:	00000000 00000000 00000000 00000000     ................
e0004d8c:	00000000 00000000 00000000 00000000     ................
e0004d9c:	00000000 00000000 00000000 00000000     ................
e0004dac:	00000000 00000000 00000000 00000000     ................
e0004dbc:	00000000 00000000 00000000 00000000     ................
e0004dcc:	00000000 00000000 00000000 00000000     ................
e0004ddc:	00000000 00000000 00000000 00000000     ................
e0004dec:	00000000 00000000 00000000 00000000     ................
e0004dfc:	00000000 00000000 00000000 00000000     ................
e0004e0c:	00000000 00000000 00000000 00000000     ................
e0004e1c:	00000000 00000000 00000000 00000000     ................
e0004e2c:	00000000 00000000 00000000 00000000     ................
e0004e3c:	00000000 00000000 00000000 00000000     ................
e0004e4c:	00000000 00000000 00000000 00000000     ................
e0004e5c:	00000000 00000000 00000000 00000000     ................
e0004e6c:	00000000 00000000 00000000 00000000     ................
e0004e7c:	00000000 00000000 00000000 00000000     ................
e0004e8c:	00000000 00000000 00000000 00000000     ................
e0004e9c:	00000000 00000000 00000000 00000000     ................
e0004eac:	00000000 00000000 00000000 00000000     ................
e0004ebc:	00000000 00000000 00000000 00000000     ................
e0004ecc:	00000000 00000000 00000000 00000000     ................
e0004edc:	00000000 00000000 00000000 00000000     ................
e0004eec:	00000000 00000000 00000000 00000000     ................
e0004efc:	00000000 00000000 00000000 00000000     ................
e0004f0c:	00000000 00000000 00000000 00000000     ................
e0004f1c:	00000000 00000000 00000000 00000000     ................
e0004f2c:	00000000 00000000 00000000 00000000     ................
e0004f3c:	00000000 00000000 00000000 00000000     ................
e0004f4c:	00000000 00000000 00000000 00000000     ................
e0004f5c:	00000000 00000000 00000000 00000000     ................
e0004f6c:	00000000 00000000 00000000 00000000     ................
e0004f7c:	00000000 00000000 00000000 00000000     ................
e0004f8c:	00000000 00000000 00000000 00000000     ................
e0004f9c:	00000000 00000000 00000000 00000000     ................
e0004fac:	00000000 00000000 00000000 00000000     ................
e0004fbc:	00000000 00000000 00000000 00000000     ................
e0004fcc:	00000000 00000000 00000000 00000000     ................
e0004fdc:	00000000 00000000 00000000 00000000     ................
e0004fec:	00000000 00000000 00000000 00000000     ................
e0004ffc:	00000000 00000000 00000000 00000000     ................
e000500c:	00000000 00000000 00000000 00000000     ................
e000501c:	00000000 00000000 00000000 00000000     ................
e000502c:	00000000 00000000 00000000 00000000     ................
e000503c:	00000000 00000000 00000000 00000000     ................
e000504c:	00000000 00000000 00000000 00000000     ................
e000505c:	00000000 00000000 00000000 00000000     ................
e000506c:	00000000 00000000 00000000 00000000     ................
e000507c:	00000000 00000000 00000000 00000000     ................
e000508c:	00000000 00000000 00000000 00000000     ................
e000509c:	00000000 00000000 00000000 00000000     ................
e00050ac:	00000000 00000000 00000000 00000000     ................
e00050bc:	00000000 00000000 00000000 00000000     ................
e00050cc:	00000000 00000000 00000000 00000000     ................
e00050dc:	00000000 00000000 00000000 00000000     ................
e00050ec:	00000000 00000000 00000000 00000000     ................
e00050fc:	00000000 00000000 00000000 00000000     ................
e000510c:	00000000 00000000 00000000 00000000     ................
e000511c:	00000000 00000000 00000000 00000000     ................
e000512c:	00000000 00000000 00000000 00000000     ................
e000513c:	00000000 00000000 00000000 00000000     ................
e000514c:	00000000 00000000 00000000 00000000     ................
e000515c:	00000000 00000000 00000000 00000000     ................
e000516c:	00000000 00000000 00000000 00000000     ................
e000517c:	00000000 00000000 00000000 00000000     ................
e000518c:	00000000 00000000 00000000 00000000     ................
e000519c:	00000000 00000000 00000000 00000000     ................
e00051ac:	00000000 00000000 00000000 00000000     ................
e00051bc:	00000000 00000000 00000000 00000000     ................
e00051cc:	00000000 00000000 00000000 00000000     ................
e00051dc:	00000000 00000000 00000000 00000000     ................
e00051ec:	00000000 00000000 00000000 00000000     ................
e00051fc:	00000000 00000000 00000000 00000000     ................
e000520c:	00000000 00000000 00000000 00000000     ................
e000521c:	00000000 00000000 00000000 00000000     ................
e000522c:	00000000 00000000 00000000 00000000     ................
e000523c:	00000000 00000000 00000000 00000000     ................
e000524c:	00000000 00000000 00000000 00000000     ................
e000525c:	00000000 00000000 00000000 00000000     ................
e000526c:	00000000 00000000 00000000 00000000     ................
e000527c:	00000000 00000000 00000000 00000000     ................
e000528c:	00000000 00000000 00000000 00000000     ................
e000529c:	00000000 00000000 00000000 00000000     ................
e00052ac:	00000000 00000000 00000000 00000000     ................
e00052bc:	00000000 00000000 00000000 00000000     ................
e00052cc:	00000000 00000000 00000000 00000000     ................
e00052dc:	00000000 00000000 00000000 00000000     ................
e00052ec:	00000000 00000000 00000000 00000000     ................
e00052fc:	00000000 00000000 00000000 00000000     ................
e000530c:	00000000 00000000 00000000 00000000     ................
e000531c:	00000000 00000000 00000000 00000000     ................
e000532c:	00000000 00000000 00000000 00000000     ................
e000533c:	00000000 00000000 00000000 00000000     ................
e000534c:	00000000 00000000 00000000 00000000     ................
e000535c:	00000000 00000000 00000000 00000000     ................
e000536c:	00000000 00000000 00000000 00000000     ................
e000537c:	00000000 00000000 00000000 00000000     ................
e000538c:	00000000 00000000 00000000 00000000     ................
e000539c:	00000000 00000000 00000000 00000000     ................
e00053ac:	00000000 00000000 00000000 00000000     ................
e00053bc:	00000000 00000000 00000000 00000000     ................
e00053cc:	00000000 00000000 00000000 00000000     ................
e00053dc:	00000000 00000000 00000000 00000000     ................
e00053ec:	00000000 00000000 00000000 00000000     ................
e00053fc:	00000000 00000000 00000000 00000000     ................
e000540c:	00000000 00000000 00000000 00000000     ................
e000541c:	00000000 00000000 00000000 00000000     ................
e000542c:	00000000 00000000 00000000 00000000     ................
e000543c:	00000000 00000000 00000000 00000000     ................
e000544c:	00000000 00000000 00000000 00000000     ................
e000545c:	00000000 00000000 00000000 00000000     ................
e000546c:	00000000 00000000 00000000 00000000     ................
e000547c:	00000000 00000000 00000000 00000000     ................
e000548c:	00000000 00000000 00000000 00000000     ................
e000549c:	00000000 00000000 00000000 00000000     ................
e00054ac:	00000000 00000000 00000000 00000000     ................
e00054bc:	00000000 00000000 00000000 00000000     ................
e00054cc:	00000000 00000000 00000000 00000000     ................
e00054dc:	00000000 00000000 00000000 00000000     ................
e00054ec:	00000000 00000000 00000000 00000000     ................
e00054fc:	00000000 00000000 00000000 00000000     ................
e000550c:	00000000 00000000 00000000 00000000     ................
e000551c:	00000000 00000000 00000000 00000000     ................
e000552c:	00000000 00000000 00000000 00000000     ................
e000553c:	00000000 00000000 00000000 00000000     ................
e000554c:	00000000 00000000 00000000 00000000     ................
e000555c:	00000000 00000000 00000000 00000000     ................
e000556c:	00000000 00000000 00000000 00000000     ................
e000557c:	00000000 00000000 00000000 00000000     ................
e000558c:	00000000 00000000 00000000 00000000     ................
e000559c:	00000000 00000000 00000000 00000000     ................
e00055ac:	00000000 00000000 00000000 00000000     ................
e00055bc:	00000000 00000000 00000000 00000000     ................
e00055cc:	00000000 00000000 00000000 00000000     ................
e00055dc:	00000000 00000000 00000000 00000000     ................
e00055ec:	00000000 00000000 00000000 00000000     ................
e00055fc:	00000000 00000000 00000000 00000000     ................
e000560c:	00000000 00000000 00000000 00000000     ................
e000561c:	00000000 00000000 00000000 00000000     ................
e000562c:	00000000 00000000 00000000 00000000     ................
e000563c:	00000000 00000000 00000000 00000000     ................
e000564c:	00000000 00000000 00000000 00000000     ................
e000565c:	00000000 00000000 00000000 00000000     ................
e000566c:	00000000 00000000 00000000 00000000     ................
e000567c:	00000000 00000000 00000000 00000000     ................
e000568c:	00000000 00000000 00000000 00000000     ................
e000569c:	00000000 00000000 00000000 00000000     ................
e00056ac:	00000000 00000000 00000000 00000000     ................
e00056bc:	00000000 00000000 00000000 00000000     ................
e00056cc:	00000000 00000000 00000000 00000000     ................
e00056dc:	00000000 00000000 00000000 00000000     ................
e00056ec:	00000000 00000000 00000000 00000000     ................
e00056fc:	00000000 00000000 00000000 00000000     ................
e000570c:	00000000 00000000 00000000 00000000     ................
e000571c:	00000000 00000000 00000000 00000000     ................
e000572c:	00000000 00000000 00000000 00000000     ................
e000573c:	00000000 00000000 00000000 00000000     ................
e000574c:	00000000 00000000 00000000 00000000     ................
e000575c:	00000000 00000000 00000000 00000000     ................
e000576c:	00000000 00000000 00000000 00000000     ................
e000577c:	00000000 00000000 00000000 00000000     ................
e000578c:	00000000 00000000 00000000 00000000     ................
e000579c:	00000000 00000000 00000000 00000000     ................
e00057ac:	00000000 00000000 00000000 00000000     ................
e00057bc:	00000000 00000000 00000000 00000000     ................
e00057cc:	00000000 00000000 00000000 00000000     ................
e00057dc:	00000000 00000000 00000000 00000000     ................
e00057ec:	00000000 00000000 00000000 00000000     ................
e00057fc:	00000000 00000000 00000000 00000000     ................
e000580c:	00000000 00000000 00000000 00000000     ................
e000581c:	00000000 00000000 00000000 00000000     ................
e000582c:	00000000 00000000 00000000 00000000     ................
e000583c:	00000000 00000000 00000000 00000000     ................
e000584c:	00000000 00000000 00000000 00000000     ................
e000585c:	00000000 00000000 00000000 00000000     ................
e000586c:	00000000 00000000 00000000 00000000     ................
e000587c:	00000000 00000000 00000000 00000000     ................
e000588c:	00000000 00000000 00000000 00000000     ................
e000589c:	00000000 00000000 00000000 00000000     ................
e00058ac:	00000000 00000000 00000000 00000000     ................
e00058bc:	00000000 00000000 00000000 00000000     ................
e00058cc:	00000000 00000000 00000000 00000000     ................
e00058dc:	00000000 00000000 00000000 00000000     ................
e00058ec:	00000000 00000000 00000000 00000000     ................
e00058fc:	00000000 00000000 00000000 00000000     ................
e000590c:	00000000 00000000 00000000 00000000     ................
e000591c:	00000000 00000000 00000000 00000000     ................
e000592c:	00000000 00000000 00000000 00000000     ................
e000593c:	00000000 00000000 00000000 00000000     ................
e000594c:	00000000 00000000 00000000 00000000     ................
e000595c:	00000000 00000000 00000000 00000000     ................
e000596c:	00000000 00000000 00000000 00000000     ................
e000597c:	00000000 00000000 00000000 00000000     ................
e000598c:	00000000 00000000 00000000 00000000     ................
e000599c:	00000000 00000000 00000000 00000000     ................
e00059ac:	00000000 00000000 00000000 00000000     ................
e00059bc:	00000000 00000000 00000000 00000000     ................
e00059cc:	00000000 00000000 00000000 00000000     ................
e00059dc:	00000000 00000000 00000000 00000000     ................
e00059ec:	00000000 00000000 00000000 00000000     ................
e00059fc:	00000000 00000000 00000000 00000000     ................
e0005a0c:	00000000 00000000 00000000 00000000     ................
e0005a1c:	00000000 00000000 00000000 00000000     ................
e0005a2c:	00000000 00000000 00000000 00000000     ................
e0005a3c:	00000000 00000000 00000000 00000000     ................
e0005a4c:	00000000 00000000 00000000 00000000     ................
e0005a5c:	00000000 00000000 00000000 00000000     ................
e0005a6c:	00000000 00000000 00000000 00000000     ................
e0005a7c:	00000000 00000000 00000000 00000000     ................
e0005a8c:	00000000 00000000 00000000 00000000     ................
e0005a9c:	00000000 00000000 00000000 00000000     ................
e0005aac:	00000000 00000000 00000000 00000000     ................
e0005abc:	00000000 00000000 00000000 00000000     ................
e0005acc:	00000000 00000000 00000000 00000000     ................
e0005adc:	00000000 00000000 00000000 00000000     ................
e0005aec:	00000000 00000000 00000000 00000000     ................
e0005afc:	00000000 00000000 00000000 00000000     ................
e0005b0c:	00000000 00000000 00000000 00000000     ................
e0005b1c:	00000000 00000000 00000000 00000000     ................
e0005b2c:	00000000 00000000 00000000 00000000     ................
e0005b3c:	00000000 00000000 00000000 00000000     ................
e0005b4c:	00000000 00000000 00000000 00000000     ................
e0005b5c:	00000000 00000000 00000000 00000000     ................
e0005b6c:	00000000 00000000 00000000 00000000     ................
e0005b7c:	00000000 00000000 00000000 00000000     ................
e0005b8c:	00000000 00000000 00000000 00000000     ................
e0005b9c:	00000000 00000000 00000000 00000000     ................
e0005bac:	00000000 00000000 00000000 00000000     ................
e0005bbc:	00000000 00000000 00000000 00000000     ................
e0005bcc:	00000000 00000000 00000000 00000000     ................
e0005bdc:	00000000 00000000 00000000 00000000     ................
e0005bec:	00000000 00000000 00000000 00000000     ................
e0005bfc:	00000000 00000000 00000000 00000000     ................
e0005c0c:	00000000 00000000 00000000 00000000     ................
e0005c1c:	00000000 00000000 00000000 00000000     ................
e0005c2c:	00000000 00000000 00000000 00000000     ................
e0005c3c:	00000000 00000000 00000000 00000000     ................
e0005c4c:	00000000 00000000 00000000 00000000     ................
e0005c5c:	00000000 00000000 00000000 00000000     ................
e0005c6c:	00000000 00000000 00000000 00000000     ................
e0005c7c:	00000000 00000000 00000000 00000000     ................
e0005c8c:	00000000 00000000 00000000 00000000     ................
e0005c9c:	00000000 00000000 00000000 00000000     ................
e0005cac:	00000000 00000000 00000000 00000000     ................
e0005cbc:	00000000 00000000 00000000 00000000     ................
e0005ccc:	00000000 00000000 00000000 00000000     ................
e0005cdc:	00000000 00000000 00000000 00000000     ................
e0005cec:	00000000 00000000 00000000 00000000     ................
e0005cfc:	00000000 00000000 00000000 00000000     ................
e0005d0c:	00000000 00000000 00000000 00000000     ................
e0005d1c:	00000000 00000000 00000000 00000000     ................
e0005d2c:	00000000 00000000 00000000 00000000     ................
e0005d3c:	00000000 00000000 00000000 00000000     ................
e0005d4c:	00000000 00000000 00000000 00000000     ................
e0005d5c:	00000000 00000000 00000000 00000000     ................
e0005d6c:	00000000 00000000 00000000 00000000     ................
e0005d7c:	00000000 00000000 00000000 00000000     ................
e0005d8c:	00000000 00000000 00000000 00000000     ................
e0005d9c:	00000000 00000000 00000000 00000000     ................
e0005dac:	00000000 00000000 00000000 00000000     ................
e0005dbc:	00000000 00000000 00000000 00000000     ................
e0005dcc:	00000000 00000000 00000000 00000000     ................
e0005ddc:	00000000 00000000 00000000 00000000     ................
e0005dec:	00000000 00000000 00000000 00000000     ................
e0005dfc:	00000000 00000000 00000000 00000000     ................
e0005e0c:	00000000 00000000 00000000 00000000     ................
e0005e1c:	00000000 00000000 00000000 00000000     ................
e0005e2c:	00000000 00000000 00000000 00000000     ................
e0005e3c:	00000000 00000000 00000000 00000000     ................
e0005e4c:	00000000 00000000 00000000 00000000     ................
e0005e5c:	00000000 00000000 00000000 00000000     ................
e0005e6c:	00000000 00000000 00000000 00000000     ................
e0005e7c:	00000000 00000000 00000000 00000000     ................
e0005e8c:	00000000 00000000 00000000 00000000     ................
e0005e9c:	00000000 00000000 00000000 00000000     ................
e0005eac:	00000000 00000000 00000000 00000000     ................
e0005ebc:	00000000 00000000 00000000 00000000     ................
e0005ecc:	00000000 00000000 00000000 00000000     ................
e0005edc:	00000000 00000000 00000000 00000000     ................
e0005eec:	00000000 00000000 00000000 00000000     ................
e0005efc:	00000000 00000000 00000000 00000000     ................
e0005f0c:	00000000 00000000 00000000 00000000     ................
e0005f1c:	00000000 00000000 00000000 00000000     ................
e0005f2c:	00000000 00000000 00000000 00000000     ................
e0005f3c:	00000000 00000000 00000000 00000000     ................
e0005f4c:	00000000 00000000 00000000 00000000     ................
e0005f5c:	00000000 00000000 00000000 00000000     ................
e0005f6c:	00000000 00000000 00000000 00000000     ................
e0005f7c:	00000000 00000000 00000000 00000000     ................
e0005f8c:	00000000 00000000 00000000 00000000     ................
e0005f9c:	00000000 00000000 00000000 00000000     ................
e0005fac:	00000000 00000000 00000000 00000000     ................
e0005fbc:	00000000 00000000 00000000 00000000     ................
e0005fcc:	00000000 00000000 00000000 00000000     ................
e0005fdc:	00000000 00000000 00000000 00000000     ................
e0005fec:	00000000 00000000 00000000 00000000     ................
e0005ffc:	00000000 00000000 00000000 00000000     ................
e000600c:	00000000 00000000 00000000 00000000     ................
e000601c:	00000000 00000000 00000000 00000000     ................
e000602c:	00000000 00000000 00000000 00000000     ................
e000603c:	00000000 00000000 00000000 00000000     ................
e000604c:	00000000 00000000 00000000 00000000     ................
e000605c:	00000000 00000000 00000000 00000000     ................
e000606c:	00000000 00000000 00000000 00000000     ................
e000607c:	00000000 00000000 00000000 00000000     ................
e000608c:	00000000 00000000 00000000 00000000     ................
e000609c:	00000000 00000000 00000000 00000000     ................
e00060ac:	00000000 00000000 00000000 00000000     ................
e00060bc:	00000000 00000000 00000000 00000000     ................
e00060cc:	00000000 00000000 00000000 00000000     ................
e00060dc:	00000000 00000000 00000000 00000000     ................
e00060ec:	00000000 00000000 00000000 00000000     ................
e00060fc:	00000000 00000000 00000000 00000000     ................
e000610c:	00000000 00000000 00000000 00000000     ................
e000611c:	00000000 00000000 00000000 00000000     ................
e000612c:	00000000 00000000 00000000 00000000     ................
e000613c:	00000000 00000000 00000000 00000000     ................
e000614c:	00000000 00000000 00000000 00000000     ................
e000615c:	00000000 00000000 00000000 00000000     ................
e000616c:	00000000 00000000 00000000 00000000     ................
e000617c:	00000000 00000000 00000000 00000000     ................
e000618c:	00000000 00000000 00000000 00000000     ................
e000619c:	00000000 00000000 00000000 00000000     ................
e00061ac:	00000000 00000000 00000000 00000000     ................
e00061bc:	00000000 00000000 00000000 00000000     ................
e00061cc:	00000000 00000000 00000000 00000000     ................
e00061dc:	00000000 00000000 00000000 00000000     ................
e00061ec:	00000000 00000000 00000000 00000000     ................
e00061fc:	00000000 00000000 00000000 00000000     ................
e000620c:	00000000 00000000 00000000 00000000     ................
e000621c:	00000000 00000000 00000000 00000000     ................
e000622c:	00000000 00000000 00000000 00000000     ................
e000623c:	00000000 00000000 00000000 00000000     ................
e000624c:	00000000 00000000 00000000 00000000     ................
e000625c:	00000000 00000000 00000000 00000000     ................
e000626c:	00000000 00000000 00000000 00000000     ................
e000627c:	00000000 00000000 00000000 00000000     ................
e000628c:	00000000 00000000 00000000 00000000     ................
e000629c:	00000000 00000000 00000000 00000000     ................
e00062ac:	00000000 00000000 00000000 00000000     ................
e00062bc:	00000000 00000000 00000000 00000000     ................
e00062cc:	00000000 00000000 00000000 00000000     ................
e00062dc:	00000000 00000000 00000000 00000000     ................
e00062ec:	00000000 00000000 00000000 00000000     ................
e00062fc:	00000000 00000000 00000000 00000000     ................
e000630c:	00000000 00000000 00000000 00000000     ................
e000631c:	00000000 00000000 00000000 00000000     ................
e000632c:	00000000 00000000 00000000 00000000     ................
e000633c:	00000000 00000000 00000000 00000000     ................
e000634c:	00000000 00000000 00000000 00000000     ................
e000635c:	00000000 00000000 00000000 00000000     ................
e000636c:	00000000 00000000 00000000 00000000     ................
e000637c:	00000000 00000000 00000000 00000000     ................
e000638c:	00000000 00000000 00000000 00000000     ................
e000639c:	00000000 00000000 00000000 00000000     ................
e00063ac:	00000000 00000000 00000000 00000000     ................
e00063bc:	00000000 00000000 00000000 00000000     ................
e00063cc:	00000000 00000000 00000000 00000000     ................
e00063dc:	00000000 00000000 00000000 00000000     ................
e00063ec:	00000000 00000000 00000000 00000000     ................
e00063fc:	00000000 00000000 00000000 00000000     ................
e000640c:	00000000 00000000 00000000 00000000     ................
e000641c:	00000000 00000000 00000000 00000000     ................
e000642c:	00000000 00000000 00000000 00000000     ................
e000643c:	00000000 00000000 00000000 00000000     ................
e000644c:	00000000 00000000 00000000 00000000     ................
e000645c:	00000000 00000000 00000000 00000000     ................
e000646c:	00000000 00000000 00000000 00000000     ................
e000647c:	00000000 00000000 00000000 00000000     ................
e000648c:	00000000 00000000 00000000 00000000     ................
e000649c:	00000000 00000000 00000000 00000000     ................
e00064ac:	00000000 00000000 00000000 00000000     ................
e00064bc:	00000000 00000000 00000000 00000000     ................
e00064cc:	00000000 00000000 00000000 00000000     ................
e00064dc:	00000000 00000000 00000000 00000000     ................
e00064ec:	00000000 00000000 00000000 00000000     ................
e00064fc:	00000000 00000000 00000000 00000000     ................
e000650c:	00000000 00000000 00000000 00000000     ................
e000651c:	00000000 00000000 00000000 00000000     ................
e000652c:	00000000 00000000 00000000 00000000     ................
e000653c:	00000000 00000000 00000000 00000000     ................
e000654c:	00000000 00000000 00000000 00000000     ................
e000655c:	00000000 00000000 00000000 00000000     ................
e000656c:	00000000 00000000 00000000 00000000     ................
e000657c:	00000000 00000000 00000000 00000000     ................
e000658c:	00000000 00000000 00000000 00000000     ................
e000659c:	00000000 00000000 00000000 00000000     ................
e00065ac:	00000000 00000000 00000000 00000000     ................
e00065bc:	00000000 00000000 00000000 00000000     ................
e00065cc:	00000000 00000000 00000000 00000000     ................
e00065dc:	00000000 00000000 00000000 00000000     ................
e00065ec:	00000000 00000000 00000000 00000000     ................
e00065fc:	00000000 00000000 00000000 00000000     ................
e000660c:	00000000 00000000 00000000 00000000     ................
e000661c:	00000000 00000000 00000000 00000000     ................
e000662c:	00000000 00000000 00000000 00000000     ................
e000663c:	00000000 00000000 00000000 00000000     ................
e000664c:	00000000 00000000 00000000 00000000     ................
e000665c:	00000000 00000000 00000000 00000000     ................
e000666c:	00000000 00000000 00000000 00000000     ................
e000667c:	00000000 00000000 00000000 00000000     ................
e000668c:	00000000 00000000 00000000 00000000     ................
e000669c:	00000000 00000000 00000000 00000000     ................
e00066ac:	00000000 00000000 00000000 00000000     ................
e00066bc:	00000000 00000000 00000000 00000000     ................
e00066cc:	00000000 00000000 00000000 00000000     ................
e00066dc:	00000000 00000000 00000000 00000000     ................
e00066ec:	00000000 00000000 00000000 00000000     ................
e00066fc:	00000000 00000000 00000000 00000000     ................
e000670c:	00000000 00000000 00000000 00000000     ................
e000671c:	00000000 00000000 00000000 00000000     ................
e000672c:	00000000 00000000 00000000 00000000     ................
e000673c:	00000000 00000000 00000000 00000000     ................
e000674c:	00000000 00000000 00000000 00000000     ................
e000675c:	00000000 00000000 00000000 00000000     ................
e000676c:	00000000 00000000 00000000 00000000     ................
e000677c:	00000000 00000000 00000000 00000000     ................
e000678c:	00000000 00000000 00000000 00000000     ................
e000679c:	00000000 00000000 00000000 00000000     ................
e00067ac:	00000000 00000000 00000000 00000000     ................
e00067bc:	00000000 00000000 00000000 00000000     ................
e00067cc:	00000000 00000000 00000000 00000000     ................
e00067dc:	00000000 00000000 00000000 00000000     ................
e00067ec:	00000000 00000000 00000000 00000000     ................
e00067fc:	00000000 00000000 00000000 00000000     ................
e000680c:	00000000 00000000 00000000 00000000     ................
e000681c:	00000000 00000000 00000000 00000000     ................
e000682c:	00000000 00000000 00000000 00000000     ................
e000683c:	00000000 00000000 00000000 00000000     ................
e000684c:	00000000 00000000 00000000 00000000     ................
e000685c:	00000000 00000000 00000000 00000000     ................
e000686c:	00000000 00000000 00000000 00000000     ................
e000687c:	00000000 00000000 00000000 00000000     ................
e000688c:	00000000 00000000 00000000 00000000     ................
e000689c:	00000000 00000000 00000000 00000000     ................
e00068ac:	00000000 00000000 00000000 00000000     ................
e00068bc:	00000000 00000000 00000000 00000000     ................
e00068cc:	00000000 00000000 00000000 00000000     ................
e00068dc:	00000000 00000000 00000000 00000000     ................
e00068ec:	00000000 00000000 00000000 00000000     ................
e00068fc:	00000000 00000000 00000000 00000000     ................
e000690c:	00000000 00000000 00000000 00000000     ................
e000691c:	00000000 00000000 00000000 00000000     ................
e000692c:	00000000 00000000 00000000 00000000     ................
e000693c:	00000000 00000000 00000000 00000000     ................
e000694c:	00000000 00000000 00000000 00000000     ................
e000695c:	00000000 00000000 00000000 00000000     ................
e000696c:	00000000 00000000 00000000 00000000     ................
e000697c:	00000000 00000000 00000000 00000000     ................
e000698c:	00000000 00000000 00000000 00000000     ................
e000699c:	00000000 00000000 00000000 00000000     ................
e00069ac:	00000000 00000000 00000000 00000000     ................
e00069bc:	00000000 00000000 00000000 00000000     ................
e00069cc:	00000000 00000000 00000000 00000000     ................
e00069dc:	00000000 00000000 00000000 00000000     ................
e00069ec:	00000000 00000000 00000000 00000000     ................
e00069fc:	00000000 00000000 00000000 00000000     ................
e0006a0c:	00000000 00000000 00000000 00000000     ................
e0006a1c:	00000000 00000000 00000000 00000000     ................
e0006a2c:	00000000 00000000 00000000 00000000     ................
e0006a3c:	00000000 00000000 00000000 00000000     ................
e0006a4c:	00000000 00000000 00000000 00000000     ................
e0006a5c:	00000000 00000000 00000000 00000000     ................
e0006a6c:	00000000 00000000 00000000 00000000     ................
e0006a7c:	00000000 00000000 00000000 00000000     ................
e0006a8c:	00000000 00000000 00000000 00000000     ................
e0006a9c:	00000000 00000000 00000000 00000000     ................
e0006aac:	00000000 00000000 00000000 00000000     ................
e0006abc:	00000000 00000000 00000000 00000000     ................
e0006acc:	00000000 00000000 00000000 00000000     ................
e0006adc:	00000000 00000000 00000000 00000000     ................
e0006aec:	00000000 00000000 00000000 00000000     ................
e0006afc:	00000000 00000000 00000000 00000000     ................
e0006b0c:	00000000 00000000 00000000 00000000     ................
e0006b1c:	00000000 00000000 00000000 00000000     ................
e0006b2c:	00000000 00000000 00000000 00000000     ................
e0006b3c:	00000000 00000000 00000000 00000000     ................
e0006b4c:	00000000 00000000 00000000 00000000     ................
e0006b5c:	00000000 00000000 00000000 00000000     ................
e0006b6c:	00000000 00000000 00000000 00000000     ................
e0006b7c:	00000000 00000000 00000000 00000000     ................
e0006b8c:	00000000 00000000 00000000 00000000     ................
e0006b9c:	00000000 00000000 00000000 00000000     ................
e0006bac:	00000000 00000000 00000000 00000000     ................
e0006bbc:	00000000 00000000 00000000 00000000     ................
e0006bcc:	00000000 00000000 00000000 00000000     ................
e0006bdc:	00000000 00000000 00000000 00000000     ................
e0006bec:	00000000 00000000 00000000 00000000     ................
e0006bfc:	00000000 00000000 00000000 00000000     ................
e0006c0c:	00000000 00000000 00000000 00000000     ................
e0006c1c:	00000000 00000000 00000000 00000000     ................
e0006c2c:	00000000 00000000 00000000 00000000     ................
e0006c3c:	00000000 00000000 00000000 00000000     ................
e0006c4c:	00000000 00000000 00000000 00000000     ................
e0006c5c:	00000000 00000000 00000000 00000000     ................
e0006c6c:	00000000 00000000 00000000 00000000     ................
e0006c7c:	00000000 00000000 00000000 00000000     ................
e0006c8c:	00000000 00000000 00000000 00000000     ................
e0006c9c:	00000000 00000000 00000000 00000000     ................
e0006cac:	00000000 00000000 00000000 00000000     ................
e0006cbc:	00000000 00000000 00000000 00000000     ................
e0006ccc:	00000000 00000000 00000000 00000000     ................
e0006cdc:	00000000 00000000 00000000 00000000     ................
e0006cec:	00000000 00000000 00000000 00000000     ................
e0006cfc:	00000000 00000000 00000000 00000000     ................
e0006d0c:	00000000 00000000 00000000 00000000     ................
e0006d1c:	00000000 00000000 00000000 00000000     ................
e0006d2c:	00000000 00000000 00000000 00000000     ................
e0006d3c:	00000000 00000000 00000000 00000000     ................
e0006d4c:	00000000 00000000 00000000 00000000     ................
e0006d5c:	00000000 00000000 00000000 00000000     ................
e0006d6c:	00000000 00000000 00000000 00000000     ................
e0006d7c:	00000000 00000000 00000000 00000000     ................
e0006d8c:	00000000 00000000 00000000 00000000     ................
e0006d9c:	00000000 00000000 00000000 00000000     ................
e0006dac:	00000000 00000000 00000000 00000000     ................
e0006dbc:	00000000 00000000 00000000 00000000     ................
e0006dcc:	00000000 00000000 00000000 00000000     ................
e0006ddc:	00000000 00000000 00000000 00000000     ................
e0006dec:	00000000 00000000 00000000 00000000     ................
e0006dfc:	00000000 00000000 00000000 00000000     ................
e0006e0c:	00000000 00000000 00000000 00000000     ................
e0006e1c:	00000000 00000000 00000000 00000000     ................
e0006e2c:	00000000 00000000 00000000 00000000     ................
e0006e3c:	00000000 00000000 00000000 00000000     ................
e0006e4c:	00000000 00000000 00000000 00000000     ................
e0006e5c:	00000000 00000000 00000000 00000000     ................
e0006e6c:	00000000 00000000 00000000 00000000     ................
e0006e7c:	00000000 00000000 00000000 00000000     ................
e0006e8c:	00000000 00000000 00000000 00000000     ................
e0006e9c:	00000000 00000000 00000000 00000000     ................
e0006eac:	00000000 00000000 00000000 00000000     ................
e0006ebc:	00000000 00000000 00000000 00000000     ................
e0006ecc:	00000000 00000000 00000000 00000000     ................
e0006edc:	00000000 00000000 00000000 00000000     ................
e0006eec:	00000000 00000000 00000000 00000000     ................
e0006efc:	00000000 00000000 00000000 00000000     ................
e0006f0c:	00000000 00000000 00000000 00000000     ................
e0006f1c:	00000000 00000000 00000000 00000000     ................
e0006f2c:	00000000 00000000 00000000 00000000     ................
e0006f3c:	00000000 00000000 00000000 00000000     ................
e0006f4c:	00000000 00000000 00000000 00000000     ................
e0006f5c:	00000000 00000000 00000000 00000000     ................
e0006f6c:	00000000 00000000 00000000 00000000     ................
e0006f7c:	00000000 00000000 00000000 00000000     ................
e0006f8c:	00000000 00000000 00000000 00000000     ................
e0006f9c:	00000000 00000000 00000000 00000000     ................
e0006fac:	00000000 00000000 00000000 00000000     ................
e0006fbc:	00000000 00000000 00000000 00000000     ................
e0006fcc:	00000000 00000000 00000000 00000000     ................
e0006fdc:	00000000 00000000 00000000 00000000     ................
e0006fec:	00000000 00000000 00000000 00000000     ................
e0006ffc:	00000000 00000000 00000000 00000000     ................
e000700c:	00000000 00000000 00000000 00000000     ................
e000701c:	00000000 00000000 00000000 00000000     ................
e000702c:	00000000 00000000 00000000 00000000     ................
e000703c:	00000000 00000000 00000000 00000000     ................
e000704c:	00000000 00000000 00000000 00000000     ................
e000705c:	00000000 00000000 00000000 00000000     ................
e000706c:	00000000 00000000 00000000 00000000     ................
e000707c:	00000000 00000000 00000000 00000000     ................
e000708c:	00000000 00000000 00000000 00000000     ................
e000709c:	00000000 00000000 00000000 00000000     ................
e00070ac:	00000000 00000000 00000000 00000000     ................
e00070bc:	00000000 00000000 00000000 00000000     ................
e00070cc:	00000000 00000000 00000000 00000000     ................
e00070dc:	00000000 00000000 00000000 00000000     ................
e00070ec:	00000000 00000000 00000000 00000000     ................
e00070fc:	00000000 00000000 00000000 00000000     ................
e000710c:	00000000 00000000 00000000 00000000     ................
e000711c:	00000000 00000000 00000000 00000000     ................
e000712c:	00000000 00000000 00000000 00000000     ................
e000713c:	00000000 00000000 00000000 00000000     ................
e000714c:	00000000 00000000 00000000 00000000     ................
e000715c:	00000000 00000000 00000000 00000000     ................
e000716c:	00000000 00000000 00000000 00000000     ................
e000717c:	00000000 00000000 00000000 00000000     ................
e000718c:	00000000 00000000 00000000 00000000     ................
e000719c:	00000000 00000000 00000000 00000000     ................
e00071ac:	00000000 00000000 00000000 00000000     ................
e00071bc:	00000000 00000000 00000000 00000000     ................
e00071cc:	00000000 00000000 00000000 00000000     ................
e00071dc:	00000000 00000000 00000000 00000000     ................
e00071ec:	00000000 00000000 00000000 00000000     ................
e00071fc:	00000000 00000000 00000000 00000000     ................
e000720c:	00000000 00000000 00000000 00000000     ................
e000721c:	00000000 00000000 00000000 00000000     ................
e000722c:	00000000 00000000 00000000 00000000     ................
e000723c:	00000000 00000000 00000000 00000000     ................
e000724c:	00000000 00000000 00000000 00000000     ................
e000725c:	00000000 00000000 00000000 00000000     ................
e000726c:	00000000 00000000 00000000 00000000     ................
e000727c:	00000000 00000000 00000000 00000000     ................
e000728c:	00000000 00000000 00000000 00000000     ................
e000729c:	00000000 00000000 00000000 00000000     ................
e00072ac:	00000000 00000000 00000000 00000000     ................
e00072bc:	00000000 00000000 00000000 00000000     ................
e00072cc:	00000000 00000000 00000000 00000000     ................
e00072dc:	00000000 00000000 00000000 00000000     ................
e00072ec:	00000000 00000000 00000000 00000000     ................
e00072fc:	00000000 00000000 00000000 00000000     ................
e000730c:	00000000 00000000 00000000 00000000     ................
e000731c:	00000000 00000000 00000000 00000000     ................
e000732c:	00000000 00000000 00000000 00000000     ................
e000733c:	00000000 00000000 00000000 00000000     ................
e000734c:	00000000 00000000 00000000 00000000     ................
e000735c:	00000000 00000000 00000000 00000000     ................
e000736c:	00000000 00000000 00000000 00000000     ................
e000737c:	00000000 00000000 00000000 00000000     ................
e000738c:	00000000 00000000 00000000 00000000     ................
e000739c:	00000000 00000000 00000000 00000000     ................
e00073ac:	00000000 00000000 00000000 00000000     ................
e00073bc:	00000000 00000000 00000000 00000000     ................
e00073cc:	00000000 00000000 00000000 00000000     ................
e00073dc:	00000000 00000000 00000000 00000000     ................
e00073ec:	00000000 00000000 00000000 00000000     ................
e00073fc:	00000000 00000000 00000000 00000000     ................
e000740c:	00000000 00000000 00000000 00000000     ................
e000741c:	00000000 00000000 00000000 00000000     ................
e000742c:	00000000 00000000 00000000 00000000     ................
e000743c:	00000000 00000000 00000000 00000000     ................
e000744c:	00000000 00000000 00000000 00000000     ................
e000745c:	00000000 00000000 00000000 00000000     ................
e000746c:	00000000 00000000 00000000 00000000     ................
e000747c:	00000000 00000000 00000000 00000000     ................
e000748c:	00000000 00000000 00000000 00000000     ................
e000749c:	00000000 00000000 00000000 00000000     ................
e00074ac:	00000000 00000000 00000000 00000000     ................
e00074bc:	00000000 00000000 00000000 00000000     ................
e00074cc:	00000000 00000000 00000000 00000000     ................
e00074dc:	00000000 00000000 00000000 00000000     ................
e00074ec:	00000000 00000000 00000000 00000000     ................
e00074fc:	00000000 00000000 00000000 00000000     ................
e000750c:	00000000 00000000 00000000 00000000     ................
e000751c:	00000000 00000000 00000000 00000000     ................
e000752c:	00000000 00000000 00000000 00000000     ................
e000753c:	00000000 00000000 00000000 00000000     ................
e000754c:	00000000 00000000 00000000 00000000     ................
e000755c:	00000000 00000000 00000000 00000000     ................
e000756c:	00000000 00000000 00000000 00000000     ................
e000757c:	00000000 00000000 00000000 00000000     ................
e000758c:	00000000 00000000 00000000 00000000     ................
e000759c:	00000000 00000000 00000000 00000000     ................
e00075ac:	00000000 00000000 00000000 00000000     ................
e00075bc:	00000000 00000000 00000000 00000000     ................
e00075cc:	00000000 00000000 00000000 00000000     ................
e00075dc:	00000000 00000000 00000000 00000000     ................
e00075ec:	00000000 00000000 00000000 00000000     ................
e00075fc:	00000000 00000000 00000000 00000000     ................
e000760c:	00000000 00000000 00000000 00000000     ................
e000761c:	00000000 00000000 00000000 00000000     ................
e000762c:	00000000 00000000 00000000 00000000     ................
e000763c:	00000000 00000000 00000000 00000000     ................
e000764c:	00000000 00000000 00000000 00000000     ................
e000765c:	00000000 00000000 00000000 00000000     ................
e000766c:	00000000 00000000 00000000 00000000     ................
e000767c:	00000000 00000000 00000000 00000000     ................
e000768c:	00000000 00000000 00000000 00000000     ................
e000769c:	00000000 00000000 00000000 00000000     ................
e00076ac:	00000000 00000000 00000000 00000000     ................
e00076bc:	00000000 00000000 00000000 00000000     ................
e00076cc:	00000000 00000000 00000000 00000000     ................
e00076dc:	00000000 00000000 00000000 00000000     ................
e00076ec:	00000000 00000000 00000000 00000000     ................
e00076fc:	00000000 00000000 00000000 00000000     ................
e000770c:	00000000 00000000 00000000 00000000     ................
e000771c:	00000000 00000000 00000000 00000000     ................
e000772c:	00000000 00000000 00000000 00000000     ................
e000773c:	00000000 00000000 00000000 00000000     ................
e000774c:	00000000 00000000 00000000 00000000     ................
e000775c:	00000000 00000000 00000000 00000000     ................
e000776c:	00000000 00000000 00000000 00000000     ................
e000777c:	00000000 00000000 00000000 00000000     ................
e000778c:	00000000 00000000 00000000 00000000     ................
e000779c:	00000000 00000000 00000000 00000000     ................
e00077ac:	00000000 00000000 00000000 00000000     ................
e00077bc:	00000000 00000000 00000000 00000000     ................
e00077cc:	00000000 00000000 00000000 00000000     ................
e00077dc:	00000000 00000000 00000000 00000000     ................
e00077ec:	00000000 00000000 00000000 00000000     ................
e00077fc:	00000000 00000000 00000000 00000000     ................
e000780c:	00000000 00000000 00000000 00000000     ................
e000781c:	00000000 00000000 00000000 00000000     ................
e000782c:	00000000 00000000 00000000 00000000     ................
e000783c:	00000000 00000000 00000000 00000000     ................
e000784c:	00000000 00000000 00000000 00000000     ................
e000785c:	00000000 00000000 00000000 00000000     ................
e000786c:	00000000 00000000 00000000 00000000     ................
e000787c:	00000000 00000000 00000000 00000000     ................
e000788c:	00000000 00000000 00000000 00000000     ................
e000789c:	00000000 00000000 00000000 00000000     ................
e00078ac:	00000000 00000000 00000000 00000000     ................
e00078bc:	00000000 00000000 00000000 00000000     ................
e00078cc:	00000000 00000000 00000000 00000000     ................
e00078dc:	00000000 00000000 00000000 00000000     ................
e00078ec:	00000000 00000000 00000000 00000000     ................
e00078fc:	00000000 00000000 00000000 00000000     ................
e000790c:	00000000 00000000 00000000 00000000     ................
e000791c:	00000000 00000000 00000000 00000000     ................
e000792c:	00000000 00000000 00000000 00000000     ................
e000793c:	00000000 00000000 00000000 00000000     ................
e000794c:	00000000 00000000 00000000 00000000     ................
e000795c:	00000000 00000000 00000000 00000000     ................
e000796c:	00000000 00000000 00000000 00000000     ................
e000797c:	00000000 00000000 00000000 00000000     ................
e000798c:	00000000 00000000 00000000 00000000     ................
e000799c:	00000000 00000000 00000000 00000000     ................
e00079ac:	00000000 00000000 00000000 00000000     ................
e00079bc:	00000000 00000000 00000000 00000000     ................
e00079cc:	00000000 00000000 00000000 00000000     ................
e00079dc:	00000000 00000000 00000000 00000000     ................
e00079ec:	00000000 00000000 00000000 00000000     ................
e00079fc:	00000000 00000000 00000000 00000000     ................
e0007a0c:	00000000 00000000 00000000 00000000     ................
e0007a1c:	00000000 00000000 00000000 00000000     ................
e0007a2c:	00000000 00000000 00000000 00000000     ................
e0007a3c:	00000000 00000000 00000000 00000000     ................
e0007a4c:	00000000 00000000 00000000 00000000     ................
e0007a5c:	00000000 00000000 00000000 00000000     ................
e0007a6c:	00000000 00000000 00000000 00000000     ................
e0007a7c:	00000000 00000000 00000000 00000000     ................
e0007a8c:	00000000 00000000 00000000 00000000     ................
e0007a9c:	00000000 00000000 00000000 00000000     ................
e0007aac:	00000000 00000000 00000000 00000000     ................
e0007abc:	00000000 00000000 00000000 00000000     ................
e0007acc:	00000000 00000000 00000000 00000000     ................
e0007adc:	00000000 00000000 00000000 00000000     ................
e0007aec:	00000000 00000000 00000000 00000000     ................
e0007afc:	00000000 00000000 00000000 00000000     ................
e0007b0c:	00000000 00000000 00000000 00000000     ................
e0007b1c:	00000000 00000000 00000000 00000000     ................
e0007b2c:	00000000 00000000 00000000 00000000     ................
e0007b3c:	00000000 00000000 00000000 00000000     ................
e0007b4c:	00000000 00000000 00000000 00000000     ................
e0007b5c:	00000000 00000000 00000000 00000000     ................
e0007b6c:	00000000 00000000 00000000 00000000     ................
e0007b7c:	00000000 00000000 00000000 00000000     ................
e0007b8c:	00000000 00000000 00000000 00000000     ................
e0007b9c:	00000000 00000000 00000000 00000000     ................
e0007bac:	00000000 00000000 00000000 00000000     ................
e0007bbc:	00000000 00000000 00000000 00000000     ................
e0007bcc:	00000000 00000000 00000000 00000000     ................
e0007bdc:	00000000 00000000 00000000 00000000     ................
e0007bec:	00000000 00000000 00000000 00000000     ................
e0007bfc:	00000000 00000000 00000000 00000000     ................
e0007c0c:	00000000 00000000 00000000 00000000     ................
e0007c1c:	00000000 00000000 00000000 00000000     ................
e0007c2c:	00000000 00000000 00000000 00000000     ................
e0007c3c:	00000000 00000000 00000000 00000000     ................
e0007c4c:	00000000 00000000 00000000 00000000     ................
e0007c5c:	00000000 00000000 00000000 00000000     ................
e0007c6c:	00000000 00000000 00000000 00000000     ................
e0007c7c:	00000000 00000000 00000000 00000000     ................
e0007c8c:	00000000 00000000 00000000 00000000     ................
e0007c9c:	00000000 00000000 00000000 00000000     ................
e0007cac:	00000000 00000000 00000000 00000000     ................
e0007cbc:	00000000 00000000 00000000 00000000     ................
e0007ccc:	00000000 00000000 00000000 00000000     ................
e0007cdc:	00000000 00000000 00000000 00000000     ................
e0007cec:	00000000 00000000 00000000 00000000     ................
e0007cfc:	00000000 00000000 00000000 00000000     ................
e0007d0c:	00000000 00000000 00000000 00000000     ................
e0007d1c:	00000000 00000000 00000000 00000000     ................
e0007d2c:	00000000 00000000 00000000 00000000     ................
e0007d3c:	00000000 00000000 00000000 00000000     ................
e0007d4c:	00000000 00000000 00000000 00000000     ................
e0007d5c:	00000000 00000000 00000000 00000000     ................
e0007d6c:	00000000 00000000 00000000 00000000     ................
e0007d7c:	00000000 00000000 00000000 00000000     ................
e0007d8c:	00000000 00000000 00000000 00000000     ................
e0007d9c:	00000000 00000000 00000000 00000000     ................
e0007dac:	00000000 00000000 00000000 00000000     ................
e0007dbc:	00000000 00000000 00000000 00000000     ................
e0007dcc:	00000000 00000000 00000000 00000000     ................
e0007ddc:	00000000 00000000 00000000 00000000     ................
e0007dec:	00000000 00000000 00000000 00000000     ................
e0007dfc:	00000000 00000000 00000000 00000000     ................
e0007e0c:	00000000 00000000 00000000 00000000     ................
e0007e1c:	00000000 00000000 00000000 00000000     ................
e0007e2c:	00000000 00000000 00000000 00000000     ................
e0007e3c:	00000000 00000000 00000000 00000000     ................
e0007e4c:	00000000 00000000 00000000 00000000     ................
e0007e5c:	00000000 00000000 00000000 00000000     ................
e0007e6c:	00000000 00000000 00000000 00000000     ................
e0007e7c:	00000000 00000000 00000000 00000000     ................
e0007e8c:	00000000 00000000 00000000 00000000     ................
e0007e9c:	00000000 00000000 00000000 00000000     ................
e0007eac:	00000000 00000000 00000000 00000000     ................
e0007ebc:	00000000 00000000 00000000 00000000     ................
e0007ecc:	00000000 00000000 00000000 00000000     ................
e0007edc:	00000000 00000000 00000000 00000000     ................
e0007eec:	00000000 00000000 00000000 00000000     ................
e0007efc:	00000000 00000000 00000000 00000000     ................
e0007f0c:	00000000 00000000 00000000 00000000     ................
e0007f1c:	00000000 00000000 00000000 00000000     ................
e0007f2c:	00000000 00000000 00000000 00000000     ................
e0007f3c:	00000000 00000000 00000000 00000000     ................
e0007f4c:	00000000 00000000 00000000 00000000     ................
e0007f5c:	00000000 00000000 00000000 00000000     ................
e0007f6c:	00000000 00000000 00000000 00000000     ................
e0007f7c:	00000000 00000000 00000000 00000000     ................
e0007f8c:	00000000 00000000 00000000 00000000     ................
e0007f9c:	00000000 00000000 00000000 00000000     ................
e0007fac:	00000000 00000000 00000000 00000000     ................
e0007fbc:	00000000 00000000 00000000 00000000     ................
e0007fcc:	00000000 00000000 00000000 00000000     ................
e0007fdc:	00000000 00000000 00000000 00000000     ................
e0007fec:	00000000 00000000 00000000 00000000     ................
e0007ffc:	00000000 00000000 00000000 00000000     ................
e000800c:	00000000 00000000 00000000 00000000     ................
e000801c:	00000000 00000000 00000000 00000000     ................
e000802c:	00000000 00000000 00000000 00000000     ................
e000803c:	00000000 00000000 00000000 00000000     ................
e000804c:	00000000 00000000 00000000 00000000     ................
e000805c:	00000000 00000000 00000000 00000000     ................
e000806c:	00000000 00000000 00000000 00000000     ................
e000807c:	00000000 00000000 00000000 00000000     ................
e000808c:	00000000 00000000 00000000 00000000     ................
e000809c:	00000000 00000000 00000000 00000000     ................
e00080ac:	00000000 00000000 00000000 00000000     ................
e00080bc:	00000000 00000000 00000000 00000000     ................
e00080cc:	00000000 00000000 00000000 00000000     ................
e00080dc:	00000000 00000000 00000000 00000000     ................
e00080ec:	00000000 00000000 00000000 00000000     ................
e00080fc:	00000000 00000000 00000000 00000000     ................
e000810c:	00000000 00000000 00000000 00000000     ................
e000811c:	00000000 00000000 00000000 00000000     ................
e000812c:	00000000 00000000 00000000 00000000     ................
e000813c:	00000000 00000000 00000000 00000000     ................
e000814c:	00000000 00000000 00000000 00000000     ................
e000815c:	00000000 00000000 00000000 00000000     ................
e000816c:	00000000 00000000 00000000 00000000     ................
e000817c:	00000000 00000000 00000000 00000000     ................
e000818c:	00000000 00000000 00000000 00000000     ................
e000819c:	00000000 00000000 00000000 00000000     ................
e00081ac:	00000000 00000000 00000000 00000000     ................
e00081bc:	00000000 00000000 00000000 00000000     ................
e00081cc:	00000000 00000000 00000000 00000000     ................
e00081dc:	00000000 00000000 00000000 00000000     ................
e00081ec:	00000000 00000000 00000000 00000000     ................
e00081fc:	00000000 00000000 00000000 00000000     ................
e000820c:	00000000 00000000 00000000 00000000     ................
e000821c:	00000000 00000000 00000000 00000000     ................
e000822c:	00000000 00000000 00000000 00000000     ................
e000823c:	00000000 00000000 00000000 00000000     ................
e000824c:	00000000 00000000 00000000 00000000     ................
e000825c:	00000000 00000000 00000000 00000000     ................
e000826c:	00000000 00000000 00000000 00000000     ................
e000827c:	00000000 00000000 00000000 00000000     ................
e000828c:	00000000 00000000 00000000 00000000     ................
e000829c:	00000000 00000000 00000000 00000000     ................
e00082ac:	00000000 00000000 00000000 00000000     ................
e00082bc:	00000000 00000000 00000000 00000000     ................
e00082cc:	00000000 00000000 00000000 00000000     ................
e00082dc:	00000000 00000000 00000000 00000000     ................
e00082ec:	00000000 00000000 00000000 00000000     ................
e00082fc:	00000000 00000000 00000000 00000000     ................
e000830c:	00000000 00000000 00000000 00000000     ................
e000831c:	00000000 00000000 00000000 00000000     ................
e000832c:	00000000 00000000 00000000 00000000     ................
e000833c:	00000000 00000000 00000000 00000000     ................
e000834c:	00000000 00000000 00000000 00000000     ................
e000835c:	00000000 00000000 00000000 00000000     ................
e000836c:	00000000 00000000 00000000 00000000     ................
e000837c:	00000000 00000000 00000000 00000000     ................
e000838c:	00000000 00000000 00000000 00000000     ................
e000839c:	00000000 00000000 00000000 00000000     ................
e00083ac:	00000000 00000000 00000000 00000000     ................
e00083bc:	00000000 00000000 00000000 00000000     ................
e00083cc:	00000000 00000000 00000000 00000000     ................
e00083dc:	00000000 00000000 00000000 00000000     ................
e00083ec:	00000000 00000000 00000000 00000000     ................
e00083fc:	00000000 00000000 00000000 00000000     ................
e000840c:	00000000 00000000 00000000 00000000     ................
e000841c:	00000000 00000000 00000000 00000000     ................
e000842c:	00000000 00000000 00000000 00000000     ................
e000843c:	00000000 00000000 00000000 00000000     ................
e000844c:	00000000 00000000 00000000 00000000     ................
e000845c:	00000000 00000000 00000000 00000000     ................
e000846c:	00000000 00000000 00000000 00000000     ................
e000847c:	00000000 00000000 00000000 00000000     ................
e000848c:	00000000 00000000 00000000 00000000     ................
e000849c:	00000000 00000000 00000000 00000000     ................
e00084ac:	00000000 00000000 00000000 00000000     ................
e00084bc:	00000000 00000000 00000000 00000000     ................
e00084cc:	00000000 00000000 00000000 00000000     ................
e00084dc:	00000000 00000000 00000000 00000000     ................
e00084ec:	00000000 00000000 00000000 00000000     ................
e00084fc:	00000000 00000000 00000000 00000000     ................
e000850c:	00000000 00000000 00000000 00000000     ................
e000851c:	00000000 00000000 00000000 00000000     ................
e000852c:	00000000 00000000 00000000 00000000     ................
e000853c:	00000000 00000000 00000000 00000000     ................
e000854c:	00000000 00000000 00000000 00000000     ................
e000855c:	00000000 00000000 00000000 00000000     ................
e000856c:	00000000 00000000 00000000 00000000     ................
e000857c:	00000000 00000000 00000000 00000000     ................
e000858c:	00000000 00000000 00000000 00000000     ................
e000859c:	00000000 00000000 00000000 00000000     ................
e00085ac:	00000000 00000000 00000000 00000000     ................
e00085bc:	00000000 00000000 00000000 00000000     ................
e00085cc:	00000000 00000000 00000000 00000000     ................
e00085dc:	00000000 00000000 00000000 00000000     ................
e00085ec:	00000000 00000000 00000000 00000000     ................
e00085fc:	00000000 00000000 00000000 00000000     ................
e000860c:	00000000 00000000 00000000 00000000     ................
e000861c:	00000000 00000000 00000000 00000000     ................
e000862c:	00000000 00000000 00000000 00000000     ................
e000863c:	00000000 00000000 00000000 00000000     ................
e000864c:	00000000 00000000 00000000 00000000     ................
e000865c:	00000000 00000000 00000000 00000000     ................
e000866c:	00000000 00000000 00000000 00000000     ................
e000867c:	00000000 00000000 00000000 00000000     ................
e000868c:	00000000 00000000 00000000 00000000     ................
e000869c:	00000000 00000000 00000000 00000000     ................
e00086ac:	00000000 00000000 00000000 00000000     ................
e00086bc:	00000000 00000000 00000000 00000000     ................
e00086cc:	00000000 00000000 00000000 00000000     ................
e00086dc:	00000000 00000000 00000000 00000000     ................
e00086ec:	00000000 00000000 00000000 00000000     ................
e00086fc:	00000000 00000000 00000000 00000000     ................
e000870c:	00000000 00000000 00000000 00000000     ................
e000871c:	00000000 00000000 00000000 00000000     ................
e000872c:	00000000 00000000 00000000 00000000     ................
e000873c:	00000000 00000000 00000000 00000000     ................
e000874c:	00000000 00000000 00000000 00000000     ................
e000875c:	00000000 00000000 00000000 00000000     ................
e000876c:	00000000 00000000 00000000 00000000     ................
e000877c:	00000000 00000000 00000000 00000000     ................
e000878c:	00000000 00000000 00000000 00000000     ................
e000879c:	00000000 00000000 00000000 00000000     ................
e00087ac:	00000000 00000000 00000000 00000000     ................
e00087bc:	00000000 00000000 00000000 00000000     ................
e00087cc:	00000000 00000000 00000000 00000000     ................
e00087dc:	00000000 00000000 00000000 00000000     ................
e00087ec:	00000000 00000000 00000000 00000000     ................
e00087fc:	00000000 00000000 00000000 00000000     ................
e000880c:	00000000 00000000 00000000 00000000     ................
e000881c:	00000000 00000000 00000000 00000000     ................
e000882c:	00000000 00000000 00000000 00000000     ................
e000883c:	00000000 00000000 00000000 00000000     ................
e000884c:	00000000 00000000 00000000 00000000     ................
e000885c:	00000000 00000000 00000000 00000000     ................
e000886c:	00000000 00000000 00000000 00000000     ................
e000887c:	00000000 00000000 00000000 00000000     ................
e000888c:	00000000 00000000 00000000 00000000     ................
e000889c:	00000000 00000000 00000000 00000000     ................
e00088ac:	00000000 00000000 00000000 00000000     ................
e00088bc:	00000000 00000000 00000000 00000000     ................
e00088cc:	00000000 00000000 00000000 00000000     ................
e00088dc:	00000000 00000000 00000000 00000000     ................
e00088ec:	00000000 00000000 00000000 00000000     ................
e00088fc:	00000000 00000000 00000000 00000000     ................
e000890c:	00000000 00000000 00000000 00000000     ................
e000891c:	00000000 00000000 00000000 00000000     ................
e000892c:	00000000 00000000 00000000 00000000     ................
e000893c:	00000000 00000000 00000000 00000000     ................
e000894c:	00000000 00000000 00000000 00000000     ................
e000895c:	00000000 00000000 00000000 00000000     ................
e000896c:	00000000 00000000 00000000 00000000     ................
e000897c:	00000000 00000000 00000000 00000000     ................
e000898c:	00000000 00000000 00000000 00000000     ................
e000899c:	00000000 00000000 00000000 00000000     ................
e00089ac:	00000000 00000000 00000000 00000000     ................
e00089bc:	00000000 00000000 00000000 00000000     ................
e00089cc:	00000000 00000000 00000000 00000000     ................
e00089dc:	00000000 00000000 00000000 00000000     ................
e00089ec:	00000000 00000000 00000000 00000000     ................
e00089fc:	00000000 00000000 00000000 00000000     ................
e0008a0c:	00000000 00000000 00000000 00000000     ................
e0008a1c:	00000000 00000000 00000000 00000000     ................
e0008a2c:	00000000 00000000 00000000 00000000     ................
e0008a3c:	00000000 00000000 00000000 00000000     ................
e0008a4c:	00000000 00000000 00000000 00000000     ................
e0008a5c:	00000000 00000000 00000000 00000000     ................
e0008a6c:	00000000 00000000 00000000 00000000     ................
e0008a7c:	00000000 00000000 00000000 00000000     ................
e0008a8c:	00000000 00000000 00000000 00000000     ................
e0008a9c:	00000000 00000000 00000000 00000000     ................
e0008aac:	00000000 00000000 00000000 00000000     ................
e0008abc:	00000000 00000000 00000000 00000000     ................
e0008acc:	00000000 00000000 00000000 00000000     ................
e0008adc:	00000000 00000000 00000000 00000000     ................
e0008aec:	00000000 00000000 00000000 00000000     ................
e0008afc:	00000000 00000000 00000000 00000000     ................
e0008b0c:	00000000 00000000 00000000 00000000     ................
e0008b1c:	00000000 00000000 00000000 00000000     ................
e0008b2c:	00000000 00000000 00000000 00000000     ................
e0008b3c:	00000000 00000000 00000000 00000000     ................
e0008b4c:	00000000 00000000 00000000 00000000     ................
e0008b5c:	00000000 00000000 00000000 00000000     ................
e0008b6c:	00000000 00000000 00000000 00000000     ................
e0008b7c:	00000000 00000000 00000000 00000000     ................
e0008b8c:	00000000 00000000 00000000 00000000     ................
e0008b9c:	00000000 00000000 00000000 00000000     ................
e0008bac:	00000000 00000000 00000000 00000000     ................
e0008bbc:	00000000 00000000 00000000 00000000     ................
e0008bcc:	00000000 00000000 00000000 00000000     ................
e0008bdc:	00000000 00000000 00000000 00000000     ................
e0008bec:	00000000 00000000 00000000 00000000     ................
e0008bfc:	00000000 00000000 00000000 00000000     ................
e0008c0c:	00000000 00000000 00000000 00000000     ................
e0008c1c:	00000000 00000000 00000000 00000000     ................
e0008c2c:	00000000 00000000 00000000 00000000     ................
e0008c3c:	00000000 00000000 00000000 00000000     ................
e0008c4c:	00000000 00000000 00000000 00000000     ................
e0008c5c:	00000000 00000000 00000000 00000000     ................
e0008c6c:	00000000 00000000 00000000 00000000     ................
e0008c7c:	00000000 00000000 00000000 00000000     ................
e0008c8c:	00000000 00000000 00000000 00000000     ................
e0008c9c:	00000000 00000000 00000000 00000000     ................
e0008cac:	00000000 00000000 00000000 00000000     ................
e0008cbc:	00000000 00000000 00000000 00000000     ................
e0008ccc:	00000000 00000000 00000000 00000000     ................
e0008cdc:	00000000 00000000 00000000 00000000     ................
e0008cec:	00000000 00000000 00000000 00000000     ................
e0008cfc:	00000000 00000000 00000000 00000000     ................
e0008d0c:	00000000 00000000 00000000 00000000     ................
e0008d1c:	00000000 00000000 00000000 00000000     ................
e0008d2c:	00000000 00000000 00000000 00000000     ................
e0008d3c:	00000000 00000000 00000000 00000000     ................
e0008d4c:	00000000 00000000 00000000 00000000     ................
e0008d5c:	00000000 00000000 00000000 00000000     ................
e0008d6c:	00000000 00000000 00000000 00000000     ................
e0008d7c:	00000000 00000000 00000000 00000000     ................
e0008d8c:	00000000 00000000 00000000 00000000     ................
e0008d9c:	00000000 00000000 00000000 00000000     ................
e0008dac:	00000000 00000000 00000000 00000000     ................
e0008dbc:	00000000 00000000 00000000 00000000     ................
e0008dcc:	00000000 00000000 00000000 00000000     ................
e0008ddc:	00000000 00000000 00000000 00000000     ................
e0008dec:	00000000 00000000 00000000 00000000     ................
e0008dfc:	00000000 00000000 00000000 00000000     ................
e0008e0c:	00000000 00000000 00000000 00000000     ................
e0008e1c:	00000000 00000000 00000000 00000000     ................
e0008e2c:	00000000 00000000 00000000 00000000     ................
e0008e3c:	00000000 00000000 00000000 00000000     ................
e0008e4c:	00000000 00000000 00000000 00000000     ................
e0008e5c:	00000000 00000000 00000000 00000000     ................
e0008e6c:	00000000 00000000 00000000 00000000     ................
e0008e7c:	00000000 00000000 00000000 00000000     ................
e0008e8c:	00000000 00000000 00000000 00000000     ................
e0008e9c:	00000000 00000000 00000000 00000000     ................
e0008eac:	00000000 00000000 00000000 00000000     ................
e0008ebc:	00000000 00000000 00000000 00000000     ................
e0008ecc:	00000000 00000000 00000000 00000000     ................
e0008edc:	00000000 00000000 00000000 00000000     ................
e0008eec:	00000000 00000000 00000000 00000000     ................
e0008efc:	00000000 00000000 00000000 00000000     ................
e0008f0c:	00000000 00000000 00000000 00000000     ................
e0008f1c:	00000000 00000000 00000000 00000000     ................
e0008f2c:	00000000 00000000 00000000 00000000     ................
e0008f3c:	00000000 00000000 00000000 00000000     ................
e0008f4c:	00000000 00000000 00000000 00000000     ................
e0008f5c:	00000000 00000000 00000000 00000000     ................
e0008f6c:	00000000 00000000 00000000 00000000     ................
e0008f7c:	00000000 00000000 00000000 00000000     ................
e0008f8c:	00000000 00000000 00000000 00000000     ................
e0008f9c:	00000000 00000000 00000000 00000000     ................
e0008fac:	00000000 00000000 00000000 00000000     ................
e0008fbc:	00000000 00000000 00000000 00000000     ................
e0008fcc:	00000000 00000000 00000000 00000000     ................
e0008fdc:	00000000 00000000 00000000 00000000     ................
e0008fec:	00000000 00000000 00000000 00000000     ................
e0008ffc:	00000000 00000000 00000000 00000000     ................
e000900c:	00000000 00000000 00000000 00000000     ................
e000901c:	00000000 00000000 00000000 00000000     ................
e000902c:	00000000 00000000 00000000 00000000     ................
e000903c:	00000000 00000000 00000000 00000000     ................
e000904c:	00000000 00000000 00000000 00000000     ................
e000905c:	00000000 00000000 00000000 00000000     ................
e000906c:	00000000 00000000 00000000 00000000     ................
e000907c:	00000000 00000000 00000000 00000000     ................
e000908c:	00000000 00000000 00000000 00000000     ................
e000909c:	00000000 00000000 00000000 00000000     ................
e00090ac:	00000000 00000000 00000000 00000000     ................
e00090bc:	00000000 00000000 00000000 00000000     ................
e00090cc:	00000000 00000000 00000000 00000000     ................
e00090dc:	00000000 00000000 00000000 00000000     ................
e00090ec:	00000000 00000000 00000000 00000000     ................
e00090fc:	00000000 00000000 00000000 00000000     ................
e000910c:	00000000 00000000 00000000 00000000     ................
e000911c:	00000000 00000000 00000000 00000000     ................
e000912c:	00000000 00000000 00000000 00000000     ................
e000913c:	00000000 00000000 00000000 00000000     ................
e000914c:	00000000 00000000 00000000 00000000     ................
e000915c:	00000000 00000000 00000000 00000000     ................
e000916c:	00000000 00000000 00000000 00000000     ................
e000917c:	00000000 00000000 00000000 00000000     ................
e000918c:	00000000 00000000 00000000 00000000     ................
e000919c:	00000000 00000000 00000000 00000000     ................
e00091ac:	00000000 00000000 00000000 00000000     ................
e00091bc:	00000000 00000000 00000000 00000000     ................
e00091cc:	00000000 00000000 00000000 00000000     ................
e00091dc:	00000000 00000000 00000000 00000000     ................
e00091ec:	00000000 00000000 00000000 00000000     ................
e00091fc:	00000000 00000000 00000000 00000000     ................
e000920c:	00000000 00000000 00000000 00000000     ................
e000921c:	00000000 00000000 00000000 00000000     ................
e000922c:	00000000 00000000 00000000 00000000     ................
e000923c:	00000000 00000000 00000000 00000000     ................
e000924c:	00000000 00000000 00000000 00000000     ................
e000925c:	00000000 00000000 00000000 00000000     ................
e000926c:	00000000 00000000 00000000 00000000     ................
e000927c:	00000000 00000000 00000000 00000000     ................
e000928c:	00000000 00000000 00000000 00000000     ................
e000929c:	00000000 00000000 00000000 00000000     ................
e00092ac:	00000000 00000000 00000000 00000000     ................
e00092bc:	00000000 00000000 00000000 00000000     ................
e00092cc:	00000000 00000000 00000000 00000000     ................
e00092dc:	00000000 00000000 00000000 00000000     ................
e00092ec:	00000000 00000000 00000000 00000000     ................
e00092fc:	00000000 00000000 00000000 00000000     ................
e000930c:	00000000 00000000 00000000 00000000     ................
e000931c:	00000000 00000000 00000000 00000000     ................
e000932c:	00000000 00000000 00000000 00000000     ................
e000933c:	00000000 00000000 00000000 00000000     ................
e000934c:	00000000 00000000 00000000 00000000     ................
e000935c:	00000000 00000000 00000000 00000000     ................
e000936c:	00000000 00000000 00000000 00000000     ................
e000937c:	00000000 00000000 00000000 00000000     ................
e000938c:	00000000 00000000 00000000 00000000     ................
e000939c:	00000000 00000000 00000000 00000000     ................
e00093ac:	00000000 00000000 00000000 00000000     ................
e00093bc:	00000000 00000000 00000000 00000000     ................
e00093cc:	00000000 00000000 00000000 00000000     ................
e00093dc:	00000000 00000000 00000000 00000000     ................
e00093ec:	00000000 00000000 00000000 00000000     ................
e00093fc:	00000000 00000000 00000000 00000000     ................
e000940c:	00000000 00000000 00000000 00000000     ................
e000941c:	00000000 00000000 00000000 00000000     ................
e000942c:	00000000 00000000 00000000 00000000     ................
e000943c:	00000000 00000000 00000000 00000000     ................
e000944c:	00000000 00000000 00000000 00000000     ................
e000945c:	00000000 00000000 00000000 00000000     ................
e000946c:	00000000 00000000 00000000 00000000     ................
e000947c:	00000000 00000000 00000000 00000000     ................
e000948c:	00000000 00000000 00000000 00000000     ................
e000949c:	00000000 00000000 00000000 00000000     ................
e00094ac:	00000000 00000000 00000000 00000000     ................
e00094bc:	00000000 00000000 00000000 00000000     ................
e00094cc:	00000000 00000000 00000000 00000000     ................
e00094dc:	00000000 00000000 00000000 00000000     ................
e00094ec:	00000000 00000000 00000000 00000000     ................
e00094fc:	00000000 00000000 00000000 00000000     ................
e000950c:	00000000 00000000 00000000 00000000     ................
e000951c:	00000000 00000000 00000000 00000000     ................
e000952c:	00000000 00000000 00000000 00000000     ................
e000953c:	00000000 00000000 00000000 00000000     ................
e000954c:	00000000 00000000 00000000 00000000     ................
e000955c:	00000000 00000000 00000000 00000000     ................
e000956c:	00000000 00000000 00000000 00000000     ................
e000957c:	00000000 00000000 00000000 00000000     ................
e000958c:	00000000 00000000 00000000 00000000     ................
e000959c:	00000000 00000000 00000000 00000000     ................
e00095ac:	00000000 00000000 00000000 00000000     ................
e00095bc:	00000000 00000000 00000000 00000000     ................
e00095cc:	00000000 00000000 00000000 00000000     ................
e00095dc:	00000000 00000000 00000000 00000000     ................
e00095ec:	00000000 00000000 00000000 00000000     ................
e00095fc:	00000000 00000000 00000000 00000000     ................
e000960c:	00000000 00000000 00000000 00000000     ................
e000961c:	00000000 00000000 00000000 00000000     ................
e000962c:	00000000 00000000 00000000 00000000     ................
e000963c:	00000000 00000000 00000000 00000000     ................
e000964c:	00000000 00000000 00000000 00000000     ................
e000965c:	00000000 00000000 00000000 00000000     ................
e000966c:	00000000 00000000 00000000 00000000     ................
e000967c:	00000000 00000000 00000000 00000000     ................
e000968c:	00000000 00000000 00000000 00000000     ................
e000969c:	00000000 00000000 00000000 00000000     ................
e00096ac:	00000000 00000000 00000000 00000000     ................
e00096bc:	00000000 00000000 00000000 00000000     ................
e00096cc:	00000000 00000000 00000000 00000000     ................
e00096dc:	00000000 00000000 00000000 00000000     ................
e00096ec:	00000000 00000000 00000000 00000000     ................
e00096fc:	00000000 00000000 00000000 00000000     ................
e000970c:	00000000 00000000 00000000 00000000     ................
e000971c:	00000000 00000000 00000000 00000000     ................
e000972c:	00000000 00000000 00000000 00000000     ................
e000973c:	00000000 00000000 00000000 00000000     ................
e000974c:	00000000 00000000 00000000 00000000     ................
e000975c:	00000000 00000000 00000000 00000000     ................
e000976c:	00000000 00000000 00000000 00000000     ................
e000977c:	00000000 00000000 00000000 00000000     ................
e000978c:	00000000 00000000 00000000 00000000     ................
e000979c:	00000000 00000000 00000000 00000000     ................
e00097ac:	00000000 00000000 00000000 00000000     ................
e00097bc:	00000000 00000000 00000000 00000000     ................
e00097cc:	00000000 00000000 00000000 00000000     ................
e00097dc:	00000000 00000000 00000000 00000000     ................
e00097ec:	00000000 00000000 00000000 00000000     ................
e00097fc:	00000000 00000000 00000000 00000000     ................
e000980c:	00000000 00000000 00000000 00000000     ................
e000981c:	00000000 00000000 00000000 00000000     ................
e000982c:	00000000 00000000 00000000 00000000     ................
e000983c:	00000000 00000000 00000000 00000000     ................
e000984c:	00000000 00000000 00000000 00000000     ................
e000985c:	00000000 00000000 00000000 00000000     ................
e000986c:	00000000 00000000 00000000 00000000     ................
e000987c:	00000000 00000000 00000000 00000000     ................
e000988c:	00000000 00000000 00000000 00000000     ................
e000989c:	00000000 00000000 00000000 00000000     ................
e00098ac:	00000000 00000000 00000000 00000000     ................
e00098bc:	00000000 00000000 00000000 00000000     ................
e00098cc:	00000000 00000000 00000000 00000000     ................
e00098dc:	00000000 00000000 00000000 00000000     ................
e00098ec:	00000000 00000000 00000000 00000000     ................
e00098fc:	00000000 00000000 00000000 00000000     ................
e000990c:	00000000 00000000 00000000 00000000     ................
e000991c:	00000000 00000000 00000000 00000000     ................
e000992c:	00000000 00000000 00000000 00000000     ................
e000993c:	00000000 00000000 00000000 00000000     ................
e000994c:	00000000 00000000 00000000 00000000     ................
e000995c:	00000000 00000000 00000000 00000000     ................
e000996c:	00000000 00000000 00000000 00000000     ................
e000997c:	00000000 00000000 00000000 00000000     ................
e000998c:	00000000 00000000 00000000 00000000     ................
e000999c:	00000000 00000000 00000000 00000000     ................
e00099ac:	00000000 00000000 00000000 00000000     ................
e00099bc:	00000000 00000000 00000000 00000000     ................
e00099cc:	00000000 00000000 00000000 00000000     ................
e00099dc:	00000000 00000000 00000000 00000000     ................
e00099ec:	00000000 00000000 00000000 00000000     ................
e00099fc:	00000000 00000000 00000000 00000000     ................
e0009a0c:	00000000 00000000 00000000 00000000     ................
e0009a1c:	00000000 00000000 00000000 00000000     ................
e0009a2c:	00000000 00000000 00000000 00000000     ................
e0009a3c:	00000000 00000000 00000000 00000000     ................
e0009a4c:	00000000 00000000 00000000 00000000     ................
e0009a5c:	00000000 00000000 00000000 00000000     ................
e0009a6c:	00000000 00000000 00000000 00000000     ................
e0009a7c:	00000000 00000000 00000000 00000000     ................
e0009a8c:	00000000 00000000 00000000 00000000     ................
e0009a9c:	00000000 00000000 00000000 00000000     ................
e0009aac:	00000000 00000000 00000000 00000000     ................
e0009abc:	00000000 00000000 00000000 00000000     ................
e0009acc:	00000000 00000000 00000000 00000000     ................
e0009adc:	00000000 00000000 00000000 00000000     ................
e0009aec:	00000000 00000000 00000000 00000000     ................
e0009afc:	00000000 00000000 00000000 00000000     ................
e0009b0c:	00000000 00000000 00000000 00000000     ................
e0009b1c:	00000000 00000000 00000000 00000000     ................
e0009b2c:	00000000 00000000 00000000 00000000     ................
e0009b3c:	00000000 00000000 00000000 00000000     ................
e0009b4c:	00000000 00000000 00000000 00000000     ................
e0009b5c:	00000000 00000000 00000000 00000000     ................
e0009b6c:	00000000 00000000 00000000 00000000     ................
e0009b7c:	00000000 00000000 00000000 00000000     ................
e0009b8c:	00000000 00000000 00000000 00000000     ................
e0009b9c:	00000000 00000000 00000000 00000000     ................
e0009bac:	00000000 00000000 00000000 00000000     ................
e0009bbc:	00000000 00000000 00000000 00000000     ................
e0009bcc:	00000000 00000000 00000000 00000000     ................
e0009bdc:	00000000 00000000 00000000 00000000     ................
e0009bec:	00000000 00000000 00000000 00000000     ................
e0009bfc:	00000000 00000000 00000000 00000000     ................
e0009c0c:	00000000 00000000 00000000 00000000     ................
e0009c1c:	00000000 00000000 00000000 00000000     ................
e0009c2c:	00000000 00000000 00000000 00000000     ................
e0009c3c:	00000000 00000000 00000000 00000000     ................
e0009c4c:	00000000 00000000 00000000 00000000     ................
e0009c5c:	00000000 00000000 00000000 00000000     ................
e0009c6c:	00000000 00000000 00000000 00000000     ................
e0009c7c:	00000000 00000000 00000000 00000000     ................
e0009c8c:	00000000 00000000 00000000 00000000     ................
e0009c9c:	00000000 00000000 00000000 00000000     ................
e0009cac:	00000000 00000000 00000000 00000000     ................
e0009cbc:	00000000 00000000 00000000 00000000     ................
e0009ccc:	00000000 00000000 00000000 00000000     ................
e0009cdc:	00000000 00000000 00000000 00000000     ................
e0009cec:	00000000 00000000 00000000 00000000     ................
e0009cfc:	00000000 00000000 00000000 00000000     ................
e0009d0c:	00000000 00000000 00000000 00000000     ................
e0009d1c:	00000000 00000000 00000000 00000000     ................
e0009d2c:	00000000 00000000 00000000 00000000     ................
e0009d3c:	00000000 00000000 00000000 00000000     ................
e0009d4c:	00000000 00000000 00000000 00000000     ................
e0009d5c:	00000000 00000000 00000000 00000000     ................
e0009d6c:	00000000 00000000 00000000 00000000     ................
e0009d7c:	00000000 00000000 00000000 00000000     ................
e0009d8c:	00000000 00000000 00000000 00000000     ................
e0009d9c:	00000000 00000000 00000000 00000000     ................
e0009dac:	00000000 00000000 00000000 00000000     ................
e0009dbc:	00000000 00000000 00000000 00000000     ................
e0009dcc:	00000000 00000000 00000000 00000000     ................
e0009ddc:	00000000 00000000 00000000 00000000     ................
e0009dec:	00000000 00000000 00000000 00000000     ................
e0009dfc:	00000000 00000000 00000000 00000000     ................
e0009e0c:	00000000 00000000 00000000 00000000     ................
e0009e1c:	00000000 00000000 00000000 00000000     ................
e0009e2c:	00000000 00000000 00000000 00000000     ................
e0009e3c:	00000000 00000000 00000000 00000000     ................
e0009e4c:	00000000 00000000 00000000 00000000     ................
e0009e5c:	00000000 00000000 00000000 00000000     ................
e0009e6c:	00000000 00000000 00000000 00000000     ................
e0009e7c:	00000000 00000000 00000000 00000000     ................
e0009e8c:	00000000 00000000 00000000 00000000     ................
e0009e9c:	00000000 00000000 00000000 00000000     ................
e0009eac:	00000000 00000000 00000000 00000000     ................
e0009ebc:	00000000 00000000 00000000 00000000     ................
e0009ecc:	00000000 00000000 00000000 00000000     ................
e0009edc:	00000000 00000000 00000000 00000000     ................
e0009eec:	00000000 00000000 00000000 00000000     ................
e0009efc:	00000000 00000000 00000000 00000000     ................
e0009f0c:	00000000 00000000 00000000 00000000     ................
e0009f1c:	00000000 00000000 00000000 00000000     ................
e0009f2c:	00000000 00000000 00000000 00000000     ................
e0009f3c:	00000000 00000000 00000000 00000000     ................
e0009f4c:	00000000 00000000 00000000 00000000     ................
e0009f5c:	00000000 00000000 00000000 00000000     ................
e0009f6c:	00000000 00000000 00000000 00000000     ................
e0009f7c:	00000000 00000000 00000000 00000000     ................
e0009f8c:	00000000 00000000 00000000 00000000     ................
e0009f9c:	00000000 00000000 00000000 00000000     ................
e0009fac:	00000000 00000000 00000000 00000000     ................
e0009fbc:	00000000 00000000 00000000 00000000     ................
e0009fcc:	00000000 00000000 00000000 00000000     ................
e0009fdc:	00000000 00000000 00000000 00000000     ................
e0009fec:	00000000 00000000 00000000 00000000     ................
e0009ffc:	00000000 00000000 00000000 00000000     ................
e000a00c:	00000000 00000000 00000000 00000000     ................
e000a01c:	00000000 00000000 00000000 00000000     ................
e000a02c:	00000000 00000000 00000000 00000000     ................
e000a03c:	00000000 00000000 00000000 00000000     ................
e000a04c:	00000000 00000000 00000000 00000000     ................
e000a05c:	00000000 00000000 00000000 00000000     ................
e000a06c:	00000000 00000000 00000000 00000000     ................
e000a07c:	00000000 00000000 00000000 00000000     ................
e000a08c:	00000000 00000000 00000000 00000000     ................
e000a09c:	00000000 00000000 00000000 00000000     ................
e000a0ac:	00000000 00000000 00000000 00000000     ................
e000a0bc:	00000000 00000000 00000000 00000000     ................
e000a0cc:	00000000 00000000 00000000 00000000     ................
e000a0dc:	00000000 00000000 00000000 00000000     ................
e000a0ec:	00000000 00000000 00000000 00000000     ................
e000a0fc:	00000000 00000000 00000000 00000000     ................
e000a10c:	00000000 00000000 00000000 00000000     ................
e000a11c:	00000000 00000000 00000000 00000000     ................
e000a12c:	00000000 00000000 00000000 00000000     ................
e000a13c:	00000000 00000000 00000000 00000000     ................
e000a14c:	00000000 00000000 00000000 00000000     ................
e000a15c:	00000000 00000000 00000000 00000000     ................
e000a16c:	00000000 00000000 00000000 00000000     ................
e000a17c:	00000000 00000000 00000000 00000000     ................
e000a18c:	00000000 00000000 00000000 00000000     ................
e000a19c:	00000000 00000000 00000000 00000000     ................
e000a1ac:	00000000 00000000 00000000 00000000     ................
e000a1bc:	00000000 00000000 00000000 00000000     ................
e000a1cc:	00000000 00000000 00000000 00000000     ................
e000a1dc:	00000000 00000000 00000000 00000000     ................
e000a1ec:	00000000 00000000 00000000 00000000     ................
e000a1fc:	00000000 00000000 00000000 00000000     ................
e000a20c:	00000000 00000000 00000000 00000000     ................
e000a21c:	00000000 00000000 00000000 00000000     ................
e000a22c:	00000000 00000000 00000000 00000000     ................
e000a23c:	00000000 00000000 00000000 00000000     ................
e000a24c:	00000000 00000000 00000000 00000000     ................
e000a25c:	00000000 00000000 00000000 00000000     ................
e000a26c:	00000000 00000000 00000000 00000000     ................
e000a27c:	00000000 00000000 00000000 00000000     ................
e000a28c:	00000000 00000000 00000000 00000000     ................
e000a29c:	00000000 00000000 00000000 00000000     ................
e000a2ac:	00000000 00000000 00000000 00000000     ................
e000a2bc:	00000000 00000000 00000000 00000000     ................
e000a2cc:	00000000 00000000 00000000 00000000     ................
e000a2dc:	00000000 00000000 00000000 00000000     ................
e000a2ec:	00000000 00000000 00000000 00000000     ................
e000a2fc:	00000000 00000000 00000000 00000000     ................
e000a30c:	00000000 00000000 00000000 00000000     ................
e000a31c:	00000000 00000000 00000000 00000000     ................
e000a32c:	00000000 00000000 00000000 00000000     ................
e000a33c:	00000000 00000000 00000000 00000000     ................
e000a34c:	00000000 00000000 00000000 00000000     ................
e000a35c:	00000000 00000000 00000000 00000000     ................
e000a36c:	00000000 00000000 00000000 00000000     ................
e000a37c:	00000000 00000000 00000000 00000000     ................
e000a38c:	00000000 00000000 00000000 00000000     ................
e000a39c:	00000000 00000000 00000000 00000000     ................
e000a3ac:	00000000 00000000 00000000 00000000     ................
e000a3bc:	00000000 00000000 00000000 00000000     ................
e000a3cc:	00000000 00000000 00000000 00000000     ................
e000a3dc:	00000000 00000000 00000000 00000000     ................
e000a3ec:	00000000 00000000 00000000 00000000     ................
e000a3fc:	00000000 00000000 00000000 00000000     ................
e000a40c:	00000000 00000000 00000000 00000000     ................
e000a41c:	00000000 00000000 00000000 00000000     ................
e000a42c:	00000000 00000000 00000000 00000000     ................
e000a43c:	00000000 00000000 00000000 00000000     ................
e000a44c:	00000000 00000000 00000000 00000000     ................
e000a45c:	00000000 00000000 00000000 00000000     ................
e000a46c:	00000000 00000000 00000000 00000000     ................
e000a47c:	00000000 00000000 00000000 00000000     ................
e000a48c:	00000000 00000000 00000000 00000000     ................
e000a49c:	00000000 00000000 00000000 00000000     ................
e000a4ac:	00000000 00000000 00000000 00000000     ................
e000a4bc:	00000000 00000000 00000000 00000000     ................
e000a4cc:	00000000 00000000 00000000 00000000     ................
e000a4dc:	00000000 00000000 00000000 00000000     ................
e000a4ec:	00000000 00000000 00000000 00000000     ................
e000a4fc:	00000000 00000000 00000000 00000000     ................
e000a50c:	00000000 00000000 00000000 00000000     ................
e000a51c:	00000000 00000000 00000000 00000000     ................
e000a52c:	00000000 00000000 00000000 00000000     ................
e000a53c:	00000000 00000000 00000000 00000000     ................
e000a54c:	00000000 00000000 00000000 00000000     ................
e000a55c:	00000000 00000000 00000000 00000000     ................
e000a56c:	00000000 00000000 00000000 00000000     ................
e000a57c:	00000000 00000000 00000000 00000000     ................
e000a58c:	00000000 00000000 00000000 00000000     ................
e000a59c:	00000000 00000000 00000000 00000000     ................
e000a5ac:	00000000 00000000 00000000 00000000     ................
e000a5bc:	00000000 00000000 00000000 00000000     ................
e000a5cc:	00000000 00000000 00000000 00000000     ................
e000a5dc:	00000000 00000000 00000000 00000000     ................
e000a5ec:	00000000 00000000 00000000 00000000     ................
e000a5fc:	00000000 00000000 00000000 00000000     ................
e000a60c:	00000000 00000000 00000000 00000000     ................
e000a61c:	00000000 00000000 00000000 00000000     ................
e000a62c:	00000000 00000000 00000000 00000000     ................
e000a63c:	00000000 00000000 00000000 00000000     ................
e000a64c:	00000000 00000000 00000000 00000000     ................
e000a65c:	00000000 00000000 00000000 00000000     ................
e000a66c:	00000000 00000000 00000000 00000000     ................
e000a67c:	00000000 00000000 00000000 00000000     ................
e000a68c:	00000000 00000000 00000000 00000000     ................
e000a69c:	00000000 00000000 00000000 00000000     ................
e000a6ac:	00000000 00000000 00000000 00000000     ................
e000a6bc:	00000000 00000000 00000000 00000000     ................
e000a6cc:	00000000 00000000 00000000 00000000     ................
e000a6dc:	00000000 00000000 00000000 00000000     ................
e000a6ec:	00000000 00000000 00000000 00000000     ................
e000a6fc:	00000000 00000000 00000000 00000000     ................
e000a70c:	00000000 00000000 00000000 00000000     ................
e000a71c:	00000000 00000000 00000000 00000000     ................
e000a72c:	00000000 00000000 00000000 00000000     ................
e000a73c:	00000000 00000000 00000000 00000000     ................
e000a74c:	00000000 00000000 00000000 00000000     ................
e000a75c:	00000000 00000000 00000000 00000000     ................
e000a76c:	00000000 00000000 00000000 00000000     ................
e000a77c:	00000000 00000000 00000000 00000000     ................
e000a78c:	00000000 00000000 00000000 00000000     ................
e000a79c:	00000000 00000000 00000000 00000000     ................
e000a7ac:	00000000 00000000 00000000 00000000     ................
e000a7bc:	00000000 00000000 00000000 00000000     ................
e000a7cc:	00000000 00000000 00000000 00000000     ................
e000a7dc:	00000000 00000000 00000000 00000000     ................
e000a7ec:	00000000 00000000 00000000 00000000     ................
e000a7fc:	00000000 00000000 00000000 00000000     ................
e000a80c:	00000000 00000000 00000000 00000000     ................
e000a81c:	00000000 00000000 00000000 00000000     ................
e000a82c:	00000000 00000000 00000000 00000000     ................
e000a83c:	00000000 00000000 00000000 00000000     ................
e000a84c:	00000000 00000000 00000000 00000000     ................
e000a85c:	00000000 00000000 00000000 00000000     ................
e000a86c:	00000000 00000000 00000000 00000000     ................
e000a87c:	00000000 00000000 00000000 00000000     ................
e000a88c:	00000000 00000000 00000000 00000000     ................
e000a89c:	00000000 00000000 00000000 00000000     ................
e000a8ac:	00000000 00000000 00000000 00000000     ................
e000a8bc:	00000000 00000000 00000000 00000000     ................
e000a8cc:	00000000 00000000 00000000 00000000     ................
e000a8dc:	00000000 00000000 00000000 00000000     ................
e000a8ec:	00000000 00000000 00000000 00000000     ................
e000a8fc:	00000000 00000000 00000000 00000000     ................
e000a90c:	00000000 00000000 00000000 00000000     ................
e000a91c:	00000000 00000000 00000000 00000000     ................
e000a92c:	00000000 00000000 00000000 00000000     ................
e000a93c:	00000000 00000000 00000000 00000000     ................
e000a94c:	00000000 00000000 00000000 00000000     ................
e000a95c:	00000000 00000000 00000000 00000000     ................
e000a96c:	00000000 00000000 00000000 00000000     ................
e000a97c:	00000000 00000000 00000000 00000000     ................
e000a98c:	00000000 00000000 00000000 00000000     ................
e000a99c:	00000000 00000000 00000000 00000000     ................
e000a9ac:	00000000 00000000 00000000 00000000     ................
e000a9bc:	00000000 00000000 00000000 00000000     ................
e000a9cc:	00000000 00000000 00000000 00000000     ................
e000a9dc:	00000000 00000000 00000000 00000000     ................
e000a9ec:	00000000 00000000 00000000 00000000     ................
e000a9fc:	00000000 00000000 00000000 00000000     ................
e000aa0c:	00000000 00000000 00000000 00000000     ................
e000aa1c:	00000000 00000000 00000000 00000000     ................
e000aa2c:	00000000 00000000 00000000 00000000     ................
e000aa3c:	00000000 00000000 00000000 00000000     ................
e000aa4c:	00000000 00000000 00000000 00000000     ................
e000aa5c:	00000000 00000000 00000000 00000000     ................
e000aa6c:	00000000 00000000 00000000 00000000     ................
e000aa7c:	00000000 00000000 00000000 00000000     ................
e000aa8c:	00000000 00000000 00000000 00000000     ................
e000aa9c:	00000000 00000000 00000000 00000000     ................
e000aaac:	00000000 00000000 00000000 00000000     ................
e000aabc:	00000000 00000000 00000000 00000000     ................
e000aacc:	00000000 00000000 00000000 00000000     ................
e000aadc:	00000000 00000000 00000000 00000000     ................
e000aaec:	00000000 00000000 00000000 00000000     ................
e000aafc:	00000000 00000000 00000000 00000000     ................
e000ab0c:	00000000 00000000 00000000 00000000     ................
e000ab1c:	00000000 00000000 00000000 00000000     ................
e000ab2c:	00000000 00000000 00000000 00000000     ................
e000ab3c:	00000000 00000000 00000000 00000000     ................
e000ab4c:	00000000 00000000 00000000 00000000     ................
e000ab5c:	00000000 00000000 00000000 00000000     ................
e000ab6c:	00000000 00000000 00000000 00000000     ................
e000ab7c:	00000000 00000000 00000000 00000000     ................
e000ab8c:	00000000 00000000 00000000 00000000     ................
e000ab9c:	00000000 00000000 00000000 00000000     ................
e000abac:	00000000 00000000 00000000 00000000     ................
e000abbc:	00000000 00000000 00000000 00000000     ................
e000abcc:	00000000 00000000 00000000 00000000     ................
e000abdc:	00000000 00000000 00000000 00000000     ................
e000abec:	00000000 00000000 00000000 00000000     ................
e000abfc:	00000000 00000000 00000000 00000000     ................
e000ac0c:	00000000 00000000 00000000 00000000     ................
e000ac1c:	00000000 00000000 00000000 00000000     ................
e000ac2c:	00000000 00000000 00000000 00000000     ................
e000ac3c:	00000000 00000000 00000000 00000000     ................
e000ac4c:	00000000 00000000 00000000 00000000     ................
e000ac5c:	00000000 00000000 00000000 00000000     ................
e000ac6c:	00000000 00000000 00000000 00000000     ................
e000ac7c:	00000000 00000000 00000000 00000000     ................
e000ac8c:	00000000 00000000 00000000 00000000     ................
e000ac9c:	00000000 00000000 00000000 00000000     ................
e000acac:	00000000 00000000 00000000 00000000     ................
e000acbc:	00000000 00000000 00000000 00000000     ................
e000accc:	00000000 00000000 00000000 00000000     ................
e000acdc:	00000000 00000000 00000000 00000000     ................
e000acec:	00000000 00000000 00000000 00000000     ................
e000acfc:	00000000 00000000 00000000 00000000     ................
e000ad0c:	00000000 00000000 00000000 00000000     ................
e000ad1c:	00000000 00000000 00000000 00000000     ................
e000ad2c:	00000000 00000000 00000000 00000000     ................
e000ad3c:	00000000 00000000 00000000 00000000     ................
e000ad4c:	00000000 00000000 00000000 00000000     ................
e000ad5c:	00000000 00000000 00000000 00000000     ................
e000ad6c:	00000000 00000000 00000000 00000000     ................
e000ad7c:	00000000 00000000 00000000 00000000     ................
e000ad8c:	00000000 00000000 00000000 00000000     ................
e000ad9c:	00000000 00000000 00000000 00000000     ................
e000adac:	00000000 00000000 00000000 00000000     ................
e000adbc:	00000000 00000000 00000000 00000000     ................
e000adcc:	00000000 00000000 00000000 00000000     ................
e000addc:	00000000 00000000 00000000 00000000     ................
e000adec:	00000000 00000000 00000000 00000000     ................
e000adfc:	00000000 00000000 00000000 00000000     ................
e000ae0c:	00000000 00000000 00000000 00000000     ................
e000ae1c:	00000000 00000000 00000000 00000000     ................
e000ae2c:	00000000 00000000 00000000 00000000     ................
e000ae3c:	00000000 00000000 00000000 00000000     ................
e000ae4c:	00000000 00000000 00000000 00000000     ................
e000ae5c:	00000000 00000000 00000000 00000000     ................
e000ae6c:	00000000 00000000 00000000 00000000     ................
e000ae7c:	00000000 00000000 00000000 00000000     ................
e000ae8c:	00000000 00000000 00000000 00000000     ................
e000ae9c:	00000000 00000000 00000000 00000000     ................
e000aeac:	00000000 00000000 00000000 00000000     ................
e000aebc:	00000000 00000000 00000000 00000000     ................
e000aecc:	00000000 00000000 00000000 00000000     ................
e000aedc:	00000000 00000000 00000000 00000000     ................
e000aeec:	00000000 00000000 00000000 00000000     ................
e000aefc:	00000000 00000000 00000000 00000000     ................
e000af0c:	00000000 00000000 00000000 00000000     ................
e000af1c:	00000000 00000000 00000000 00000000     ................
e000af2c:	00000000 00000000 00000000 00000000     ................
e000af3c:	00000000 00000000 00000000 00000000     ................
e000af4c:	00000000 00000000 00000000 00000000     ................
e000af5c:	00000000 00000000 00000000 00000000     ................
e000af6c:	00000000 00000000 00000000 00000000     ................
e000af7c:	00000000 00000000 00000000 00000000     ................
e000af8c:	00000000 00000000 00000000 00000000     ................
e000af9c:	00000000 00000000 00000000 00000000     ................
e000afac:	00000000 00000000 00000000 00000000     ................
e000afbc:	00000000 00000000 00000000 00000000     ................
e000afcc:	00000000 00000000 00000000 00000000     ................
e000afdc:	00000000 00000000 00000000 00000000     ................
e000afec:	00000000 00000000 00000000 00000000     ................
e000affc:	00000000 00000000 00000000 00000000     ................
e000b00c:	00000000 00000000 00000000 00000000     ................
e000b01c:	00000000 00000000 00000000 00000000     ................
e000b02c:	00000000 00000000 00000000 00000000     ................
e000b03c:	00000000 00000000 00000000 00000000     ................
e000b04c:	00000000 00000000 00000000 00000000     ................
e000b05c:	00000000 00000000 00000000 00000000     ................
e000b06c:	00000000 00000000 00000000 00000000     ................
e000b07c:	00000000 00000000 00000000 00000000     ................
e000b08c:	00000000 00000000 00000000 00000000     ................
e000b09c:	00000000 00000000 00000000 00000000     ................
e000b0ac:	00000000 00000000 00000000 00000000     ................
e000b0bc:	00000000 00000000 00000000 00000000     ................
e000b0cc:	00000000 00000000 00000000 00000000     ................
e000b0dc:	00000000 00000000 00000000 00000000     ................
e000b0ec:	00000000 00000000 00000000 00000000     ................
e000b0fc:	00000000 00000000 00000000 00000000     ................
e000b10c:	00000000 00000000 00000000 00000000     ................
e000b11c:	00000000 00000000 00000000 00000000     ................
e000b12c:	00000000 00000000 00000000 00000000     ................
e000b13c:	00000000 00000000 00000000 00000000     ................
e000b14c:	00000000 00000000 00000000 00000000     ................
e000b15c:	00000000 00000000 00000000 00000000     ................
e000b16c:	00000000 00000000 00000000 00000000     ................
e000b17c:	00000000 00000000 00000000 00000000     ................
e000b18c:	00000000 00000000 00000000 00000000     ................
e000b19c:	00000000 00000000 00000000 00000000     ................
e000b1ac:	00000000 00000000 00000000 00000000     ................
e000b1bc:	00000000 00000000 00000000 00000000     ................
e000b1cc:	00000000 00000000 00000000 00000000     ................
e000b1dc:	00000000 00000000 00000000 00000000     ................
e000b1ec:	00000000 00000000 00000000 00000000     ................
e000b1fc:	00000000 00000000 00000000 00000000     ................
e000b20c:	00000000 00000000 00000000 00000000     ................
e000b21c:	00000000 00000000 00000000 00000000     ................
e000b22c:	00000000 00000000 00000000 00000000     ................
e000b23c:	00000000 00000000 00000000 00000000     ................
e000b24c:	00000000 00000000 00000000 00000000     ................
e000b25c:	00000000 00000000 00000000 00000000     ................
e000b26c:	00000000 00000000 00000000 00000000     ................
e000b27c:	00000000 00000000 00000000 00000000     ................
e000b28c:	00000000 00000000 00000000 00000000     ................
e000b29c:	00000000 00000000 00000000 00000000     ................
e000b2ac:	00000000 00000000 00000000 00000000     ................
e000b2bc:	00000000 00000000 00000000 00000000     ................
e000b2cc:	00000000 00000000 00000000 00000000     ................
e000b2dc:	00000000 00000000 00000000 00000000     ................
e000b2ec:	00000000 00000000 00000000 00000000     ................
e000b2fc:	00000000 00000000 00000000 00000000     ................
e000b30c:	00000000 00000000 00000000 00000000     ................
e000b31c:	00000000 00000000 00000000 00000000     ................
e000b32c:	00000000 00000000 00000000 00000000     ................
e000b33c:	00000000 00000000 00000000 00000000     ................
e000b34c:	00000000 00000000 00000000 00000000     ................
e000b35c:	00000000 00000000 00000000 00000000     ................
e000b36c:	00000000 00000000 00000000 00000000     ................
e000b37c:	00000000 00000000 00000000 00000000     ................
e000b38c:	00000000 00000000 00000000 00000000     ................
e000b39c:	00000000 00000000 00000000 00000000     ................
e000b3ac:	00000000 00000000 00000000 00000000     ................
e000b3bc:	00000000 00000000 00000000 00000000     ................
e000b3cc:	00000000 00000000 00000000 00000000     ................
e000b3dc:	00000000 00000000 00000000 00000000     ................
e000b3ec:	00000000 00000000 00000000 00000000     ................
e000b3fc:	00000000 00000000 00000000 00000000     ................
e000b40c:	00000000 00000000 00000000 00000000     ................
e000b41c:	00000000 00000000 00000000 00000000     ................
e000b42c:	00000000 00000000 00000000 00000000     ................
e000b43c:	00000000 00000000 00000000 00000000     ................
e000b44c:	00000000 00000000 00000000 00000000     ................
e000b45c:	00000000 00000000 00000000 00000000     ................
e000b46c:	00000000 00000000 00000000 00000000     ................
e000b47c:	00000000 00000000 00000000 00000000     ................
e000b48c:	00000000 00000000 00000000 00000000     ................
e000b49c:	00000000 00000000 00000000 00000000     ................
e000b4ac:	00000000 00000000 00000000 00000000     ................
e000b4bc:	00000000 00000000 00000000 00000000     ................
e000b4cc:	00000000 00000000 00000000 00000000     ................
e000b4dc:	00000000 00000000 00000000 00000000     ................
e000b4ec:	00000000 00000000 00000000 00000000     ................
e000b4fc:	00000000 00000000 00000000 00000000     ................
e000b50c:	00000000 00000000 00000000 00000000     ................
e000b51c:	00000000 00000000 00000000 00000000     ................
e000b52c:	00000000 00000000 00000000 00000000     ................
e000b53c:	00000000 00000000 00000000 00000000     ................
e000b54c:	00000000 00000000 00000000 00000000     ................
e000b55c:	00000000 00000000 00000000 00000000     ................
e000b56c:	00000000 00000000 00000000 00000000     ................
e000b57c:	00000000 00000000 00000000 00000000     ................
e000b58c:	00000000 00000000 00000000 00000000     ................
e000b59c:	00000000 00000000 00000000 00000000     ................
e000b5ac:	00000000 00000000 00000000 00000000     ................
e000b5bc:	00000000 00000000 00000000 00000000     ................
e000b5cc:	00000000 00000000 00000000 00000000     ................
e000b5dc:	00000000 00000000 00000000 00000000     ................
e000b5ec:	00000000 00000000 00000000 00000000     ................
e000b5fc:	00000000 00000000 00000000 00000000     ................
e000b60c:	00000000 00000000 00000000 00000000     ................
e000b61c:	00000000 00000000 00000000 00000000     ................
e000b62c:	00000000 00000000 00000000 00000000     ................
e000b63c:	00000000 00000000 00000000 00000000     ................
e000b64c:	00000000 00000000 00000000 00000000     ................
e000b65c:	00000000 00000000 00000000 00000000     ................
e000b66c:	00000000 00000000 00000000 00000000     ................
e000b67c:	00000000 00000000 00000000 00000000     ................
e000b68c:	00000000 00000000 00000000 00000000     ................
e000b69c:	00000000 00000000 00000000 00000000     ................
e000b6ac:	00000000 00000000 00000000 00000000     ................
e000b6bc:	00000000 00000000 00000000 00000000     ................
e000b6cc:	00000000 00000000 00000000 00000000     ................
e000b6dc:	00000000 00000000 00000000 00000000     ................
e000b6ec:	00000000 00000000 00000000 00000000     ................
e000b6fc:	00000000 00000000 00000000 00000000     ................
e000b70c:	00000000 00000000 00000000 00000000     ................
e000b71c:	00000000 00000000 00000000 00000000     ................
e000b72c:	00000000 00000000 00000000 00000000     ................
e000b73c:	00000000 00000000 00000000 00000000     ................
e000b74c:	00000000 00000000 00000000 00000000     ................
e000b75c:	00000000 00000000 00000000 00000000     ................
e000b76c:	00000000 00000000 00000000 00000000     ................
e000b77c:	00000000 00000000 00000000 00000000     ................
e000b78c:	00000000 00000000 00000000 00000000     ................
e000b79c:	00000000 00000000 00000000 00000000     ................
e000b7ac:	00000000 00000000 00000000 00000000     ................
e000b7bc:	00000000 00000000 00000000 00000000     ................
e000b7cc:	00000000 00000000 00000000 00000000     ................
e000b7dc:	00000000 00000000 00000000 00000000     ................
e000b7ec:	00000000 00000000 00000000 00000000     ................
e000b7fc:	00000000 00000000 00000000 00000000     ................
e000b80c:	00000000 00000000 00000000 00000000     ................
e000b81c:	00000000 00000000 00000000 00000000     ................
e000b82c:	00000000 00000000 00000000 00000000     ................
e000b83c:	00000000 00000000 00000000 00000000     ................
e000b84c:	00000000 00000000 00000000 00000000     ................
e000b85c:	00000000 00000000 00000000 00000000     ................
e000b86c:	00000000 00000000 00000000 00000000     ................
e000b87c:	00000000 00000000 00000000 00000000     ................
e000b88c:	00000000 00000000 00000000 00000000     ................
e000b89c:	00000000 00000000 00000000 00000000     ................
e000b8ac:	00000000 00000000 00000000 00000000     ................
e000b8bc:	00000000 00000000 00000000 00000000     ................
e000b8cc:	00000000 00000000 00000000 00000000     ................
e000b8dc:	00000000 00000000 00000000 00000000     ................
e000b8ec:	00000000 00000000 00000000 00000000     ................
e000b8fc:	00000000 00000000 00000000 00000000     ................
e000b90c:	00000000 00000000 00000000 00000000     ................
e000b91c:	00000000 00000000 00000000 00000000     ................
e000b92c:	00000000 00000000 00000000 00000000     ................
e000b93c:	00000000 00000000 00000000 00000000     ................
e000b94c:	00000000 00000000 00000000 00000000     ................
e000b95c:	00000000 00000000 00000000 00000000     ................
e000b96c:	00000000 00000000 00000000 00000000     ................
e000b97c:	00000000 00000000 00000000 00000000     ................
e000b98c:	00000000 00000000 00000000 00000000     ................
e000b99c:	00000000 00000000 00000000 00000000     ................
e000b9ac:	00000000 00000000 00000000 00000000     ................
e000b9bc:	00000000 00000000 00000000 00000000     ................
e000b9cc:	00000000 00000000 00000000 00000000     ................
e000b9dc:	00000000 00000000 00000000 00000000     ................
e000b9ec:	00000000 00000000 00000000 00000000     ................
e000b9fc:	00000000 00000000 00000000 00000000     ................
e000ba0c:	00000000 00000000 00000000 00000000     ................
e000ba1c:	00000000 00000000 00000000 00000000     ................
e000ba2c:	00000000 00000000 00000000 00000000     ................
e000ba3c:	00000000 00000000 00000000 00000000     ................
e000ba4c:	00000000 00000000 00000000 00000000     ................
e000ba5c:	00000000 00000000 00000000 00000000     ................
e000ba6c:	00000000 00000000 00000000 00000000     ................
e000ba7c:	00000000 00000000 00000000 00000000     ................
e000ba8c:	00000000 00000000 00000000 00000000     ................
e000ba9c:	00000000 00000000 00000000 00000000     ................
e000baac:	00000000 00000000 00000000 00000000     ................
e000babc:	00000000 00000000 00000000 00000000     ................
e000bacc:	00000000 00000000 00000000 00000000     ................
e000badc:	00000000 00000000 00000000 00000000     ................
e000baec:	00000000 00000000 00000000 00000000     ................
e000bafc:	00000000 00000000 00000000 00000000     ................
e000bb0c:	00000000 00000000 00000000 00000000     ................
e000bb1c:	00000000 00000000 00000000 00000000     ................
e000bb2c:	00000000 00000000 00000000 00000000     ................
e000bb3c:	00000000 00000000 00000000 00000000     ................
e000bb4c:	00000000 00000000 00000000 00000000     ................
e000bb5c:	00000000 00000000 00000000 00000000     ................
e000bb6c:	00000000 00000000 00000000 00000000     ................
e000bb7c:	00000000 00000000 00000000 00000000     ................
e000bb8c:	00000000 00000000 00000000 00000000     ................
e000bb9c:	00000000 00000000 00000000 00000000     ................
e000bbac:	00000000 00000000 00000000 00000000     ................
e000bbbc:	00000000 00000000 00000000 00000000     ................
e000bbcc:	00000000 00000000 00000000 00000000     ................
e000bbdc:	00000000 00000000 00000000 00000000     ................
e000bbec:	00000000 00000000 00000000 00000000     ................
e000bbfc:	00000000 00000000 00000000 00000000     ................
e000bc0c:	00000000 00000000 00000000 00000000     ................
e000bc1c:	00000000 00000000 00000000 00000000     ................
e000bc2c:	00000000 00000000 00000000 00000000     ................
e000bc3c:	00000000 00000000 00000000 00000000     ................
e000bc4c:	00000000 00000000 00000000 00000000     ................
e000bc5c:	00000000 00000000 00000000 00000000     ................
e000bc6c:	00000000 00000000 00000000 00000000     ................
e000bc7c:	00000000 00000000 00000000 00000000     ................
e000bc8c:	00000000 00000000 00000000 00000000     ................
e000bc9c:	00000000 00000000 00000000 00000000     ................
e000bcac:	00000000 00000000 00000000 00000000     ................
e000bcbc:	00000000 00000000 00000000 00000000     ................
e000bccc:	00000000 00000000 00000000 00000000     ................
e000bcdc:	00000000 00000000 00000000 00000000     ................
e000bcec:	00000000 00000000 00000000 00000000     ................
e000bcfc:	00000000 00000000 00000000 00000000     ................
e000bd0c:	00000000 00000000 00000000 00000000     ................
e000bd1c:	00000000 00000000 00000000 00000000     ................
e000bd2c:	00000000 00000000 00000000 00000000     ................
e000bd3c:	00000000 00000000 00000000 00000000     ................
e000bd4c:	00000000 00000000 00000000 00000000     ................
e000bd5c:	00000000 00000000 00000000 00000000     ................
e000bd6c:	00000000 00000000 00000000 00000000     ................
e000bd7c:	00000000 00000000 00000000 00000000     ................
e000bd8c:	00000000 00000000 00000000 00000000     ................
e000bd9c:	00000000 00000000 00000000 00000000     ................
e000bdac:	00000000 00000000 00000000 00000000     ................
e000bdbc:	00000000 00000000 00000000 00000000     ................
e000bdcc:	00000000 00000000 00000000 00000000     ................
e000bddc:	00000000 00000000 00000000 00000000     ................
e000bdec:	00000000 00000000 00000000 00000000     ................
e000bdfc:	00000000 00000000 00000000 00000000     ................
e000be0c:	00000000 00000000 00000000 00000000     ................
e000be1c:	00000000 00000000 00000000 00000000     ................
e000be2c:	00000000 00000000 00000000 00000000     ................
e000be3c:	00000000 00000000 00000000 00000000     ................
e000be4c:	00000000 00000000 00000000 00000000     ................
e000be5c:	00000000 00000000 00000000 00000000     ................
e000be6c:	00000000 00000000 00000000 00000000     ................
e000be7c:	00000000 00000000 00000000 00000000     ................
e000be8c:	00000000 00000000 00000000 00000000     ................
e000be9c:	00000000 00000000 00000000 00000000     ................
e000beac:	00000000 00000000 00000000 00000000     ................
e000bebc:	00000000 00000000 00000000 00000000     ................
e000becc:	00000000 00000000 00000000 00000000     ................
e000bedc:	00000000 00000000 00000000 00000000     ................
e000beec:	00000000 00000000 00000000 00000000     ................
e000befc:	00000000 00000000 00000000 00000000     ................
e000bf0c:	00000000 00000000 00000000 00000000     ................
e000bf1c:	00000000 00000000 00000000 00000000     ................
e000bf2c:	00000000 00000000 00000000 00000000     ................
e000bf3c:	00000000 00000000 00000000 00000000     ................
e000bf4c:	00000000 00000000 00000000 00000000     ................
e000bf5c:	00000000 00000000 00000000 00000000     ................
e000bf6c:	00000000 00000000 00000000 00000000     ................
e000bf7c:	00000000 00000000 00000000 00000000     ................
e000bf8c:	00000000 00000000 00000000 00000000     ................
e000bf9c:	00000000 00000000 00000000 00000000     ................
e000bfac:	00000000 00000000 00000000 00000000     ................
e000bfbc:	00000000 00000000 00000000 00000000     ................
e000bfcc:	00000000 00000000 00000000 00000000     ................
e000bfdc:	00000000 00000000 00000000 00000000     ................
e000bfec:	00000000 00000000 00000000 00000000     ................
e000bffc:	00000000 00000000 00000000 00000000     ................
e000c00c:	00000000 00000000 00000000 00000000     ................
e000c01c:	00000000 00000000 00000000 00000000     ................
e000c02c:	00000000 00000000 00000000 00000000     ................
e000c03c:	00000000 00000000 00000000 00000000     ................
e000c04c:	00000000 00000000 00000000 00000000     ................
e000c05c:	00000000 00000000 00000000 00000000     ................
e000c06c:	00000000 00000000 00000000 00000000     ................
e000c07c:	00000000 00000000 00000000 00000000     ................
e000c08c:	00000000 00000000 00000000 00000000     ................
e000c09c:	00000000 00000000 00000000 00000000     ................
e000c0ac:	00000000 00000000 00000000 00000000     ................
e000c0bc:	00000000 00000000 00000000 00000000     ................
e000c0cc:	00000000 00000000 00000000 00000000     ................
e000c0dc:	00000000 00000000 00000000 00000000     ................
e000c0ec:	00000000 00000000 00000000 00000000     ................
e000c0fc:	00000000 00000000 00000000 00000000     ................
e000c10c:	00000000 00000000 00000000 00000000     ................
e000c11c:	00000000 00000000 00000000 00000000     ................
e000c12c:	00000000 00000000 00000000 00000000     ................
e000c13c:	00000000 00000000 00000000 00000000     ................
e000c14c:	00000000 00000000 00000000 00000000     ................
e000c15c:	00000000 00000000 00000000 00000000     ................
e000c16c:	00000000 00000000 00000000 00000000     ................
e000c17c:	00000000 00000000 00000000 00000000     ................
e000c18c:	00000000 00000000 00000000 00000000     ................
e000c19c:	00000000 00000000 00000000 00000000     ................
e000c1ac:	00000000 00000000 00000000 00000000     ................
e000c1bc:	00000000 00000000 00000000 00000000     ................
e000c1cc:	00000000 00000000 00000000 00000000     ................
e000c1dc:	00000000 00000000 00000000 00000000     ................
e000c1ec:	00000000 00000000 00000000 00000000     ................
e000c1fc:	00000000 00000000 00000000 00000000     ................
e000c20c:	00000000 00000000 00000000 00000000     ................
e000c21c:	00000000 00000000 00000000 00000000     ................
e000c22c:	00000000 00000000 00000000 00000000     ................
e000c23c:	00000000 00000000 00000000 00000000     ................
e000c24c:	00000000 00000000 00000000 00000000     ................
e000c25c:	00000000 00000000 00000000 00000000     ................
e000c26c:	00000000 00000000 00000000 00000000     ................
e000c27c:	00000000 00000000 00000000 00000000     ................
e000c28c:	00000000 00000000 00000000 00000000     ................
e000c29c:	00000000 00000000 00000000 00000000     ................
e000c2ac:	00000000 00000000 00000000 00000000     ................
e000c2bc:	00000000 00000000 00000000 00000000     ................
e000c2cc:	00000000 00000000 00000000 00000000     ................
e000c2dc:	00000000 00000000 00000000 00000000     ................
e000c2ec:	00000000 00000000 00000000 00000000     ................
e000c2fc:	00000000 00000000 00000000 00000000     ................
e000c30c:	00000000 00000000 00000000 00000000     ................
e000c31c:	00000000 00000000 00000000 00000000     ................
e000c32c:	00000000 00000000 00000000 00000000     ................
e000c33c:	00000000 00000000 00000000 00000000     ................
e000c34c:	00000000 00000000 00000000 00000000     ................
e000c35c:	00000000 00000000 00000000 00000000     ................
e000c36c:	00000000 00000000 00000000 00000000     ................
e000c37c:	00000000 00000000 00000000 00000000     ................
e000c38c:	00000000 00000000 00000000 00000000     ................
e000c39c:	00000000 00000000 00000000 00000000     ................
e000c3ac:	00000000 00000000 00000000 00000000     ................
e000c3bc:	00000000 00000000 00000000 00000000     ................
e000c3cc:	00000000 00000000 00000000 00000000     ................
e000c3dc:	00000000 00000000 00000000 00000000     ................
e000c3ec:	00000000 00000000 00000000 00000000     ................
e000c3fc:	00000000 00000000 00000000 00000000     ................
e000c40c:	00000000 00000000 00000000 00000000     ................
e000c41c:	00000000 00000000 00000000 00000000     ................
e000c42c:	00000000 00000000 00000000 00000000     ................
e000c43c:	00000000 00000000 00000000 00000000     ................
e000c44c:	00000000 00000000 00000000 00000000     ................
e000c45c:	00000000 00000000 00000000 00000000     ................
e000c46c:	00000000 00000000 00000000 00000000     ................
e000c47c:	00000000 00000000 00000000 00000000     ................
e000c48c:	00000000 00000000 00000000 00000000     ................
e000c49c:	00000000 00000000 00000000 00000000     ................
e000c4ac:	00000000 00000000 00000000 00000000     ................
e000c4bc:	00000000 00000000 00000000 00000000     ................
e000c4cc:	00000000 00000000 00000000 00000000     ................
e000c4dc:	00000000 00000000 00000000 00000000     ................
e000c4ec:	00000000 00000000 00000000 00000000     ................
e000c4fc:	00000000 00000000 00000000 00000000     ................
e000c50c:	00000000 00000000 00000000 00000000     ................
e000c51c:	00000000 00000000 00000000 00000000     ................
e000c52c:	00000000 00000000 00000000 00000000     ................
e000c53c:	00000000 00000000 00000000 00000000     ................
e000c54c:	00000000 00000000 00000000 00000000     ................
e000c55c:	00000000 00000000 00000000 00000000     ................
e000c56c:	00000000 00000000 00000000 00000000     ................
e000c57c:	00000000 00000000 00000000 00000000     ................
e000c58c:	00000000 00000000 00000000 00000000     ................
e000c59c:	00000000 00000000 00000000 00000000     ................
e000c5ac:	00000000 00000000 00000000 00000000     ................
e000c5bc:	00000000 00000000 00000000 00000000     ................
e000c5cc:	00000000 00000000 00000000 00000000     ................
e000c5dc:	00000000 00000000 00000000 00000000     ................
e000c5ec:	00000000 00000000 00000000 00000000     ................
e000c5fc:	00000000 00000000 00000000 00000000     ................
e000c60c:	00000000 00000000 00000000 00000000     ................
e000c61c:	00000000 00000000 00000000 00000000     ................
e000c62c:	00000000 00000000 00000000 00000000     ................
e000c63c:	00000000 00000000 00000000 00000000     ................
e000c64c:	00000000 00000000 00000000 00000000     ................
e000c65c:	00000000 00000000 00000000 00000000     ................
e000c66c:	00000000 00000000 00000000 00000000     ................
e000c67c:	00000000 00000000 00000000 00000000     ................
e000c68c:	00000000 00000000 00000000 00000000     ................
e000c69c:	00000000 00000000 00000000 00000000     ................
e000c6ac:	00000000 00000000 00000000 00000000     ................
e000c6bc:	00000000 00000000 00000000 00000000     ................
e000c6cc:	00000000 00000000 00000000 00000000     ................
e000c6dc:	00000000 00000000 00000000 00000000     ................
e000c6ec:	00000000 00000000 00000000 00000000     ................
e000c6fc:	00000000 00000000 00000000 00000000     ................
e000c70c:	00000000 00000000 00000000 00000000     ................
e000c71c:	00000000 00000000 00000000 00000000     ................
e000c72c:	00000000 00000000 00000000 00000000     ................
e000c73c:	00000000 00000000 00000000 00000000     ................
e000c74c:	00000000 00000000 00000000 00000000     ................
e000c75c:	00000000 00000000 00000000 00000000     ................
e000c76c:	00000000 00000000 00000000 00000000     ................
e000c77c:	00000000 00000000 00000000 00000000     ................
e000c78c:	00000000 00000000 00000000 00000000     ................
e000c79c:	00000000 00000000 00000000 00000000     ................
e000c7ac:	00000000 00000000 00000000 00000000     ................
e000c7bc:	00000000 00000000 00000000 00000000     ................
e000c7cc:	00000000 00000000 00000000 00000000     ................
e000c7dc:	00000000 00000000 00000000 00000000     ................
e000c7ec:	00000000 00000000 00000000 00000000     ................
e000c7fc:	00000000 00000000 00000000 00000000     ................
e000c80c:	00000000 00000000 00000000 00000000     ................
e000c81c:	00000000 00000000 00000000 00000000     ................
e000c82c:	00000000 00000000 00000000 00000000     ................
e000c83c:	00000000 00000000 00000000 00000000     ................
e000c84c:	00000000 00000000 00000000 00000000     ................
e000c85c:	00000000 00000000 00000000 00000000     ................
e000c86c:	00000000 00000000 00000000 00000000     ................
e000c87c:	00000000 00000000 00000000 00000000     ................
e000c88c:	00000000 00000000 00000000 00000000     ................
e000c89c:	00000000 00000000 00000000 00000000     ................
e000c8ac:	00000000 00000000 00000000 00000000     ................
e000c8bc:	00000000 00000000 00000000 00000000     ................
e000c8cc:	00000000 00000000 00000000 00000000     ................
e000c8dc:	00000000 00000000 00000000 00000000     ................
e000c8ec:	00000000 00000000 00000000 00000000     ................
e000c8fc:	00000000 00000000 00000000 00000000     ................
e000c90c:	00000000 00000000 00000000 00000000     ................
e000c91c:	00000000 00000000 00000000 00000000     ................
e000c92c:	00000000 00000000 00000000 00000000     ................
e000c93c:	00000000 00000000 00000000 00000000     ................
e000c94c:	00000000 00000000 00000000 00000000     ................
e000c95c:	00000000 00000000 00000000 00000000     ................
e000c96c:	00000000 00000000 00000000 00000000     ................
e000c97c:	00000000 00000000 00000000 00000000     ................
e000c98c:	00000000 00000000 00000000 00000000     ................
e000c99c:	00000000 00000000 00000000 00000000     ................
e000c9ac:	00000000 00000000 00000000 00000000     ................
e000c9bc:	00000000 00000000 00000000 00000000     ................
e000c9cc:	00000000 00000000 00000000 00000000     ................
e000c9dc:	00000000 00000000 00000000 00000000     ................
e000c9ec:	00000000 00000000 00000000 00000000     ................
e000c9fc:	00000000 00000000 00000000 00000000     ................
e000ca0c:	00000000 00000000 00000000 00000000     ................
e000ca1c:	00000000 00000000 00000000 00000000     ................
e000ca2c:	00000000 00000000 00000000 00000000     ................
e000ca3c:	00000000 00000000 00000000 00000000     ................
e000ca4c:	00000000 00000000 00000000 00000000     ................
e000ca5c:	00000000 00000000 00000000 00000000     ................
e000ca6c:	00000000 00000000 00000000 00000000     ................
e000ca7c:	00000000 00000000 00000000 00000000     ................
e000ca8c:	00000000 00000000 00000000 00000000     ................
e000ca9c:	00000000 00000000 00000000 00000000     ................
e000caac:	00000000 00000000 00000000 00000000     ................
e000cabc:	00000000 00000000 00000000 00000000     ................
e000cacc:	00000000 00000000 00000000 00000000     ................
e000cadc:	00000000 00000000 00000000 00000000     ................
e000caec:	00000000 00000000 00000000 00000000     ................
e000cafc:	00000000 00000000 00000000 00000000     ................
e000cb0c:	00000000 00000000 00000000 00000000     ................
e000cb1c:	00000000 00000000 00000000 00000000     ................
e000cb2c:	00000000 00000000 00000000 00000000     ................
e000cb3c:	00000000 00000000 00000000 00000000     ................
e000cb4c:	00000000 00000000 00000000 00000000     ................
e000cb5c:	00000000 00000000 00000000 00000000     ................
e000cb6c:	00000000 00000000 00000000 00000000     ................
e000cb7c:	00000000 00000000 00000000 00000000     ................
e000cb8c:	00000000 00000000 00000000 00000000     ................
e000cb9c:	00000000 00000000 00000000 00000000     ................
e000cbac:	00000000 00000000 00000000 00000000     ................
e000cbbc:	00000000 00000000 00000000 00000000     ................
e000cbcc:	00000000 00000000 00000000 00000000     ................
e000cbdc:	00000000 00000000 00000000 00000000     ................
e000cbec:	00000000 00000000 00000000 00000000     ................
e000cbfc:	00000000 00000000 00000000 00000000     ................
e000cc0c:	00000000 00000000 00000000 00000000     ................
e000cc1c:	00000000 00000000 00000000 00000000     ................
e000cc2c:	00000000 00000000 00000000 00000000     ................
e000cc3c:	00000000 00000000 00000000 00000000     ................
e000cc4c:	00000000 00000000 00000000 00000000     ................
e000cc5c:	00000000 00000000 00000000 00000000     ................
e000cc6c:	00000000 00000000 00000000 00000000     ................
e000cc7c:	00000000 00000000 00000000 00000000     ................
e000cc8c:	00000000 00000000 00000000 00000000     ................
e000cc9c:	00000000 00000000 00000000 00000000     ................
e000ccac:	00000000 00000000 00000000 00000000     ................
e000ccbc:	00000000 00000000 00000000 00000000     ................
e000cccc:	00000000 00000000 00000000 00000000     ................
e000ccdc:	00000000 00000000 00000000 00000000     ................
e000ccec:	00000000 00000000 00000000 00000000     ................
e000ccfc:	00000000 00000000 00000000 00000000     ................
e000cd0c:	00000000 00000000 00000000 00000000     ................
e000cd1c:	00000000 00000000 00000000 00000000     ................
e000cd2c:	00000000 00000000 00000000 00000000     ................
e000cd3c:	00000000 00000000 00000000 00000000     ................
e000cd4c:	00000000 00000000 00000000 00000000     ................
e000cd5c:	00000000 00000000 00000000 00000000     ................
e000cd6c:	00000000 00000000 00000000 00000000     ................
e000cd7c:	00000000 00000000 00000000 00000000     ................
e000cd8c:	00000000 00000000 00000000 00000000     ................
e000cd9c:	00000000 00000000 00000000 00000000     ................
e000cdac:	00000000 00000000 00000000 00000000     ................
e000cdbc:	00000000 00000000 00000000 00000000     ................
e000cdcc:	00000000 00000000 00000000 00000000     ................
e000cddc:	00000000 00000000 00000000 00000000     ................
e000cdec:	00000000 00000000 00000000 00000000     ................
e000cdfc:	00000000 00000000 00000000 00000000     ................
e000ce0c:	00000000 00000000 00000000 00000000     ................
e000ce1c:	00000000 00000000 00000000 00000000     ................
e000ce2c:	00000000 00000000 00000000 00000000     ................
e000ce3c:	00000000 00000000 00000000 00000000     ................
e000ce4c:	00000000 00000000 00000000 00000000     ................
e000ce5c:	00000000 00000000 00000000 00000000     ................
e000ce6c:	00000000 00000000 00000000 00000000     ................
e000ce7c:	00000000 00000000 00000000 00000000     ................
e000ce8c:	00000000 00000000 00000000 00000000     ................
e000ce9c:	00000000 00000000 00000000 00000000     ................
e000ceac:	00000000 00000000 00000000 00000000     ................
e000cebc:	00000000 00000000 00000000 00000000     ................
e000cecc:	00000000 00000000 00000000 00000000     ................
e000cedc:	00000000 00000000 00000000 00000000     ................
e000ceec:	00000000 00000000 00000000 00000000     ................
e000cefc:	00000000 00000000 00000000 00000000     ................
e000cf0c:	00000000 00000000 00000000 00000000     ................
e000cf1c:	00000000 00000000 00000000 00000000     ................
e000cf2c:	00000000 00000000 00000000 00000000     ................
e000cf3c:	00000000 00000000 00000000 00000000     ................
e000cf4c:	00000000 00000000 00000000 00000000     ................
e000cf5c:	00000000 00000000 00000000 00000000     ................
e000cf6c:	00000000 00000000 00000000 00000000     ................
e000cf7c:	00000000 00000000 00000000 00000000     ................
e000cf8c:	00000000 00000000 00000000 00000000     ................
e000cf9c:	00000000 00000000 00000000 00000000     ................
e000cfac:	00000000 00000000 00000000 00000000     ................
e000cfbc:	00000000 00000000 00000000 00000000     ................
e000cfcc:	00000000 00000000 00000000 00000000     ................
e000cfdc:	00000000 00000000 00000000 00000000     ................
e000cfec:	00000000 00000000 00000000 00000000     ................
e000cffc:	00000000 00000000 00000000 00000000     ................
e000d00c:	00000000 00000000 00000000 00000000     ................
e000d01c:	00000000 00000000 00000000 00000000     ................
e000d02c:	00000000 00000000 00000000 00000000     ................
e000d03c:	00000000 00000000 00000000 00000000     ................
e000d04c:	00000000 00000000 00000000 00000000     ................
e000d05c:	00000000 00000000 00000000 00000000     ................
e000d06c:	00000000 00000000 00000000 00000000     ................
e000d07c:	00000000 00000000 00000000 00000000     ................
e000d08c:	00000000 00000000 00000000 00000000     ................
e000d09c:	00000000 00000000 00000000 00000000     ................
e000d0ac:	00000000 00000000 00000000 00000000     ................
e000d0bc:	00000000 00000000 00000000 00000000     ................
e000d0cc:	00000000 00000000 00000000 00000000     ................
e000d0dc:	00000000 00000000 00000000 00000000     ................
e000d0ec:	00000000 00000000 00000000 00000000     ................
e000d0fc:	00000000 00000000 00000000 00000000     ................
e000d10c:	00000000 00000000 00000000 00000000     ................
e000d11c:	00000000 00000000 00000000 00000000     ................
e000d12c:	00000000 00000000 00000000 00000000     ................
e000d13c:	00000000 00000000 00000000 00000000     ................
e000d14c:	00000000 00000000 00000000 00000000     ................
e000d15c:	00000000 00000000 00000000 00000000     ................
e000d16c:	00000000 00000000 00000000 00000000     ................
e000d17c:	00000000 00000000 00000000 00000000     ................
e000d18c:	00000000 00000000 00000000 00000000     ................
e000d19c:	00000000 00000000 00000000 00000000     ................
e000d1ac:	00000000 00000000 00000000 00000000     ................
e000d1bc:	00000000 00000000 00000000 00000000     ................
e000d1cc:	00000000 00000000 00000000 00000000     ................
e000d1dc:	00000000 00000000 00000000 00000000     ................
e000d1ec:	00000000 00000000 00000000 00000000     ................
e000d1fc:	00000000 00000000 00000000 00000000     ................
e000d20c:	00000000 00000000 00000000 00000000     ................
e000d21c:	00000000 00000000 00000000 00000000     ................
e000d22c:	00000000 00000000 00000000 00000000     ................
e000d23c:	00000000 00000000 00000000 00000000     ................
e000d24c:	00000000 00000000 00000000 00000000     ................
e000d25c:	00000000 00000000 00000000 00000000     ................
e000d26c:	00000000 00000000 00000000 00000000     ................
e000d27c:	00000000 00000000 00000000 00000000     ................
e000d28c:	00000000 00000000 00000000 00000000     ................
e000d29c:	00000000 00000000 00000000 00000000     ................
e000d2ac:	00000000 00000000 00000000 00000000     ................
e000d2bc:	00000000 00000000 00000000 00000000     ................
e000d2cc:	00000000 00000000 00000000 00000000     ................
e000d2dc:	00000000 00000000 00000000 00000000     ................
e000d2ec:	00000000 00000000 00000000 00000000     ................
e000d2fc:	00000000 00000000 00000000 00000000     ................
e000d30c:	00000000 00000000 00000000 00000000     ................
e000d31c:	00000000 00000000 00000000 00000000     ................
e000d32c:	00000000 00000000 00000000 00000000     ................
e000d33c:	00000000 00000000 00000000 00000000     ................
e000d34c:	00000000 00000000 00000000 00000000     ................
e000d35c:	00000000 00000000 00000000 00000000     ................
e000d36c:	00000000 00000000 00000000 00000000     ................
e000d37c:	00000000 00000000 00000000 00000000     ................
e000d38c:	00000000 00000000 00000000 00000000     ................
e000d39c:	00000000 00000000 00000000 00000000     ................
e000d3ac:	00000000 00000000 00000000 00000000     ................
e000d3bc:	00000000 00000000 00000000 00000000     ................
e000d3cc:	00000000 00000000 00000000 00000000     ................
e000d3dc:	00000000 00000000 00000000 00000000     ................
e000d3ec:	00000000 00000000 00000000 00000000     ................
e000d3fc:	00000000 00000000 00000000 00000000     ................
e000d40c:	00000000 00000000 00000000 00000000     ................
e000d41c:	00000000 00000000 00000000 00000000     ................
e000d42c:	00000000 00000000 00000000 00000000     ................
e000d43c:	00000000 00000000 00000000 00000000     ................
e000d44c:	00000000 00000000 00000000 00000000     ................
e000d45c:	00000000 00000000 00000000 00000000     ................
e000d46c:	00000000 00000000 00000000 00000000     ................
e000d47c:	00000000 00000000 00000000 00000000     ................
e000d48c:	00000000 00000000 00000000 00000000     ................
e000d49c:	00000000 00000000 00000000 00000000     ................
e000d4ac:	00000000 00000000 00000000 00000000     ................
e000d4bc:	00000000 00000000 00000000 00000000     ................
e000d4cc:	00000000 00000000 00000000 00000000     ................
e000d4dc:	00000000 00000000 00000000 00000000     ................
e000d4ec:	00000000 00000000 00000000 00000000     ................
e000d4fc:	00000000 00000000 00000000 00000000     ................
e000d50c:	00000000 00000000 00000000 00000000     ................
e000d51c:	00000000 00000000 00000000 00000000     ................
e000d52c:	00000000 00000000 00000000 00000000     ................
e000d53c:	00000000 00000000 00000000 00000000     ................
e000d54c:	00000000 00000000 00000000 00000000     ................
e000d55c:	00000000 00000000 00000000 00000000     ................
e000d56c:	00000000 00000000 00000000 00000000     ................
e000d57c:	00000000 00000000 00000000 00000000     ................
e000d58c:	00000000 00000000 00000000 00000000     ................
e000d59c:	00000000 00000000 00000000 00000000     ................
e000d5ac:	00000000 00000000 00000000 00000000     ................
e000d5bc:	00000000 00000000 00000000 00000000     ................
e000d5cc:	00000000 00000000 00000000 00000000     ................
e000d5dc:	00000000 00000000 00000000 00000000     ................
e000d5ec:	00000000 00000000 00000000 00000000     ................
e000d5fc:	00000000 00000000 00000000 00000000     ................
e000d60c:	00000000 00000000 00000000 00000000     ................
e000d61c:	00000000 00000000 00000000 00000000     ................
e000d62c:	00000000 00000000 00000000 00000000     ................
e000d63c:	00000000 00000000 00000000 00000000     ................
e000d64c:	00000000 00000000 00000000 00000000     ................
e000d65c:	00000000 00000000 00000000 00000000     ................
e000d66c:	00000000 00000000 00000000 00000000     ................
e000d67c:	00000000 00000000 00000000 00000000     ................
e000d68c:	00000000 00000000 00000000 00000000     ................
e000d69c:	00000000 00000000 00000000 00000000     ................
e000d6ac:	00000000 00000000 00000000 00000000     ................
e000d6bc:	00000000 00000000 00000000 00000000     ................
e000d6cc:	00000000 00000000 00000000 00000000     ................
e000d6dc:	00000000 00000000 00000000 00000000     ................
e000d6ec:	00000000 00000000 00000000 00000000     ................
e000d6fc:	00000000 00000000 00000000 00000000     ................
e000d70c:	00000000 00000000 00000000 00000000     ................
e000d71c:	00000000 00000000 00000000 00000000     ................
e000d72c:	00000000 00000000 00000000 00000000     ................
e000d73c:	00000000 00000000 00000000 00000000     ................
e000d74c:	00000000 00000000 00000000 00000000     ................
e000d75c:	00000000 00000000 00000000 00000000     ................
e000d76c:	00000000 00000000 00000000 00000000     ................
e000d77c:	00000000 00000000 00000000 00000000     ................
e000d78c:	00000000 00000000 00000000 00000000     ................
e000d79c:	00000000 00000000 00000000 00000000     ................
e000d7ac:	00000000 00000000 00000000 00000000     ................
e000d7bc:	00000000 00000000 00000000 00000000     ................
e000d7cc:	00000000 00000000 00000000 00000000     ................
e000d7dc:	00000000 00000000 00000000 00000000     ................
e000d7ec:	00000000 00000000 00000000 00000000     ................
e000d7fc:	00000000 00000000 00000000 00000000     ................
e000d80c:	00000000 00000000 00000000 00000000     ................
e000d81c:	00000000 00000000 00000000 00000000     ................
e000d82c:	00000000 00000000 00000000 00000000     ................
e000d83c:	00000000 00000000 00000000 00000000     ................
e000d84c:	00000000 00000000 00000000 00000000     ................
e000d85c:	00000000 00000000 00000000 00000000     ................
e000d86c:	00000000 00000000 00000000 00000000     ................
e000d87c:	00000000 00000000 00000000 00000000     ................
e000d88c:	00000000 00000000 00000000 00000000     ................
e000d89c:	00000000 00000000 00000000 00000000     ................
e000d8ac:	00000000 00000000 00000000 00000000     ................
e000d8bc:	00000000 00000000 00000000 00000000     ................
e000d8cc:	00000000 00000000 00000000 00000000     ................
e000d8dc:	00000000 00000000 00000000 00000000     ................
e000d8ec:	00000000 00000000 00000000 00000000     ................
e000d8fc:	00000000 00000000 00000000 00000000     ................
e000d90c:	00000000 00000000 00000000 00000000     ................
e000d91c:	00000000 00000000 00000000 00000000     ................
e000d92c:	00000000 00000000 00000000 00000000     ................
e000d93c:	00000000 00000000 00000000 00000000     ................
e000d94c:	00000000 00000000 00000000 00000000     ................
e000d95c:	00000000 00000000 00000000 00000000     ................
e000d96c:	00000000 00000000 00000000 00000000     ................
e000d97c:	00000000 00000000 00000000 00000000     ................
e000d98c:	00000000 00000000 00000000 00000000     ................
e000d99c:	00000000 00000000 00000000 00000000     ................
e000d9ac:	00000000 00000000 00000000 00000000     ................
e000d9bc:	00000000 00000000 00000000 00000000     ................
e000d9cc:	00000000 00000000 00000000 00000000     ................
e000d9dc:	00000000 00000000 00000000 00000000     ................
e000d9ec:	00000000 00000000 00000000 00000000     ................
e000d9fc:	00000000 00000000 00000000 00000000     ................
e000da0c:	00000000 00000000 00000000 00000000     ................
e000da1c:	00000000 00000000 00000000 00000000     ................
e000da2c:	00000000 00000000 00000000 00000000     ................
e000da3c:	00000000 00000000 00000000 00000000     ................
e000da4c:	00000000 00000000 00000000 00000000     ................
e000da5c:	00000000 00000000 00000000 00000000     ................
e000da6c:	00000000 00000000 00000000 00000000     ................
e000da7c:	00000000 00000000 00000000 00000000     ................
e000da8c:	00000000 00000000 00000000 00000000     ................
e000da9c:	00000000 00000000 00000000 00000000     ................
e000daac:	00000000 00000000 00000000 00000000     ................
e000dabc:	00000000 00000000 00000000 00000000     ................
e000dacc:	00000000 00000000 00000000 00000000     ................
e000dadc:	00000000 00000000 00000000 00000000     ................
e000daec:	00000000 00000000 00000000 00000000     ................
e000dafc:	00000000 00000000 00000000 00000000     ................
e000db0c:	00000000 00000000 00000000 00000000     ................
e000db1c:	00000000 00000000 00000000 00000000     ................
e000db2c:	00000000 00000000 00000000 00000000     ................
e000db3c:	00000000 00000000 00000000 00000000     ................
e000db4c:	00000000 00000000 00000000 00000000     ................
e000db5c:	00000000 00000000 00000000 00000000     ................
e000db6c:	00000000 00000000 00000000 00000000     ................
e000db7c:	00000000 00000000 00000000 00000000     ................
e000db8c:	00000000 00000000 00000000 00000000     ................
e000db9c:	00000000 00000000 00000000 00000000     ................
e000dbac:	00000000 00000000 00000000 00000000     ................
e000dbbc:	00000000 00000000 00000000 00000000     ................
e000dbcc:	00000000 00000000 00000000 00000000     ................
e000dbdc:	00000000 00000000 00000000 00000000     ................
e000dbec:	00000000 00000000 00000000 00000000     ................
e000dbfc:	00000000 00000000 00000000 00000000     ................
e000dc0c:	00000000 00000000 00000000 00000000     ................
e000dc1c:	00000000 00000000 00000000 00000000     ................
e000dc2c:	00000000 00000000 00000000 00000000     ................
e000dc3c:	00000000 00000000 00000000 00000000     ................
e000dc4c:	00000000 00000000 00000000 00000000     ................
e000dc5c:	00000000 00000000 00000000 00000000     ................
e000dc6c:	00000000 00000000 00000000 00000000     ................
e000dc7c:	00000000 00000000 00000000 00000000     ................
e000dc8c:	00000000 00000000 00000000 00000000     ................
e000dc9c:	00000000 00000000 00000000 00000000     ................
e000dcac:	00000000 00000000 00000000 00000000     ................
e000dcbc:	00000000 00000000 00000000 00000000     ................
e000dccc:	00000000 00000000 00000000 00000000     ................
e000dcdc:	00000000 00000000 00000000 00000000     ................
e000dcec:	00000000 00000000 00000000 00000000     ................
e000dcfc:	00000000 00000000 00000000 00000000     ................
e000dd0c:	00000000 00000000 00000000 00000000     ................
e000dd1c:	00000000 00000000 00000000 00000000     ................
e000dd2c:	00000000 00000000 00000000 00000000     ................
e000dd3c:	00000000 00000000 00000000 00000000     ................
e000dd4c:	00000000 00000000 00000000 00000000     ................
e000dd5c:	00000000 00000000 00000000 00000000     ................
e000dd6c:	00000000 00000000 00000000 00000000     ................
e000dd7c:	00000000 00000000 00000000 00000000     ................
e000dd8c:	00000000 00000000 00000000 00000000     ................
e000dd9c:	00000000 00000000 00000000 00000000     ................
e000ddac:	00000000 00000000 00000000 00000000     ................
e000ddbc:	00000000 00000000 00000000 00000000     ................
e000ddcc:	00000000 00000000 00000000 00000000     ................
e000dddc:	00000000 00000000 00000000 00000000     ................
e000ddec:	00000000 00000000 00000000 00000000     ................
e000ddfc:	00000000 00000000 00000000 00000000     ................
e000de0c:	00000000 00000000 00000000 00000000     ................
e000de1c:	00000000 00000000 00000000 00000000     ................
e000de2c:	00000000 00000000 00000000 00000000     ................
e000de3c:	00000000 00000000 00000000 00000000     ................
e000de4c:	00000000 00000000 00000000 00000000     ................
e000de5c:	00000000 00000000 00000000 00000000     ................
e000de6c:	00000000 00000000 00000000 00000000     ................
e000de7c:	00000000 00000000 00000000 00000000     ................
e000de8c:	00000000 00000000 00000000 00000000     ................
e000de9c:	00000000 00000000 00000000 00000000     ................
e000deac:	00000000 00000000 00000000 00000000     ................
e000debc:	00000000 00000000 00000000 00000000     ................
e000decc:	00000000 00000000 00000000 00000000     ................
e000dedc:	00000000 00000000 00000000 00000000     ................
e000deec:	00000000 00000000 00000000 00000000     ................
e000defc:	00000000 00000000 00000000 00000000     ................
e000df0c:	00000000 00000000 00000000 00000000     ................
e000df1c:	00000000 00000000 00000000 00000000     ................
e000df2c:	00000000 00000000 00000000 00000000     ................
e000df3c:	00000000 00000000 00000000 00000000     ................
e000df4c:	00000000 00000000 00000000 00000000     ................
e000df5c:	00000000 00000000 00000000 00000000     ................
e000df6c:	00000000 00000000 00000000 00000000     ................
e000df7c:	00000000 00000000 00000000 00000000     ................
e000df8c:	00000000 00000000 00000000 00000000     ................
e000df9c:	00000000 00000000 00000000 00000000     ................
e000dfac:	00000000 00000000 00000000 00000000     ................
e000dfbc:	00000000 00000000 00000000 00000000     ................
e000dfcc:	00000000 00000000 00000000 00000000     ................
e000dfdc:	00000000 00000000 00000000 00000000     ................
e000dfec:	00000000 00000000 00000000 00000000     ................
e000dffc:	00000000 00000000 00000000 00000000     ................
e000e00c:	00000000 00000000 00000000 00000000     ................
e000e01c:	00000000 00000000 00000000 00000000     ................
e000e02c:	00000000 00000000 00000000 00000000     ................
e000e03c:	00000000 00000000 00000000 00000000     ................
e000e04c:	00000000 00000000 00000000 00000000     ................
e000e05c:	00000000 00000000 00000000 00000000     ................
e000e06c:	00000000 00000000 00000000 00000000     ................
e000e07c:	00000000 00000000 00000000 00000000     ................
e000e08c:	00000000 00000000 00000000 00000000     ................
e000e09c:	00000000 00000000 00000000 00000000     ................
e000e0ac:	00000000 00000000 00000000 00000000     ................
e000e0bc:	00000000 00000000 00000000 00000000     ................
e000e0cc:	00000000 00000000 00000000 00000000     ................
e000e0dc:	00000000 00000000 00000000 00000000     ................
e000e0ec:	00000000 00000000 00000000 00000000     ................
e000e0fc:	00000000 00000000 00000000 00000000     ................
e000e10c:	00000000 00000000 00000000 00000000     ................
e000e11c:	00000000 00000000 00000000 00000000     ................
e000e12c:	00000000 00000000 00000000 00000000     ................
e000e13c:	00000000 00000000 00000000 00000000     ................
e000e14c:	00000000 00000000 00000000 00000000     ................
e000e15c:	00000000 00000000 00000000 00000000     ................
e000e16c:	00000000 00000000 00000000 00000000     ................
e000e17c:	00000000 00000000 00000000 00000000     ................
e000e18c:	00000000 00000000 00000000 00000000     ................
e000e19c:	00000000 00000000 00000000 00000000     ................
e000e1ac:	00000000 00000000 00000000 00000000     ................
e000e1bc:	00000000 00000000 00000000 00000000     ................
e000e1cc:	00000000 00000000 00000000 00000000     ................
e000e1dc:	00000000 00000000 00000000 00000000     ................
e000e1ec:	00000000 00000000 00000000 00000000     ................
e000e1fc:	00000000 00000000 00000000 00000000     ................
e000e20c:	00000000 00000000 00000000 00000000     ................
e000e21c:	00000000 00000000 00000000 00000000     ................
e000e22c:	00000000 00000000 00000000 00000000     ................
e000e23c:	00000000 00000000 00000000 00000000     ................
e000e24c:	00000000 00000000 00000000 00000000     ................
e000e25c:	00000000 00000000 00000000 00000000     ................
e000e26c:	00000000 00000000 00000000 00000000     ................
e000e27c:	00000000 00000000 00000000 00000000     ................
e000e28c:	00000000 00000000 00000000 00000000     ................
e000e29c:	00000000 00000000 00000000 00000000     ................
e000e2ac:	00000000 00000000 00000000 00000000     ................
e000e2bc:	00000000 00000000 00000000 00000000     ................
e000e2cc:	00000000 00000000 00000000 00000000     ................
e000e2dc:	00000000 00000000 00000000 00000000     ................
e000e2ec:	00000000 00000000 00000000 00000000     ................
e000e2fc:	00000000 00000000 00000000 00000000     ................
e000e30c:	00000000 00000000 00000000 00000000     ................
e000e31c:	00000000 00000000 00000000 00000000     ................
e000e32c:	00000000 00000000 00000000 00000000     ................
e000e33c:	00000000 00000000 00000000 00000000     ................
e000e34c:	00000000 00000000 00000000 00000000     ................
e000e35c:	00000000 00000000 00000000 00000000     ................
e000e36c:	00000000 00000000 00000000 00000000     ................
e000e37c:	00000000 00000000 00000000 00000000     ................
e000e38c:	00000000 00000000 00000000 00000000     ................
e000e39c:	00000000 00000000 00000000 00000000     ................
e000e3ac:	00000000 00000000 00000000 00000000     ................
e000e3bc:	00000000 00000000 00000000 00000000     ................
e000e3cc:	00000000 00000000 00000000 00000000     ................
e000e3dc:	00000000 00000000 00000000 00000000     ................
e000e3ec:	00000000 00000000 00000000 00000000     ................
e000e3fc:	00000000 00000000 00000000 00000000     ................
e000e40c:	00000000 00000000 00000000 00000000     ................
e000e41c:	00000000 00000000 00000000 00000000     ................
e000e42c:	00000000 00000000 00000000 00000000     ................
e000e43c:	00000000 00000000 00000000 00000000     ................
e000e44c:	00000000 00000000 00000000 00000000     ................
e000e45c:	00000000 00000000 00000000 00000000     ................
e000e46c:	00000000 00000000 00000000 00000000     ................
e000e47c:	00000000 00000000 00000000 00000000     ................
e000e48c:	00000000 00000000 00000000 00000000     ................
e000e49c:	00000000 00000000 00000000 00000000     ................
e000e4ac:	00000000 00000000 00000000 00000000     ................
e000e4bc:	00000000 00000000 00000000 00000000     ................
e000e4cc:	00000000 00000000 00000000 00000000     ................
e000e4dc:	00000000 00000000 00000000 00000000     ................
e000e4ec:	00000000 00000000 00000000 00000000     ................
e000e4fc:	00000000 00000000 00000000 00000000     ................
e000e50c:	00000000 00000000 00000000 00000000     ................
e000e51c:	00000000 00000000 00000000 00000000     ................
e000e52c:	00000000 00000000 00000000 00000000     ................
e000e53c:	00000000 00000000 00000000 00000000     ................
e000e54c:	00000000 00000000 00000000 00000000     ................
e000e55c:	00000000 00000000 00000000 00000000     ................
e000e56c:	00000000 00000000 00000000 00000000     ................
e000e57c:	00000000 00000000 00000000 00000000     ................
e000e58c:	00000000 00000000 00000000 00000000     ................
e000e59c:	00000000 00000000 00000000 00000000     ................
e000e5ac:	00000000 00000000 00000000 00000000     ................
e000e5bc:	00000000 00000000 00000000 00000000     ................
e000e5cc:	00000000 00000000 00000000 00000000     ................
e000e5dc:	00000000 00000000 00000000 00000000     ................
e000e5ec:	00000000 00000000 00000000 00000000     ................
e000e5fc:	00000000 00000000 00000000 00000000     ................
e000e60c:	00000000 00000000 00000000 00000000     ................
e000e61c:	00000000 00000000 00000000 00000000     ................
e000e62c:	00000000 00000000 00000000 00000000     ................
e000e63c:	00000000 00000000 00000000 00000000     ................
e000e64c:	00000000 00000000 00000000 00000000     ................
e000e65c:	00000000 00000000 00000000 00000000     ................
e000e66c:	00000000 00000000 00000000 00000000     ................
e000e67c:	00000000 00000000 00000000 00000000     ................
e000e68c:	00000000 00000000 00000000 00000000     ................
e000e69c:	00000000 00000000 00000000 00000000     ................
e000e6ac:	00000000 00000000 00000000 00000000     ................
e000e6bc:	00000000 00000000 00000000 00000000     ................
e000e6cc:	00000000 00000000 00000000 00000000     ................
e000e6dc:	00000000 00000000 00000000 00000000     ................
e000e6ec:	00000000 00000000 00000000 00000000     ................
e000e6fc:	00000000 00000000 00000000 00000000     ................
e000e70c:	00000000 00000000 00000000 00000000     ................
e000e71c:	00000000 00000000 00000000 00000000     ................
e000e72c:	00000000 00000000 00000000 00000000     ................
e000e73c:	00000000 00000000 00000000 00000000     ................
e000e74c:	00000000 00000000 00000000 00000000     ................
e000e75c:	00000000 00000000 00000000 00000000     ................
e000e76c:	00000000 00000000 00000000 00000000     ................
e000e77c:	00000000 00000000 00000000 00000000     ................
e000e78c:	00000000 00000000 00000000 00000000     ................
e000e79c:	00000000 00000000 00000000 00000000     ................
e000e7ac:	00000000 00000000 00000000 00000000     ................
e000e7bc:	00000000 00000000 00000000 00000000     ................
e000e7cc:	00000000 00000000 00000000 00000000     ................
e000e7dc:	00000000 00000000 00000000 00000000     ................
e000e7ec:	00000000 00000000 00000000 00000000     ................
e000e7fc:	00000000 00000000 00000000 00000000     ................
e000e80c:	00000000 00000000 00000000 00000000     ................
e000e81c:	00000000 00000000 00000000 00000000     ................
e000e82c:	00000000 00000000 00000000 00000000     ................
e000e83c:	00000000 00000000 00000000 00000000     ................
e000e84c:	00000000 00000000 00000000 00000000     ................
e000e85c:	00000000 00000000 00000000 00000000     ................
e000e86c:	00000000 00000000 00000000 00000000     ................
e000e87c:	00000000 00000000 00000000 00000000     ................
e000e88c:	00000000 00000000 00000000 00000000     ................
e000e89c:	00000000 00000000 00000000 00000000     ................
e000e8ac:	00000000 00000000 00000000 00000000     ................
e000e8bc:	00000000 00000000 00000000 00000000     ................
e000e8cc:	00000000 00000000 00000000 00000000     ................
e000e8dc:	00000000 00000000 00000000 00000000     ................
e000e8ec:	00000000 00000000 00000000 00000000     ................
e000e8fc:	00000000 00000000 00000000 00000000     ................
e000e90c:	00000000 00000000 00000000 00000000     ................
e000e91c:	00000000 00000000 00000000 00000000     ................
e000e92c:	00000000 00000000 00000000 00000000     ................
e000e93c:	00000000 00000000 00000000 00000000     ................
e000e94c:	00000000 00000000 00000000 00000000     ................
e000e95c:	00000000 00000000 00000000 00000000     ................
e000e96c:	00000000 00000000 00000000 00000000     ................
e000e97c:	00000000 00000000 00000000 00000000     ................
e000e98c:	00000000 00000000 00000000 00000000     ................
e000e99c:	00000000 00000000 00000000 00000000     ................
e000e9ac:	00000000 00000000 00000000 00000000     ................
e000e9bc:	00000000 00000000 00000000 00000000     ................
e000e9cc:	00000000 00000000 00000000 00000000     ................
e000e9dc:	00000000 00000000 00000000 00000000     ................
e000e9ec:	00000000 00000000 00000000 00000000     ................
e000e9fc:	00000000 00000000 00000000 00000000     ................
e000ea0c:	00000000 00000000 00000000 00000000     ................
e000ea1c:	00000000 00000000 00000000 00000000     ................
e000ea2c:	00000000 00000000 00000000 00000000     ................
e000ea3c:	00000000 00000000 00000000 00000000     ................
e000ea4c:	00000000 00000000 00000000 00000000     ................
e000ea5c:	00000000 00000000 00000000 00000000     ................
e000ea6c:	00000000 00000000 00000000 00000000     ................
e000ea7c:	00000000 00000000 00000000 00000000     ................
e000ea8c:	00000000 00000000 00000000 00000000     ................
e000ea9c:	00000000 00000000 00000000 00000000     ................
e000eaac:	00000000 00000000 00000000 00000000     ................
e000eabc:	00000000 00000000 00000000 00000000     ................
e000eacc:	00000000 00000000 00000000 00000000     ................
e000eadc:	00000000 00000000 00000000 00000000     ................
e000eaec:	00000000 00000000 00000000 00000000     ................
e000eafc:	00000000 00000000 00000000 00000000     ................
e000eb0c:	00000000 00000000 00000000 00000000     ................
e000eb1c:	00000000 00000000 00000000 00000000     ................
e000eb2c:	00000000 00000000 00000000 00000000     ................
e000eb3c:	00000000 00000000 00000000 00000000     ................
e000eb4c:	00000000 00000000 00000000 00000000     ................
e000eb5c:	00000000 00000000 00000000 00000000     ................
e000eb6c:	00000000 00000000 00000000 00000000     ................
e000eb7c:	00000000 00000000 00000000 00000000     ................
e000eb8c:	00000000 00000000 00000000 00000000     ................
e000eb9c:	00000000 00000000 00000000 00000000     ................
e000ebac:	00000000 00000000 00000000 00000000     ................
e000ebbc:	00000000 00000000 00000000 00000000     ................
e000ebcc:	00000000 00000000 00000000 00000000     ................
e000ebdc:	00000000 00000000 00000000 00000000     ................
e000ebec:	00000000 00000000 00000000 00000000     ................
e000ebfc:	00000000 00000000 00000000 00000000     ................
e000ec0c:	00000000 00000000 00000000 00000000     ................
e000ec1c:	00000000 00000000 00000000 00000000     ................
e000ec2c:	00000000 00000000 00000000 00000000     ................
e000ec3c:	00000000 00000000 00000000 00000000     ................
e000ec4c:	00000000 00000000 00000000 00000000     ................
e000ec5c:	00000000 00000000 00000000 00000000     ................
e000ec6c:	00000000 00000000 00000000 00000000     ................
e000ec7c:	00000000 00000000 00000000 00000000     ................
e000ec8c:	00000000 00000000 00000000 00000000     ................
e000ec9c:	00000000 00000000 00000000 00000000     ................
e000ecac:	00000000 00000000 00000000 00000000     ................
e000ecbc:	00000000 00000000 00000000 00000000     ................
e000eccc:	00000000 00000000 00000000 00000000     ................
e000ecdc:	00000000 00000000 00000000 00000000     ................
e000ecec:	00000000 00000000 00000000 00000000     ................
e000ecfc:	00000000 00000000 00000000 00000000     ................
e000ed0c:	00000000 00000000 00000000 00000000     ................
e000ed1c:	00000000 00000000 00000000 00000000     ................
e000ed2c:	00000000 00000000 00000000 00000000     ................
e000ed3c:	00000000 00000000 00000000 00000000     ................
e000ed4c:	00000000 00000000 00000000 00000000     ................
e000ed5c:	00000000 00000000 00000000 00000000     ................
e000ed6c:	00000000 00000000 00000000 00000000     ................
e000ed7c:	00000000 00000000 00000000 00000000     ................
e000ed8c:	00000000 00000000 00000000 00000000     ................
e000ed9c:	00000000 00000000 00000000 00000000     ................
e000edac:	00000000 00000000 00000000 00000000     ................
e000edbc:	00000000 00000000 00000000 00000000     ................
e000edcc:	00000000 00000000 00000000 00000000     ................
e000eddc:	00000000 00000000 00000000 00000000     ................
e000edec:	00000000 00000000 00000000 00000000     ................
e000edfc:	00000000 00000000 00000000 00000000     ................
e000ee0c:	00000000 00000000 00000000 00000000     ................
e000ee1c:	00000000 00000000 00000000 00000000     ................
e000ee2c:	00000000 00000000 00000000 00000000     ................
e000ee3c:	00000000 00000000 00000000 00000000     ................
e000ee4c:	00000000 00000000 00000000 00000000     ................
e000ee5c:	00000000 00000000 00000000 00000000     ................
e000ee6c:	00000000 00000000 00000000 00000000     ................
e000ee7c:	00000000 00000000 00000000 00000000     ................
e000ee8c:	00000000 00000000 00000000 00000000     ................
e000ee9c:	00000000 00000000 00000000 00000000     ................
e000eeac:	00000000 00000000 00000000 00000000     ................
e000eebc:	00000000 00000000 00000000 00000000     ................
e000eecc:	00000000 00000000 00000000 00000000     ................
e000eedc:	00000000 00000000 00000000 00000000     ................
e000eeec:	00000000 00000000 00000000 00000000     ................
e000eefc:	00000000 00000000 00000000 00000000     ................
e000ef0c:	00000000 00000000 00000000 00000000     ................
e000ef1c:	00000000 00000000 00000000 00000000     ................
e000ef2c:	00000000 00000000 00000000 00000000     ................
e000ef3c:	00000000 00000000 00000000 00000000     ................
e000ef4c:	00000000 00000000 00000000 00000000     ................
e000ef5c:	00000000 00000000 00000000 00000000     ................
e000ef6c:	00000000 00000000 00000000 00000000     ................
e000ef7c:	00000000 00000000 00000000 00000000     ................
e000ef8c:	00000000 00000000 00000000 00000000     ................
e000ef9c:	00000000 00000000 00000000 00000000     ................
e000efac:	00000000 00000000 00000000 00000000     ................
e000efbc:	00000000 00000000 00000000 00000000     ................
e000efcc:	00000000 00000000 00000000 00000000     ................
e000efdc:	00000000 00000000 00000000 00000000     ................
e000efec:	00000000 00000000 00000000 00000000     ................
e000effc:	00000000 00000000 00000000 00000000     ................
e000f00c:	00000000 00000000 00000000 00000000     ................
e000f01c:	00000000 00000000 00000000 00000000     ................
e000f02c:	00000000 00000000 00000000 00000000     ................
e000f03c:	00000000 00000000 00000000 00000000     ................
e000f04c:	00000000 00000000 00000000 00000000     ................
e000f05c:	00000000 00000000 00000000 00000000     ................
e000f06c:	00000000 00000000 00000000 00000000     ................
e000f07c:	00000000 00000000 00000000 00000000     ................
e000f08c:	00000000 00000000 00000000 00000000     ................
e000f09c:	00000000 00000000 00000000 00000000     ................
e000f0ac:	00000000 00000000 00000000 00000000     ................
e000f0bc:	00000000 00000000 00000000 00000000     ................
e000f0cc:	00000000 00000000 00000000 00000000     ................
e000f0dc:	00000000 00000000 00000000 00000000     ................
e000f0ec:	00000000 00000000 00000000 00000000     ................
e000f0fc:	00000000 00000000 00000000 00000000     ................
e000f10c:	00000000 00000000 00000000 00000000     ................
e000f11c:	00000000 00000000 00000000 00000000     ................
e000f12c:	00000000 00000000 00000000 00000000     ................
e000f13c:	00000000 00000000 00000000 00000000     ................
e000f14c:	00000000 00000000 00000000 00000000     ................
e000f15c:	00000000 00000000 00000000 00000000     ................
e000f16c:	00000000 00000000 00000000 00000000     ................
e000f17c:	00000000 00000000 00000000 00000000     ................
e000f18c:	00000000 00000000 00000000 00000000     ................
e000f19c:	00000000 00000000 00000000 00000000     ................
e000f1ac:	00000000 00000000 00000000 00000000     ................
e000f1bc:	00000000 00000000 00000000 00000000     ................
e000f1cc:	00000000 00000000 00000000 00000000     ................
e000f1dc:	00000000 00000000 00000000 00000000     ................
e000f1ec:	00000000 00000000 00000000 00000000     ................
e000f1fc:	00000000 00000000 00000000 00000000     ................
e000f20c:	00000000 00000000 00000000 00000000     ................
e000f21c:	00000000 00000000 00000000 00000000     ................
e000f22c:	00000000 00000000 00000000 00000000     ................
e000f23c:	00000000 00000000 00000000 00000000     ................
e000f24c:	00000000 00000000 00000000 00000000     ................
e000f25c:	00000000 00000000 00000000 00000000     ................
e000f26c:	00000000 00000000 00000000 00000000     ................
e000f27c:	00000000 00000000 00000000 00000000     ................
e000f28c:	00000000 00000000 00000000 00000000     ................
e000f29c:	00000000 00000000 00000000 00000000     ................
e000f2ac:	00000000 00000000 00000000 00000000     ................
e000f2bc:	00000000 00000000 00000000 00000000     ................
e000f2cc:	00000000 00000000 00000000 00000000     ................
e000f2dc:	00000000 00000000 00000000 00000000     ................
e000f2ec:	00000000 00000000 00000000 00000000     ................
e000f2fc:	00000000 00000000 00000000 00000000     ................
e000f30c:	00000000 00000000 00000000 00000000     ................
e000f31c:	00000000 00000000 00000000 00000000     ................
e000f32c:	00000000 00000000 00000000 00000000     ................
e000f33c:	00000000 00000000 00000000 00000000     ................
e000f34c:	00000000 00000000 00000000 00000000     ................
e000f35c:	00000000 00000000 00000000 00000000     ................
e000f36c:	00000000 00000000 00000000 00000000     ................
e000f37c:	00000000 00000000 00000000 00000000     ................
e000f38c:	00000000 00000000 00000000 00000000     ................
e000f39c:	00000000 00000000 00000000 00000000     ................
e000f3ac:	00000000 00000000 00000000 00000000     ................
e000f3bc:	00000000 00000000 00000000 00000000     ................
e000f3cc:	00000000 00000000 00000000 00000000     ................
e000f3dc:	00000000 00000000 00000000 00000000     ................
e000f3ec:	00000000 00000000 00000000 00000000     ................
e000f3fc:	00000000 00000000 00000000 00000000     ................
e000f40c:	00000000 00000000 00000000 00000000     ................
e000f41c:	00000000 00000000 00000000 00000000     ................
e000f42c:	00000000 00000000 00000000 00000000     ................
e000f43c:	00000000 00000000 00000000 00000000     ................
e000f44c:	00000000 00000000 00000000 00000000     ................
e000f45c:	00000000 00000000 00000000 00000000     ................
e000f46c:	00000000 00000000 00000000 00000000     ................
e000f47c:	00000000 00000000 00000000 00000000     ................
e000f48c:	00000000 00000000 00000000 00000000     ................
e000f49c:	00000000 00000000 00000000 00000000     ................
e000f4ac:	00000000 00000000 00000000 00000000     ................
e000f4bc:	00000000 00000000 00000000 00000000     ................
e000f4cc:	00000000 00000000 00000000 00000000     ................
e000f4dc:	00000000 00000000 00000000 00000000     ................
e000f4ec:	00000000 00000000 00000000 00000000     ................
e000f4fc:	00000000 00000000 00000000 00000000     ................
e000f50c:	00000000 00000000 00000000 00000000     ................
e000f51c:	00000000 00000000 00000000 00000000     ................
e000f52c:	00000000 00000000 00000000 00000000     ................
e000f53c:	00000000 00000000 00000000 00000000     ................
e000f54c:	00000000 00000000 00000000 00000000     ................
e000f55c:	00000000 00000000 00000000 00000000     ................
e000f56c:	00000000 00000000 00000000 00000000     ................
e000f57c:	00000000 00000000 00000000 00000000     ................
e000f58c:	00000000 00000000 00000000 00000000     ................
e000f59c:	00000000 00000000 00000000 00000000     ................
e000f5ac:	00000000 00000000 00000000 00000000     ................
e000f5bc:	00000000 00000000 00000000 00000000     ................
e000f5cc:	00000000 00000000 00000000 00000000     ................
e000f5dc:	00000000 00000000 00000000 00000000     ................
e000f5ec:	00000000 00000000 00000000 00000000     ................
e000f5fc:	00000000 00000000 00000000 00000000     ................
e000f60c:	00000000 00000000 00000000 00000000     ................
e000f61c:	00000000 00000000 00000000 00000000     ................
e000f62c:	00000000 00000000 00000000 00000000     ................
e000f63c:	00000000 00000000 00000000 00000000     ................
e000f64c:	00000000 00000000 00000000 00000000     ................
e000f65c:	00000000 00000000 00000000 00000000     ................
e000f66c:	00000000 00000000 00000000 00000000     ................
e000f67c:	00000000 00000000 00000000 00000000     ................
e000f68c:	00000000 00000000 00000000 00000000     ................
e000f69c:	00000000 00000000 00000000 00000000     ................
e000f6ac:	00000000 00000000 00000000 00000000     ................
e000f6bc:	00000000 00000000 00000000 00000000     ................
e000f6cc:	00000000 00000000 00000000 00000000     ................
e000f6dc:	00000000 00000000 00000000 00000000     ................
e000f6ec:	00000000 00000000 00000000 00000000     ................
e000f6fc:	00000000 00000000 00000000 00000000     ................
e000f70c:	00000000 00000000 00000000 00000000     ................
e000f71c:	00000000 00000000 00000000 00000000     ................
e000f72c:	00000000 00000000 00000000 00000000     ................
e000f73c:	00000000 00000000 00000000 00000000     ................
e000f74c:	00000000 00000000 00000000 00000000     ................
e000f75c:	00000000 00000000 00000000 00000000     ................
e000f76c:	00000000 00000000 00000000 00000000     ................
e000f77c:	00000000 00000000 00000000 00000000     ................
e000f78c:	00000000 00000000 00000000 00000000     ................
e000f79c:	00000000 00000000 00000000 00000000     ................
e000f7ac:	00000000 00000000 00000000 00000000     ................
e000f7bc:	00000000 00000000 00000000 00000000     ................
e000f7cc:	00000000 00000000 00000000 00000000     ................
e000f7dc:	00000000 00000000 00000000 00000000     ................
e000f7ec:	00000000 00000000 00000000 00000000     ................
e000f7fc:	00000000 00000000 00000000 00000000     ................
e000f80c:	00000000 00000000 00000000 00000000     ................
e000f81c:	00000000 00000000 00000000 00000000     ................
e000f82c:	00000000 00000000 00000000 00000000     ................
e000f83c:	00000000 00000000 00000000 00000000     ................
e000f84c:	00000000 00000000 00000000 00000000     ................
e000f85c:	00000000 00000000 00000000 00000000     ................
e000f86c:	00000000 00000000 00000000 00000000     ................
e000f87c:	00000000 00000000 00000000 00000000     ................
e000f88c:	00000000 00000000 00000000 00000000     ................
e000f89c:	00000000 00000000 00000000 00000000     ................
e000f8ac:	00000000 00000000 00000000 00000000     ................
e000f8bc:	00000000 00000000 00000000 00000000     ................
e000f8cc:	00000000 00000000 00000000 00000000     ................
e000f8dc:	00000000 00000000 00000000 00000000     ................
e000f8ec:	00000000 00000000 00000000 00000000     ................
e000f8fc:	00000000 00000000 00000000 00000000     ................
e000f90c:	00000000 00000000 00000000 00000000     ................
e000f91c:	00000000 00000000 00000000 00000000     ................
e000f92c:	00000000 00000000 00000000 00000000     ................
e000f93c:	00000000 00000000 00000000 00000000     ................
e000f94c:	00000000 00000000 00000000 00000000     ................
e000f95c:	00000000 00000000 00000000 00000000     ................
e000f96c:	00000000 00000000 00000000 00000000     ................
e000f97c:	00000000 00000000 00000000 00000000     ................
e000f98c:	00000000 00000000 00000000 00000000     ................
e000f99c:	00000000 00000000 00000000 00000000     ................
e000f9ac:	00000000 00000000 00000000 00000000     ................
e000f9bc:	00000000 00000000 00000000 00000000     ................
e000f9cc:	00000000 00000000 00000000 00000000     ................
e000f9dc:	00000000 00000000 00000000 00000000     ................
e000f9ec:	00000000 00000000 00000000 00000000     ................
e000f9fc:	00000000 00000000 00000000 00000000     ................
e000fa0c:	00000000 00000000 00000000 00000000     ................
e000fa1c:	00000000 00000000 00000000 00000000     ................
e000fa2c:	00000000 00000000 00000000 00000000     ................
e000fa3c:	00000000 00000000 00000000 00000000     ................
e000fa4c:	00000000 00000000 00000000 00000000     ................
e000fa5c:	00000000 00000000 00000000 00000000     ................
e000fa6c:	00000000 00000000 00000000 00000000     ................
e000fa7c:	00000000 00000000 00000000 00000000     ................
e000fa8c:	00000000 00000000 00000000 00000000     ................
e000fa9c:	00000000 00000000 00000000 00000000     ................
e000faac:	00000000 00000000 00000000 00000000     ................
e000fabc:	00000000 00000000 00000000 00000000     ................
e000facc:	00000000 00000000 00000000 00000000     ................
e000fadc:	00000000 00000000 00000000 00000000     ................
e000faec:	00000000 00000000 00000000 00000000     ................
e000fafc:	00000000 00000000 00000000 00000000     ................
e000fb0c:	00000000 00000000 00000000 00000000     ................
e000fb1c:	00000000 00000000 00000000 00000000     ................
e000fb2c:	00000000 00000000 00000000 00000000     ................
e000fb3c:	00000000 00000000 00000000 00000000     ................
e000fb4c:	00000000 00000000 00000000 00000000     ................
e000fb5c:	00000000 00000000 00000000 00000000     ................
e000fb6c:	00000000 00000000 00000000 00000000     ................
e000fb7c:	00000000 00000000 00000000 00000000     ................
e000fb8c:	00000000 00000000 00000000 00000000     ................
e000fb9c:	00000000 00000000 00000000 00000000     ................
e000fbac:	00000000 00000000 00000000 00000000     ................
e000fbbc:	00000000 00000000 00000000 00000000     ................
e000fbcc:	00000000 00000000 00000000 00000000     ................
e000fbdc:	00000000 00000000 00000000 00000000     ................
e000fbec:	00000000 00000000 00000000 00000000     ................
e000fbfc:	00000000 00000000 00000000 00000000     ................
e000fc0c:	00000000 00000000 00000000 00000000     ................
e000fc1c:	00000000 00000000 00000000 00000000     ................
e000fc2c:	00000000 00000000 00000000 00000000     ................
e000fc3c:	00000000 00000000 00000000 00000000     ................
e000fc4c:	00000000 00000000 00000000 00000000     ................
e000fc5c:	00000000 00000000 00000000 00000000     ................
e000fc6c:	00000000 00000000 00000000 00000000     ................
e000fc7c:	00000000 00000000 00000000 00000000     ................
e000fc8c:	00000000 00000000 00000000 00000000     ................
e000fc9c:	00000000 00000000 00000000 00000000     ................
e000fcac:	00000000 00000000 00000000 00000000     ................
e000fcbc:	00000000 00000000 00000000 00000000     ................
e000fccc:	00000000 00000000 00000000 00000000     ................
e000fcdc:	00000000 00000000 00000000 00000000     ................
e000fcec:	00000000 00000000 00000000 00000000     ................
e000fcfc:	00000000 00000000 00000000 00000000     ................
e000fd0c:	00000000 00000000 00000000 00000000     ................
e000fd1c:	00000000 00000000 00000000 00000000     ................
e000fd2c:	00000000 00000000 00000000 00000000     ................
e000fd3c:	00000000 00000000 00000000 00000000     ................
e000fd4c:	00000000 00000000 00000000 00000000     ................
e000fd5c:	00000000 00000000 00000000 00000000     ................
e000fd6c:	00000000 00000000 00000000 00000000     ................
e000fd7c:	00000000 00000000 00000000 00000000     ................
e000fd8c:	00000000 00000000 00000000 00000000     ................
e000fd9c:	00000000 00000000 00000000 00000000     ................
e000fdac:	00000000 00000000 00000000 00000000     ................
e000fdbc:	00000000 00000000 00000000 00000000     ................
e000fdcc:	00000000 00000000 00000000 00000000     ................
e000fddc:	00000000 00000000 00000000 00000000     ................
e000fdec:	00000000 00000000 00000000 00000000     ................
e000fdfc:	00000000 00000000 00000000 00000000     ................
e000fe0c:	00000000 00000000 00000000 00000000     ................
e000fe1c:	00000000 00000000 00000000 00000000     ................
e000fe2c:	00000000 00000000 00000000 00000000     ................
e000fe3c:	00000000 00000000 00000000 00000000     ................
e000fe4c:	00000000 00000000 00000000 00000000     ................
e000fe5c:	00000000 00000000 00000000 00000000     ................
e000fe6c:	00000000 00000000 00000000 00000000     ................
e000fe7c:	00000000 00000000 00000000 00000000     ................
e000fe8c:	00000000 00000000 00000000 00000000     ................
e000fe9c:	00000000 00000000 00000000 00000000     ................
e000feac:	00000000 00000000 00000000 00000000     ................
e000febc:	00000000 00000000 00000000 00000000     ................
e000fecc:	00000000 00000000 00000000 00000000     ................
e000fedc:	00000000 00000000 00000000 00000000     ................
e000feec:	00000000 00000000 00000000 00000000     ................
e000fefc:	00000000 00000000 00000000 00000000     ................
e000ff0c:	00000000 00000000 00000000 00000000     ................
e000ff1c:	00000000 00000000 00000000 00000000     ................
e000ff2c:	00000000 00000000 00000000 00000000     ................
e000ff3c:	00000000 00000000 00000000 00000000     ................
e000ff4c:	00000000 00000000 00000000 00000000     ................
e000ff5c:	00000000 00000000 00000000 00000000     ................
e000ff6c:	00000000 00000000 00000000 00000000     ................
e000ff7c:	00000000 00000000 00000000 00000000     ................
e000ff8c:	00000000 00000000 00000000 00000000     ................
e000ff9c:	00000000 00000000 00000000 00000000     ................
e000ffac:	00000000 00000000 00000000 00000000     ................
e000ffbc:	00000000 00000000 00000000 00000000     ................
e000ffcc:	00000000 00000000 00000000 00000000     ................
e000ffdc:	00000000 00000000 00000000 00000000     ................
e000ffec:	00000000 00000000 00000000 00000000     ................
e000fffc:	00000000                                ....

Disassembly of section .text:

e0010000 <arm_vector_table>:
e0010000:	e59ff018 	ldr	pc, [pc, #24]	@ e0010020 <arm_vector_table+0x20>
e0010004:	e59ff018 	ldr	pc, [pc, #24]	@ e0010024 <arm_vector_table+0x24>
e0010008:	e59ff018 	ldr	pc, [pc, #24]	@ e0010028 <arm_vector_table+0x28>
e001000c:	e59ff018 	ldr	pc, [pc, #24]	@ e001002c <arm_vector_table+0x2c>
e0010010:	e59ff018 	ldr	pc, [pc, #24]	@ e0010030 <arm_vector_table+0x30>
e0010014:	e59ff004 	ldr	pc, [pc, #4]	@ e0010020 <arm_vector_table+0x20>
e0010018:	e59ff014 	ldr	pc, [pc, #20]	@ e0010034 <arm_vector_table+0x34>
e001001c:	e59ff014 	ldr	pc, [pc, #20]	@ e0010038 <arm_vector_table+0x38>
e0010020:	e0010110 	.word	0xe0010110
e0010024:	e001003c 	.word	0xe001003c
e0010028:	e001005c 	.word	0xe001005c
e001002c:	e0010088 	.word	0xe0010088
e0010030:	e00100b8 	.word	0xe00100b8
e0010034:	e00100ec 	.word	0xe00100ec
e0010038:	e0010114 	.word	0xe0010114

e001003c <arm_undefined_inst_exception>:
e001003c:	f8cd0513 	srsia	sp, #19
e0010040:	f1020013 	cps	#19
e0010044:	e94d7fff 	stmdb	sp, {r0, r1, r2, r3, r4, r5, r6, r7, r8, r9, sl, fp, ip, sp, lr}^
e0010048:	e59d8000 	ldr	r8, [sp]
e001004c:	e2488004 	sub	r8, r8, #4
e0010050:	e58d8008 	str	r8, [sp, #8]
e0010054:	ee1ddf90 	mrc	15, 0, sp, cr13, cr0, {4}
e0010058:	ea00003a 	b	e0010148 <c_handle_undefined_instruction>

e001005c <arm_swi_syscall>:
e001005c:	f8cd0513 	srsia	sp, #19
e0010060:	e24ee004 	sub	lr, lr, #4
e0010064:	e58de008 	str	lr, [sp, #8]
e0010068:	e94d7fff 	stmdb	sp, {r0, r1, r2, r3, r4, r5, r6, r7, r8, r9, sl, fp, ip, sp, lr}^
e001006c:	ee1ddf90 	mrc	15, 0, sp, cr13, cr0, {4}
e0010070:	e3770001 	cmn	r7, #1
e0010074:	0a000059 	beq	e00101e0 <c_handle_fastpath_call>
e0010078:	e3770002 	cmn	r7, #2
e001007c:	0a000107 	beq	e00104a0 <c_handle_fastpath_reply_recv>
e0010080:	e1a02007 	mov	r2, r7
e0010084:	ea0001c1 	b	e0010790 <c_handle_syscall>

e0010088 <arm_prefetch_abort_exception>:
e0010088:	f8cd0513 	srsia	sp, #19
e001008c:	f1020013 	cps	#19
e0010090:	e94d7fff 	stmdb	sp, {r0, r1, r2, r3, r4, r5, r6, r7, r8, r9, sl, fp, ip, sp, lr}^
e0010094:	e89d0300 	ldm	sp, {r8, r9}
e0010098:	e319000f 	tst	r9, #15
e001009c:	e2488004 	sub	r8, r8, #4
e00100a0:	1a000002 	bne	e00100b0 <kernel_prefetch_fault>
e00100a4:	e58d8008 	str	r8, [sp, #8]
e00100a8:	ee1ddf90 	mrc	15, 0, sp, cr13, cr0, {4}
e00100ac:	ea00003c 	b	e00101a4 <c_handle_instruction_fault>

e00100b0 <kernel_prefetch_fault>:
e00100b0:	ee159f30 	mrc	15, 0, r9, cr5, cr0, {1}
e00100b4:	eafffffe 	b	e00100b4 <kernel_prefetch_fault+0x4>

e00100b8 <arm_data_abort_exception>:
e00100b8:	f8cd0513 	srsia	sp, #19
e00100bc:	f1020013 	cps	#19
e00100c0:	e94d7fff 	stmdb	sp, {r0, r1, r2, r3, r4, r5, r6, r7, r8, r9, sl, fp, ip, sp, lr}^
e00100c4:	e89d0300 	ldm	sp, {r8, r9}
e00100c8:	e319000f 	tst	r9, #15
e00100cc:	e2488008 	sub	r8, r8, #8
e00100d0:	1a000002 	bne	e00100e0 <kernel_data_fault>
e00100d4:	e58d8008 	str	r8, [sp, #8]
e00100d8:	ee1ddf90 	mrc	15, 0, sp, cr13, cr0, {4}
e00100dc:	ea000025 	b	e0010178 <c_handle_data_fault>

e00100e0 <kernel_data_fault>:
e00100e0:	ee159f10 	mrc	15, 0, r9, cr5, cr0, {0}
e00100e4:	ee16af10 	mrc	15, 0, sl, cr6, cr0, {0}
e00100e8:	eafffffe 	b	e00100e8 <kernel_data_fault+0x8>

e00100ec <arm_irq_exception>:
e00100ec:	f8cd0513 	srsia	sp, #19
e00100f0:	f1020013 	cps	#19
e00100f4:	e94d7fff 	stmdb	sp, {r0, r1, r2, r3, r4, r5, r6, r7, r8, r9, sl, fp, ip, sp, lr}^
e00100f8:	e59d8000 	ldr	r8, [sp]
e00100fc:	e2488004 	sub	r8, r8, #4
e0010100:	e58d8000 	str	r8, [sp]
e0010104:	e58d8008 	str	r8, [sp, #8]
e0010108:	ee1ddf90 	mrc	15, 0, sp, cr13, cr0, {4}
e001010c:	ea000003 	b	e0010120 <c_handle_interrupt>

e0010110 <arm_reset_exception>:
e0010110:	eb000203 	bl	e0010924 <halt>

e0010114 <arm_fiq_exception>:
e0010114:	eb000202 	bl	e0010924 <halt>
e0010118:	00000000 	andeq	r0, r0, r0
e001011c:	00000000 	andeq	r0, r0, r0

e0010120 <c_handle_interrupt>:
e0010120:	e92d4010 	push	{r4, lr}
e0010124:	e30c3000 	movw	r3, #49152	@ 0xc000
e0010128:	e34e3001 	movt	r3, #57345	@ 0xe001
e001012c:	e5933840 	ldr	r3, [r3, #2112]	@ 0x840
e0010130:	ee1d2f50 	mrc	15, 0, r2, cr13, cr0, {2}
e0010134:	e5832048 	str	r2, [r3, #72]	@ 0x48
e0010138:	ee1d2f70 	mrc	15, 0, r2, cr13, cr0, {3}
e001013c:	e583204c 	str	r2, [r3, #76]	@ 0x4c
e0010140:	eb001a3d 	bl	e0016a3c <handleInterruptEntry>
e0010144:	eb0001eb 	bl	e00108f8 <restore_user_context>

e0010148 <c_handle_undefined_instruction>:
e0010148:	e92d4010 	push	{r4, lr}
e001014c:	e30c3000 	movw	r3, #49152	@ 0xc000
e0010150:	e34e3001 	movt	r3, #57345	@ 0xe001
e0010154:	e5933840 	ldr	r3, [r3, #2112]	@ 0x840
e0010158:	ee1d2f50 	mrc	15, 0, r2, cr13, cr0, {2}
e001015c:	e5832048 	str	r2, [r3, #72]	@ 0x48
e0010160:	ee1d2f70 	mrc	15, 0, r2, cr13, cr0, {3}
e0010164:	e583204c 	str	r2, [r3, #76]	@ 0x4c
e0010168:	e3a01000 	mov	r1, #0
e001016c:	e1a00001 	mov	r0, r1
e0010170:	eb001c73 	bl	e0017344 <handleUserLevelFault>
e0010174:	eb0001df 	bl	e00108f8 <restore_user_context>

e0010178 <c_handle_data_fault>:
e0010178:	e92d4010 	push	{r4, lr}
e001017c:	e30c3000 	movw	r3, #49152	@ 0xc000
e0010180:	e34e3001 	movt	r3, #57345	@ 0xe001
e0010184:	e5933840 	ldr	r3, [r3, #2112]	@ 0x840
e0010188:	ee1d2f50 	mrc	15, 0, r2, cr13, cr0, {2}
e001018c:	e5832048 	str	r2, [r3, #72]	@ 0x48
e0010190:	ee1d2f70 	mrc	15, 0, r2, cr13, cr0, {3}
e0010194:	e583204c 	str	r2, [r3, #76]	@ 0x4c
e0010198:	e3a00000 	mov	r0, #0
e001019c:	eb001c75 	bl	e0017378 <handleVMFaultEvent>
e00101a0:	eb0001d4 	bl	e00108f8 <restore_user_context>

e00101a4 <c_handle_instruction_fault>:
e00101a4:	e92d4010 	push	{r4, lr}
e00101a8:	e30c3000 	movw	r3, #49152	@ 0xc000
e00101ac:	e34e3001 	movt	r3, #57345	@ 0xe001
e00101b0:	e5933840 	ldr	r3, [r3, #2112]	@ 0x840
e00101b4:	ee1d2f50 	mrc	15, 0, r2, cr13, cr0, {2}
e00101b8:	e5832048 	str	r2, [r3, #72]	@ 0x48
e00101bc:	ee1d2f70 	mrc	15, 0, r2, cr13, cr0, {3}
e00101c0:	e583204c 	str	r2, [r3, #76]	@ 0x4c
e00101c4:	e3a00001 	mov	r0, #1
e00101c8:	eb001c6a 	bl	e0017378 <handleVMFaultEvent>
e00101cc:	eb0001c9 	bl	e00108f8 <restore_user_context>
e00101d0:	e320f000 	nop	{0}
e00101d4:	e320f000 	nop	{0}
e00101d8:	e320f000 	nop	{0}
e00101dc:	e320f000 	nop	{0}

e00101e0 <c_handle_fastpath_call>:
e00101e0:	e92d4880 	push	{r7, fp, lr}
e00101e4:	e24dd014 	sub	sp, sp, #20
e00101e8:	e1a06001 	mov	r6, r1
e00101ec:	e30c3000 	movw	r3, #49152	@ 0xc000
e00101f0:	e34e3001 	movt	r3, #57345	@ 0xe001
e00101f4:	e5932840 	ldr	r2, [r3, #2112]	@ 0x840
e00101f8:	ee1d3f50 	mrc	15, 0, r3, cr13, cr0, {2}
e00101fc:	e5823048 	str	r3, [r2, #72]	@ 0x48
e0010200:	ee1d3f70 	mrc	15, 0, r3, cr13, cr0, {3}
e0010204:	e582304c 	str	r3, [r2, #76]	@ 0x4c
e0010208:	e7e83051 	ubfx	r3, r1, #0, #9
e001020c:	e2833003 	add	r3, r3, #3
e0010210:	e3c33007 	bic	r3, r3, #7
e0010214:	e5921060 	ldr	r1, [r2, #96]	@ 0x60
e0010218:	e201100f 	and	r1, r1, #15
e001021c:	e1933001 	orrs	r3, r3, r1
e0010220:	1a000080 	bne	e0010428 <c_handle_fastpath_call+0x248>
e0010224:	e3c23f7f 	bic	r3, r2, #508	@ 0x1fc
e0010228:	e3c33003 	bic	r3, r3, #3
e001022c:	e5935000 	ldr	r5, [r3]
e0010230:	e5934004 	ldr	r4, [r3, #4]
e0010234:	e205300f 	and	r3, r5, #15
e0010238:	e353000a 	cmp	r3, #10
e001023c:	1a00007f 	bne	e0010440 <c_handle_fastpath_call+0x260>
e0010240:	e3a01000 	mov	r1, #0
e0010244:	e7e4cbd4 	ubfx	ip, r4, #23, #5
e0010248:	e7e4e954 	ubfx	lr, r4, #18, #5
e001024c:	e1a03110 	lsl	r3, r0, r1
e0010250:	e7f14054 	ubfx	r4, r4, #0, #18
e0010254:	e35c0000 	cmp	ip, #0
e0010258:	0a000002 	beq	e0010268 <c_handle_fastpath_call+0x88>
e001025c:	e26c7020 	rsb	r7, ip, #32
e0010260:	e1540733 	cmp	r4, r3, lsr r7
e0010264:	1a000075 	bne	e0010440 <c_handle_fastpath_call+0x260>
e0010268:	e1a03c13 	lsl	r3, r3, ip
e001026c:	e26e4020 	rsb	r4, lr, #32
e0010270:	e1a03433 	lsr	r3, r3, r4
e0010274:	e3c5501f 	bic	r5, r5, #31
e0010278:	e0854203 	add	r4, r5, r3, lsl #4
e001027c:	e7955203 	ldr	r5, [r5, r3, lsl #4]
e0010280:	e5944004 	ldr	r4, [r4, #4]
e0010284:	e08ec00c 	add	ip, lr, ip
e0010288:	e081100c 	add	r1, r1, ip
e001028c:	e351001f 	cmp	r1, #31
e0010290:	9a000066 	bls	e0010430 <c_handle_fastpath_call+0x250>
e0010294:	e3510020 	cmp	r1, #32
e0010298:	8a000068 	bhi	e0010440 <c_handle_fastpath_call+0x260>
e001029c:	e205300f 	and	r3, r5, #15
e00102a0:	e3530004 	cmp	r3, #4
e00102a4:	1a000065 	bne	e0010440 <c_handle_fastpath_call+0x260>
e00102a8:	e3140001 	tst	r4, #1
e00102ac:	0a000063 	beq	e0010440 <c_handle_fastpath_call+0x260>
e00102b0:	e3c4900f 	bic	r9, r4, #15
e00102b4:	e5998004 	ldr	r8, [r9, #4]
e00102b8:	e3c8700f 	bic	r7, r8, #15
e00102bc:	e5993000 	ldr	r3, [r9]
e00102c0:	e2033003 	and	r3, r3, #3
e00102c4:	e3530002 	cmp	r3, #2
e00102c8:	1a00005e 	bne	e0010448 <c_handle_fastpath_call+0x268>
e00102cc:	e3c88f7f 	bic	r8, r8, #508	@ 0x1fc
e00102d0:	e3c88003 	bic	r8, r8, #3
e00102d4:	e5983010 	ldr	r3, [r8, #16]
e00102d8:	e3c3adff 	bic	sl, r3, #16320	@ 0x3fc0
e00102dc:	e3caa03f 	bic	sl, sl, #63	@ 0x3f
e00102e0:	e203301f 	and	r3, r3, #31
e00102e4:	e3530019 	cmp	r3, #25
e00102e8:	1a000058 	bne	e0010450 <c_handle_fastpath_call+0x270>
e00102ec:	e28a3a03 	add	r3, sl, #12288	@ 0x3000
e00102f0:	e593bfc0 	ldr	fp, [r3, #4032]	@ 0xfc0
e00102f4:	e30c3000 	movw	r3, #49152	@ 0xc000
e00102f8:	e34e3001 	movt	r3, #57345	@ 0xe001
e00102fc:	e5933b04 	ldr	r3, [r3, #2820]	@ 0xb04
e0010300:	e58d3004 	str	r3, [sp, #4]
e0010304:	e5971078 	ldr	r1, [r7, #120]	@ 0x78
e0010308:	e5923078 	ldr	r3, [r2, #120]	@ 0x78
e001030c:	e1510003 	cmp	r1, r3
e0010310:	3a000050 	bcc	e0010458 <c_handle_fastpath_call+0x278>
e0010314:	e1a031a4 	lsr	r3, r4, #3
e0010318:	e1834124 	orr	r4, r3, r4, lsr #2
e001031c:	e3140001 	tst	r4, #1
e0010320:	0a000052 	beq	e0010470 <c_handle_fastpath_call+0x290>
e0010324:	e31b0502 	tst	fp, #8388608	@ 0x800000
e0010328:	0a000052 	beq	e0010478 <c_handle_fastpath_call+0x298>
e001032c:	e5973070 	ldr	r3, [r7, #112]	@ 0x70
e0010330:	e59d2004 	ldr	r2, [sp, #4]
e0010334:	e1520003 	cmp	r2, r3
e0010338:	1a000050 	bne	e0010480 <c_handle_fastpath_call+0x2a0>
e001033c:	e5973090 	ldr	r3, [r7, #144]	@ 0x90
e0010340:	e5893004 	str	r3, [r9, #4]
e0010344:	e5973090 	ldr	r3, [r7, #144]	@ 0x90
e0010348:	e3530000 	cmp	r3, #0
e001034c:	13a02000 	movne	r2, #0
e0010350:	15832094 	strne	r2, [r3, #148]	@ 0x94
e0010354:	03a03000 	moveq	r3, #0
e0010358:	05893000 	streq	r3, [r9]
e001035c:	e1a05225 	lsr	r5, r5, #4
e0010360:	e30c1000 	movw	r1, #49152	@ 0xc000
e0010364:	e34e1001 	movt	r1, #57345	@ 0xe001
e0010368:	e591c840 	ldr	ip, [r1, #2112]	@ 0x840
e001036c:	e3a03005 	mov	r3, #5
e0010370:	e58c3050 	str	r3, [ip, #80]	@ 0x50
e0010374:	e3cc2f7f 	bic	r2, ip, #508	@ 0x1fc
e0010378:	e3c22003 	bic	r2, r2, #3
e001037c:	e2822020 	add	r2, r2, #32
e0010380:	e2880030 	add	r0, r8, #48	@ 0x30
e0010384:	e5973058 	ldr	r3, [r7, #88]	@ 0x58
e0010388:	e1a03103 	lsl	r3, r3, #2
e001038c:	e2033020 	and	r3, r3, #32
e0010390:	e183300c 	orr	r3, r3, ip
e0010394:	e3833008 	orr	r3, r3, #8
e0010398:	e5883030 	str	r3, [r8, #48]	@ 0x30
e001039c:	e5882038 	str	r2, [r8, #56]	@ 0x38
e00103a0:	e3800003 	orr	r0, r0, #3
e00103a4:	e582000c 	str	r0, [r2, #12]
e00103a8:	e5913840 	ldr	r3, [r1, #2112]	@ 0x840
e00103ac:	e216007f 	ands	r0, r6, #127	@ 0x7f
e00103b0:	0a000006 	beq	e00103d0 <c_handle_fastpath_call+0x1f0>
e00103b4:	e2833004 	add	r3, r3, #4
e00103b8:	e2872004 	add	r2, r7, #4
e00103bc:	e0830100 	add	r0, r3, r0, lsl #2
e00103c0:	e5b31004 	ldr	r1, [r3, #4]!
e00103c4:	e5a21004 	str	r1, [r2, #4]!
e00103c8:	e1500003 	cmp	r0, r3
e00103cc:	1afffffb 	bne	e00103c0 <c_handle_fastpath_call+0x1e0>
e00103d0:	e3a03001 	mov	r3, #1
e00103d4:	e5873050 	str	r3, [r7, #80]	@ 0x50
e00103d8:	e1a01c2b 	lsr	r1, fp, #24
e00103dc:	e1a0000a 	mov	r0, sl
e00103e0:	eb0000fe 	bl	e00107e0 <armv_contextSwitch_HWASID>
e00103e4:	e30c3000 	movw	r3, #49152	@ 0xc000
e00103e8:	e34e3001 	movt	r3, #57345	@ 0xe001
e00103ec:	e5837840 	str	r7, [r3, #2112]	@ 0x840
e00103f0:	e3a03000 	mov	r3, #0
e00103f4:	e28d200c 	add	r2, sp, #12
e00103f8:	e1823f92 	strex	r3, r2, [r2]
e00103fc:	e3c61c0e 	bic	r1, r6, #3584	@ 0xe00
e0010400:	e5973048 	ldr	r3, [r7, #72]	@ 0x48
e0010404:	ee0d3f50 	mcr	15, 0, r3, cr13, cr0, {2}
e0010408:	e597304c 	ldr	r3, [r7, #76]	@ 0x4c
e001040c:	ee0d3f70 	mcr	15, 0, r3, cr13, cr0, {3}
e0010410:	e1a00005 	mov	r0, r5
e0010414:	e1a02007 	mov	r2, r7
e0010418:	e1a0d002 	mov	sp, r2
e001041c:	e28dd03c 	add	sp, sp, #60	@ 0x3c
e0010420:	e95d7ffc 	ldmdb	sp, {r2, r3, r4, r5, r6, r7, r8, r9, sl, fp, ip, sp, lr}^
e0010424:	f89d0a00 	rfeia	sp
e0010428:	e3e00000 	mvn	r0, #0
e001042c:	eb002b11 	bl	e001b078 <slowpath>
e0010430:	e205300f 	and	r3, r5, #15
e0010434:	e353000a 	cmp	r3, #10
e0010438:	1affff97 	bne	e001029c <c_handle_fastpath_call+0xbc>
e001043c:	eaffff80 	b	e0010244 <c_handle_fastpath_call+0x64>
e0010440:	e3e00000 	mvn	r0, #0
e0010444:	eb002b0b 	bl	e001b078 <slowpath>
e0010448:	e3e00000 	mvn	r0, #0
e001044c:	eb002b09 	bl	e001b078 <slowpath>
e0010450:	e3e00000 	mvn	r0, #0
e0010454:	eb002b07 	bl	e001b078 <slowpath>
e0010458:	e59d0004 	ldr	r0, [sp, #4]
e001045c:	eb00010e 	bl	e001089c <isHighestPrio>
e0010460:	e3500000 	cmp	r0, #0
e0010464:	1affffaa 	bne	e0010314 <c_handle_fastpath_call+0x134>
e0010468:	e3e00000 	mvn	r0, #0
e001046c:	eb002b01 	bl	e001b078 <slowpath>
e0010470:	e3e00000 	mvn	r0, #0
e0010474:	eb002aff 	bl	e001b078 <slowpath>
e0010478:	e3e00000 	mvn	r0, #0
e001047c:	eb002afd 	bl	e001b078 <slowpath>
e0010480:	e3e00000 	mvn	r0, #0
e0010484:	eb002afb 	bl	e001b078 <slowpath>
e0010488:	e320f000 	nop	{0}
e001048c:	e320f000 	nop	{0}
e0010490:	e320f000 	nop	{0}
e0010494:	e320f000 	nop	{0}
e0010498:	e320f000 	nop	{0}
e001049c:	e320f000 	nop	{0}

e00104a0 <c_handle_fastpath_reply_recv>:
e00104a0:	e92d4880 	push	{r7, fp, lr}
e00104a4:	e24dd014 	sub	sp, sp, #20
e00104a8:	e30c3000 	movw	r3, #49152	@ 0xc000
e00104ac:	e34e3001 	movt	r3, #57345	@ 0xe001
e00104b0:	e5935840 	ldr	r5, [r3, #2112]	@ 0x840
e00104b4:	ee1d3f50 	mrc	15, 0, r3, cr13, cr0, {2}
e00104b8:	e5853048 	str	r3, [r5, #72]	@ 0x48
e00104bc:	ee1d3f70 	mrc	15, 0, r3, cr13, cr0, {3}
e00104c0:	e585304c 	str	r3, [r5, #76]	@ 0x4c
e00104c4:	e7e83051 	ubfx	r3, r1, #0, #9
e00104c8:	e2833003 	add	r3, r3, #3
e00104cc:	e3c33007 	bic	r3, r3, #7
e00104d0:	e5952060 	ldr	r2, [r5, #96]	@ 0x60
e00104d4:	e202200f 	and	r2, r2, #15
e00104d8:	e1933002 	orrs	r3, r3, r2
e00104dc:	1a00008f 	bne	e0010720 <c_handle_fastpath_reply_recv+0x280>
e00104e0:	e1a06001 	mov	r6, r1
e00104e4:	e3c57f7f 	bic	r7, r5, #508	@ 0x1fc
e00104e8:	e3c77003 	bic	r7, r7, #3
e00104ec:	e5973000 	ldr	r3, [r7]
e00104f0:	e5974004 	ldr	r4, [r7, #4]
e00104f4:	e203200f 	and	r2, r3, #15
e00104f8:	e352000a 	cmp	r2, #10
e00104fc:	1a00008d 	bne	e0010738 <c_handle_fastpath_reply_recv+0x298>
e0010500:	e3a0e000 	mov	lr, #0
e0010504:	e7e41bd4 	ubfx	r1, r4, #23, #5
e0010508:	e7e4c954 	ubfx	ip, r4, #18, #5
e001050c:	e1a02e10 	lsl	r2, r0, lr
e0010510:	e7f14054 	ubfx	r4, r4, #0, #18
e0010514:	e3510000 	cmp	r1, #0
e0010518:	0a000002 	beq	e0010528 <c_handle_fastpath_reply_recv+0x88>
e001051c:	e2618020 	rsb	r8, r1, #32
e0010520:	e1540832 	cmp	r4, r2, lsr r8
e0010524:	1a000083 	bne	e0010738 <c_handle_fastpath_reply_recv+0x298>
e0010528:	e1a02112 	lsl	r2, r2, r1
e001052c:	e26c4020 	rsb	r4, ip, #32
e0010530:	e1a02432 	lsr	r2, r2, r4
e0010534:	e3c3301f 	bic	r3, r3, #31
e0010538:	e0834202 	add	r4, r3, r2, lsl #4
e001053c:	e7933202 	ldr	r3, [r3, r2, lsl #4]
e0010540:	e5944004 	ldr	r4, [r4, #4]
e0010544:	e08c1001 	add	r1, ip, r1
e0010548:	e08ee001 	add	lr, lr, r1
e001054c:	e35e001f 	cmp	lr, #31
e0010550:	9a000074 	bls	e0010728 <c_handle_fastpath_reply_recv+0x288>
e0010554:	e35e0020 	cmp	lr, #32
e0010558:	8a000076 	bhi	e0010738 <c_handle_fastpath_reply_recv+0x298>
e001055c:	e203300f 	and	r3, r3, #15
e0010560:	e3530004 	cmp	r3, #4
e0010564:	1a000073 	bne	e0010738 <c_handle_fastpath_reply_recv+0x298>
e0010568:	e3140002 	tst	r4, #2
e001056c:	0a000071 	beq	e0010738 <c_handle_fastpath_reply_recv+0x298>
e0010570:	e595305c 	ldr	r3, [r5, #92]	@ 0x5c
e0010574:	e3530000 	cmp	r3, #0
e0010578:	1a000070 	bne	e0010740 <c_handle_fastpath_reply_recv+0x2a0>
e001057c:	e3c4900f 	bic	r9, r4, #15
e0010580:	e5993000 	ldr	r3, [r9]
e0010584:	e2033003 	and	r3, r3, #3
e0010588:	e3530001 	cmp	r3, #1
e001058c:	0a000071 	beq	e0010758 <c_handle_fastpath_reply_recv+0x2b8>
e0010590:	e287b030 	add	fp, r7, #48	@ 0x30
e0010594:	e5973030 	ldr	r3, [r7, #48]	@ 0x30
e0010598:	e203201f 	and	r2, r3, #31
e001059c:	e3520008 	cmp	r2, #8
e00105a0:	1a00006e 	bne	e0010760 <c_handle_fastpath_reply_recv+0x2c0>
e00105a4:	e3c3803f 	bic	r8, r3, #63	@ 0x3f
e00105a8:	e5982060 	ldr	r2, [r8, #96]	@ 0x60
e00105ac:	e312000f 	tst	r2, #15
e00105b0:	1a00006c 	bne	e0010768 <c_handle_fastpath_reply_recv+0x2c8>
e00105b4:	e3c33f7f 	bic	r3, r3, #508	@ 0x1fc
e00105b8:	e3c33003 	bic	r3, r3, #3
e00105bc:	e5933010 	ldr	r3, [r3, #16]
e00105c0:	e3c3adff 	bic	sl, r3, #16320	@ 0x3fc0
e00105c4:	e3caa03f 	bic	sl, sl, #63	@ 0x3f
e00105c8:	e203301f 	and	r3, r3, #31
e00105cc:	e3530019 	cmp	r3, #25
e00105d0:	1a000066 	bne	e0010770 <c_handle_fastpath_reply_recv+0x2d0>
e00105d4:	e28a3a03 	add	r3, sl, #12288	@ 0x3000
e00105d8:	e5933fc0 	ldr	r3, [r3, #4032]	@ 0xfc0
e00105dc:	e58d3000 	str	r3, [sp]
e00105e0:	e30c3000 	movw	r3, #49152	@ 0xc000
e00105e4:	e34e3001 	movt	r3, #57345	@ 0xe001
e00105e8:	e5933b04 	ldr	r3, [r3, #2820]	@ 0xb04
e00105ec:	e58d3004 	str	r3, [sp, #4]
e00105f0:	e5981078 	ldr	r1, [r8, #120]	@ 0x78
e00105f4:	e1a00003 	mov	r0, r3
e00105f8:	eb0000a7 	bl	e001089c <isHighestPrio>
e00105fc:	e3500000 	cmp	r0, #0
e0010600:	0a00005c 	beq	e0010778 <c_handle_fastpath_reply_recv+0x2d8>
e0010604:	e59d3000 	ldr	r3, [sp]
e0010608:	e3130502 	tst	r3, #8388608	@ 0x800000
e001060c:	0a00005b 	beq	e0010780 <c_handle_fastpath_reply_recv+0x2e0>
e0010610:	e5983070 	ldr	r3, [r8, #112]	@ 0x70
e0010614:	e59d2004 	ldr	r2, [sp, #4]
e0010618:	e1520003 	cmp	r2, r3
e001061c:	1a000059 	bne	e0010788 <c_handle_fastpath_reply_recv+0x2e8>
e0010620:	e3893003 	orr	r3, r9, #3
e0010624:	e5853050 	str	r3, [r5, #80]	@ 0x50
e0010628:	e1a04084 	lsl	r4, r4, #1
e001062c:	e2044008 	and	r4, r4, #8
e0010630:	e5953058 	ldr	r3, [r5, #88]	@ 0x58
e0010634:	e3c33008 	bic	r3, r3, #8
e0010638:	e1844003 	orr	r4, r4, r3
e001063c:	e5854058 	str	r4, [r5, #88]	@ 0x58
e0010640:	e5993000 	ldr	r3, [r9]
e0010644:	e3d3300f 	bics	r3, r3, #15
e0010648:	03a03000 	moveq	r3, #0
e001064c:	05853094 	streq	r3, [r5, #148]	@ 0x94
e0010650:	05853090 	streq	r3, [r5, #144]	@ 0x90
e0010654:	05895004 	streq	r5, [r9, #4]
e0010658:	15835090 	strne	r5, [r3, #144]	@ 0x90
e001065c:	15853094 	strne	r3, [r5, #148]	@ 0x94
e0010660:	13a03000 	movne	r3, #0
e0010664:	15853090 	strne	r3, [r5, #144]	@ 0x90
e0010668:	e3855002 	orr	r5, r5, #2
e001066c:	e5895000 	str	r5, [r9]
e0010670:	e59b3008 	ldr	r3, [fp, #8]
e0010674:	e3c33007 	bic	r3, r3, #7
e0010678:	e3a02003 	mov	r2, #3
e001067c:	e583200c 	str	r2, [r3, #12]
e0010680:	e3a03000 	mov	r3, #0
e0010684:	e5873030 	str	r3, [r7, #48]	@ 0x30
e0010688:	e58b3004 	str	r3, [fp, #4]
e001068c:	e58b3008 	str	r3, [fp, #8]
e0010690:	e58b300c 	str	r3, [fp, #12]
e0010694:	e30c3000 	movw	r3, #49152	@ 0xc000
e0010698:	e34e3001 	movt	r3, #57345	@ 0xe001
e001069c:	e5933840 	ldr	r3, [r3, #2112]	@ 0x840
e00106a0:	e216007f 	ands	r0, r6, #127	@ 0x7f
e00106a4:	0a000006 	beq	e00106c4 <c_handle_fastpath_reply_recv+0x224>
e00106a8:	e2833004 	add	r3, r3, #4
e00106ac:	e2882004 	add	r2, r8, #4
e00106b0:	e0830100 	add	r0, r3, r0, lsl #2
e00106b4:	e5b31004 	ldr	r1, [r3, #4]!
e00106b8:	e5a21004 	str	r1, [r2, #4]!
e00106bc:	e1500003 	cmp	r0, r3
e00106c0:	1afffffb 	bne	e00106b4 <c_handle_fastpath_reply_recv+0x214>
e00106c4:	e3a03001 	mov	r3, #1
e00106c8:	e5883050 	str	r3, [r8, #80]	@ 0x50
e00106cc:	e59d3000 	ldr	r3, [sp]
e00106d0:	e1a01c23 	lsr	r1, r3, #24
e00106d4:	e1a0000a 	mov	r0, sl
e00106d8:	eb000040 	bl	e00107e0 <armv_contextSwitch_HWASID>
e00106dc:	e30c3000 	movw	r3, #49152	@ 0xc000
e00106e0:	e34e3001 	movt	r3, #57345	@ 0xe001
e00106e4:	e5838840 	str	r8, [r3, #2112]	@ 0x840
e00106e8:	e3a00000 	mov	r0, #0
e00106ec:	e1a03000 	mov	r3, r0
e00106f0:	e28d200c 	add	r2, sp, #12
e00106f4:	e1823f92 	strex	r3, r2, [r2]
e00106f8:	e3c61c0e 	bic	r1, r6, #3584	@ 0xe00
e00106fc:	e5983048 	ldr	r3, [r8, #72]	@ 0x48
e0010700:	ee0d3f50 	mcr	15, 0, r3, cr13, cr0, {2}
e0010704:	e598304c 	ldr	r3, [r8, #76]	@ 0x4c
e0010708:	ee0d3f70 	mcr	15, 0, r3, cr13, cr0, {3}
e001070c:	e1a02008 	mov	r2, r8
e0010710:	e1a0d002 	mov	sp, r2
e0010714:	e28dd03c 	add	sp, sp, #60	@ 0x3c
e0010718:	e95d7ffc 	ldmdb	sp, {r2, r3, r4, r5, r6, r7, r8, r9, sl, fp, ip, sp, lr}^
e001071c:	f89d0a00 	rfeia	sp
e0010720:	e3e00001 	mvn	r0, #1
e0010724:	eb002a53 	bl	e001b078 <slowpath>
e0010728:	e203200f 	and	r2, r3, #15
e001072c:	e352000a 	cmp	r2, #10
e0010730:	1affff89 	bne	e001055c <c_handle_fastpath_reply_recv+0xbc>
e0010734:	eaffff72 	b	e0010504 <c_handle_fastpath_reply_recv+0x64>
e0010738:	e3e00001 	mvn	r0, #1
e001073c:	eb002a4d 	bl	e001b078 <slowpath>
e0010740:	e5933000 	ldr	r3, [r3]
e0010744:	e2033003 	and	r3, r3, #3
e0010748:	e3530002 	cmp	r3, #2
e001074c:	1affff8a 	bne	e001057c <c_handle_fastpath_reply_recv+0xdc>
e0010750:	e3e00001 	mvn	r0, #1
e0010754:	eb002a47 	bl	e001b078 <slowpath>
e0010758:	e3e00001 	mvn	r0, #1
e001075c:	eb002a45 	bl	e001b078 <slowpath>
e0010760:	e3e00001 	mvn	r0, #1
e0010764:	eb002a43 	bl	e001b078 <slowpath>
e0010768:	e3e00001 	mvn	r0, #1
e001076c:	eb002a41 	bl	e001b078 <slowpath>
e0010770:	e3e00001 	mvn	r0, #1
e0010774:	eb002a3f 	bl	e001b078 <slowpath>
e0010778:	e3e00001 	mvn	r0, #1
e001077c:	eb002a3d 	bl	e001b078 <slowpath>
e0010780:	e3e00001 	mvn	r0, #1
e0010784:	eb002a3b 	bl	e001b078 <slowpath>
e0010788:	e3e00001 	mvn	r0, #1
e001078c:	eb002a39 	bl	e001b078 <slowpath>

e0010790 <c_handle_syscall>:
e0010790:	e92d4010 	push	{r4, lr}
e0010794:	e1a00002 	mov	r0, r2
e0010798:	e30c3000 	movw	r3, #49152	@ 0xc000
e001079c:	e34e3001 	movt	r3, #57345	@ 0xe001
e00107a0:	e5933840 	ldr	r3, [r3, #2112]	@ 0x840
e00107a4:	ee1d2f50 	mrc	15, 0, r2, cr13, cr0, {2}
e00107a8:	e5832048 	str	r2, [r3, #72]	@ 0x48
e00107ac:	ee1d2f70 	mrc	15, 0, r2, cr13, cr0, {3}
e00107b0:	e583204c 	str	r2, [r3, #76]	@ 0x4c
e00107b4:	eb002a2f 	bl	e001b078 <slowpath>
e00107b8:	00000000 	andeq	r0, r0, r0
e00107bc:	00000000 	andeq	r0, r0, r0

e00107c0 <lockTLBEntryCritical>:
e00107c0:	ee080f37 	mcr	15, 0, r0, cr8, cr7, {1}
e00107c4:	ee0a1f30 	mcr	15, 0, r1, cr10, cr0, {1}
e00107c8:	ee0a0f31 	mcr	15, 0, r0, cr10, cr1, {1}
e00107cc:	ee0a2f30 	mcr	15, 0, r2, cr10, cr0, {1}
e00107d0:	ee0a1f10 	mcr	15, 0, r1, cr10, cr0, {0}
e00107d4:	ee0a0f11 	mcr	15, 0, r0, cr10, cr1, {0}
e00107d8:	ee0a2f10 	mcr	15, 0, r2, cr10, cr0, {0}
e00107dc:	e12fff1e 	bx	lr

e00107e0 <armv_contextSwitch_HWASID>:
e00107e0:	f57ff04f 	dsb	sy
e00107e4:	e59f302c 	ldr	r3, [pc, #44]	@ e0010818 <armv_contextSwitch_HWASID+0x38>
e00107e8:	e3833018 	orr	r3, r3, #24
e00107ec:	ee023f10 	mcr	15, 0, r3, cr2, cr0, {0}
e00107f0:	f57ff06f 	isb	sy
e00107f4:	ee0d1f30 	mcr	15, 0, r1, cr13, cr0, {1}
e00107f8:	f57ff06f 	isb	sy
e00107fc:	e2800203 	add	r0, r0, #805306368	@ 0x30000000
e0010800:	e3c00d7f 	bic	r0, r0, #8128	@ 0x1fc0
e0010804:	e3c0003f 	bic	r0, r0, #63	@ 0x3f
e0010808:	e3800018 	orr	r0, r0, #24
e001080c:	ee020f10 	mcr	15, 0, r0, cr2, cr0, {0}
e0010810:	f57ff06f 	isb	sy
e0010814:	e12fff1e 	bx	lr
e0010818:	10030000 	.word	0x10030000

e001081c <idle_thread>:
e001081c:	e320f003 	wfi
e0010820:	eafffffd 	b	e001081c <idle_thread>

e0010824 <loadHWASID>:
e0010824:	e30c3000 	movw	r3, #49152	@ 0xc000
e0010828:	e34e3001 	movt	r3, #57345	@ 0xe001
e001082c:	e1a02520 	lsr	r2, r0, #10
e0010830:	e7933102 	ldr	r3, [r3, r2, lsl #2]
e0010834:	e7e90050 	ubfx	r0, r0, #0, #10
e0010838:	e7933100 	ldr	r3, [r3, r0, lsl #2]
e001083c:	e2833a03 	add	r3, r3, #12288	@ 0x3000
e0010840:	e5930fc0 	ldr	r0, [r3, #4032]	@ 0xfc0
e0010844:	e12fff1e 	bx	lr

e0010848 <invalidateASIDEntry>:
e0010848:	e92d4010 	push	{r4, lr}
e001084c:	e1a04000 	mov	r4, r0
e0010850:	ebfffff3 	bl	e0010824 <loadHWASID>
e0010854:	e3100502 	tst	r0, #8388608	@ 0x800000
e0010858:	0a000005 	beq	e0010874 <invalidateASIDEntry+0x2c>
e001085c:	e30c3000 	movw	r3, #49152	@ 0xc000
e0010860:	e34e3001 	movt	r3, #57345	@ 0xe001
e0010864:	e1a00c20 	lsr	r0, r0, #24
e0010868:	e0830100 	add	r0, r3, r0, lsl #2
e001086c:	e3a03000 	mov	r3, #0
e0010870:	e5803200 	str	r3, [r0, #512]	@ 0x200
e0010874:	e30c3000 	movw	r3, #49152	@ 0xc000
e0010878:	e34e3001 	movt	r3, #57345	@ 0xe001
e001087c:	e1a02524 	lsr	r2, r4, #10
e0010880:	e7933102 	ldr	r3, [r3, r2, lsl #2]
e0010884:	e7e94054 	ubfx	r4, r4, #0, #10
e0010888:	e7933104 	ldr	r3, [r3, r4, lsl #2]
e001088c:	e2833a03 	add	r3, r3, #12288	@ 0x3000
e0010890:	e3a02000 	mov	r2, #0
e0010894:	e5832fc0 	str	r2, [r3, #4032]	@ 0xfc0
e0010898:	e8bd8010 	pop	{r4, pc}

e001089c <isHighestPrio>:
e001089c:	e30c3000 	movw	r3, #49152	@ 0xc000
e00108a0:	e34e3001 	movt	r3, #57345	@ 0xe001
e00108a4:	e0833100 	add	r3, r3, r0, lsl #2
e00108a8:	e5933600 	ldr	r3, [r3, #1536]	@ 0x600
e00108ac:	e3530000 	cmp	r3, #0
e00108b0:	0a00000e 	beq	e00108f0 <isHighestPrio+0x54>
e00108b4:	e16f3f13 	clz	r3, r3
e00108b8:	e30c2000 	movw	r2, #49152	@ 0xc000
e00108bc:	e34e2001 	movt	r2, #57345	@ 0xe001
e00108c0:	e243c018 	sub	ip, r3, #24
e00108c4:	e08c0180 	add	r0, ip, r0, lsl #3
e00108c8:	e0822100 	add	r2, r2, r0, lsl #2
e00108cc:	e5920640 	ldr	r0, [r2, #1600]	@ 0x640
e00108d0:	e16f0f10 	clz	r0, r0
e00108d4:	e263301f 	rsb	r3, r3, #31
e00108d8:	e260001f 	rsb	r0, r0, #31
e00108dc:	e1803283 	orr	r3, r0, r3, lsl #5
e00108e0:	e1510003 	cmp	r1, r3
e00108e4:	33a00000 	movcc	r0, #0
e00108e8:	23a00001 	movcs	r0, #1
e00108ec:	e12fff1e 	bx	lr
e00108f0:	e3a00001 	mov	r0, #1
e00108f4:	e12fff1e 	bx	lr

e00108f8 <restore_user_context>:
e00108f8:	e30c3000 	movw	r3, #49152	@ 0xc000
e00108fc:	e34e3001 	movt	r3, #57345	@ 0xe001
e0010900:	e5933840 	ldr	r3, [r3, #2112]	@ 0x840
e0010904:	e5932048 	ldr	r2, [r3, #72]	@ 0x48
e0010908:	ee0d2f50 	mcr	15, 0, r2, cr13, cr0, {2}
e001090c:	e593204c 	ldr	r2, [r3, #76]	@ 0x4c
e0010910:	ee0d2f70 	mcr	15, 0, r2, cr13, cr0, {3}
e0010914:	e283303c 	add	r3, r3, #60	@ 0x3c
e0010918:	e1a0d003 	mov	sp, r3
e001091c:	e95d7fff 	ldmdb	sp, {r0, r1, r2, r3, r4, r5, r6, r7, r8, r9, sl, fp, ip, sp, lr}^
e0010920:	f89d0a00 	rfeia	sp

e0010924 <halt>:
e0010924:	e92d4010 	push	{r4, lr}
e0010928:	f10c01c0 	cpsid	aif
e001092c:	ebffffba 	bl	e001081c <idle_thread>

e0010930 <setMRs_lookup_failure>:
e0010930:	e92d4010 	push	{r4, lr}
e0010934:	e24dd008 	sub	sp, sp, #8
e0010938:	e1a0e000 	mov	lr, r0
e001093c:	e28d0008 	add	r0, sp, #8
e0010940:	e900000c 	stmdb	r0, {r2, r3}
e0010944:	e59d3010 	ldr	r3, [sp, #16]
e0010948:	e202c003 	and	ip, r2, #3
e001094c:	e28c4001 	add	r4, ip, #1
e0010950:	e3530003 	cmp	r3, #3
e0010954:	9a00000a 	bls	e0010984 <setMRs_lookup_failure+0x54>
e0010958:	e3510000 	cmp	r1, #0
e001095c:	03a00004 	moveq	r0, #4
e0010960:	12830001 	addne	r0, r3, #1
e0010964:	17814100 	strne	r4, [r1, r0, lsl #2]
e0010968:	e35c0003 	cmp	ip, #3
e001096c:	979ff10c 	ldrls	pc, [pc, ip, lsl #2]
e0010970:	ea000063 	b	e0010b04 <setMRs_lookup_failure+0x1d4>
e0010974:	e00109bc 	.word	0xe00109bc
e0010978:	e001099c 	.word	0xe001099c
e001097c:	e00109dc 	.word	0xe00109dc
e0010980:	e0010a5c 	.word	0xe0010a5c
e0010984:	e30b0228 	movw	r0, #45608	@ 0xb228
e0010988:	e34e0001 	movt	r0, #57345	@ 0xe001
e001098c:	e7900103 	ldr	r0, [r0, r3, lsl #2]
e0010990:	e78e4100 	str	r4, [lr, r0, lsl #2]
e0010994:	e2830001 	add	r0, r3, #1
e0010998:	eafffff2 	b	e0010968 <setMRs_lookup_failure+0x38>
e001099c:	e2830001 	add	r0, r3, #1
e00109a0:	e7e52152 	ubfx	r2, r2, #2, #6
e00109a4:	e3500003 	cmp	r0, #3
e00109a8:	9a000005 	bls	e00109c4 <setMRs_lookup_failure+0x94>
e00109ac:	e3510000 	cmp	r1, #0
e00109b0:	03a00004 	moveq	r0, #4
e00109b4:	12830002 	addne	r0, r3, #2
e00109b8:	17812100 	strne	r2, [r1, r0, lsl #2]
e00109bc:	e28dd008 	add	sp, sp, #8
e00109c0:	e8bd8010 	pop	{r4, pc}
e00109c4:	e30b1228 	movw	r1, #45608	@ 0xb228
e00109c8:	e34e1001 	movt	r1, #57345	@ 0xe001
e00109cc:	e7911100 	ldr	r1, [r1, r0, lsl #2]
e00109d0:	e78e2101 	str	r2, [lr, r1, lsl #2]
e00109d4:	e2830002 	add	r0, r3, #2
e00109d8:	eafffff7 	b	e00109bc <setMRs_lookup_failure+0x8c>
e00109dc:	e2830001 	add	r0, r3, #1
e00109e0:	e7e5c152 	ubfx	ip, r2, #2, #6
e00109e4:	e3500003 	cmp	r0, #3
e00109e8:	9a000009 	bls	e0010a14 <setMRs_lookup_failure+0xe4>
e00109ec:	e3510000 	cmp	r1, #0
e00109f0:	0a000044 	beq	e0010b08 <setMRs_lookup_failure+0x1d8>
e00109f4:	e2830002 	add	r0, r3, #2
e00109f8:	e781c100 	str	ip, [r1, r0, lsl #2]
e00109fc:	e7e52452 	ubfx	r2, r2, #8, #6
e0010a00:	e3500003 	cmp	r0, #3
e0010a04:	9a00000e 	bls	e0010a44 <setMRs_lookup_failure+0x114>
e0010a08:	e2830003 	add	r0, r3, #3
e0010a0c:	e7812100 	str	r2, [r1, r0, lsl #2]
e0010a10:	eaffffe9 	b	e00109bc <setMRs_lookup_failure+0x8c>
e0010a14:	e30b4228 	movw	r4, #45608	@ 0xb228
e0010a18:	e34e4001 	movt	r4, #57345	@ 0xe001
e0010a1c:	e7940100 	ldr	r0, [r4, r0, lsl #2]
e0010a20:	e78ec100 	str	ip, [lr, r0, lsl #2]
e0010a24:	e2830002 	add	r0, r3, #2
e0010a28:	e7e52452 	ubfx	r2, r2, #8, #6
e0010a2c:	e3500003 	cmp	r0, #3
e0010a30:	9a000003 	bls	e0010a44 <setMRs_lookup_failure+0x114>
e0010a34:	e3510000 	cmp	r1, #0
e0010a38:	03a00004 	moveq	r0, #4
e0010a3c:	1afffff1 	bne	e0010a08 <setMRs_lookup_failure+0xd8>
e0010a40:	eaffffdd 	b	e00109bc <setMRs_lookup_failure+0x8c>
e0010a44:	e30b1228 	movw	r1, #45608	@ 0xb228
e0010a48:	e34e1001 	movt	r1, #57345	@ 0xe001
e0010a4c:	e7911100 	ldr	r1, [r1, r0, lsl #2]
e0010a50:	e78e2101 	str	r2, [lr, r1, lsl #2]
e0010a54:	e2830003 	add	r0, r3, #3
e0010a58:	eaffffd7 	b	e00109bc <setMRs_lookup_failure+0x8c>
e0010a5c:	e2830001 	add	r0, r3, #1
e0010a60:	e7e5c452 	ubfx	ip, r2, #8, #6
e0010a64:	e3500003 	cmp	r0, #3
e0010a68:	9a00000e 	bls	e0010aa8 <setMRs_lookup_failure+0x178>
e0010a6c:	e3510000 	cmp	r1, #0
e0010a70:	0a000038 	beq	e0010b58 <setMRs_lookup_failure+0x228>
e0010a74:	e2830002 	add	r0, r3, #2
e0010a78:	e781c100 	str	ip, [r1, r0, lsl #2]
e0010a7c:	e59dc004 	ldr	ip, [sp, #4]
e0010a80:	e3500003 	cmp	r0, #3
e0010a84:	9a000025 	bls	e0010b20 <setMRs_lookup_failure+0x1f0>
e0010a88:	e2830003 	add	r0, r3, #3
e0010a8c:	e781c100 	str	ip, [r1, r0, lsl #2]
e0010a90:	e7e52152 	ubfx	r2, r2, #2, #6
e0010a94:	e3500003 	cmp	r0, #3
e0010a98:	9a000028 	bls	e0010b40 <setMRs_lookup_failure+0x210>
e0010a9c:	e2830004 	add	r0, r3, #4
e0010aa0:	e7812100 	str	r2, [r1, r0, lsl #2]
e0010aa4:	eaffffc4 	b	e00109bc <setMRs_lookup_failure+0x8c>
e0010aa8:	e30b4228 	movw	r4, #45608	@ 0xb228
e0010aac:	e34e4001 	movt	r4, #57345	@ 0xe001
e0010ab0:	e7940100 	ldr	r0, [r4, r0, lsl #2]
e0010ab4:	e78ec100 	str	ip, [lr, r0, lsl #2]
e0010ab8:	e2830002 	add	r0, r3, #2
e0010abc:	e59dc004 	ldr	ip, [sp, #4]
e0010ac0:	e3500003 	cmp	r0, #3
e0010ac4:	9a000002 	bls	e0010ad4 <setMRs_lookup_failure+0x1a4>
e0010ac8:	e3510000 	cmp	r1, #0
e0010acc:	1affffed 	bne	e0010a88 <setMRs_lookup_failure+0x158>
e0010ad0:	ea000024 	b	e0010b68 <setMRs_lookup_failure+0x238>
e0010ad4:	e30b4228 	movw	r4, #45608	@ 0xb228
e0010ad8:	e34e4001 	movt	r4, #57345	@ 0xe001
e0010adc:	e7940100 	ldr	r0, [r4, r0, lsl #2]
e0010ae0:	e78ec100 	str	ip, [lr, r0, lsl #2]
e0010ae4:	e2830003 	add	r0, r3, #3
e0010ae8:	e7e52152 	ubfx	r2, r2, #2, #6
e0010aec:	e3500003 	cmp	r0, #3
e0010af0:	9a000012 	bls	e0010b40 <setMRs_lookup_failure+0x210>
e0010af4:	e3510000 	cmp	r1, #0
e0010af8:	03a00004 	moveq	r0, #4
e0010afc:	1affffe6 	bne	e0010a9c <setMRs_lookup_failure+0x16c>
e0010b00:	eaffffad 	b	e00109bc <setMRs_lookup_failure+0x8c>
e0010b04:	ebffff86 	bl	e0010924 <halt>
e0010b08:	e2830002 	add	r0, r3, #2
e0010b0c:	e3500003 	cmp	r0, #3
e0010b10:	97e52452 	ubfxls	r2, r2, #8, #6
e0010b14:	9affffca 	bls	e0010a44 <setMRs_lookup_failure+0x114>
e0010b18:	e3a00004 	mov	r0, #4
e0010b1c:	eaffffa6 	b	e00109bc <setMRs_lookup_failure+0x8c>
e0010b20:	e30b4228 	movw	r4, #45608	@ 0xb228
e0010b24:	e34e4001 	movt	r4, #57345	@ 0xe001
e0010b28:	e7940100 	ldr	r0, [r4, r0, lsl #2]
e0010b2c:	e78ec100 	str	ip, [lr, r0, lsl #2]
e0010b30:	e2830003 	add	r0, r3, #3
e0010b34:	e7e52152 	ubfx	r2, r2, #2, #6
e0010b38:	e3500003 	cmp	r0, #3
e0010b3c:	8affffd6 	bhi	e0010a9c <setMRs_lookup_failure+0x16c>
e0010b40:	e30b1228 	movw	r1, #45608	@ 0xb228
e0010b44:	e34e1001 	movt	r1, #57345	@ 0xe001
e0010b48:	e7911100 	ldr	r1, [r1, r0, lsl #2]
e0010b4c:	e78e2101 	str	r2, [lr, r1, lsl #2]
e0010b50:	e2830004 	add	r0, r3, #4
e0010b54:	eaffff98 	b	e00109bc <setMRs_lookup_failure+0x8c>
e0010b58:	e2830002 	add	r0, r3, #2
e0010b5c:	e59dc004 	ldr	ip, [sp, #4]
e0010b60:	e3500003 	cmp	r0, #3
e0010b64:	9affffda 	bls	e0010ad4 <setMRs_lookup_failure+0x1a4>
e0010b68:	e2830003 	add	r0, r3, #3
e0010b6c:	e3500003 	cmp	r0, #3
e0010b70:	97e52152 	ubfxls	r2, r2, #2, #6
e0010b74:	9afffff1 	bls	e0010b40 <setMRs_lookup_failure+0x210>
e0010b78:	e3a00004 	mov	r0, #4
e0010b7c:	eaffff8e 	b	e00109bc <setMRs_lookup_failure+0x8c>

e0010b80 <APFromVMRights>:
e0010b80:	e3500003 	cmp	r0, #3
e0010b84:	979ff100 	ldrls	pc, [pc, r0, lsl #2]
e0010b88:	ea000003 	b	e0010b9c <APFromVMRights+0x1c>
e0010b8c:	e0010ba4 	.word	0xe0010ba4
e0010b90:	e0010ba4 	.word	0xe0010ba4
e0010b94:	e0010ba4 	.word	0xe0010ba4
e0010b98:	e0010ba4 	.word	0xe0010ba4
e0010b9c:	e92d4010 	push	{r4, lr}
e0010ba0:	ebffff5f 	bl	e0010924 <halt>
e0010ba4:	e12fff1e 	bx	lr

e0010ba8 <makeUserPDE>:
e0010ba8:	e92d41f0 	push	{r4, r5, r6, r7, r8, lr}
e0010bac:	e1a06000 	mov	r6, r0
e0010bb0:	e1a05001 	mov	r5, r1
e0010bb4:	e1a04002 	mov	r4, r2
e0010bb8:	e1a07003 	mov	r7, r3
e0010bbc:	e59d0020 	ldr	r0, [sp, #32]
e0010bc0:	ebffffee 	bl	e0010b80 <APFromVMRights>
e0010bc4:	e3560002 	cmp	r6, #2
e0010bc8:	0a00001a 	beq	e0010c38 <makeUserPDE+0x90>
e0010bcc:	e3560003 	cmp	r6, #3
e0010bd0:	03a02001 	moveq	r2, #1
e0010bd4:	1a000016 	bne	e0010c34 <makeUserPDE+0x8c>
e0010bd8:	e3570000 	cmp	r7, #0
e0010bdc:	e59d3018 	ldr	r3, [sp, #24]
e0010be0:	e1a03203 	lsl	r3, r3, #4
e0010be4:	e2033010 	and	r3, r3, #16
e0010be8:	e1833902 	orr	r3, r3, r2, lsl #18
e0010bec:	e59d201c 	ldr	r2, [sp, #28]
e0010bf0:	e1a02282 	lsl	r2, r2, #5
e0010bf4:	e2022e1e 	and	r2, r2, #480	@ 0x1e0
e0010bf8:	e1833002 	orr	r3, r3, r2
e0010bfc:	e1a05a25 	lsr	r5, r5, #20
e0010c00:	e1a05a05 	lsl	r5, r5, #20
e0010c04:	e1833005 	orr	r3, r3, r5
e0010c08:	e1a04484 	lsl	r4, r4, #9
e0010c0c:	e2044c02 	and	r4, r4, #512	@ 0x200
e0010c10:	e1833004 	orr	r3, r3, r4
e0010c14:	e1a00500 	lsl	r0, r0, #10
e0010c18:	e2000b03 	and	r0, r0, #3072	@ 0xc00
e0010c1c:	e1830000 	orr	r0, r3, r0
e0010c20:	13800a25 	orrne	r0, r0, #151552	@ 0x25000
e0010c24:	13800006 	orrne	r0, r0, #6
e0010c28:	03800803 	orreq	r0, r0, #196608	@ 0x30000
e0010c2c:	03800002 	orreq	r0, r0, #2
e0010c30:	e8bd81f0 	pop	{r4, r5, r6, r7, r8, pc}
e0010c34:	ebffff3a 	bl	e0010924 <halt>
e0010c38:	e3a02000 	mov	r2, #0
e0010c3c:	eaffffe5 	b	e0010bd8 <makeUserPDE+0x30>

e0010c40 <Arch_activateIdleThread>:
e0010c40:	e12fff1e 	bx	lr

e0010c44 <maskVMRights>:
e0010c44:	e3500000 	cmp	r0, #0
e0010c48:	012fff1e 	bxeq	lr
e0010c4c:	e3500002 	cmp	r0, #2
e0010c50:	0a000003 	beq	e0010c64 <maskVMRights+0x20>
e0010c54:	e3500003 	cmp	r0, #3
e0010c58:	0a000004 	beq	e0010c70 <maskVMRights+0x2c>
e0010c5c:	e3a00001 	mov	r0, #1
e0010c60:	e12fff1e 	bx	lr
e0010c64:	e7e000d1 	ubfx	r0, r1, #1, #1
e0010c68:	e2800001 	add	r0, r0, #1
e0010c6c:	e12fff1e 	bx	lr
e0010c70:	e3110002 	tst	r1, #2
e0010c74:	0a000002 	beq	e0010c84 <maskVMRights+0x40>
e0010c78:	e2010001 	and	r0, r1, #1
e0010c7c:	e2800002 	add	r0, r0, #2
e0010c80:	e12fff1e 	bx	lr
e0010c84:	e3a00001 	mov	r0, #1
e0010c88:	e12fff1e 	bx	lr

e0010c8c <findPDForASID>:
e0010c8c:	e30c3000 	movw	r3, #49152	@ 0xc000
e0010c90:	e34e3001 	movt	r3, #57345	@ 0xe001
e0010c94:	e1a02521 	lsr	r2, r1, #10
e0010c98:	e7933102 	ldr	r3, [r3, r2, lsl #2]
e0010c9c:	e3530000 	cmp	r3, #0
e0010ca0:	0a000007 	beq	e0010cc4 <findPDForASID+0x38>
e0010ca4:	e7e91051 	ubfx	r1, r1, #0, #10
e0010ca8:	e7933101 	ldr	r3, [r3, r1, lsl #2]
e0010cac:	e3530000 	cmp	r3, #0
e0010cb0:	0a00000c 	beq	e0010ce8 <findPDForASID+0x5c>
e0010cb4:	e3a02000 	mov	r2, #0
e0010cb8:	e5802000 	str	r2, [r0]
e0010cbc:	e5803004 	str	r3, [r0, #4]
e0010cc0:	e12fff1e 	bx	lr
e0010cc4:	e30c3000 	movw	r3, #49152	@ 0xc000
e0010cc8:	e34e3001 	movt	r3, #57345	@ 0xe001
e0010ccc:	e3a02000 	mov	r2, #0
e0010cd0:	e5832844 	str	r2, [r3, #2116]	@ 0x844
e0010cd4:	e5832848 	str	r2, [r3, #2120]	@ 0x848
e0010cd8:	e3a03002 	mov	r3, #2
e0010cdc:	e5803000 	str	r3, [r0]
e0010ce0:	e5802004 	str	r2, [r0, #4]
e0010ce4:	e12fff1e 	bx	lr
e0010ce8:	e30c3000 	movw	r3, #49152	@ 0xc000
e0010cec:	e34e3001 	movt	r3, #57345	@ 0xe001
e0010cf0:	e3a02000 	mov	r2, #0
e0010cf4:	e5832844 	str	r2, [r3, #2116]	@ 0x844
e0010cf8:	e5832848 	str	r2, [r3, #2120]	@ 0x848
e0010cfc:	e3a03002 	mov	r3, #2
e0010d00:	e5803000 	str	r3, [r0]
e0010d04:	e5802004 	str	r2, [r0, #4]
e0010d08:	e12fff1e 	bx	lr

e0010d0c <lookupIPCBuffer>:
e0010d0c:	e92d4010 	push	{r4, lr}
e0010d10:	e591e084 	ldr	lr, [r1, #132]	@ 0x84
e0010d14:	e3c11f7f 	bic	r1, r1, #508	@ 0x1fc
e0010d18:	e3c11003 	bic	r1, r1, #3
e0010d1c:	e5913040 	ldr	r3, [r1, #64]	@ 0x40
e0010d20:	e5911044 	ldr	r1, [r1, #68]	@ 0x44
e0010d24:	e203200e 	and	r2, r3, #14
e0010d28:	e352000e 	cmp	r2, #14
e0010d2c:	1203200f 	andne	r2, r3, #15
e0010d30:	06ef2073 	uxtbeq	r2, r3
e0010d34:	e3c2c002 	bic	ip, r2, #2
e0010d38:	e35c0001 	cmp	ip, #1
e0010d3c:	1a000034 	bne	e0010e14 <lookupIPCBuffer+0x108>
e0010d40:	e6efc072 	uxtb	ip, r2
e0010d44:	e35c0001 	cmp	ip, #1
e0010d48:	0a000011 	beq	e0010d94 <lookupIPCBuffer+0x88>
e0010d4c:	e3130202 	tst	r3, #536870912	@ 0x20000000
e0010d50:	1a000033 	bne	e0010e24 <lookupIPCBuffer+0x118>
e0010d54:	e3520003 	cmp	r2, #3
e0010d58:	1a000016 	bne	e0010db8 <lookupIPCBuffer+0xac>
e0010d5c:	e7e12951 	ubfx	r2, r1, #18, #2
e0010d60:	e3520003 	cmp	r2, #3
e0010d64:	1a000032 	bne	e0010e34 <lookupIPCBuffer+0x128>
e0010d68:	e1a03503 	lsl	r3, r3, #10
e0010d6c:	e3c3cdff 	bic	ip, r3, #16320	@ 0x3fc0
e0010d70:	e3ccc03f 	bic	ip, ip, #63	@ 0x3f
e0010d74:	e1a01f21 	lsr	r1, r1, #30
e0010d78:	e3510003 	cmp	r1, #3
e0010d7c:	979ff101 	ldrls	pc, [pc, r1, lsl #2]
e0010d80:	ea00001e 	b	e0010e00 <lookupIPCBuffer+0xf4>
e0010d84:	e0010e04 	.word	0xe0010e04
e0010d88:	e0010de4 	.word	0xe0010de4
e0010d8c:	e0010e0c 	.word	0xe0010e0c
e0010d90:	e0010dec 	.word	0xe0010dec
e0010d94:	e1b0cfa3 	lsrs	ip, r3, #31
e0010d98:	1a00001f 	bne	e0010e1c <lookupIPCBuffer+0x110>
e0010d9c:	e7e14a51 	ubfx	r4, r1, #20, #2
e0010da0:	e3540003 	cmp	r4, #3
e0010da4:	1a000005 	bne	e0010dc0 <lookupIPCBuffer+0xb4>
e0010da8:	e1a03403 	lsl	r3, r3, #8
e0010dac:	e3c3ceff 	bic	ip, r3, #4080	@ 0xff0
e0010db0:	e3ccc00f 	bic	ip, ip, #15
e0010db4:	ea000008 	b	e0010ddc <lookupIPCBuffer+0xd0>
e0010db8:	e3a00000 	mov	r0, #0
e0010dbc:	e8bd8010 	pop	{r4, pc}
e0010dc0:	e3500000 	cmp	r0, #0
e0010dc4:	03540002 	cmpeq	r4, #2
e0010dc8:	1a000017 	bne	e0010e2c <lookupIPCBuffer+0x120>
e0010dcc:	e3520001 	cmp	r2, #1
e0010dd0:	0afffff4 	beq	e0010da8 <lookupIPCBuffer+0x9c>
e0010dd4:	e3520003 	cmp	r2, #3
e0010dd8:	0affffe2 	beq	e0010d68 <lookupIPCBuffer+0x5c>
e0010ddc:	e3a0300c 	mov	r3, #12
e0010de0:	ea000002 	b	e0010df0 <lookupIPCBuffer+0xe4>
e0010de4:	e3a03010 	mov	r3, #16
e0010de8:	ea000000 	b	e0010df0 <lookupIPCBuffer+0xe4>
e0010dec:	e3a03018 	mov	r3, #24
e0010df0:	e3e00000 	mvn	r0, #0
e0010df4:	e1ce0310 	bic	r0, lr, r0, lsl r3
e0010df8:	e080000c 	add	r0, r0, ip
e0010dfc:	e8bd8010 	pop	{r4, pc}
e0010e00:	ebfffec7 	bl	e0010924 <halt>
e0010e04:	e3a0300c 	mov	r3, #12
e0010e08:	eafffff8 	b	e0010df0 <lookupIPCBuffer+0xe4>
e0010e0c:	e3a03014 	mov	r3, #20
e0010e10:	eafffff6 	b	e0010df0 <lookupIPCBuffer+0xe4>
e0010e14:	e3a00000 	mov	r0, #0
e0010e18:	e8bd8010 	pop	{r4, pc}
e0010e1c:	e3a00000 	mov	r0, #0
e0010e20:	e8bd8010 	pop	{r4, pc}
e0010e24:	e3a00000 	mov	r0, #0
e0010e28:	e8bd8010 	pop	{r4, pc}
e0010e2c:	e3a00000 	mov	r0, #0
e0010e30:	e8bd8010 	pop	{r4, pc}
e0010e34:	e3500000 	cmp	r0, #0
e0010e38:	03520002 	cmpeq	r2, #2
e0010e3c:	0affffc9 	beq	e0010d68 <lookupIPCBuffer+0x5c>
e0010e40:	e3a00000 	mov	r0, #0
e0010e44:	e8bd8010 	pop	{r4, pc}

e0010e48 <handleFaultReply>:
e0010e48:	e92d41f0 	push	{r4, r5, r6, r7, r8, lr}
e0010e4c:	e1a04000 	mov	r4, r0
e0010e50:	e5913004 	ldr	r3, [r1, #4]
e0010e54:	e203207f 	and	r2, r3, #127	@ 0x7f
e0010e58:	e3520078 	cmp	r2, #120	@ 0x78
e0010e5c:	83c3307f 	bichi	r3, r3, #127	@ 0x7f
e0010e60:	83833078 	orrhi	r3, r3, #120	@ 0x78
e0010e64:	e1a05623 	lsr	r5, r3, #12
e0010e68:	e203207f 	and	r2, r3, #127	@ 0x7f
e0010e6c:	e5903060 	ldr	r3, [r0, #96]	@ 0x60
e0010e70:	e203000f 	and	r0, r3, #15
e0010e74:	e3500002 	cmp	r0, #2
e0010e78:	0a000007 	beq	e0010e9c <handleFaultReply+0x54>
e0010e7c:	e3500003 	cmp	r0, #3
e0010e80:	0a000037 	beq	e0010f64 <handleFaultReply+0x11c>
e0010e84:	e3500001 	cmp	r0, #1
e0010e88:	08bd81f0 	popeq	{r4, r5, r6, r7, r8, pc}
e0010e8c:	e3500005 	cmp	r0, #5
e0010e90:	1a000066 	bne	e0011030 <handleFaultReply+0x1e8>
e0010e94:	e3a00001 	mov	r0, #1
e0010e98:	e8bd81f0 	pop	{r4, r5, r6, r7, r8, pc}
e0010e9c:	e352000c 	cmp	r2, #12
e0010ea0:	31a07002 	movcc	r7, r2
e0010ea4:	23a0700c 	movcs	r7, #12
e0010ea8:	e3520004 	cmp	r2, #4
e0010eac:	31a03002 	movcc	r3, r2
e0010eb0:	23a03004 	movcs	r3, #4
e0010eb4:	e3520000 	cmp	r2, #0
e0010eb8:	0a000026 	beq	e0010f58 <handleFaultReply+0x110>
e0010ebc:	e591c008 	ldr	ip, [r1, #8]
e0010ec0:	e30b6228 	movw	r6, #45608	@ 0xb228
e0010ec4:	e34e6001 	movt	r6, #57345	@ 0xe001
e0010ec8:	e2868014 	add	r8, r6, #20
e0010ecc:	e2866004 	add	r6, r6, #4
e0010ed0:	e3a00000 	mov	r0, #0
e0010ed4:	e1a0e000 	mov	lr, r0
e0010ed8:	ea000005 	b	e0010ef4 <handleFaultReply+0xac>
e0010edc:	e498e004 	ldr	lr, [r8], #4
e0010ee0:	e496c004 	ldr	ip, [r6], #4
e0010ee4:	e791c10c 	ldr	ip, [r1, ip, lsl #2]
e0010ee8:	e35e0010 	cmp	lr, #16
e0010eec:	020cc33e 	andeq	ip, ip, #-134217728	@ 0xf8000000
e0010ef0:	038cce15 	orreq	ip, ip, #336	@ 0x150
e0010ef4:	e784c10e 	str	ip, [r4, lr, lsl #2]
e0010ef8:	e2800001 	add	r0, r0, #1
e0010efc:	e1500003 	cmp	r0, r3
e0010f00:	3afffff5 	bcc	e0010edc <handleFaultReply+0x94>
e0010f04:	e3520000 	cmp	r2, #0
e0010f08:	11a06003 	movne	r6, r3
e0010f0c:	03a06001 	moveq	r6, #1
e0010f10:	e1570006 	cmp	r7, r6
e0010f14:	9a00000f 	bls	e0010f58 <handleFaultReply+0x110>
e0010f18:	e3a00000 	mov	r0, #0
e0010f1c:	ebffff7a 	bl	e0010d0c <lookupIPCBuffer>
e0010f20:	e3500000 	cmp	r0, #0
e0010f24:	0a00000b 	beq	e0010f58 <handleFaultReply+0x110>
e0010f28:	e59fc104 	ldr	ip, [pc, #260]	@ e0011034 <handleFaultReply+0x1ec>
e0010f2c:	e08cc106 	add	ip, ip, r6, lsl #2
e0010f30:	e0803106 	add	r3, r0, r6, lsl #2
e0010f34:	e0807107 	add	r7, r0, r7, lsl #2
e0010f38:	e49c1004 	ldr	r1, [ip], #4
e0010f3c:	e5b32004 	ldr	r2, [r3, #4]!
e0010f40:	e3510010 	cmp	r1, #16
e0010f44:	0202233e 	andeq	r2, r2, #-134217728	@ 0xf8000000
e0010f48:	03822e15 	orreq	r2, r2, #336	@ 0x150
e0010f4c:	e7842101 	str	r2, [r4, r1, lsl #2]
e0010f50:	e1570003 	cmp	r7, r3
e0010f54:	1afffff7 	bne	e0010f38 <handleFaultReply+0xf0>
e0010f58:	e16f0f15 	clz	r0, r5
e0010f5c:	e1a002a0 	lsr	r0, r0, #5
e0010f60:	e8bd81f0 	pop	{r4, r5, r6, r7, r8, pc}
e0010f64:	e3520003 	cmp	r2, #3
e0010f68:	31a07002 	movcc	r7, r2
e0010f6c:	23a07003 	movcs	r7, #3
e0010f70:	e1a03007 	mov	r3, r7
e0010f74:	e3520000 	cmp	r2, #0
e0010f78:	0a000029 	beq	e0011024 <handleFaultReply+0x1dc>
e0010f7c:	e5910008 	ldr	r0, [r1, #8]
e0010f80:	e30b6228 	movw	r6, #45608	@ 0xb228
e0010f84:	e34e6001 	movt	r6, #57345	@ 0xe001
e0010f88:	e2868044 	add	r8, r6, #68	@ 0x44
e0010f8c:	e2866004 	add	r6, r6, #4
e0010f90:	e3a0c000 	mov	ip, #0
e0010f94:	e3a0e011 	mov	lr, #17
e0010f98:	ea000005 	b	e0010fb4 <handleFaultReply+0x16c>
e0010f9c:	e498e004 	ldr	lr, [r8], #4
e0010fa0:	e4960004 	ldr	r0, [r6], #4
e0010fa4:	e7910100 	ldr	r0, [r1, r0, lsl #2]
e0010fa8:	e35e0010 	cmp	lr, #16
e0010fac:	0200033e 	andeq	r0, r0, #-134217728	@ 0xf8000000
e0010fb0:	03800e15 	orreq	r0, r0, #336	@ 0x150
e0010fb4:	e784010e 	str	r0, [r4, lr, lsl #2]
e0010fb8:	e28cc001 	add	ip, ip, #1
e0010fbc:	e15c0003 	cmp	ip, r3
e0010fc0:	3afffff5 	bcc	e0010f9c <handleFaultReply+0x154>
e0010fc4:	e3520000 	cmp	r2, #0
e0010fc8:	11a06003 	movne	r6, r3
e0010fcc:	03a06001 	moveq	r6, #1
e0010fd0:	e1570006 	cmp	r7, r6
e0010fd4:	9a000012 	bls	e0011024 <handleFaultReply+0x1dc>
e0010fd8:	e3a00000 	mov	r0, #0
e0010fdc:	ebffff4a 	bl	e0010d0c <lookupIPCBuffer>
e0010fe0:	e3500000 	cmp	r0, #0
e0010fe4:	0a00000e 	beq	e0011024 <handleFaultReply+0x1dc>
e0010fe8:	e286300c 	add	r3, r6, #12
e0010fec:	e1a03103 	lsl	r3, r3, #2
e0010ff0:	e59fc03c 	ldr	ip, [pc, #60]	@ e0011034 <handleFaultReply+0x1ec>
e0010ff4:	e08cc003 	add	ip, ip, r3
e0010ff8:	e2433030 	sub	r3, r3, #48	@ 0x30
e0010ffc:	e0803003 	add	r3, r0, r3
e0011000:	e0807107 	add	r7, r0, r7, lsl #2
e0011004:	e49c1004 	ldr	r1, [ip], #4
e0011008:	e5b32004 	ldr	r2, [r3, #4]!
e001100c:	e3510010 	cmp	r1, #16
e0011010:	0202233e 	andeq	r2, r2, #-134217728	@ 0xf8000000
e0011014:	03822e15 	orreq	r2, r2, #336	@ 0x150
e0011018:	e7842101 	str	r2, [r4, r1, lsl #2]
e001101c:	e1530007 	cmp	r3, r7
e0011020:	1afffff7 	bne	e0011004 <handleFaultReply+0x1bc>
e0011024:	e16f0f15 	clz	r0, r5
e0011028:	e1a002a0 	lsr	r0, r0, #5
e001102c:	e8bd81f0 	pop	{r4, r5, r6, r7, r8, pc}
e0011030:	ebfffe3b 	bl	e0010924 <halt>
e0011034:	e001b238 	.word	0xe001b238

e0011038 <checkValidIPCBuffer>:
e0011038:	e24dd008 	sub	sp, sp, #8
e001103c:	e28d3008 	add	r3, sp, #8
e0011040:	e9030006 	stmdb	r3, {r1, r2}
e0011044:	e1a03001 	mov	r3, r1
e0011048:	e201200e 	and	r2, r1, #14
e001104c:	e352000e 	cmp	r2, #14
e0011050:	1201200f 	andne	r2, r1, #15
e0011054:	06ef2071 	uxtbeq	r2, r1
e0011058:	e3c21002 	bic	r1, r2, #2
e001105c:	e3510001 	cmp	r1, #1
e0011060:	130c3000 	movwne	r3, #49152	@ 0xc000
e0011064:	134e3001 	movtne	r3, #57345	@ 0xe001
e0011068:	13a00003 	movne	r0, #3
e001106c:	15830864 	strne	r0, [r3, #2148]	@ 0x864
e0011070:	1a000010 	bne	e00110b8 <checkValidIPCBuffer+0x80>
e0011074:	e6ef2072 	uxtb	r2, r2
e0011078:	e3520001 	cmp	r2, #1
e001107c:	01a03fa3 	lsreq	r3, r3, #31
e0011080:	17e03ed3 	ubfxne	r3, r3, #29, #1
e0011084:	e3530000 	cmp	r3, #0
e0011088:	130c3000 	movwne	r3, #49152	@ 0xc000
e001108c:	134e3001 	movtne	r3, #57345	@ 0xe001
e0011090:	13a00003 	movne	r0, #3
e0011094:	15830864 	strne	r0, [r3, #2148]	@ 0x864
e0011098:	1a000006 	bne	e00110b8 <checkValidIPCBuffer+0x80>
e001109c:	e7e80050 	ubfx	r0, r0, #0, #9
e00110a0:	e3500000 	cmp	r0, #0
e00110a4:	130c3000 	movwne	r3, #49152	@ 0xc000
e00110a8:	134e3001 	movtne	r3, #57345	@ 0xe001
e00110ac:	13a02005 	movne	r2, #5
e00110b0:	15832864 	strne	r2, [r3, #2148]	@ 0x864
e00110b4:	13a00003 	movne	r0, #3
e00110b8:	e28dd008 	add	sp, sp, #8
e00110bc:	e12fff1e 	bx	lr

e00110c0 <lookupPDSlot>:
e00110c0:	e1a01a21 	lsr	r1, r1, #20
e00110c4:	e0800101 	add	r0, r0, r1, lsl #2
e00110c8:	e12fff1e 	bx	lr

e00110cc <lookupPTSlot>:
e00110cc:	e1a03a22 	lsr	r3, r2, #20
e00110d0:	e7913103 	ldr	r3, [r1, r3, lsl #2]
e00110d4:	e2031003 	and	r1, r3, #3
e00110d8:	e3510001 	cmp	r1, #1
e00110dc:	1a000008 	bne	e0011104 <lookupPTSlot+0x38>
e00110e0:	e3a01000 	mov	r1, #0
e00110e4:	e5801000 	str	r1, [r0]
e00110e8:	e3c33fff 	bic	r3, r3, #1020	@ 0x3fc
e00110ec:	e3c33003 	bic	r3, r3, #3
e00110f0:	e283320d 	add	r3, r3, #-805306368	@ 0xd0000000
e00110f4:	e7e72652 	ubfx	r2, r2, #12, #8
e00110f8:	e0833102 	add	r3, r3, r2, lsl #2
e00110fc:	e5803004 	str	r3, [r0, #4]
e0011100:	e12fff1e 	bx	lr
e0011104:	e30c3000 	movw	r3, #49152	@ 0xc000
e0011108:	e34e3001 	movt	r3, #57345	@ 0xe001
e001110c:	e3a02051 	mov	r2, #81	@ 0x51
e0011110:	e5832844 	str	r2, [r3, #2116]	@ 0x844
e0011114:	e3a02000 	mov	r2, #0
e0011118:	e5832848 	str	r2, [r3, #2120]	@ 0x848
e001111c:	e3a03002 	mov	r3, #2
e0011120:	e5803000 	str	r3, [r0]
e0011124:	e5802004 	str	r2, [r0, #4]
e0011128:	e12fff1e 	bx	lr

e001112c <isValidVTableRoot>:
e001112c:	e24dd008 	sub	sp, sp, #8
e0011130:	e28d3008 	add	r3, sp, #8
e0011134:	e9030003 	stmdb	r3, {r0, r1}
e0011138:	e200300e 	and	r3, r0, #14
e001113c:	e353000e 	cmp	r3, #14
e0011140:	1200300f 	andne	r3, r0, #15
e0011144:	06ef3070 	uxtbeq	r3, r0
e0011148:	e3530009 	cmp	r3, #9
e001114c:	07e00250 	ubfxeq	r0, r0, #4, #1
e0011150:	13a00000 	movne	r0, #0
e0011154:	e28dd008 	add	sp, sp, #8
e0011158:	e12fff1e 	bx	lr

e001115c <isIOSpaceFrameCap>:
e001115c:	e24dd008 	sub	sp, sp, #8
e0011160:	e28d3008 	add	r3, sp, #8
e0011164:	e9030003 	stmdb	r3, {r0, r1}
e0011168:	e3a00000 	mov	r0, #0
e001116c:	e28dd008 	add	sp, sp, #8
e0011170:	e12fff1e 	bx	lr

e0011174 <pageTableMapped>:
e0011174:	e92d4030 	push	{r4, r5, lr}
e0011178:	e24dd00c 	sub	sp, sp, #12
e001117c:	e1a04001 	mov	r4, r1
e0011180:	e1a05002 	mov	r5, r2
e0011184:	e1a01000 	mov	r1, r0
e0011188:	e1a0000d 	mov	r0, sp
e001118c:	ebfffebe 	bl	e0010c8c <findPDForASID>
e0011190:	e59d0004 	ldr	r0, [sp, #4]
e0011194:	e59d3000 	ldr	r3, [sp]
e0011198:	e3530000 	cmp	r3, #0
e001119c:	1a00000b 	bne	e00111d0 <pageTableMapped+0x5c>
e00111a0:	e1a01a24 	lsr	r1, r4, #20
e00111a4:	e7903101 	ldr	r3, [r0, r1, lsl #2]
e00111a8:	e2032003 	and	r2, r3, #3
e00111ac:	e3520001 	cmp	r2, #1
e00111b0:	1a000008 	bne	e00111d8 <pageTableMapped+0x64>
e00111b4:	e3c33fff 	bic	r3, r3, #1020	@ 0x3fc
e00111b8:	e3c33003 	bic	r3, r3, #3
e00111bc:	e283320d 	add	r3, r3, #-805306368	@ 0xd0000000
e00111c0:	e1550003 	cmp	r5, r3
e00111c4:	13a00000 	movne	r0, #0
e00111c8:	e28dd00c 	add	sp, sp, #12
e00111cc:	e8bd8030 	pop	{r4, r5, pc}
e00111d0:	e3a00000 	mov	r0, #0
e00111d4:	eafffffb 	b	e00111c8 <pageTableMapped+0x54>
e00111d8:	e3a00000 	mov	r0, #0
e00111dc:	eafffff9 	b	e00111c8 <pageTableMapped+0x54>

e00111e0 <findFreeHWASID>:
e00111e0:	e30c3000 	movw	r3, #49152	@ 0xc000
e00111e4:	e34e3001 	movt	r3, #57345	@ 0xe001
e00111e8:	e5d3c868 	ldrb	ip, [r3, #2152]	@ 0x868
e00111ec:	e3a03000 	mov	r3, #0
e00111f0:	e30c1000 	movw	r1, #49152	@ 0xc000
e00111f4:	e34e1001 	movt	r1, #57345	@ 0xe001
e00111f8:	e08c0003 	add	r0, ip, r3
e00111fc:	e6ef0070 	uxtb	r0, r0
e0011200:	e0812100 	add	r2, r1, r0, lsl #2
e0011204:	e5922200 	ldr	r2, [r2, #512]	@ 0x200
e0011208:	e3520000 	cmp	r2, #0
e001120c:	012fff1e 	bxeq	lr
e0011210:	e2833001 	add	r3, r3, #1
e0011214:	e3530c01 	cmp	r3, #256	@ 0x100
e0011218:	1afffff6 	bne	e00111f8 <findFreeHWASID+0x18>
e001121c:	e30c3000 	movw	r3, #49152	@ 0xc000
e0011220:	e34e3001 	movt	r3, #57345	@ 0xe001
e0011224:	e083110c 	add	r1, r3, ip, lsl #2
e0011228:	e5912200 	ldr	r2, [r1, #512]	@ 0x200
e001122c:	e1a00522 	lsr	r0, r2, #10
e0011230:	e7930100 	ldr	r0, [r3, r0, lsl #2]
e0011234:	e7e92052 	ubfx	r2, r2, #0, #10
e0011238:	e7902102 	ldr	r2, [r0, r2, lsl #2]
e001123c:	e2822a03 	add	r2, r2, #12288	@ 0x3000
e0011240:	e3a00000 	mov	r0, #0
e0011244:	e5820fc0 	str	r0, [r2, #4032]	@ 0xfc0
e0011248:	f57ff04f 	dsb	sy
e001124c:	ee08cf57 	mcr	15, 0, ip, cr8, cr7, {2}
e0011250:	f57ff04f 	dsb	sy
e0011254:	f57ff06f 	isb	sy
e0011258:	e5810200 	str	r0, [r1, #512]	@ 0x200
e001125c:	e5d32868 	ldrb	r2, [r3, #2152]	@ 0x868
e0011260:	e2822001 	add	r2, r2, #1
e0011264:	e5c32868 	strb	r2, [r3, #2152]	@ 0x868
e0011268:	e1a0000c 	mov	r0, ip
e001126c:	e12fff1e 	bx	lr

e0011270 <getHWASID>:
e0011270:	e92d4010 	push	{r4, lr}
e0011274:	e1a04000 	mov	r4, r0
e0011278:	ebfffd69 	bl	e0010824 <loadHWASID>
e001127c:	e3100502 	tst	r0, #8388608	@ 0x800000
e0011280:	0a000001 	beq	e001128c <getHWASID+0x1c>
e0011284:	e1a00c20 	lsr	r0, r0, #24
e0011288:	e8bd8010 	pop	{r4, pc}
e001128c:	ebffffd3 	bl	e00111e0 <findFreeHWASID>
e0011290:	e30c3000 	movw	r3, #49152	@ 0xc000
e0011294:	e34e3001 	movt	r3, #57345	@ 0xe001
e0011298:	e1a02524 	lsr	r2, r4, #10
e001129c:	e7932102 	ldr	r2, [r3, r2, lsl #2]
e00112a0:	e7e91054 	ubfx	r1, r4, #0, #10
e00112a4:	e7922101 	ldr	r2, [r2, r1, lsl #2]
e00112a8:	e2822a03 	add	r2, r2, #12288	@ 0x3000
e00112ac:	e1a01c00 	lsl	r1, r0, #24
e00112b0:	e3811502 	orr	r1, r1, #8388608	@ 0x800000
e00112b4:	e5821fc0 	str	r1, [r2, #4032]	@ 0xfc0
e00112b8:	e0833100 	add	r3, r3, r0, lsl #2
e00112bc:	e5834200 	str	r4, [r3, #512]	@ 0x200
e00112c0:	e8bd8010 	pop	{r4, pc}

e00112c4 <setVMRoot>:
e00112c4:	e3c00f7f 	bic	r0, r0, #508	@ 0x1fc
e00112c8:	e3c00003 	bic	r0, r0, #3
e00112cc:	e2801010 	add	r1, r0, #16
e00112d0:	e5903010 	ldr	r3, [r0, #16]
e00112d4:	e203200e 	and	r2, r3, #14
e00112d8:	e352000e 	cmp	r2, #14
e00112dc:	1203200f 	andne	r2, r3, #15
e00112e0:	06ef2073 	uxtbeq	r2, r3
e00112e4:	e3520009 	cmp	r2, #9
e00112e8:	1a000001 	bne	e00112f4 <setVMRoot+0x30>
e00112ec:	e3130010 	tst	r3, #16
e00112f0:	1a000005 	bne	e001130c <setVMRoot+0x48>
e00112f4:	f57ff04f 	dsb	sy
e00112f8:	e59f309c 	ldr	r3, [pc, #156]	@ e001139c <setVMRoot+0xd8>
e00112fc:	e3833018 	orr	r3, r3, #24
e0011300:	ee023f10 	mcr	15, 0, r3, cr2, cr0, {0}
e0011304:	f57ff06f 	isb	sy
e0011308:	e12fff1e 	bx	lr
e001130c:	e92d4030 	push	{r4, r5, lr}
e0011310:	e24dd00c 	sub	sp, sp, #12
e0011314:	e3c34dff 	bic	r4, r3, #16320	@ 0x3fc0
e0011318:	e3c4403f 	bic	r4, r4, #63	@ 0x3f
e001131c:	e5915004 	ldr	r5, [r1, #4]
e0011320:	e7f05055 	ubfx	r5, r5, #0, #17
e0011324:	e1a01005 	mov	r1, r5
e0011328:	e1a0000d 	mov	r0, sp
e001132c:	ebfffe56 	bl	e0010c8c <findPDForASID>
e0011330:	e59d3000 	ldr	r3, [sp]
e0011334:	e3530000 	cmp	r3, #0
e0011338:	1a000011 	bne	e0011384 <setVMRoot+0xc0>
e001133c:	e59d3004 	ldr	r3, [sp, #4]
e0011340:	e1530004 	cmp	r3, r4
e0011344:	1a00000e 	bne	e0011384 <setVMRoot+0xc0>
e0011348:	e1a00005 	mov	r0, r5
e001134c:	ebffffc7 	bl	e0011270 <getHWASID>
e0011350:	f57ff04f 	dsb	sy
e0011354:	e59f3040 	ldr	r3, [pc, #64]	@ e001139c <setVMRoot+0xd8>
e0011358:	e3833018 	orr	r3, r3, #24
e001135c:	ee023f10 	mcr	15, 0, r3, cr2, cr0, {0}
e0011360:	f57ff06f 	isb	sy
e0011364:	ee0d0f30 	mcr	15, 0, r0, cr13, cr0, {1}
e0011368:	f57ff06f 	isb	sy
e001136c:	e2843203 	add	r3, r4, #805306368	@ 0x30000000
e0011370:	e3833018 	orr	r3, r3, #24
e0011374:	ee023f10 	mcr	15, 0, r3, cr2, cr0, {0}
e0011378:	f57ff06f 	isb	sy
e001137c:	e28dd00c 	add	sp, sp, #12
e0011380:	e8bd8030 	pop	{r4, r5, pc}
e0011384:	f57ff04f 	dsb	sy
e0011388:	e59f300c 	ldr	r3, [pc, #12]	@ e001139c <setVMRoot+0xd8>
e001138c:	e3833018 	orr	r3, r3, #24
e0011390:	ee023f10 	mcr	15, 0, r3, cr2, cr0, {0}
e0011394:	f57ff06f 	isb	sy
e0011398:	eafffff7 	b	e001137c <setVMRoot+0xb8>
e001139c:	10030000 	.word	0x10030000

e00113a0 <Arch_switchToThread>:
e00113a0:	e52de004 	push	{lr}		@ (str lr, [sp, #-4]!)
e00113a4:	e24dd00c 	sub	sp, sp, #12
e00113a8:	ebffffc5 	bl	e00112c4 <setVMRoot>
e00113ac:	e28d3004 	add	r3, sp, #4
e00113b0:	e1830f91 	strex	r0, r1, [r3]
e00113b4:	e28dd00c 	add	sp, sp, #12
e00113b8:	e49df004 	pop	{pc}		@ (ldr pc, [sp], #4)

e00113bc <Arch_switchToIdleThread>:
e00113bc:	e92d4010 	push	{r4, lr}
e00113c0:	e30c3000 	movw	r3, #49152	@ 0xc000
e00113c4:	e34e3001 	movt	r3, #57345	@ 0xe001
e00113c8:	e593086c 	ldr	r0, [r3, #2156]	@ 0x86c
e00113cc:	ebffffbc 	bl	e00112c4 <setVMRoot>
e00113d0:	e8bd8010 	pop	{r4, pc}

e00113d4 <setVMRootForFlush>:
e00113d4:	e92d4010 	push	{r4, lr}
e00113d8:	e1a04000 	mov	r4, r0
e00113dc:	e1a00001 	mov	r0, r1
e00113e0:	e30c3000 	movw	r3, #49152	@ 0xc000
e00113e4:	e34e3001 	movt	r3, #57345	@ 0xe001
e00113e8:	e5933840 	ldr	r3, [r3, #2112]	@ 0x840
e00113ec:	e3c33f7f 	bic	r3, r3, #508	@ 0x1fc
e00113f0:	e3c33003 	bic	r3, r3, #3
e00113f4:	e5933010 	ldr	r3, [r3, #16]
e00113f8:	e203200e 	and	r2, r3, #14
e00113fc:	e352000e 	cmp	r2, #14
e0011400:	1203200f 	andne	r2, r3, #15
e0011404:	06ef2073 	uxtbeq	r2, r3
e0011408:	e3520009 	cmp	r2, #9
e001140c:	1a000005 	bne	e0011428 <setVMRootForFlush+0x54>
e0011410:	e3130010 	tst	r3, #16
e0011414:	0a000003 	beq	e0011428 <setVMRootForFlush+0x54>
e0011418:	e3c33dff 	bic	r3, r3, #16320	@ 0x3fc0
e001141c:	e3c3303f 	bic	r3, r3, #63	@ 0x3f
e0011420:	e1540003 	cmp	r4, r3
e0011424:	0a00000f 	beq	e0011468 <setVMRootForFlush+0x94>
e0011428:	ebffff90 	bl	e0011270 <getHWASID>
e001142c:	f57ff04f 	dsb	sy
e0011430:	e59f3038 	ldr	r3, [pc, #56]	@ e0011470 <setVMRootForFlush+0x9c>
e0011434:	e3833018 	orr	r3, r3, #24
e0011438:	ee023f10 	mcr	15, 0, r3, cr2, cr0, {0}
e001143c:	f57ff06f 	isb	sy
e0011440:	ee0d0f30 	mcr	15, 0, r0, cr13, cr0, {1}
e0011444:	f57ff06f 	isb	sy
e0011448:	e2840203 	add	r0, r4, #805306368	@ 0x30000000
e001144c:	e3c00d7f 	bic	r0, r0, #8128	@ 0x1fc0
e0011450:	e3c0003f 	bic	r0, r0, #63	@ 0x3f
e0011454:	e3800018 	orr	r0, r0, #24
e0011458:	ee020f10 	mcr	15, 0, r0, cr2, cr0, {0}
e001145c:	f57ff06f 	isb	sy
e0011460:	e3a00001 	mov	r0, #1
e0011464:	e8bd8010 	pop	{r4, pc}
e0011468:	e3a00000 	mov	r0, #0
e001146c:	e8bd8010 	pop	{r4, pc}
e0011470:	10030000 	.word	0x10030000

e0011474 <copyGlobalMappings>:
e0011474:	e3003e01 	movw	r3, #3585	@ 0xe01
e0011478:	e3001ff1 	movw	r1, #4081	@ 0xff1
e001147c:	e2400004 	sub	r0, r0, #4
e0011480:	e59fc020 	ldr	ip, [pc, #32]	@ e00114a8 <copyGlobalMappings+0x34>
e0011484:	ea000000 	b	e001148c <copyGlobalMappings+0x18>
e0011488:	e2833001 	add	r3, r3, #1
e001148c:	e1530001 	cmp	r3, r1
e0011490:	0afffffc 	beq	e0011488 <copyGlobalMappings+0x14>
e0011494:	e79c2103 	ldr	r2, [ip, r3, lsl #2]
e0011498:	e7802103 	str	r2, [r0, r3, lsl #2]
e001149c:	e3530a01 	cmp	r3, #4096	@ 0x1000
e00114a0:	3afffff8 	bcc	e0011488 <copyGlobalMappings+0x14>
e00114a4:	e12fff1e 	bx	lr
e00114a8:	e002fffc 	.word	0xe002fffc

e00114ac <handleVMFault>:
e00114ac:	e3510000 	cmp	r1, #0
e00114b0:	0a00000d 	beq	e00114ec <handleVMFault+0x40>
e00114b4:	e3510001 	cmp	r1, #1
e00114b8:	1a000009 	bne	e00114e4 <handleVMFault+0x38>
e00114bc:	e5901044 	ldr	r1, [r0, #68]	@ 0x44
e00114c0:	ee153f30 	mrc	15, 0, r3, cr5, cr0, {1}
e00114c4:	e30c2000 	movw	r2, #49152	@ 0xc000
e00114c8:	e34e2001 	movt	r2, #57345	@ 0xe001
e00114cc:	e1a03903 	lsl	r3, r3, #18
e00114d0:	e3833802 	orr	r3, r3, #131072	@ 0x20000
e00114d4:	e3833005 	orr	r3, r3, #5
e00114d8:	e5823870 	str	r3, [r2, #2160]	@ 0x870
e00114dc:	e5821874 	str	r1, [r2, #2164]	@ 0x874
e00114e0:	ea000009 	b	e001150c <handleVMFault+0x60>
e00114e4:	e92d4010 	push	{r4, lr}
e00114e8:	ebfffd0d 	bl	e0010924 <halt>
e00114ec:	ee161f10 	mrc	15, 0, r1, cr6, cr0, {0}
e00114f0:	ee153f10 	mrc	15, 0, r3, cr5, cr0, {0}
e00114f4:	e30c2000 	movw	r2, #49152	@ 0xc000
e00114f8:	e34e2001 	movt	r2, #57345	@ 0xe001
e00114fc:	e1a03903 	lsl	r3, r3, #18
e0011500:	e3833005 	orr	r3, r3, #5
e0011504:	e5823870 	str	r3, [r2, #2160]	@ 0x870
e0011508:	e5821874 	str	r1, [r2, #2164]	@ 0x874
e001150c:	e3a00001 	mov	r0, #1
e0011510:	e12fff1e 	bx	lr

e0011514 <flushPage>:
e0011514:	e92d4070 	push	{r4, r5, r6, lr}
e0011518:	e1a00001 	mov	r0, r1
e001151c:	e1a05002 	mov	r5, r2
e0011520:	e1a04003 	mov	r4, r3
e0011524:	e1a01002 	mov	r1, r2
e0011528:	ebffffa9 	bl	e00113d4 <setVMRootForFlush>
e001152c:	e1a06000 	mov	r6, r0
e0011530:	e1a00005 	mov	r0, r5
e0011534:	ebfffcba 	bl	e0010824 <loadHWASID>
e0011538:	e3100502 	tst	r0, #8388608	@ 0x800000
e001153c:	08bd8070 	popeq	{r4, r5, r6, pc}
e0011540:	f57ff04f 	dsb	sy
e0011544:	e3c43eff 	bic	r3, r4, #4080	@ 0xff0
e0011548:	e3c3300f 	bic	r3, r3, #15
e001154c:	e1833c20 	orr	r3, r3, r0, lsr #24
e0011550:	ee083f37 	mcr	15, 0, r3, cr8, cr7, {1}
e0011554:	f57ff04f 	dsb	sy
e0011558:	f57ff06f 	isb	sy
e001155c:	e3560000 	cmp	r6, #0
e0011560:	08bd8070 	popeq	{r4, r5, r6, pc}
e0011564:	e30c3000 	movw	r3, #49152	@ 0xc000
e0011568:	e34e3001 	movt	r3, #57345	@ 0xe001
e001156c:	e5930840 	ldr	r0, [r3, #2112]	@ 0x840
e0011570:	ebffff53 	bl	e00112c4 <setVMRoot>
e0011574:	e8bd8070 	pop	{r4, r5, r6, pc}

e0011578 <flushTable>:
e0011578:	e92d4070 	push	{r4, r5, r6, lr}
e001157c:	e1a04001 	mov	r4, r1
e0011580:	ebffff93 	bl	e00113d4 <setVMRootForFlush>
e0011584:	e1a05000 	mov	r5, r0
e0011588:	e1a00004 	mov	r0, r4
e001158c:	ebfffca4 	bl	e0010824 <loadHWASID>
e0011590:	e3100502 	tst	r0, #8388608	@ 0x800000
e0011594:	08bd8070 	popeq	{r4, r5, r6, pc}
e0011598:	f57ff04f 	dsb	sy
e001159c:	e1a03c20 	lsr	r3, r0, #24
e00115a0:	ee083f57 	mcr	15, 0, r3, cr8, cr7, {2}
e00115a4:	f57ff04f 	dsb	sy
e00115a8:	f57ff06f 	isb	sy
e00115ac:	e3550000 	cmp	r5, #0
e00115b0:	08bd8070 	popeq	{r4, r5, r6, pc}
e00115b4:	e30c3000 	movw	r3, #49152	@ 0xc000
e00115b8:	e34e3001 	movt	r3, #57345	@ 0xe001
e00115bc:	e5930840 	ldr	r0, [r3, #2112]	@ 0x840
e00115c0:	ebffff3f 	bl	e00112c4 <setVMRoot>
e00115c4:	e8bd8070 	pop	{r4, r5, r6, pc}

e00115c8 <unmapPageTable>:
e00115c8:	e92d4070 	push	{r4, r5, r6, lr}
e00115cc:	e1a06000 	mov	r6, r0
e00115d0:	e1a04001 	mov	r4, r1
e00115d4:	e1a05002 	mov	r5, r2
e00115d8:	ebfffee5 	bl	e0011174 <pageTableMapped>
e00115dc:	e3500000 	cmp	r0, #0
e00115e0:	08bd8070 	popeq	{r4, r5, r6, pc}
e00115e4:	e1a03a24 	lsr	r3, r4, #20
e00115e8:	e0802103 	add	r2, r0, r3, lsl #2
e00115ec:	e3a01000 	mov	r1, #0
e00115f0:	e7801103 	str	r1, [r0, r3, lsl #2]
e00115f4:	ee072f3b 	mcr	15, 0, r2, cr7, cr11, {1}
e00115f8:	f57ff05f 	dmb	sy
e00115fc:	e1a03005 	mov	r3, r5
e0011600:	e1a02004 	mov	r2, r4
e0011604:	e1a01006 	mov	r1, r6
e0011608:	ebffffda 	bl	e0011578 <flushTable>
e001160c:	e8bd8070 	pop	{r4, r5, r6, pc}

e0011610 <invalidateTLBByASID>:
e0011610:	e92d4010 	push	{r4, lr}
e0011614:	ebfffc82 	bl	e0010824 <loadHWASID>
e0011618:	e3100502 	tst	r0, #8388608	@ 0x800000
e001161c:	08bd8010 	popeq	{r4, pc}
e0011620:	f57ff04f 	dsb	sy
e0011624:	e1a00c20 	lsr	r0, r0, #24
e0011628:	ee080f57 	mcr	15, 0, r0, cr8, cr7, {2}
e001162c:	f57ff04f 	dsb	sy
e0011630:	f57ff06f 	isb	sy
e0011634:	e8bd8010 	pop	{r4, pc}

e0011638 <Arch_isFrameType>:
e0011638:	e2400006 	sub	r0, r0, #6
e001163c:	e3500003 	cmp	r0, #3
e0011640:	83a00000 	movhi	r0, #0
e0011644:	93a00001 	movls	r0, #1
e0011648:	e12fff1e 	bx	lr

e001164c <Arch_deriveCap>:
e001164c:	e52de004 	push	{lr}		@ (str lr, [sp, #-4]!)
e0011650:	e24dd00c 	sub	sp, sp, #12
e0011654:	e28d1008 	add	r1, sp, #8
e0011658:	e901000c 	stmdb	r1, {r2, r3}
e001165c:	e1a0c003 	mov	ip, r3
e0011660:	e1a03002 	mov	r3, r2
e0011664:	e202200e 	and	r2, r2, #14
e0011668:	e352000e 	cmp	r2, #14
e001166c:	1203200f 	andne	r2, r3, #15
e0011670:	06ef2073 	uxtbeq	r2, r3
e0011674:	e2422001 	sub	r2, r2, #1
e0011678:	e352000a 	cmp	r2, #10
e001167c:	979ff102 	ldrls	pc, [pc, r2, lsl #2]
e0011680:	ea000039 	b	e001176c <Arch_deriveCap+0x120>
e0011684:	e001171c 	.word	0xe001171c
e0011688:	e001176c 	.word	0xe001176c
e001168c:	e0011738 	.word	0xe0011738
e0011690:	e001176c 	.word	0xe001176c
e0011694:	e0011758 	.word	0xe0011758
e0011698:	e001176c 	.word	0xe001176c
e001169c:	e00116b0 	.word	0xe00116b0
e00116a0:	e001176c 	.word	0xe001176c
e00116a4:	e00116e8 	.word	0xe00116e8
e00116a8:	e001176c 	.word	0xe001176c
e00116ac:	e0011758 	.word	0xe0011758
e00116b0:	e7e01edc 	ubfx	r1, ip, #29, #1
e00116b4:	e3510000 	cmp	r1, #0
e00116b8:	030c3000 	movweq	r3, #49152	@ 0xc000
e00116bc:	034e3001 	movteq	r3, #57345	@ 0xe001
e00116c0:	03a02003 	moveq	r2, #3
e00116c4:	05832864 	streq	r2, [r3, #2148]	@ 0x864
e00116c8:	01a0c001 	moveq	ip, r1
e00116cc:	01a03001 	moveq	r3, r1
e00116d0:	13a02000 	movne	r2, #0
e00116d4:	e5802000 	str	r2, [r0]
e00116d8:	e5803004 	str	r3, [r0, #4]
e00116dc:	e580c008 	str	ip, [r0, #8]
e00116e0:	e28dd00c 	add	sp, sp, #12
e00116e4:	e49df004 	pop	{pc}		@ (ldr pc, [sp], #4)
e00116e8:	e7e01253 	ubfx	r1, r3, #4, #1
e00116ec:	e3510000 	cmp	r1, #0
e00116f0:	030c3000 	movweq	r3, #49152	@ 0xc000
e00116f4:	034e3001 	movteq	r3, #57345	@ 0xe001
e00116f8:	03a02003 	moveq	r2, #3
e00116fc:	05832864 	streq	r2, [r3, #2148]	@ 0x864
e0011700:	01a0c001 	moveq	ip, r1
e0011704:	01a03001 	moveq	r3, r1
e0011708:	13a02000 	movne	r2, #0
e001170c:	e5802000 	str	r2, [r0]
e0011710:	e5803004 	str	r3, [r0, #4]
e0011714:	e580c008 	str	ip, [r0, #8]
e0011718:	eafffff0 	b	e00116e0 <Arch_deriveCap+0x94>
e001171c:	e3a02000 	mov	r2, #0
e0011720:	e5802000 	str	r2, [r0]
e0011724:	e3c3347f 	bic	r3, r3, #2130706432	@ 0x7f000000
e0011728:	e5803004 	str	r3, [r0, #4]
e001172c:	e7f5305c 	ubfx	r3, ip, #0, #22
e0011730:	e5803008 	str	r3, [r0, #8]
e0011734:	eaffffe9 	b	e00116e0 <Arch_deriveCap+0x94>
e0011738:	e3a02000 	mov	r2, #0
e001173c:	e5802000 	str	r2, [r0]
e0011740:	e3c3357f 	bic	r3, r3, #532676608	@ 0x1fc00000
e0011744:	e5803004 	str	r3, [r0, #4]
e0011748:	e3cc35ff 	bic	r3, ip, #1069547520	@ 0x3fc00000
e001174c:	e3c33603 	bic	r3, r3, #3145728	@ 0x300000
e0011750:	e5803008 	str	r3, [r0, #8]
e0011754:	eaffffe1 	b	e00116e0 <Arch_deriveCap+0x94>
e0011758:	e3a02000 	mov	r2, #0
e001175c:	e5802000 	str	r2, [r0]
e0011760:	e5803004 	str	r3, [r0, #4]
e0011764:	e580c008 	str	ip, [r0, #8]
e0011768:	eaffffdc 	b	e00116e0 <Arch_deriveCap+0x94>
e001176c:	ebfffc6c 	bl	e0010924 <halt>

e0011770 <Arch_updateCapData>:
e0011770:	e24dd008 	sub	sp, sp, #8
e0011774:	e1a02000 	mov	r2, r0
e0011778:	e24d1004 	sub	r1, sp, #4
e001177c:	e5a13008 	str	r3, [r1, #8]!
e0011780:	e8910003 	ldm	r1, {r0, r1}
e0011784:	e8820003 	stm	r2, {r0, r1}
e0011788:	e1a00002 	mov	r0, r2
e001178c:	e28dd008 	add	sp, sp, #8
e0011790:	e12fff1e 	bx	lr

e0011794 <Arch_maskCapRights>:
e0011794:	e92d4070 	push	{r4, r5, r6, lr}
e0011798:	e24dd008 	sub	sp, sp, #8
e001179c:	e1a04000 	mov	r4, r0
e00117a0:	e28d0008 	add	r0, sp, #8
e00117a4:	e900000c 	stmdb	r0, {r2, r3}
e00117a8:	e1a06003 	mov	r6, r3
e00117ac:	e1a05002 	mov	r5, r2
e00117b0:	e202300e 	and	r3, r2, #14
e00117b4:	e353000e 	cmp	r3, #14
e00117b8:	1202300f 	andne	r3, r2, #15
e00117bc:	06ef3072 	uxtbeq	r3, r2
e00117c0:	e3530001 	cmp	r3, #1
e00117c4:	0a000007 	beq	e00117e8 <Arch_maskCapRights+0x54>
e00117c8:	e3530003 	cmp	r3, #3
e00117cc:	0a00000e 	beq	e001180c <Arch_maskCapRights+0x78>
e00117d0:	e28d3008 	add	r3, sp, #8
e00117d4:	e9130003 	ldmdb	r3, {r0, r1}
e00117d8:	e8840003 	stm	r4, {r0, r1}
e00117dc:	e1a00004 	mov	r0, r4
e00117e0:	e28dd008 	add	sp, sp, #8
e00117e4:	e8bd8070 	pop	{r4, r5, r6, pc}
e00117e8:	e7e10a56 	ubfx	r0, r6, #20, #2
e00117ec:	ebfffd14 	bl	e0010c44 <maskVMRights>
e00117f0:	e5845000 	str	r5, [r4]
e00117f4:	e1a00a00 	lsl	r0, r0, #20
e00117f8:	e2000603 	and	r0, r0, #3145728	@ 0x300000
e00117fc:	e3c66603 	bic	r6, r6, #3145728	@ 0x300000
e0011800:	e1806006 	orr	r6, r0, r6
e0011804:	e5846004 	str	r6, [r4, #4]
e0011808:	eafffff3 	b	e00117dc <Arch_maskCapRights+0x48>
e001180c:	e7e10956 	ubfx	r0, r6, #18, #2
e0011810:	ebfffd0b 	bl	e0010c44 <maskVMRights>
e0011814:	e5845000 	str	r5, [r4]
e0011818:	e1a00900 	lsl	r0, r0, #18
e001181c:	e2000703 	and	r0, r0, #786432	@ 0xc0000
e0011820:	e3c66703 	bic	r6, r6, #786432	@ 0xc0000
e0011824:	e1806006 	orr	r6, r0, r6
e0011828:	e5846004 	str	r6, [r4, #4]
e001182c:	eaffffea 	b	e00117dc <Arch_maskCapRights+0x48>

e0011830 <Arch_sameRegionAs>:
e0011830:	e52de004 	push	{lr}		@ (str lr, [sp, #-4]!)
e0011834:	e24dd014 	sub	sp, sp, #20
e0011838:	e28dc010 	add	ip, sp, #16
e001183c:	e90c0003 	stmdb	ip, {r0, r1}
e0011840:	e1a0100d 	mov	r1, sp
e0011844:	e881000c 	stm	r1, {r2, r3}
e0011848:	e1a00002 	mov	r0, r2
e001184c:	e59d3008 	ldr	r3, [sp, #8]
e0011850:	e203200e 	and	r2, r3, #14
e0011854:	e352000e 	cmp	r2, #14
e0011858:	1203100f 	andne	r1, r3, #15
e001185c:	06ef1073 	uxtbeq	r1, r3
e0011860:	e2412001 	sub	r2, r1, #1
e0011864:	e352000a 	cmp	r2, #10
e0011868:	979ff102 	ldrls	pc, [pc, r2, lsl #2]
e001186c:	ea0000a2 	b	e0011afc <Arch_sameRegionAs+0x2cc>
e0011870:	e001189c 	.word	0xe001189c
e0011874:	e0011afc 	.word	0xe0011afc
e0011878:	e001189c 	.word	0xe001189c
e001187c:	e0011afc 	.word	0xe0011afc
e0011880:	e0011ac8 	.word	0xe0011ac8
e0011884:	e0011afc 	.word	0xe0011afc
e0011888:	e0011a30 	.word	0xe0011a30
e001188c:	e0011afc 	.word	0xe0011afc
e0011890:	e0011a6c 	.word	0xe0011a6c
e0011894:	e0011afc 	.word	0xe0011afc
e0011898:	e0011aa8 	.word	0xe0011aa8
e001189c:	e200200e 	and	r2, r0, #14
e00118a0:	e352000e 	cmp	r2, #14
e00118a4:	1200200f 	andne	r2, r0, #15
e00118a8:	06ef2070 	uxtbeq	r2, r0
e00118ac:	e3c2c002 	bic	ip, r2, #2
e00118b0:	e35c0001 	cmp	ip, #1
e00118b4:	13a00000 	movne	r0, #0
e00118b8:	1a000090 	bne	e0011b00 <Arch_sameRegionAs+0x2d0>
e00118bc:	e3510001 	cmp	r1, #1
e00118c0:	0a00000d 	beq	e00118fc <Arch_sameRegionAs+0xcc>
e00118c4:	e3510003 	cmp	r1, #3
e00118c8:	13a03000 	movne	r3, #0
e00118cc:	1a00000d 	bne	e0011908 <Arch_sameRegionAs+0xd8>
e00118d0:	e1a03503 	lsl	r3, r3, #10
e00118d4:	e3c33dff 	bic	r3, r3, #16320	@ 0x3fc0
e00118d8:	e3c3303f 	bic	r3, r3, #63	@ 0x3f
e00118dc:	e3520001 	cmp	r2, #1
e00118e0:	0a000013 	beq	e0011934 <Arch_sameRegionAs+0x104>
e00118e4:	e3520003 	cmp	r2, #3
e00118e8:	1a000086 	bne	e0011b08 <Arch_sameRegionAs+0x2d8>
e00118ec:	e1a00500 	lsl	r0, r0, #10
e00118f0:	e3c0cdff 	bic	ip, r0, #16320	@ 0x3fc0
e00118f4:	e3ccc03f 	bic	ip, ip, #63	@ 0x3f
e00118f8:	ea000010 	b	e0011940 <Arch_sameRegionAs+0x110>
e00118fc:	e1a03403 	lsl	r3, r3, #8
e0011900:	e3c33eff 	bic	r3, r3, #4080	@ 0xff0
e0011904:	e3c3300f 	bic	r3, r3, #15
e0011908:	e3520001 	cmp	r2, #1
e001190c:	0a000008 	beq	e0011934 <Arch_sameRegionAs+0x104>
e0011910:	e3520003 	cmp	r2, #3
e0011914:	0afffff4 	beq	e00118ec <Arch_sameRegionAs+0xbc>
e0011918:	e3510003 	cmp	r1, #3
e001191c:	0a00001c 	beq	e0011994 <Arch_sameRegionAs+0x164>
e0011920:	e2830eff 	add	r0, r3, #4080	@ 0xff0
e0011924:	e280000f 	add	r0, r0, #15
e0011928:	e3a0c000 	mov	ip, #0
e001192c:	e3a0100c 	mov	r1, #12
e0011930:	ea00000b 	b	e0011964 <Arch_sameRegionAs+0x134>
e0011934:	e1a00400 	lsl	r0, r0, #8
e0011938:	e3c0ceff 	bic	ip, r0, #4080	@ 0xff0
e001193c:	e3ccc00f 	bic	ip, ip, #15
e0011940:	e3510003 	cmp	r1, #3
e0011944:	13a0100c 	movne	r1, #12
e0011948:	0a000012 	beq	e0011998 <Arch_sameRegionAs+0x168>
e001194c:	e2430001 	sub	r0, r3, #1
e0011950:	e3a0e001 	mov	lr, #1
e0011954:	e080011e 	add	r0, r0, lr, lsl r1
e0011958:	e3520003 	cmp	r2, #3
e001195c:	13a0100c 	movne	r1, #12
e0011960:	0a000020 	beq	e00119e8 <Arch_sameRegionAs+0x1b8>
e0011964:	e24c2001 	sub	r2, ip, #1
e0011968:	e3a0e001 	mov	lr, #1
e001196c:	e082211e 	add	r2, r2, lr, lsl r1
e0011970:	e1520000 	cmp	r2, r0
e0011974:	83a00000 	movhi	r0, #0
e0011978:	93a00001 	movls	r0, #1
e001197c:	e152000c 	cmp	r2, ip
e0011980:	33a00000 	movcc	r0, #0
e0011984:	e15c0003 	cmp	ip, r3
e0011988:	33a00000 	movcc	r0, #0
e001198c:	22000001 	andcs	r0, r0, #1
e0011990:	ea00005a 	b	e0011b00 <Arch_sameRegionAs+0x2d0>
e0011994:	e3a0c000 	mov	ip, #0
e0011998:	e59d100c 	ldr	r1, [sp, #12]
e001199c:	e1a01f21 	lsr	r1, r1, #30
e00119a0:	e3510003 	cmp	r1, #3
e00119a4:	979ff101 	ldrls	pc, [pc, r1, lsl #2]
e00119a8:	ea00000b 	b	e00119dc <Arch_sameRegionAs+0x1ac>
e00119ac:	e00119bc 	.word	0xe00119bc
e00119b0:	e00119e0 	.word	0xe00119e0
e00119b4:	e00119c8 	.word	0xe00119c8
e00119b8:	e00119d4 	.word	0xe00119d4
e00119bc:	e3a0100c 	mov	r1, #12
e00119c0:	eaffffe1 	b	e001194c <Arch_sameRegionAs+0x11c>
e00119c4:	e3a0c000 	mov	ip, #0
e00119c8:	e3a01014 	mov	r1, #20
e00119cc:	eaffffde 	b	e001194c <Arch_sameRegionAs+0x11c>
e00119d0:	e3a0c000 	mov	ip, #0
e00119d4:	e3a01018 	mov	r1, #24
e00119d8:	eaffffdb 	b	e001194c <Arch_sameRegionAs+0x11c>
e00119dc:	ebfffbd0 	bl	e0010924 <halt>
e00119e0:	e3a01010 	mov	r1, #16
e00119e4:	eaffffd8 	b	e001194c <Arch_sameRegionAs+0x11c>
e00119e8:	e59d2004 	ldr	r2, [sp, #4]
e00119ec:	e1a02f22 	lsr	r2, r2, #30
e00119f0:	e3520003 	cmp	r2, #3
e00119f4:	979ff102 	ldrls	pc, [pc, r2, lsl #2]
e00119f8:	ea000009 	b	e0011a24 <Arch_sameRegionAs+0x1f4>
e00119fc:	e0011a28 	.word	0xe0011a28
e0011a00:	e0011a0c 	.word	0xe0011a0c
e0011a04:	e0011a14 	.word	0xe0011a14
e0011a08:	e0011a1c 	.word	0xe0011a1c
e0011a0c:	e3a01010 	mov	r1, #16
e0011a10:	eaffffd3 	b	e0011964 <Arch_sameRegionAs+0x134>
e0011a14:	e3a01014 	mov	r1, #20
e0011a18:	eaffffd1 	b	e0011964 <Arch_sameRegionAs+0x134>
e0011a1c:	e3a01018 	mov	r1, #24
e0011a20:	eaffffcf 	b	e0011964 <Arch_sameRegionAs+0x134>
e0011a24:	ebfffbbe 	bl	e0010924 <halt>
e0011a28:	e3a0100c 	mov	r1, #12
e0011a2c:	eaffffcc 	b	e0011964 <Arch_sameRegionAs+0x134>
e0011a30:	e200200e 	and	r2, r0, #14
e0011a34:	e352000e 	cmp	r2, #14
e0011a38:	1200200f 	andne	r2, r0, #15
e0011a3c:	06ef2070 	uxtbeq	r2, r0
e0011a40:	e3520007 	cmp	r2, #7
e0011a44:	13a00000 	movne	r0, #0
e0011a48:	1a00002c 	bne	e0011b00 <Arch_sameRegionAs+0x2d0>
e0011a4c:	e3c00fff 	bic	r0, r0, #1020	@ 0x3fc
e0011a50:	e3c00003 	bic	r0, r0, #3
e0011a54:	e3c33fff 	bic	r3, r3, #1020	@ 0x3fc
e0011a58:	e3c33003 	bic	r3, r3, #3
e0011a5c:	e1500003 	cmp	r0, r3
e0011a60:	13a00000 	movne	r0, #0
e0011a64:	03a00001 	moveq	r0, #1
e0011a68:	ea000024 	b	e0011b00 <Arch_sameRegionAs+0x2d0>
e0011a6c:	e200200e 	and	r2, r0, #14
e0011a70:	e352000e 	cmp	r2, #14
e0011a74:	1200200f 	andne	r2, r0, #15
e0011a78:	06ef2070 	uxtbeq	r2, r0
e0011a7c:	e3520009 	cmp	r2, #9
e0011a80:	13a00000 	movne	r0, #0
e0011a84:	1a00001d 	bne	e0011b00 <Arch_sameRegionAs+0x2d0>
e0011a88:	e3c00dff 	bic	r0, r0, #16320	@ 0x3fc0
e0011a8c:	e3c0003f 	bic	r0, r0, #63	@ 0x3f
e0011a90:	e3c33dff 	bic	r3, r3, #16320	@ 0x3fc0
e0011a94:	e3c3303f 	bic	r3, r3, #63	@ 0x3f
e0011a98:	e1500003 	cmp	r0, r3
e0011a9c:	13a00000 	movne	r0, #0
e0011aa0:	03a00001 	moveq	r0, #1
e0011aa4:	ea000015 	b	e0011b00 <Arch_sameRegionAs+0x2d0>
e0011aa8:	e200300e 	and	r3, r0, #14
e0011aac:	e353000e 	cmp	r3, #14
e0011ab0:	1200000f 	andne	r0, r0, #15
e0011ab4:	06ef0070 	uxtbeq	r0, r0
e0011ab8:	e350000b 	cmp	r0, #11
e0011abc:	13a00000 	movne	r0, #0
e0011ac0:	03a00001 	moveq	r0, #1
e0011ac4:	ea00000d 	b	e0011b00 <Arch_sameRegionAs+0x2d0>
e0011ac8:	e200200e 	and	r2, r0, #14
e0011acc:	e352000e 	cmp	r2, #14
e0011ad0:	1200200f 	andne	r2, r0, #15
e0011ad4:	06ef2070 	uxtbeq	r2, r0
e0011ad8:	e3520005 	cmp	r2, #5
e0011adc:	13a00000 	movne	r0, #0
e0011ae0:	1a000006 	bne	e0011b00 <Arch_sameRegionAs+0x2d0>
e0011ae4:	e3c0000f 	bic	r0, r0, #15
e0011ae8:	e3c3300f 	bic	r3, r3, #15
e0011aec:	e1500003 	cmp	r0, r3
e0011af0:	13a00000 	movne	r0, #0
e0011af4:	03a00001 	moveq	r0, #1
e0011af8:	ea000000 	b	e0011b00 <Arch_sameRegionAs+0x2d0>
e0011afc:	e3a00000 	mov	r0, #0
e0011b00:	e28dd014 	add	sp, sp, #20
e0011b04:	e49df004 	pop	{pc}		@ (ldr pc, [sp], #4)
e0011b08:	e59dc00c 	ldr	ip, [sp, #12]
e0011b0c:	e1a0cf2c 	lsr	ip, ip, #30
e0011b10:	e35c0003 	cmp	ip, #3
e0011b14:	979ff10c 	ldrls	pc, [pc, ip, lsl #2]
e0011b18:	eaffffaf 	b	e00119dc <Arch_sameRegionAs+0x1ac>
e0011b1c:	e00119bc 	.word	0xe00119bc
e0011b20:	e0011b2c 	.word	0xe0011b2c
e0011b24:	e00119c4 	.word	0xe00119c4
e0011b28:	e00119d0 	.word	0xe00119d0
e0011b2c:	e2830cff 	add	r0, r3, #65280	@ 0xff00
e0011b30:	e28000ff 	add	r0, r0, #255	@ 0xff
e0011b34:	e3a0c000 	mov	ip, #0
e0011b38:	e3a0100c 	mov	r1, #12
e0011b3c:	eaffff88 	b	e0011964 <Arch_sameRegionAs+0x134>

e0011b40 <Arch_sameObjectAs>:
e0011b40:	e52de004 	push	{lr}		@ (str lr, [sp, #-4]!)
e0011b44:	e24dd014 	sub	sp, sp, #20
e0011b48:	e28dc010 	add	ip, sp, #16
e0011b4c:	e90c0003 	stmdb	ip, {r0, r1}
e0011b50:	e1a0100d 	mov	r1, sp
e0011b54:	e881000c 	stm	r1, {r2, r3}
e0011b58:	e1a01002 	mov	r1, r2
e0011b5c:	e1a03000 	mov	r3, r0
e0011b60:	e200200e 	and	r2, r0, #14
e0011b64:	e352000e 	cmp	r2, #14
e0011b68:	1200200f 	andne	r2, r0, #15
e0011b6c:	06ef2070 	uxtbeq	r2, r0
e0011b70:	e3520001 	cmp	r2, #1
e0011b74:	0a000008 	beq	e0011b9c <Arch_sameObjectAs+0x5c>
e0011b78:	e3520003 	cmp	r2, #3
e0011b7c:	0a00001f 	beq	e0011c00 <Arch_sameObjectAs+0xc0>
e0011b80:	e1a0300d 	mov	r3, sp
e0011b84:	e893000c 	ldm	r3, {r2, r3}
e0011b88:	e28d1010 	add	r1, sp, #16
e0011b8c:	e9110003 	ldmdb	r1, {r0, r1}
e0011b90:	ebffff26 	bl	e0011830 <Arch_sameRegionAs>
e0011b94:	e28dd014 	add	sp, sp, #20
e0011b98:	e49df004 	pop	{pc}		@ (ldr pc, [sp], #4)
e0011b9c:	e201200e 	and	r2, r1, #14
e0011ba0:	e352000e 	cmp	r2, #14
e0011ba4:	1201200f 	andne	r2, r1, #15
e0011ba8:	06ef2071 	uxtbeq	r2, r1
e0011bac:	e3520001 	cmp	r2, #1
e0011bb0:	0a000003 	beq	e0011bc4 <Arch_sameObjectAs+0x84>
e0011bb4:	e3520003 	cmp	r2, #3
e0011bb8:	1afffff0 	bne	e0011b80 <Arch_sameObjectAs+0x40>
e0011bbc:	e3a00000 	mov	r0, #0
e0011bc0:	eafffff3 	b	e0011b94 <Arch_sameObjectAs+0x54>
e0011bc4:	e1a00401 	lsl	r0, r1, #8
e0011bc8:	e3c00eff 	bic	r0, r0, #4080	@ 0xff0
e0011bcc:	e3c0000f 	bic	r0, r0, #15
e0011bd0:	e1a02403 	lsl	r2, r3, #8
e0011bd4:	e3c22eff 	bic	r2, r2, #4080	@ 0xff0
e0011bd8:	e3c2200f 	bic	r2, r2, #15
e0011bdc:	e1500002 	cmp	r0, r2
e0011be0:	13a00000 	movne	r0, #0
e0011be4:	1affffea 	bne	e0011b94 <Arch_sameObjectAs+0x54>
e0011be8:	e1e01001 	mvn	r1, r1
e0011bec:	e1a01fa1 	lsr	r1, r1, #31
e0011bf0:	e1510fa3 	cmp	r1, r3, lsr #31
e0011bf4:	13a00001 	movne	r0, #1
e0011bf8:	03a00000 	moveq	r0, #0
e0011bfc:	eaffffe4 	b	e0011b94 <Arch_sameObjectAs+0x54>
e0011c00:	e201200e 	and	r2, r1, #14
e0011c04:	e352000e 	cmp	r2, #14
e0011c08:	1201200f 	andne	r2, r1, #15
e0011c0c:	06ef2071 	uxtbeq	r2, r1
e0011c10:	e3520003 	cmp	r2, #3
e0011c14:	0a000003 	beq	e0011c28 <Arch_sameObjectAs+0xe8>
e0011c18:	e3520001 	cmp	r2, #1
e0011c1c:	03a00000 	moveq	r0, #0
e0011c20:	1affffd6 	bne	e0011b80 <Arch_sameObjectAs+0x40>
e0011c24:	eaffffda 	b	e0011b94 <Arch_sameObjectAs+0x54>
e0011c28:	e1a00501 	lsl	r0, r1, #10
e0011c2c:	e3c00dff 	bic	r0, r0, #16320	@ 0x3fc0
e0011c30:	e3c0003f 	bic	r0, r0, #63	@ 0x3f
e0011c34:	e1a02503 	lsl	r2, r3, #10
e0011c38:	e3c22dff 	bic	r2, r2, #16320	@ 0x3fc0
e0011c3c:	e3c2203f 	bic	r2, r2, #63	@ 0x3f
e0011c40:	e1500002 	cmp	r0, r2
e0011c44:	13a00000 	movne	r0, #0
e0011c48:	1affffd1 	bne	e0011b94 <Arch_sameObjectAs+0x54>
e0011c4c:	e59d200c 	ldr	r2, [sp, #12]
e0011c50:	e1a02f22 	lsr	r2, r2, #30
e0011c54:	e59d0004 	ldr	r0, [sp, #4]
e0011c58:	e1520f20 	cmp	r2, r0, lsr #30
e0011c5c:	13a00000 	movne	r0, #0
e0011c60:	1affffcb 	bne	e0011b94 <Arch_sameObjectAs+0x54>
e0011c64:	e2211202 	eor	r1, r1, #536870912	@ 0x20000000
e0011c68:	e7e00ed3 	ubfx	r0, r3, #29, #1
e0011c6c:	e7e03ed1 	ubfx	r3, r1, #29, #1
e0011c70:	e0500003 	subs	r0, r0, r3
e0011c74:	13a00001 	movne	r0, #1
e0011c78:	eaffffc5 	b	e0011b94 <Arch_sameObjectAs+0x54>

e0011c7c <Arch_getObjectSize>:
e0011c7c:	e2403005 	sub	r3, r0, #5
e0011c80:	e3530005 	cmp	r3, #5
e0011c84:	979ff103 	ldrls	pc, [pc, r3, lsl #2]
e0011c88:	ea00000b 	b	e0011cbc <Arch_getObjectSize+0x40>
e0011c8c:	e0011cb4 	.word	0xe0011cb4
e0011c90:	e0011cc4 	.word	0xe0011cc4
e0011c94:	e0011ca4 	.word	0xe0011ca4
e0011c98:	e0011ccc 	.word	0xe0011ccc
e0011c9c:	e0011cac 	.word	0xe0011cac
e0011ca0:	e0011cd0 	.word	0xe0011cd0
e0011ca4:	e3a00010 	mov	r0, #16
e0011ca8:	e12fff1e 	bx	lr
e0011cac:	e3a00018 	mov	r0, #24
e0011cb0:	e12fff1e 	bx	lr
e0011cb4:	e3a0000e 	mov	r0, #14
e0011cb8:	e12fff1e 	bx	lr
e0011cbc:	e92d4010 	push	{r4, lr}
e0011cc0:	ebfffb17 	bl	e0010924 <halt>
e0011cc4:	e3a0000c 	mov	r0, #12
e0011cc8:	e12fff1e 	bx	lr
e0011ccc:	e3a00014 	mov	r0, #20
e0011cd0:	e12fff1e 	bx	lr

e0011cd4 <Arch_prepareThreadDelete>:
e0011cd4:	e12fff1e 	bx	lr

e0011cd8 <Arch_handleFaultReply>:
e0011cd8:	e3520005 	cmp	r2, #5
e0011cdc:	1a000001 	bne	e0011ce8 <Arch_handleFaultReply+0x10>
e0011ce0:	e3a00001 	mov	r0, #1
e0011ce4:	e12fff1e 	bx	lr
e0011ce8:	e92d4010 	push	{r4, lr}
e0011cec:	ebfffb0c 	bl	e0010924 <halt>

e0011cf0 <Arch_setMRs_fault>:
e0011cf0:	e3530005 	cmp	r3, #5
e0011cf4:	1a00000b 	bne	e0011d28 <Arch_setMRs_fault+0x38>
e0011cf8:	e5903044 	ldr	r3, [r0, #68]	@ 0x44
e0011cfc:	e5813008 	str	r3, [r1, #8]
e0011d00:	e5903064 	ldr	r3, [r0, #100]	@ 0x64
e0011d04:	e581300c 	str	r3, [r1, #12]
e0011d08:	e5903060 	ldr	r3, [r0, #96]	@ 0x60
e0011d0c:	e7e038d3 	ubfx	r3, r3, #17, #1
e0011d10:	e5813010 	str	r3, [r1, #16]
e0011d14:	e5903060 	ldr	r3, [r0, #96]	@ 0x60
e0011d18:	e1a03923 	lsr	r3, r3, #18
e0011d1c:	e5813014 	str	r3, [r1, #20]
e0011d20:	e3a00004 	mov	r0, #4
e0011d24:	e12fff1e 	bx	lr
e0011d28:	e92d4010 	push	{r4, lr}
e0011d2c:	ebfffafc 	bl	e0010924 <halt>

e0011d30 <setMRs_fault>:
e0011d30:	e52de004 	push	{lr}		@ (str lr, [sp, #-4]!)
e0011d34:	e24dd00c 	sub	sp, sp, #12
e0011d38:	e1a0c001 	mov	ip, r1
e0011d3c:	e1a01002 	mov	r1, r2
e0011d40:	e5903060 	ldr	r3, [r0, #96]	@ 0x60
e0011d44:	e203300f 	and	r3, r3, #15
e0011d48:	e3530002 	cmp	r3, #2
e0011d4c:	0a000015 	beq	e0011da8 <setMRs_fault+0x78>
e0011d50:	e3530003 	cmp	r3, #3
e0011d54:	0a00002a 	beq	e0011e04 <setMRs_fault+0xd4>
e0011d58:	e3530001 	cmp	r3, #1
e0011d5c:	0a000002 	beq	e0011d6c <setMRs_fault+0x3c>
e0011d60:	e1a0100c 	mov	r1, ip
e0011d64:	ebffffe1 	bl	e0011cf0 <Arch_setMRs_fault>
e0011d68:	ea00000c 	b	e0011da0 <setMRs_fault+0x70>
e0011d6c:	e5903044 	ldr	r3, [r0, #68]	@ 0x44
e0011d70:	e58c3008 	str	r3, [ip, #8]
e0011d74:	e5903064 	ldr	r3, [r0, #100]	@ 0x64
e0011d78:	e58c300c 	str	r3, [ip, #12]
e0011d7c:	e5903060 	ldr	r3, [r0, #96]	@ 0x60
e0011d80:	e1a03fa3 	lsr	r3, r3, #31
e0011d84:	e58c3010 	str	r3, [ip, #16]
e0011d88:	e3a03003 	mov	r3, #3
e0011d8c:	e58d3000 	str	r3, [sp]
e0011d90:	e2800068 	add	r0, r0, #104	@ 0x68
e0011d94:	e890000c 	ldm	r0, {r2, r3}
e0011d98:	e1a0000c 	mov	r0, ip
e0011d9c:	ebfffae3 	bl	e0010930 <setMRs_lookup_failure>
e0011da0:	e28dd00c 	add	sp, sp, #12
e0011da4:	e49df004 	pop	{pc}		@ (ldr pc, [sp], #4)
e0011da8:	e5903000 	ldr	r3, [r0]
e0011dac:	e58c3008 	str	r3, [ip, #8]
e0011db0:	e5903004 	ldr	r3, [r0, #4]
e0011db4:	e58c300c 	str	r3, [ip, #12]
e0011db8:	e5903008 	ldr	r3, [r0, #8]
e0011dbc:	e58c3010 	str	r3, [ip, #16]
e0011dc0:	e590300c 	ldr	r3, [r0, #12]
e0011dc4:	e58c3014 	str	r3, [ip, #20]
e0011dc8:	e3520000 	cmp	r2, #0
e0011dcc:	03a00004 	moveq	r0, #4
e0011dd0:	0afffff2 	beq	e0011da0 <setMRs_fault+0x70>
e0011dd4:	e59fc074 	ldr	ip, [pc, #116]	@ e0011e50 <setMRs_fault+0x120>
e0011dd8:	e2823010 	add	r3, r2, #16
e0011ddc:	e2822030 	add	r2, r2, #48	@ 0x30
e0011de0:	e49ce004 	ldr	lr, [ip], #4
e0011de4:	e790e10e 	ldr	lr, [r0, lr, lsl #2]
e0011de8:	e5a3e004 	str	lr, [r3, #4]!
e0011dec:	e1520003 	cmp	r2, r3
e0011df0:	1afffffa 	bne	e0011de0 <setMRs_fault+0xb0>
e0011df4:	e5903064 	ldr	r3, [r0, #100]	@ 0x64
e0011df8:	e5813034 	str	r3, [r1, #52]	@ 0x34
e0011dfc:	e3a0000d 	mov	r0, #13
e0011e00:	eaffffe6 	b	e0011da0 <setMRs_fault+0x70>
e0011e04:	e5903044 	ldr	r3, [r0, #68]	@ 0x44
e0011e08:	e58c3008 	str	r3, [ip, #8]
e0011e0c:	e5903034 	ldr	r3, [r0, #52]	@ 0x34
e0011e10:	e58c300c 	str	r3, [ip, #12]
e0011e14:	e5903040 	ldr	r3, [r0, #64]	@ 0x40
e0011e18:	e58c3010 	str	r3, [ip, #16]
e0011e1c:	e3520000 	cmp	r2, #0
e0011e20:	0a000006 	beq	e0011e40 <setMRs_fault+0x110>
e0011e24:	e5903064 	ldr	r3, [r0, #100]	@ 0x64
e0011e28:	e58c3014 	str	r3, [ip, #20]
e0011e2c:	e5903060 	ldr	r3, [r0, #96]	@ 0x60
e0011e30:	e1a03223 	lsr	r3, r3, #4
e0011e34:	e5823014 	str	r3, [r2, #20]
e0011e38:	e3a00005 	mov	r0, #5
e0011e3c:	eaffffd7 	b	e0011da0 <setMRs_fault+0x70>
e0011e40:	e5903064 	ldr	r3, [r0, #100]	@ 0x64
e0011e44:	e58c3014 	str	r3, [ip, #20]
e0011e48:	e3a00004 	mov	r0, #4
e0011e4c:	eaffffd3 	b	e0011da0 <setMRs_fault+0x70>
e0011e50:	e001b248 	.word	0xe001b248

e0011e54 <clean_D_PoU>:
e0011e54:	e92d47f0 	push	{r4, r5, r6, r7, r8, r9, sl, lr}
e0011e58:	ee309f30 	mrc	15, 1, r9, cr0, cr0, {1}
e0011e5c:	e7e28dd9 	ubfx	r8, r9, #27, #3
e0011e60:	e3580000 	cmp	r8, #0
e0011e64:	d8bd87f0 	pople	{r4, r5, r6, r7, r8, r9, sl, pc}
e0011e68:	e1a08088 	lsl	r8, r8, #1
e0011e6c:	e3a0e000 	mov	lr, #0
e0011e70:	e1a0500e 	mov	r5, lr
e0011e74:	ea000003 	b	e0011e88 <clean_D_PoU+0x34>
e0011e78:	e2855003 	add	r5, r5, #3
e0011e7c:	e28ee002 	add	lr, lr, #2
e0011e80:	e158000e 	cmp	r8, lr
e0011e84:	08bd87f0 	popeq	{r4, r5, r6, r7, r8, r9, sl, pc}
e0011e88:	e1a03559 	asr	r3, r9, r5
e0011e8c:	e3130006 	tst	r3, #6
e0011e90:	0afffff8 	beq	e0011e78 <clean_D_PoU+0x24>
e0011e94:	ee502f10 	mrc	15, 2, r2, cr0, cr0, {0}
e0011e98:	e1a0700e 	mov	r7, lr
e0011e9c:	ee40ef10 	mcr	15, 2, lr, cr0, cr0, {0}
e0011ea0:	ee303f10 	mrc	15, 1, r3, cr0, cr0, {0}
e0011ea4:	ee402f10 	mcr	15, 2, r2, cr0, cr0, {0}
e0011ea8:	e203c007 	and	ip, r3, #7
e0011eac:	e28cc004 	add	ip, ip, #4
e0011eb0:	e7e941d3 	ubfx	r4, r3, #3, #10
e0011eb4:	e2846001 	add	r6, r4, #1
e0011eb8:	e16f4f14 	clz	r4, r4
e0011ebc:	e7ee36d3 	ubfx	r3, r3, #13, #15
e0011ec0:	e2830001 	add	r0, r3, #1
e0011ec4:	e3a0a000 	mov	sl, #0
e0011ec8:	e187141a 	orr	r1, r7, sl, lsl r4
e0011ecc:	e3a03000 	mov	r3, #0
e0011ed0:	e1812c13 	orr	r2, r1, r3, lsl ip
e0011ed4:	ee072f5a 	mcr	15, 0, r2, cr7, cr10, {2}
e0011ed8:	e2833001 	add	r3, r3, #1
e0011edc:	e1500003 	cmp	r0, r3
e0011ee0:	cafffffa 	bgt	e0011ed0 <clean_D_PoU+0x7c>
e0011ee4:	e28aa001 	add	sl, sl, #1
e0011ee8:	e156000a 	cmp	r6, sl
e0011eec:	cafffff5 	bgt	e0011ec8 <clean_D_PoU+0x74>
e0011ef0:	eaffffe0 	b	e0011e78 <clean_D_PoU+0x24>

e0011ef4 <cleanInvalidate_D_PoC>:
e0011ef4:	e92d47f0 	push	{r4, r5, r6, r7, r8, r9, sl, lr}
e0011ef8:	ee309f30 	mrc	15, 1, r9, cr0, cr0, {1}
e0011efc:	e7e28c59 	ubfx	r8, r9, #24, #3
e0011f00:	e3580000 	cmp	r8, #0
e0011f04:	d8bd87f0 	pople	{r4, r5, r6, r7, r8, r9, sl, pc}
e0011f08:	e1a08088 	lsl	r8, r8, #1
e0011f0c:	e3a04000 	mov	r4, #0
e0011f10:	e1a05004 	mov	r5, r4
e0011f14:	ea000003 	b	e0011f28 <cleanInvalidate_D_PoC+0x34>
e0011f18:	e2855003 	add	r5, r5, #3
e0011f1c:	e2844002 	add	r4, r4, #2
e0011f20:	e1540008 	cmp	r4, r8
e0011f24:	08bd87f0 	popeq	{r4, r5, r6, r7, r8, r9, sl, pc}
e0011f28:	e1a03559 	asr	r3, r9, r5
e0011f2c:	e3130006 	tst	r3, #6
e0011f30:	0afffff8 	beq	e0011f18 <cleanInvalidate_D_PoC+0x24>
e0011f34:	ee502f10 	mrc	15, 2, r2, cr0, cr0, {0}
e0011f38:	e1a07004 	mov	r7, r4
e0011f3c:	ee404f10 	mcr	15, 2, r4, cr0, cr0, {0}
e0011f40:	ee303f10 	mrc	15, 1, r3, cr0, cr0, {0}
e0011f44:	ee402f10 	mcr	15, 2, r2, cr0, cr0, {0}
e0011f48:	e203c007 	and	ip, r3, #7
e0011f4c:	e28cc004 	add	ip, ip, #4
e0011f50:	e7e9e1d3 	ubfx	lr, r3, #3, #10
e0011f54:	e28e6001 	add	r6, lr, #1
e0011f58:	e16fef1e 	clz	lr, lr
e0011f5c:	e7ee36d3 	ubfx	r3, r3, #13, #15
e0011f60:	e2830001 	add	r0, r3, #1
e0011f64:	e3a0a000 	mov	sl, #0
e0011f68:	e1871e1a 	orr	r1, r7, sl, lsl lr
e0011f6c:	e3a03000 	mov	r3, #0
e0011f70:	e1812c13 	orr	r2, r1, r3, lsl ip
e0011f74:	ee072f5e 	mcr	15, 0, r2, cr7, cr14, {2}
e0011f78:	e2833001 	add	r3, r3, #1
e0011f7c:	e1500003 	cmp	r0, r3
e0011f80:	cafffffa 	bgt	e0011f70 <cleanInvalidate_D_PoC+0x7c>
e0011f84:	e28aa001 	add	sl, sl, #1
e0011f88:	e156000a 	cmp	r6, sl
e0011f8c:	cafffff5 	bgt	e0011f68 <cleanInvalidate_D_PoC+0x74>
e0011f90:	eaffffe0 	b	e0011f18 <cleanInvalidate_D_PoC+0x24>

e0011f94 <cleanInvalidate_L1D>:
e0011f94:	e92d4030 	push	{r4, r5, lr}
e0011f98:	ee502f10 	mrc	15, 2, r2, cr0, cr0, {0}
e0011f9c:	e3a0e000 	mov	lr, #0
e0011fa0:	ee40ef10 	mcr	15, 2, lr, cr0, cr0, {0}
e0011fa4:	ee303f10 	mrc	15, 1, r3, cr0, cr0, {0}
e0011fa8:	ee402f10 	mcr	15, 2, r2, cr0, cr0, {0}
e0011fac:	e203c007 	and	ip, r3, #7
e0011fb0:	e28cc004 	add	ip, ip, #4
e0011fb4:	e7e941d3 	ubfx	r4, r3, #3, #10
e0011fb8:	e2845001 	add	r5, r4, #1
e0011fbc:	e16f4f14 	clz	r4, r4
e0011fc0:	e7ee36d3 	ubfx	r3, r3, #13, #15
e0011fc4:	e2830001 	add	r0, r3, #1
e0011fc8:	e1a0141e 	lsl	r1, lr, r4
e0011fcc:	e3a03000 	mov	r3, #0
e0011fd0:	e1812c13 	orr	r2, r1, r3, lsl ip
e0011fd4:	ee072f5e 	mcr	15, 0, r2, cr7, cr14, {2}
e0011fd8:	e2833001 	add	r3, r3, #1
e0011fdc:	e1500003 	cmp	r0, r3
e0011fe0:	cafffffa 	bgt	e0011fd0 <cleanInvalidate_L1D+0x3c>
e0011fe4:	e28ee001 	add	lr, lr, #1
e0011fe8:	e155000e 	cmp	r5, lr
e0011fec:	cafffff5 	bgt	e0011fc8 <cleanInvalidate_L1D+0x34>
e0011ff0:	e8bd8030 	pop	{r4, r5, pc}

e0011ff4 <lockTLBEntry>:
e0011ff4:	e92d4010 	push	{r4, lr}
e0011ff8:	e30c3000 	movw	r3, #49152	@ 0xc000
e0011ffc:	e34e3001 	movt	r3, #57345	@ 0xe001
e0012000:	e5931878 	ldr	r1, [r3, #2168]	@ 0x878
e0012004:	e2812001 	add	r2, r1, #1
e0012008:	e5832878 	str	r2, [r3, #2168]	@ 0x878
e001200c:	e1a01e01 	lsl	r1, r1, #28
e0012010:	e1a02e02 	lsl	r2, r2, #28
e0012014:	e3811001 	orr	r1, r1, #1
e0012018:	ebfff9e8 	bl	e00107c0 <lockTLBEntryCritical>
e001201c:	e8bd8010 	pop	{r4, pc}

e0012020 <armv_init_user_access>:
e0012020:	ee103f51 	mrc	15, 0, r3, cr0, cr1, {2}
e0012024:	ee103f31 	mrc	15, 0, r3, cr0, cr1, {1}
e0012028:	e3130801 	tst	r3, #65536	@ 0x10000
e001202c:	012fff1e 	bxeq	lr
e0012030:	e3a03000 	mov	r3, #0
e0012034:	ee0e3f11 	mcr	15, 0, r3, cr14, cr1, {0}
e0012038:	e12fff1e 	bx	lr

e001203c <Arch_postModifyRegisters>:
e001203c:	e12fff1e 	bx	lr

e0012040 <cleanInvalidateCacheRange_RAM>:
e0012040:	e92d4030 	push	{r4, r5, lr}
e0012044:	e1a0c2a0 	lsr	ip, r0, #5
e0012048:	e1a042a1 	lsr	r4, r1, #5
e001204c:	e2845001 	add	r5, r4, #1
e0012050:	e15c0005 	cmp	ip, r5
e0012054:	2a000007 	bcs	e0012078 <cleanInvalidateCacheRange_RAM+0x38>
e0012058:	e1a0300c 	mov	r3, ip
e001205c:	e1a0e283 	lsl	lr, r3, #5
e0012060:	ee07ef3a 	mcr	15, 0, lr, cr7, cr10, {1}
e0012064:	f57ff05f 	dmb	sy
e0012068:	e1a0e003 	mov	lr, r3
e001206c:	e1540003 	cmp	r4, r3
e0012070:	e2833001 	add	r3, r3, #1
e0012074:	1afffff8 	bne	e001205c <cleanInvalidateCacheRange_RAM+0x1c>
e0012078:	f57ff04f 	dsb	sy
e001207c:	e3c2301f 	bic	r3, r2, #31
e0012080:	e2822020 	add	r2, r2, #32
e0012084:	e0822001 	add	r2, r2, r1
e0012088:	e0422000 	sub	r2, r2, r0
e001208c:	e3c2201f 	bic	r2, r2, #31
e0012090:	e1530002 	cmp	r3, r2
e0012094:	0a000007 	beq	e00120b8 <cleanInvalidateCacheRange_RAM+0x78>
e0012098:	e30310ff 	movw	r1, #12543	@ 0x30ff
e001209c:	e34f1ff0 	movt	r1, #65520	@ 0xfff0
e00120a0:	e58136b1 	str	r3, [r1, #1713]	@ 0x6b1
e00120a4:	f57ff05f 	dmb	sy
e00120a8:	e5813671 	str	r3, [r1, #1649]	@ 0x671
e00120ac:	e2833020 	add	r3, r3, #32
e00120b0:	e1530002 	cmp	r3, r2
e00120b4:	1afffff9 	bne	e00120a0 <cleanInvalidateCacheRange_RAM+0x60>
e00120b8:	f57ff05f 	dmb	sy
e00120bc:	e30330ff 	movw	r3, #12543	@ 0x30ff
e00120c0:	e34f3ff0 	movt	r3, #65520	@ 0xfff0
e00120c4:	e3a02000 	mov	r2, #0
e00120c8:	e5832631 	str	r2, [r3, #1585]	@ 0x631
e00120cc:	e30320ff 	movw	r2, #12543	@ 0x30ff
e00120d0:	e34f2ff0 	movt	r2, #65520	@ 0xfff0
e00120d4:	e5923631 	ldr	r3, [r2, #1585]	@ 0x631
e00120d8:	e3130001 	tst	r3, #1
e00120dc:	1afffffc 	bne	e00120d4 <cleanInvalidateCacheRange_RAM+0x94>
e00120e0:	e15c0005 	cmp	ip, r5
e00120e4:	2a000005 	bcs	e0012100 <cleanInvalidateCacheRange_RAM+0xc0>
e00120e8:	e1a0328c 	lsl	r3, ip, #5
e00120ec:	ee073f3e 	mcr	15, 0, r3, cr7, cr14, {1}
e00120f0:	f57ff04f 	dsb	sy
e00120f4:	e154000c 	cmp	r4, ip
e00120f8:	e28cc001 	add	ip, ip, #1
e00120fc:	1afffff9 	bne	e00120e8 <cleanInvalidateCacheRange_RAM+0xa8>
e0012100:	f57ff04f 	dsb	sy
e0012104:	e8bd8030 	pop	{r4, r5, pc}

e0012108 <cleanCacheRange_RAM>:
e0012108:	e52de004 	push	{lr}		@ (str lr, [sp, #-4]!)
e001210c:	e1a032a0 	lsr	r3, r0, #5
e0012110:	e1a0e2a1 	lsr	lr, r1, #5
e0012114:	e28ec001 	add	ip, lr, #1
e0012118:	e153000c 	cmp	r3, ip
e001211c:	2a000005 	bcs	e0012138 <cleanCacheRange_RAM+0x30>
e0012120:	e1a0c283 	lsl	ip, r3, #5
e0012124:	ee07cf3a 	mcr	15, 0, ip, cr7, cr10, {1}
e0012128:	f57ff05f 	dmb	sy
e001212c:	e15e0003 	cmp	lr, r3
e0012130:	e2833001 	add	r3, r3, #1
e0012134:	1afffff9 	bne	e0012120 <cleanCacheRange_RAM+0x18>
e0012138:	f57ff04f 	dsb	sy
e001213c:	e3c2301f 	bic	r3, r2, #31
e0012140:	e2822020 	add	r2, r2, #32
e0012144:	e0822001 	add	r2, r2, r1
e0012148:	e0422000 	sub	r2, r2, r0
e001214c:	e3c2201f 	bic	r2, r2, #31
e0012150:	e1530002 	cmp	r3, r2
e0012154:	0a000005 	beq	e0012170 <cleanCacheRange_RAM+0x68>
e0012158:	e30310ff 	movw	r1, #12543	@ 0x30ff
e001215c:	e34f1ff0 	movt	r1, #65520	@ 0xfff0
e0012160:	e58136b1 	str	r3, [r1, #1713]	@ 0x6b1
e0012164:	e2833020 	add	r3, r3, #32
e0012168:	e1530002 	cmp	r3, r2
e001216c:	1afffffb 	bne	e0012160 <cleanCacheRange_RAM+0x58>
e0012170:	f57ff05f 	dmb	sy
e0012174:	e30330ff 	movw	r3, #12543	@ 0x30ff
e0012178:	e34f3ff0 	movt	r3, #65520	@ 0xfff0
e001217c:	e3a02000 	mov	r2, #0
e0012180:	e5832631 	str	r2, [r3, #1585]	@ 0x631
e0012184:	e30320ff 	movw	r2, #12543	@ 0x30ff
e0012188:	e34f2ff0 	movt	r2, #65520	@ 0xfff0
e001218c:	e5923631 	ldr	r3, [r2, #1585]	@ 0x631
e0012190:	e3130001 	tst	r3, #1
e0012194:	1afffffc 	bne	e001218c <cleanCacheRange_RAM+0x84>
e0012198:	e49df004 	pop	{pc}		@ (ldr pc, [sp], #4)

e001219c <cleanCacheRange_PoU>:
e001219c:	e1a002a0 	lsr	r0, r0, #5
e00121a0:	e1a012a1 	lsr	r1, r1, #5
e00121a4:	e2813001 	add	r3, r1, #1
e00121a8:	e1500003 	cmp	r0, r3
e00121ac:	212fff1e 	bxcs	lr
e00121b0:	e1a03280 	lsl	r3, r0, #5
e00121b4:	ee073f3b 	mcr	15, 0, r3, cr7, cr11, {1}
e00121b8:	f57ff05f 	dmb	sy
e00121bc:	e1510000 	cmp	r1, r0
e00121c0:	e2800001 	add	r0, r0, #1
e00121c4:	1afffff9 	bne	e00121b0 <cleanCacheRange_PoU+0x14>
e00121c8:	e12fff1e 	bx	lr

e00121cc <unmapPage>:
e00121cc:	e92d41f0 	push	{r4, r5, r6, r7, r8, lr}
e00121d0:	e24dd010 	sub	sp, sp, #16
e00121d4:	e1a04000 	mov	r4, r0
e00121d8:	e1a06001 	mov	r6, r1
e00121dc:	e1a05002 	mov	r5, r2
e00121e0:	e2838203 	add	r8, r3, #805306368	@ 0x30000000
e00121e4:	e28d0008 	add	r0, sp, #8
e00121e8:	ebfffaa7 	bl	e0010c8c <findPDForASID>
e00121ec:	e59d700c 	ldr	r7, [sp, #12]
e00121f0:	e59d2008 	ldr	r2, [sp, #8]
e00121f4:	e3520000 	cmp	r2, #0
e00121f8:	1a00001e 	bne	e0012278 <unmapPage+0xac>
e00121fc:	e3540003 	cmp	r4, #3
e0012200:	979ff104 	ldrls	pc, [pc, r4, lsl #2]
e0012204:	ea00005f 	b	e0012388 <unmapPage+0x1bc>
e0012208:	e0012218 	.word	0xe0012218
e001220c:	e0012280 	.word	0xe0012280
e0012210:	e00122ec 	.word	0xe00122ec
e0012214:	e0012330 	.word	0xe0012330
e0012218:	e1a02005 	mov	r2, r5
e001221c:	e1a01007 	mov	r1, r7
e0012220:	e1a0000d 	mov	r0, sp
e0012224:	ebfffba8 	bl	e00110cc <lookupPTSlot>
e0012228:	e59d2004 	ldr	r2, [sp, #4]
e001222c:	e59d3000 	ldr	r3, [sp]
e0012230:	e3530000 	cmp	r3, #0
e0012234:	1a00000f 	bne	e0012278 <unmapPage+0xac>
e0012238:	e5923000 	ldr	r3, [r2]
e001223c:	e3130002 	tst	r3, #2
e0012240:	0a00000c 	beq	e0012278 <unmapPage+0xac>
e0012244:	e3c33eff 	bic	r3, r3, #4080	@ 0xff0
e0012248:	e3c3300f 	bic	r3, r3, #15
e001224c:	e1580003 	cmp	r8, r3
e0012250:	1a000008 	bne	e0012278 <unmapPage+0xac>
e0012254:	e3a03000 	mov	r3, #0
e0012258:	e5823000 	str	r3, [r2]
e001225c:	ee072f3b 	mcr	15, 0, r2, cr7, cr11, {1}
e0012260:	f57ff05f 	dmb	sy
e0012264:	e1a03005 	mov	r3, r5
e0012268:	e1a02006 	mov	r2, r6
e001226c:	e1a01007 	mov	r1, r7
e0012270:	e1a00004 	mov	r0, r4
e0012274:	ebfffca6 	bl	e0011514 <flushPage>
e0012278:	e28dd010 	add	sp, sp, #16
e001227c:	e8bd81f0 	pop	{r4, r5, r6, r7, r8, pc}
e0012280:	e1a02005 	mov	r2, r5
e0012284:	e1a01007 	mov	r1, r7
e0012288:	e1a0000d 	mov	r0, sp
e001228c:	ebfffb8e 	bl	e00110cc <lookupPTSlot>
e0012290:	e59d0004 	ldr	r0, [sp, #4]
e0012294:	e59d3000 	ldr	r3, [sp]
e0012298:	e3530000 	cmp	r3, #0
e001229c:	1afffff5 	bne	e0012278 <unmapPage+0xac>
e00122a0:	e5903000 	ldr	r3, [r0]
e00122a4:	e3130002 	tst	r3, #2
e00122a8:	1afffff2 	bne	e0012278 <unmapPage+0xac>
e00122ac:	e3130001 	tst	r3, #1
e00122b0:	0afffff0 	beq	e0012278 <unmapPage+0xac>
e00122b4:	e1a03823 	lsr	r3, r3, #16
e00122b8:	e1a03803 	lsl	r3, r3, #16
e00122bc:	e1580003 	cmp	r8, r3
e00122c0:	0240c004 	subeq	ip, r0, #4
e00122c4:	0280203c 	addeq	r2, r0, #60	@ 0x3c
e00122c8:	03a03000 	moveq	r3, #0
e00122cc:	1affffe9 	bne	e0012278 <unmapPage+0xac>
e00122d0:	e5ac3004 	str	r3, [ip, #4]!
e00122d4:	e15c0002 	cmp	ip, r2
e00122d8:	1afffffc 	bne	e00122d0 <unmapPage+0x104>
e00122dc:	e2802203 	add	r2, r0, #805306368	@ 0x30000000
e00122e0:	e280103f 	add	r1, r0, #63	@ 0x3f
e00122e4:	ebffffac 	bl	e001219c <cleanCacheRange_PoU>
e00122e8:	eaffffdd 	b	e0012264 <unmapPage+0x98>
e00122ec:	e1a02a25 	lsr	r2, r5, #20
e00122f0:	e0870102 	add	r0, r7, r2, lsl #2
e00122f4:	e7973102 	ldr	r3, [r7, r2, lsl #2]
e00122f8:	e2031003 	and	r1, r3, #3
e00122fc:	e3510002 	cmp	r1, #2
e0012300:	1affffdc 	bne	e0012278 <unmapPage+0xac>
e0012304:	e3130701 	tst	r3, #262144	@ 0x40000
e0012308:	1affffda 	bne	e0012278 <unmapPage+0xac>
e001230c:	e1a03a23 	lsr	r3, r3, #20
e0012310:	e1a03a03 	lsl	r3, r3, #20
e0012314:	e1580003 	cmp	r8, r3
e0012318:	1affffd6 	bne	e0012278 <unmapPage+0xac>
e001231c:	e3a03000 	mov	r3, #0
e0012320:	e7873102 	str	r3, [r7, r2, lsl #2]
e0012324:	ee070f3b 	mcr	15, 0, r0, cr7, cr11, {1}
e0012328:	f57ff05f 	dmb	sy
e001232c:	eaffffcc 	b	e0012264 <unmapPage+0x98>
e0012330:	e1a03a25 	lsr	r3, r5, #20
e0012334:	e0870103 	add	r0, r7, r3, lsl #2
e0012338:	e7973103 	ldr	r3, [r7, r3, lsl #2]
e001233c:	e2032003 	and	r2, r3, #3
e0012340:	e3520002 	cmp	r2, #2
e0012344:	1affffcb 	bne	e0012278 <unmapPage+0xac>
e0012348:	e3130701 	tst	r3, #262144	@ 0x40000
e001234c:	0affffc9 	beq	e0012278 <unmapPage+0xac>
e0012350:	e1a03a23 	lsr	r3, r3, #20
e0012354:	e1a03a03 	lsl	r3, r3, #20
e0012358:	e1580003 	cmp	r8, r3
e001235c:	1affffc5 	bne	e0012278 <unmapPage+0xac>
e0012360:	e240c004 	sub	ip, r0, #4
e0012364:	e280203c 	add	r2, r0, #60	@ 0x3c
e0012368:	e3a03000 	mov	r3, #0
e001236c:	e5ac3004 	str	r3, [ip, #4]!
e0012370:	e15c0002 	cmp	ip, r2
e0012374:	1afffffc 	bne	e001236c <unmapPage+0x1a0>
e0012378:	e2802203 	add	r2, r0, #805306368	@ 0x30000000
e001237c:	e280103f 	add	r1, r0, #63	@ 0x3f
e0012380:	ebffff85 	bl	e001219c <cleanCacheRange_PoU>
e0012384:	eaffffb6 	b	e0012264 <unmapPage+0x98>
e0012388:	ebfff965 	bl	e0010924 <halt>

e001238c <Arch_createObject>:
e001238c:	e92d4070 	push	{r4, r5, r6, lr}
e0012390:	e1a05000 	mov	r5, r0
e0012394:	e1a04002 	mov	r4, r2
e0012398:	e2411005 	sub	r1, r1, #5
e001239c:	e3510005 	cmp	r1, #5
e00123a0:	979ff101 	ldrls	pc, [pc, r1, lsl #2]
e00123a4:	ea00004d 	b	e00124e0 <Arch_createObject+0x154>
e00123a8:	e00124a8 	.word	0xe00124a8
e00123ac:	e00123c0 	.word	0xe00123c0
e00123b0:	e00123f0 	.word	0xe00123f0
e00123b4:	e0012424 	.word	0xe0012424
e00123b8:	e0012458 	.word	0xe0012458
e00123bc:	e001248c 	.word	0xe001248c
e00123c0:	e59d3010 	ldr	r3, [sp, #16]
e00123c4:	e2532000 	subs	r2, r3, #0
e00123c8:	13a02001 	movne	r2, #1
e00123cc:	e1a03424 	lsr	r3, r4, #8
e00123d0:	e3c3300f 	bic	r3, r3, #15
e00123d4:	e1833f82 	orr	r3, r3, r2, lsl #31
e00123d8:	e3833001 	orr	r3, r3, #1
e00123dc:	e5803000 	str	r3, [r0]
e00123e0:	e3a03603 	mov	r3, #3145728	@ 0x300000
e00123e4:	e5803004 	str	r3, [r0, #4]
e00123e8:	e1a00005 	mov	r0, r5
e00123ec:	e8bd8070 	pop	{r4, r5, r6, pc}
e00123f0:	e59d3010 	ldr	r3, [sp, #16]
e00123f4:	e2533000 	subs	r3, r3, #0
e00123f8:	13a03001 	movne	r3, #1
e00123fc:	e1a04522 	lsr	r4, r2, #10
e0012400:	e3c442ff 	bic	r4, r4, #-268435441	@ 0xf000000f
e0012404:	e3c4453f 	bic	r4, r4, #264241152	@ 0xfc00000
e0012408:	e1844e83 	orr	r4, r4, r3, lsl #29
e001240c:	e3844003 	orr	r4, r4, #3
e0012410:	e5804000 	str	r4, [r0]
e0012414:	e3a03000 	mov	r3, #0
e0012418:	e344300c 	movt	r3, #16396	@ 0x400c
e001241c:	e5803004 	str	r3, [r0, #4]
e0012420:	eafffff0 	b	e00123e8 <Arch_createObject+0x5c>
e0012424:	e59d3010 	ldr	r3, [sp, #16]
e0012428:	e2533000 	subs	r3, r3, #0
e001242c:	13a03001 	movne	r3, #1
e0012430:	e1a04522 	lsr	r4, r2, #10
e0012434:	e3c442ff 	bic	r4, r4, #-268435441	@ 0xf000000f
e0012438:	e3c4453f 	bic	r4, r4, #264241152	@ 0xfc00000
e001243c:	e1844e83 	orr	r4, r4, r3, lsl #29
e0012440:	e3844003 	orr	r4, r4, #3
e0012444:	e5804000 	str	r4, [r0]
e0012448:	e3a03000 	mov	r3, #0
e001244c:	e348300c 	movt	r3, #32780	@ 0x800c
e0012450:	e5803004 	str	r3, [r0, #4]
e0012454:	eaffffe3 	b	e00123e8 <Arch_createObject+0x5c>
e0012458:	e59d3010 	ldr	r3, [sp, #16]
e001245c:	e2533000 	subs	r3, r3, #0
e0012460:	13a03001 	movne	r3, #1
e0012464:	e1a04522 	lsr	r4, r2, #10
e0012468:	e3c442ff 	bic	r4, r4, #-268435441	@ 0xf000000f
e001246c:	e3c4453f 	bic	r4, r4, #264241152	@ 0xfc00000
e0012470:	e1844e83 	orr	r4, r4, r3, lsl #29
e0012474:	e3844003 	orr	r4, r4, #3
e0012478:	e5804000 	str	r4, [r0]
e001247c:	e3a03000 	mov	r3, #0
e0012480:	e34c300c 	movt	r3, #49164	@ 0xc00c
e0012484:	e5803004 	str	r3, [r0, #4]
e0012488:	eaffffd6 	b	e00123e8 <Arch_createObject+0x5c>
e001248c:	e3c24fff 	bic	r4, r2, #1020	@ 0x3fc
e0012490:	e3c44003 	bic	r4, r4, #3
e0012494:	e3844007 	orr	r4, r4, #7
e0012498:	e5804000 	str	r4, [r0]
e001249c:	e3a03000 	mov	r3, #0
e00124a0:	e5803004 	str	r3, [r0, #4]
e00124a4:	eaffffcf 	b	e00123e8 <Arch_createObject+0x5c>
e00124a8:	e1a00002 	mov	r0, r2
e00124ac:	ebfffbf0 	bl	e0011474 <copyGlobalMappings>
e00124b0:	e2842203 	add	r2, r4, #805306368	@ 0x30000000
e00124b4:	e2841dff 	add	r1, r4, #16320	@ 0x3fc0
e00124b8:	e281103f 	add	r1, r1, #63	@ 0x3f
e00124bc:	e1a00004 	mov	r0, r4
e00124c0:	ebffff35 	bl	e001219c <cleanCacheRange_PoU>
e00124c4:	e3c44dff 	bic	r4, r4, #16320	@ 0x3fc0
e00124c8:	e3c4403f 	bic	r4, r4, #63	@ 0x3f
e00124cc:	e3844009 	orr	r4, r4, #9
e00124d0:	e5854000 	str	r4, [r5]
e00124d4:	e3a03000 	mov	r3, #0
e00124d8:	e5853004 	str	r3, [r5, #4]
e00124dc:	eaffffc1 	b	e00123e8 <Arch_createObject+0x5c>
e00124e0:	ebfff90f 	bl	e0010924 <halt>

e00124e4 <invalidateCacheRange_RAM>:
e00124e4:	e92d4070 	push	{r4, r5, r6, lr}
e00124e8:	e1a04000 	mov	r4, r0
e00124ec:	e1a05001 	mov	r5, r1
e00124f0:	e1a06002 	mov	r6, r2
e00124f4:	e310001f 	tst	r0, #31
e00124f8:	1a000026 	bne	e0012598 <invalidateCacheRange_RAM+0xb4>
e00124fc:	e2853001 	add	r3, r5, #1
e0012500:	e313001f 	tst	r3, #31
e0012504:	1a000026 	bne	e00125a4 <invalidateCacheRange_RAM+0xc0>
e0012508:	e3c6301f 	bic	r3, r6, #31
e001250c:	e2851020 	add	r1, r5, #32
e0012510:	e0812006 	add	r2, r1, r6
e0012514:	e0422004 	sub	r2, r2, r4
e0012518:	e3c2201f 	bic	r2, r2, #31
e001251c:	e1530002 	cmp	r3, r2
e0012520:	0a000005 	beq	e001253c <invalidateCacheRange_RAM+0x58>
e0012524:	e30310ff 	movw	r1, #12543	@ 0x30ff
e0012528:	e34f1ff0 	movt	r1, #65520	@ 0xfff0
e001252c:	e5813671 	str	r3, [r1, #1649]	@ 0x671
e0012530:	e2833020 	add	r3, r3, #32
e0012534:	e1530002 	cmp	r3, r2
e0012538:	1afffffb 	bne	e001252c <invalidateCacheRange_RAM+0x48>
e001253c:	f57ff05f 	dmb	sy
e0012540:	e30330ff 	movw	r3, #12543	@ 0x30ff
e0012544:	e34f3ff0 	movt	r3, #65520	@ 0xfff0
e0012548:	e3a02000 	mov	r2, #0
e001254c:	e5832631 	str	r2, [r3, #1585]	@ 0x631
e0012550:	e30320ff 	movw	r2, #12543	@ 0x30ff
e0012554:	e34f2ff0 	movt	r2, #65520	@ 0xfff0
e0012558:	e5923631 	ldr	r3, [r2, #1585]	@ 0x631
e001255c:	e3130001 	tst	r3, #1
e0012560:	1afffffc 	bne	e0012558 <invalidateCacheRange_RAM+0x74>
e0012564:	e1a002a4 	lsr	r0, r4, #5
e0012568:	e1a052a5 	lsr	r5, r5, #5
e001256c:	e2853001 	add	r3, r5, #1
e0012570:	e1500003 	cmp	r0, r3
e0012574:	2a000005 	bcs	e0012590 <invalidateCacheRange_RAM+0xac>
e0012578:	e1a03280 	lsl	r3, r0, #5
e001257c:	ee073f36 	mcr	15, 0, r3, cr7, cr6, {1}
e0012580:	f57ff05f 	dmb	sy
e0012584:	e1550000 	cmp	r5, r0
e0012588:	e2800001 	add	r0, r0, #1
e001258c:	1afffff9 	bne	e0012578 <invalidateCacheRange_RAM+0x94>
e0012590:	f57ff04f 	dsb	sy
e0012594:	e8bd8070 	pop	{r4, r5, r6, pc}
e0012598:	e1a01000 	mov	r1, r0
e001259c:	ebfffed9 	bl	e0012108 <cleanCacheRange_RAM>
e00125a0:	eaffffd5 	b	e00124fc <invalidateCacheRange_RAM+0x18>
e00125a4:	e3c5001f 	bic	r0, r5, #31
e00125a8:	e0862000 	add	r2, r6, r0
e00125ac:	e0422004 	sub	r2, r2, r4
e00125b0:	e1a01000 	mov	r1, r0
e00125b4:	ebfffed3 	bl	e0012108 <cleanCacheRange_RAM>
e00125b8:	eaffffd2 	b	e0012508 <invalidateCacheRange_RAM+0x24>

e00125bc <invalidateCacheRange_I>:
e00125bc:	e1a002a0 	lsr	r0, r0, #5
e00125c0:	e1a012a1 	lsr	r1, r1, #5
e00125c4:	e2813001 	add	r3, r1, #1
e00125c8:	e1500003 	cmp	r0, r3
e00125cc:	212fff1e 	bxcs	lr
e00125d0:	e1a03280 	lsl	r3, r0, #5
e00125d4:	ee073f35 	mcr	15, 0, r3, cr7, cr5, {1}
e00125d8:	f57ff06f 	isb	sy
e00125dc:	e1510000 	cmp	r1, r0
e00125e0:	e2800001 	add	r0, r0, #1
e00125e4:	1afffff9 	bne	e00125d0 <invalidateCacheRange_I+0x14>
e00125e8:	e12fff1e 	bx	lr

e00125ec <branchFlushRange>:
e00125ec:	e1a002a0 	lsr	r0, r0, #5
e00125f0:	e1a012a1 	lsr	r1, r1, #5
e00125f4:	e2813001 	add	r3, r1, #1
e00125f8:	e1500003 	cmp	r0, r3
e00125fc:	212fff1e 	bxcs	lr
e0012600:	e1a03280 	lsl	r3, r0, #5
e0012604:	ee073ff5 	mcr	15, 0, r3, cr7, cr5, {7}
e0012608:	e1510000 	cmp	r1, r0
e001260c:	e2800001 	add	r0, r0, #1
e0012610:	1afffffa 	bne	e0012600 <branchFlushRange+0x14>
e0012614:	e12fff1e 	bx	lr

e0012618 <doFlush>:
e0012618:	e92d4070 	push	{r4, r5, r6, lr}
e001261c:	e1a04001 	mov	r4, r1
e0012620:	e1a05002 	mov	r5, r2
e0012624:	e1a06003 	mov	r6, r3
e0012628:	e240001e 	sub	r0, r0, #30
e001262c:	e350000b 	cmp	r0, #11
e0012630:	979ff100 	ldrls	pc, [pc, r0, lsl #2]
e0012634:	ea000029 	b	e00126e0 <doFlush+0xc8>
e0012638:	e0012668 	.word	0xe0012668
e001263c:	e001267c 	.word	0xe001267c
e0012640:	e0012690 	.word	0xe0012690
e0012644:	e00126a4 	.word	0xe00126a4
e0012648:	e00126e0 	.word	0xe00126e0
e001264c:	e00126e0 	.word	0xe00126e0
e0012650:	e00126e0 	.word	0xe00126e0
e0012654:	e00126e0 	.word	0xe00126e0
e0012658:	e0012668 	.word	0xe0012668
e001265c:	e001267c 	.word	0xe001267c
e0012660:	e0012690 	.word	0xe0012690
e0012664:	e00126a4 	.word	0xe00126a4
e0012668:	e1a02003 	mov	r2, r3
e001266c:	e1a01005 	mov	r1, r5
e0012670:	e1a00004 	mov	r0, r4
e0012674:	ebfffea3 	bl	e0012108 <cleanCacheRange_RAM>
e0012678:	e8bd8070 	pop	{r4, r5, r6, pc}
e001267c:	e1a02003 	mov	r2, r3
e0012680:	e1a01005 	mov	r1, r5
e0012684:	e1a00004 	mov	r0, r4
e0012688:	ebffff95 	bl	e00124e4 <invalidateCacheRange_RAM>
e001268c:	e8bd8070 	pop	{r4, r5, r6, pc}
e0012690:	e1a02003 	mov	r2, r3
e0012694:	e1a01005 	mov	r1, r5
e0012698:	e1a00004 	mov	r0, r4
e001269c:	ebfffe67 	bl	e0012040 <cleanInvalidateCacheRange_RAM>
e00126a0:	e8bd8070 	pop	{r4, r5, r6, pc}
e00126a4:	e1a02003 	mov	r2, r3
e00126a8:	e1a01005 	mov	r1, r5
e00126ac:	e1a00004 	mov	r0, r4
e00126b0:	ebfffeb9 	bl	e001219c <cleanCacheRange_PoU>
e00126b4:	f57ff04f 	dsb	sy
e00126b8:	e1a02006 	mov	r2, r6
e00126bc:	e1a01005 	mov	r1, r5
e00126c0:	e1a00004 	mov	r0, r4
e00126c4:	ebffffbc 	bl	e00125bc <invalidateCacheRange_I>
e00126c8:	e1a02006 	mov	r2, r6
e00126cc:	e1a01005 	mov	r1, r5
e00126d0:	e1a00004 	mov	r0, r4
e00126d4:	ebffffc4 	bl	e00125ec <branchFlushRange>
e00126d8:	f57ff06f 	isb	sy
e00126dc:	e8bd8070 	pop	{r4, r5, r6, pc}
e00126e0:	ebfff88f 	bl	e0010924 <halt>

e00126e4 <cleanCaches_PoU>:
e00126e4:	e92d4010 	push	{r4, lr}
e00126e8:	f57ff04f 	dsb	sy
e00126ec:	ebfffdd8 	bl	e0011e54 <clean_D_PoU>
e00126f0:	f57ff04f 	dsb	sy
e00126f4:	e3a03000 	mov	r3, #0
e00126f8:	ee073f15 	mcr	15, 0, r3, cr7, cr5, {0}
e00126fc:	f57ff06f 	isb	sy
e0012700:	f57ff04f 	dsb	sy
e0012704:	e8bd8010 	pop	{r4, pc}

e0012708 <flushSpace>:
e0012708:	e92d4010 	push	{r4, lr}
e001270c:	ebfff844 	bl	e0010824 <loadHWASID>
e0012710:	e1a04000 	mov	r4, r0
e0012714:	ebfffff2 	bl	e00126e4 <cleanCaches_PoU>
e0012718:	e3140502 	tst	r4, #8388608	@ 0x800000
e001271c:	08bd8010 	popeq	{r4, pc}
e0012720:	f57ff04f 	dsb	sy
e0012724:	e1a04c24 	lsr	r4, r4, #24
e0012728:	ee084f57 	mcr	15, 0, r4, cr8, cr7, {2}
e001272c:	f57ff04f 	dsb	sy
e0012730:	f57ff06f 	isb	sy
e0012734:	e8bd8010 	pop	{r4, pc}

e0012738 <deleteASIDPool>:
e0012738:	e92d41f0 	push	{r4, r5, r6, r7, r8, lr}
e001273c:	e1a07520 	lsr	r7, r0, #10
e0012740:	e30c3000 	movw	r3, #49152	@ 0xc000
e0012744:	e34e3001 	movt	r3, #57345	@ 0xe001
e0012748:	e7933107 	ldr	r3, [r3, r7, lsl #2]
e001274c:	e1530001 	cmp	r3, r1
e0012750:	18bd81f0 	popne	{r4, r5, r6, r7, r8, pc}
e0012754:	e1a04000 	mov	r4, r0
e0012758:	e2415004 	sub	r5, r1, #4
e001275c:	e2806b01 	add	r6, r0, #1024	@ 0x400
e0012760:	ea000006 	b	e0012780 <deleteASIDPool+0x48>
e0012764:	e1a00004 	mov	r0, r4
e0012768:	ebffffe6 	bl	e0012708 <flushSpace>
e001276c:	e1a00004 	mov	r0, r4
e0012770:	ebfff834 	bl	e0010848 <invalidateASIDEntry>
e0012774:	e2844001 	add	r4, r4, #1
e0012778:	e1540006 	cmp	r4, r6
e001277c:	0a000003 	beq	e0012790 <deleteASIDPool+0x58>
e0012780:	e5b53004 	ldr	r3, [r5, #4]!
e0012784:	e3530000 	cmp	r3, #0
e0012788:	1afffff5 	bne	e0012764 <deleteASIDPool+0x2c>
e001278c:	eafffff8 	b	e0012774 <deleteASIDPool+0x3c>
e0012790:	e30c3000 	movw	r3, #49152	@ 0xc000
e0012794:	e34e3001 	movt	r3, #57345	@ 0xe001
e0012798:	e3a02000 	mov	r2, #0
e001279c:	e7832107 	str	r2, [r3, r7, lsl #2]
e00127a0:	e5930840 	ldr	r0, [r3, #2112]	@ 0x840
e00127a4:	ebfffac6 	bl	e00112c4 <setVMRoot>
e00127a8:	e8bd81f0 	pop	{r4, r5, r6, r7, r8, pc}

e00127ac <deleteASID>:
e00127ac:	e92d4070 	push	{r4, r5, r6, lr}
e00127b0:	e30c3000 	movw	r3, #49152	@ 0xc000
e00127b4:	e34e3001 	movt	r3, #57345	@ 0xe001
e00127b8:	e1a02520 	lsr	r2, r0, #10
e00127bc:	e7935102 	ldr	r5, [r3, r2, lsl #2]
e00127c0:	e3550000 	cmp	r5, #0
e00127c4:	08bd8070 	popeq	{r4, r5, r6, pc}
e00127c8:	e1a04000 	mov	r4, r0
e00127cc:	e7e96050 	ubfx	r6, r0, #0, #10
e00127d0:	e7953106 	ldr	r3, [r5, r6, lsl #2]
e00127d4:	e1530001 	cmp	r3, r1
e00127d8:	18bd8070 	popne	{r4, r5, r6, pc}
e00127dc:	ebffffc9 	bl	e0012708 <flushSpace>
e00127e0:	e1a00004 	mov	r0, r4
e00127e4:	ebfff817 	bl	e0010848 <invalidateASIDEntry>
e00127e8:	e3a03000 	mov	r3, #0
e00127ec:	e7853106 	str	r3, [r5, r6, lsl #2]
e00127f0:	e30c3000 	movw	r3, #49152	@ 0xc000
e00127f4:	e34e3001 	movt	r3, #57345	@ 0xe001
e00127f8:	e5930840 	ldr	r0, [r3, #2112]	@ 0x840
e00127fc:	ebfffab0 	bl	e00112c4 <setVMRoot>
e0012800:	e8bd8070 	pop	{r4, r5, r6, pc}

e0012804 <Arch_finaliseCap>:
e0012804:	e92d4010 	push	{r4, lr}
e0012808:	e24dd008 	sub	sp, sp, #8
e001280c:	e1a04000 	mov	r4, r0
e0012810:	e28d0008 	add	r0, sp, #8
e0012814:	e9000006 	stmdb	r0, {r1, r2}
e0012818:	e1a00002 	mov	r0, r2
e001281c:	e1a02001 	mov	r2, r1
e0012820:	e201100e 	and	r1, r1, #14
e0012824:	e351000e 	cmp	r1, #14
e0012828:	1202c00f 	andne	ip, r2, #15
e001282c:	06efc072 	uxtbeq	ip, r2
e0012830:	e24cc001 	sub	ip, ip, #1
e0012834:	e35c0008 	cmp	ip, #8
e0012838:	979ff10c 	ldrls	pc, [pc, ip, lsl #2]
e001283c:	ea00000a 	b	e001286c <Arch_finaliseCap+0x68>
e0012840:	e00128e8 	.word	0xe00128e8
e0012844:	e001286c 	.word	0xe001286c
e0012848:	e0012914 	.word	0xe0012914
e001284c:	e001286c 	.word	0xe001286c
e0012850:	e0012864 	.word	0xe0012864
e0012854:	e001286c 	.word	0xe001286c
e0012858:	e00128c0 	.word	0xe00128c0
e001285c:	e001286c 	.word	0xe001286c
e0012860:	e001289c 	.word	0xe001289c
e0012864:	e3530000 	cmp	r3, #0
e0012868:	1a000007 	bne	e001288c <Arch_finaliseCap+0x88>
e001286c:	e3a03000 	mov	r3, #0
e0012870:	e5843000 	str	r3, [r4]
e0012874:	e5843004 	str	r3, [r4, #4]
e0012878:	e5843008 	str	r3, [r4, #8]
e001287c:	e584300c 	str	r3, [r4, #12]
e0012880:	e1a00004 	mov	r0, r4
e0012884:	e28dd008 	add	sp, sp, #8
e0012888:	e8bd8010 	pop	{r4, pc}
e001288c:	e3c2100f 	bic	r1, r2, #15
e0012890:	e7f00050 	ubfx	r0, r0, #0, #17
e0012894:	ebffffa7 	bl	e0012738 <deleteASIDPool>
e0012898:	eafffff3 	b	e001286c <Arch_finaliseCap+0x68>
e001289c:	e3530000 	cmp	r3, #0
e00128a0:	0afffff1 	beq	e001286c <Arch_finaliseCap+0x68>
e00128a4:	e3120010 	tst	r2, #16
e00128a8:	0affffef 	beq	e001286c <Arch_finaliseCap+0x68>
e00128ac:	e3c21dff 	bic	r1, r2, #16320	@ 0x3fc0
e00128b0:	e3c1103f 	bic	r1, r1, #63	@ 0x3f
e00128b4:	e7f00050 	ubfx	r0, r0, #0, #17
e00128b8:	ebffffbb 	bl	e00127ac <deleteASID>
e00128bc:	eaffffea 	b	e001286c <Arch_finaliseCap+0x68>
e00128c0:	e3530000 	cmp	r3, #0
e00128c4:	0affffe8 	beq	e001286c <Arch_finaliseCap+0x68>
e00128c8:	e3100202 	tst	r0, #536870912	@ 0x20000000
e00128cc:	0affffe6 	beq	e001286c <Arch_finaliseCap+0x68>
e00128d0:	e3c22fff 	bic	r2, r2, #1020	@ 0x3fc
e00128d4:	e3c22003 	bic	r2, r2, #3
e00128d8:	e1a01a00 	lsl	r1, r0, #20
e00128dc:	e7f00650 	ubfx	r0, r0, #12, #17
e00128e0:	ebfffb38 	bl	e00115c8 <unmapPageTable>
e00128e4:	eaffffe0 	b	e001286c <Arch_finaliseCap+0x68>
e00128e8:	e1a01722 	lsr	r1, r2, #14
e00128ec:	e2011b7f 	and	r1, r1, #130048	@ 0x1fc00
e00128f0:	e0911b20 	adds	r1, r1, r0, lsr #22
e00128f4:	0affffdc 	beq	e001286c <Arch_finaliseCap+0x68>
e00128f8:	e1a03402 	lsl	r3, r2, #8
e00128fc:	e3c33eff 	bic	r3, r3, #4080	@ 0xff0
e0012900:	e3c3300f 	bic	r3, r3, #15
e0012904:	e1a02600 	lsl	r2, r0, #12
e0012908:	e3a00000 	mov	r0, #0
e001290c:	ebfffe2e 	bl	e00121cc <unmapPage>
e0012910:	eaffffd5 	b	e001286c <Arch_finaliseCap+0x68>
e0012914:	e1a01622 	lsr	r1, r2, #12
e0012918:	e2011b7f 	and	r1, r1, #130048	@ 0x1fc00
e001291c:	e7e93a50 	ubfx	r3, r0, #20, #10
e0012920:	e1911003 	orrs	r1, r1, r3
e0012924:	0affffd0 	beq	e001286c <Arch_finaliseCap+0x68>
e0012928:	e1a03502 	lsl	r3, r2, #10
e001292c:	e3c33dff 	bic	r3, r3, #16320	@ 0x3fc0
e0012930:	e3c3303f 	bic	r3, r3, #63	@ 0x3f
e0012934:	e1a02700 	lsl	r2, r0, #14
e0012938:	e1a00f20 	lsr	r0, r0, #30
e001293c:	ebfffe22 	bl	e00121cc <unmapPage>
e0012940:	eaffffc9 	b	e001286c <Arch_finaliseCap+0x68>

e0012944 <cleanInvalidateL1Caches>:
e0012944:	e92d4010 	push	{r4, lr}
e0012948:	f57ff04f 	dsb	sy
e001294c:	ebfffd68 	bl	e0011ef4 <cleanInvalidate_D_PoC>
e0012950:	f57ff04f 	dsb	sy
e0012954:	e3a03000 	mov	r3, #0
e0012958:	ee073f15 	mcr	15, 0, r3, cr7, cr5, {0}
e001295c:	f57ff06f 	isb	sy
e0012960:	f57ff04f 	dsb	sy
e0012964:	e8bd8010 	pop	{r4, pc}

e0012968 <arch_clean_invalidate_caches>:
e0012968:	e92d4010 	push	{r4, lr}
e001296c:	ebffff5c 	bl	e00126e4 <cleanCaches_PoU>
e0012970:	e30330ff 	movw	r3, #12543	@ 0x30ff
e0012974:	e34f3ff0 	movt	r3, #65520	@ 0xfff0
e0012978:	e30f2fff 	movw	r2, #65535	@ 0xffff
e001297c:	e58326bd 	str	r2, [r3, #1725]	@ 0x6bd
e0012980:	e30320ff 	movw	r2, #12543	@ 0x30ff
e0012984:	e34f2ff0 	movt	r2, #65520	@ 0xfff0
e0012988:	e59236bd 	ldr	r3, [r2, #1725]	@ 0x6bd
e001298c:	e3530000 	cmp	r3, #0
e0012990:	1afffffc 	bne	e0012988 <arch_clean_invalidate_caches+0x20>
e0012994:	f57ff05f 	dmb	sy
e0012998:	e30330ff 	movw	r3, #12543	@ 0x30ff
e001299c:	e34f3ff0 	movt	r3, #65520	@ 0xfff0
e00129a0:	e3a02000 	mov	r2, #0
e00129a4:	e5832631 	str	r2, [r3, #1585]	@ 0x631
e00129a8:	e30320ff 	movw	r2, #12543	@ 0x30ff
e00129ac:	e34f2ff0 	movt	r2, #65520	@ 0xfff0
e00129b0:	e5923631 	ldr	r3, [r2, #1585]	@ 0x631
e00129b4:	e3130001 	tst	r3, #1
e00129b8:	1afffffc 	bne	e00129b0 <arch_clean_invalidate_caches+0x48>
e00129bc:	e30330ff 	movw	r3, #12543	@ 0x30ff
e00129c0:	e34f3ff0 	movt	r3, #65520	@ 0xfff0
e00129c4:	e30f2fff 	movw	r2, #65535	@ 0xffff
e00129c8:	e583267d 	str	r2, [r3, #1661]	@ 0x67d
e00129cc:	e30320ff 	movw	r2, #12543	@ 0x30ff
e00129d0:	e34f2ff0 	movt	r2, #65520	@ 0xfff0
e00129d4:	e592367d 	ldr	r3, [r2, #1661]	@ 0x67d
e00129d8:	e3530000 	cmp	r3, #0
e00129dc:	1afffffc 	bne	e00129d4 <arch_clean_invalidate_caches+0x6c>
e00129e0:	f57ff05f 	dmb	sy
e00129e4:	e30330ff 	movw	r3, #12543	@ 0x30ff
e00129e8:	e34f3ff0 	movt	r3, #65520	@ 0xfff0
e00129ec:	e3a02000 	mov	r2, #0
e00129f0:	e5832631 	str	r2, [r3, #1585]	@ 0x631
e00129f4:	e30320ff 	movw	r2, #12543	@ 0x30ff
e00129f8:	e34f2ff0 	movt	r2, #65520	@ 0xfff0
e00129fc:	e5923631 	ldr	r3, [r2, #1585]	@ 0x631
e0012a00:	e3130001 	tst	r3, #1
e0012a04:	1afffffc 	bne	e00129fc <arch_clean_invalidate_caches+0x94>
e0012a08:	ebffffcd 	bl	e0012944 <cleanInvalidateL1Caches>
e0012a0c:	f57ff06f 	isb	sy
e0012a10:	e8bd8010 	pop	{r4, pc}

e0012a14 <arch_clean_invalidate_L1_caches>:
e0012a14:	e92d4010 	push	{r4, lr}
e0012a18:	e1a04000 	mov	r4, r0
e0012a1c:	f57ff04f 	dsb	sy
e0012a20:	e3100002 	tst	r0, #2
e0012a24:	1a000007 	bne	e0012a48 <arch_clean_invalidate_L1_caches+0x34>
e0012a28:	e3140001 	tst	r4, #1
e0012a2c:	08bd8010 	popeq	{r4, pc}
e0012a30:	e3a03000 	mov	r3, #0
e0012a34:	ee073f15 	mcr	15, 0, r3, cr7, cr5, {0}
e0012a38:	f57ff06f 	isb	sy
e0012a3c:	f57ff04f 	dsb	sy
e0012a40:	f57ff06f 	isb	sy
e0012a44:	e8bd8010 	pop	{r4, pc}
e0012a48:	ebfffd51 	bl	e0011f94 <cleanInvalidate_L1D>
e0012a4c:	f57ff04f 	dsb	sy
e0012a50:	eafffff4 	b	e0012a28 <arch_clean_invalidate_L1_caches+0x14>

e0012a54 <setIRQTrigger>:
e0012a54:	e1a03220 	lsr	r3, r0, #4
e0012a58:	e200000f 	and	r0, r0, #15
e0012a5c:	e1a00080 	lsl	r0, r0, #1
e0012a60:	e3510000 	cmp	r1, #0
e0012a64:	e1a03103 	lsl	r3, r3, #2
e0012a68:	e2433aff 	sub	r3, r3, #1044480	@ 0xff000
e0012a6c:	e5932c00 	ldr	r2, [r3, #3072]	@ 0xc00
e0012a70:	e2800001 	add	r0, r0, #1
e0012a74:	e3a01001 	mov	r1, #1
e0012a78:	11820011 	orrne	r0, r2, r1, lsl r0
e0012a7c:	01c20011 	biceq	r0, r2, r1, lsl r0
e0012a80:	e5830c00 	str	r0, [r3, #3072]	@ 0xc00
e0012a84:	e12fff1e 	bx	lr

e0012a88 <getRestartPC>:
e0012a88:	e5900044 	ldr	r0, [r0, #68]	@ 0x44
e0012a8c:	e12fff1e 	bx	lr

e0012a90 <setNextPC>:
e0012a90:	e580103c 	str	r1, [r0, #60]	@ 0x3c
e0012a94:	e12fff1e 	bx	lr

e0012a98 <plat_cleanCache>:
e0012a98:	e30330ff 	movw	r3, #12543	@ 0x30ff
e0012a9c:	e34f3ff0 	movt	r3, #65520	@ 0xfff0
e0012aa0:	e30f2fff 	movw	r2, #65535	@ 0xffff
e0012aa4:	e58326bd 	str	r2, [r3, #1725]	@ 0x6bd
e0012aa8:	e30320ff 	movw	r2, #12543	@ 0x30ff
e0012aac:	e34f2ff0 	movt	r2, #65520	@ 0xfff0
e0012ab0:	e59236bd 	ldr	r3, [r2, #1725]	@ 0x6bd
e0012ab4:	e6ff3073 	uxth	r3, r3
e0012ab8:	e3530000 	cmp	r3, #0
e0012abc:	1afffffb 	bne	e0012ab0 <plat_cleanCache+0x18>
e0012ac0:	f57ff05f 	dmb	sy
e0012ac4:	e30330ff 	movw	r3, #12543	@ 0x30ff
e0012ac8:	e34f3ff0 	movt	r3, #65520	@ 0xfff0
e0012acc:	e3a02000 	mov	r2, #0
e0012ad0:	e5832631 	str	r2, [r3, #1585]	@ 0x631
e0012ad4:	e30320ff 	movw	r2, #12543	@ 0x30ff
e0012ad8:	e34f2ff0 	movt	r2, #65520	@ 0xfff0
e0012adc:	e5923631 	ldr	r3, [r2, #1585]	@ 0x631
e0012ae0:	e3130001 	tst	r3, #1
e0012ae4:	1afffffc 	bne	e0012adc <plat_cleanCache+0x44>
e0012ae8:	e12fff1e 	bx	lr

e0012aec <Arch_decodeTransfer>:
e0012aec:	e3a00000 	mov	r0, #0
e0012af0:	e12fff1e 	bx	lr

e0012af4 <Arch_performTransfer>:
e0012af4:	e3a00000 	mov	r0, #0
e0012af8:	e12fff1e 	bx	lr

e0012afc <resolveAddressBits>:
e0012afc:	e92d41f0 	push	{r4, r5, r6, r7, r8, lr}
e0012b00:	e24dd008 	sub	sp, sp, #8
e0012b04:	e28dc008 	add	ip, sp, #8
e0012b08:	e90c0006 	stmdb	ip, {r1, r2}
e0012b0c:	e1a0e001 	mov	lr, r1
e0012b10:	e1a0c002 	mov	ip, r2
e0012b14:	e201200e 	and	r2, r1, #14
e0012b18:	e352000e 	cmp	r2, #14
e0012b1c:	1201200f 	andne	r2, r1, #15
e0012b20:	06ef2071 	uxtbeq	r2, r1
e0012b24:	e352000a 	cmp	r2, #10
e0012b28:	059d2020 	ldreq	r2, [sp, #32]
e0012b2c:	03e07000 	mvneq	r7, #0
e0012b30:	1a000019 	bne	e0012b9c <resolveAddressBits+0xa0>
e0012b34:	e7e4895c 	ubfx	r8, ip, #18, #5
e0012b38:	e7e41bdc 	ubfx	r1, ip, #23, #5
e0012b3c:	e0816008 	add	r6, r1, r8
e0012b40:	e7f1c05c 	ubfx	ip, ip, #0, #18
e0012b44:	e0424001 	sub	r4, r2, r1
e0012b48:	e204501f 	and	r5, r4, #31
e0012b4c:	e1e04117 	mvn	r4, r7, lsl r1
e0012b50:	e0044533 	and	r4, r4, r3, lsr r5
e0012b54:	e1520001 	cmp	r2, r1
e0012b58:	2154000c 	cmpcs	r4, ip
e0012b5c:	1a000019 	bne	e0012bc8 <resolveAddressBits+0xcc>
e0012b60:	e1520006 	cmp	r2, r6
e0012b64:	3a000026 	bcc	e0012c04 <resolveAddressBits+0x108>
e0012b68:	e0424006 	sub	r4, r2, r6
e0012b6c:	e1a01433 	lsr	r1, r3, r4
e0012b70:	e1c11817 	bic	r1, r1, r7, lsl r8
e0012b74:	e3cee01f 	bic	lr, lr, #31
e0012b78:	e08e5201 	add	r5, lr, r1, lsl #4
e0012b7c:	e1520006 	cmp	r2, r6
e0012b80:	1a00002d 	bne	e0012c3c <resolveAddressBits+0x140>
e0012b84:	e3a03000 	mov	r3, #0
e0012b88:	e5803000 	str	r3, [r0]
e0012b8c:	e5805004 	str	r5, [r0, #4]
e0012b90:	e5803008 	str	r3, [r0, #8]
e0012b94:	e28dd008 	add	sp, sp, #8
e0012b98:	e8bd81f0 	pop	{r4, r5, r6, r7, r8, pc}
e0012b9c:	e30c3000 	movw	r3, #49152	@ 0xc000
e0012ba0:	e34e3001 	movt	r3, #57345	@ 0xe001
e0012ba4:	e3a02000 	mov	r2, #0
e0012ba8:	e5832844 	str	r2, [r3, #2116]	@ 0x844
e0012bac:	e5832848 	str	r2, [r3, #2120]	@ 0x848
e0012bb0:	e3a03002 	mov	r3, #2
e0012bb4:	e5803000 	str	r3, [r0]
e0012bb8:	e5802004 	str	r2, [r0, #4]
e0012bbc:	e59d3020 	ldr	r3, [sp, #32]
e0012bc0:	e5803008 	str	r3, [r0, #8]
e0012bc4:	eafffff2 	b	e0012b94 <resolveAddressBits+0x98>
e0012bc8:	e30c3000 	movw	r3, #49152	@ 0xc000
e0012bcc:	e34e3001 	movt	r3, #57345	@ 0xe001
e0012bd0:	e1a02402 	lsl	r2, r2, #8
e0012bd4:	e2022c3f 	and	r2, r2, #16128	@ 0x3f00
e0012bd8:	e1821101 	orr	r1, r2, r1, lsl #2
e0012bdc:	e3811003 	orr	r1, r1, #3
e0012be0:	e5831844 	str	r1, [r3, #2116]	@ 0x844
e0012be4:	e583c848 	str	ip, [r3, #2120]	@ 0x848
e0012be8:	e3a03002 	mov	r3, #2
e0012bec:	e5803000 	str	r3, [r0]
e0012bf0:	e3a03000 	mov	r3, #0
e0012bf4:	e5803004 	str	r3, [r0, #4]
e0012bf8:	e59d3020 	ldr	r3, [sp, #32]
e0012bfc:	e5803008 	str	r3, [r0, #8]
e0012c00:	eaffffe3 	b	e0012b94 <resolveAddressBits+0x98>
e0012c04:	e30c3000 	movw	r3, #49152	@ 0xc000
e0012c08:	e34e3001 	movt	r3, #57345	@ 0xe001
e0012c0c:	e1a02102 	lsl	r2, r2, #2
e0012c10:	e1822406 	orr	r2, r2, r6, lsl #8
e0012c14:	e3822002 	orr	r2, r2, #2
e0012c18:	e5832844 	str	r2, [r3, #2116]	@ 0x844
e0012c1c:	e3a02000 	mov	r2, #0
e0012c20:	e5832848 	str	r2, [r3, #2120]	@ 0x848
e0012c24:	e3a03002 	mov	r3, #2
e0012c28:	e5803000 	str	r3, [r0]
e0012c2c:	e5802004 	str	r2, [r0, #4]
e0012c30:	e59d3020 	ldr	r3, [sp, #32]
e0012c34:	e5803008 	str	r3, [r0, #8]
e0012c38:	eaffffd5 	b	e0012b94 <resolveAddressBits+0x98>
e0012c3c:	e79ee201 	ldr	lr, [lr, r1, lsl #4]
e0012c40:	e595c004 	ldr	ip, [r5, #4]
e0012c44:	e20e200e 	and	r2, lr, #14
e0012c48:	e352000e 	cmp	r2, #14
e0012c4c:	120e200f 	andne	r2, lr, #15
e0012c50:	06ef207e 	uxtbeq	r2, lr
e0012c54:	e352000a 	cmp	r2, #10
e0012c58:	01a02004 	moveq	r2, r4
e0012c5c:	0affffb4 	beq	e0012b34 <resolveAddressBits+0x38>
e0012c60:	e3a03000 	mov	r3, #0
e0012c64:	e5803000 	str	r3, [r0]
e0012c68:	e5805004 	str	r5, [r0, #4]
e0012c6c:	e5804008 	str	r4, [r0, #8]
e0012c70:	eaffffc7 	b	e0012b94 <resolveAddressBits+0x98>

e0012c74 <lookupSlot>:
e0012c74:	e92d4010 	push	{r4, lr}
e0012c78:	e24dd020 	sub	sp, sp, #32
e0012c7c:	e1a04000 	mov	r4, r0
e0012c80:	e1a03002 	mov	r3, r2
e0012c84:	e3c11f7f 	bic	r1, r1, #508	@ 0x1fc
e0012c88:	e3c11003 	bic	r1, r1, #3
e0012c8c:	e28dc018 	add	ip, sp, #24
e0012c90:	e8910003 	ldm	r1, {r0, r1}
e0012c94:	e88c0003 	stm	ip, {r0, r1}
e0012c98:	e3a02020 	mov	r2, #32
e0012c9c:	e58d2000 	str	r2, [sp]
e0012ca0:	e89c0006 	ldm	ip, {r1, r2}
e0012ca4:	e28d000c 	add	r0, sp, #12
e0012ca8:	ebffff93 	bl	e0012afc <resolveAddressBits>
e0012cac:	e59d300c 	ldr	r3, [sp, #12]
e0012cb0:	e5843000 	str	r3, [r4]
e0012cb4:	e59d3010 	ldr	r3, [sp, #16]
e0012cb8:	e5843004 	str	r3, [r4, #4]
e0012cbc:	e1a00004 	mov	r0, r4
e0012cc0:	e28dd020 	add	sp, sp, #32
e0012cc4:	e8bd8010 	pop	{r4, pc}

e0012cc8 <lookupCap>:
e0012cc8:	e92d4010 	push	{r4, lr}
e0012ccc:	e24dd008 	sub	sp, sp, #8
e0012cd0:	e1a04000 	mov	r4, r0
e0012cd4:	e1a0000d 	mov	r0, sp
e0012cd8:	ebffffe5 	bl	e0012c74 <lookupSlot>
e0012cdc:	e59d3000 	ldr	r3, [sp]
e0012ce0:	e3530000 	cmp	r3, #0
e0012ce4:	15843000 	strne	r3, [r4]
e0012ce8:	13a03000 	movne	r3, #0
e0012cec:	15843004 	strne	r3, [r4, #4]
e0012cf0:	059d3004 	ldreq	r3, [sp, #4]
e0012cf4:	05932000 	ldreq	r2, [r3]
e0012cf8:	05933004 	ldreq	r3, [r3, #4]
e0012cfc:	03a01000 	moveq	r1, #0
e0012d00:	05841000 	streq	r1, [r4]
e0012d04:	05842004 	streq	r2, [r4, #4]
e0012d08:	e5843008 	str	r3, [r4, #8]
e0012d0c:	e1a00004 	mov	r0, r4
e0012d10:	e28dd008 	add	sp, sp, #8
e0012d14:	e8bd8010 	pop	{r4, pc}

e0012d18 <lookupCapAndSlot>:
e0012d18:	e92d4010 	push	{r4, lr}
e0012d1c:	e24dd008 	sub	sp, sp, #8
e0012d20:	e1a04000 	mov	r4, r0
e0012d24:	e1a0000d 	mov	r0, sp
e0012d28:	ebffffd1 	bl	e0012c74 <lookupSlot>
e0012d2c:	e59d2000 	ldr	r2, [sp]
e0012d30:	e59d3004 	ldr	r3, [sp, #4]
e0012d34:	e3520000 	cmp	r2, #0
e0012d38:	15842000 	strne	r2, [r4]
e0012d3c:	13a03000 	movne	r3, #0
e0012d40:	15843004 	strne	r3, [r4, #4]
e0012d44:	15843008 	strne	r3, [r4, #8]
e0012d48:	05931000 	ldreq	r1, [r3]
e0012d4c:	05932004 	ldreq	r2, [r3, #4]
e0012d50:	03a00000 	moveq	r0, #0
e0012d54:	05840000 	streq	r0, [r4]
e0012d58:	05841004 	streq	r1, [r4, #4]
e0012d5c:	05842008 	streq	r2, [r4, #8]
e0012d60:	e584300c 	str	r3, [r4, #12]
e0012d64:	e1a00004 	mov	r0, r4
e0012d68:	e28dd008 	add	sp, sp, #8
e0012d6c:	e8bd8010 	pop	{r4, pc}

e0012d70 <lookupSlotForCNodeOp>:
e0012d70:	e92d4030 	push	{r4, r5, lr}
e0012d74:	e24dd024 	sub	sp, sp, #36	@ 0x24
e0012d78:	e1a04000 	mov	r4, r0
e0012d7c:	e1a05001 	mov	r5, r1
e0012d80:	e28d1008 	add	r1, sp, #8
e0012d84:	e881000c 	stm	r1, {r2, r3}
e0012d88:	e59d2034 	ldr	r2, [sp, #52]	@ 0x34
e0012d8c:	e59d3008 	ldr	r3, [sp, #8]
e0012d90:	e203100e 	and	r1, r3, #14
e0012d94:	e351000e 	cmp	r1, #14
e0012d98:	1203300f 	andne	r3, r3, #15
e0012d9c:	06ef3073 	uxtbeq	r3, r3
e0012da0:	e353000a 	cmp	r3, #10
e0012da4:	1a000015 	bne	e0012e00 <lookupSlotForCNodeOp+0x90>
e0012da8:	e2423001 	sub	r3, r2, #1
e0012dac:	e353001f 	cmp	r3, #31
e0012db0:	8a00001e 	bhi	e0012e30 <lookupSlotForCNodeOp+0xc0>
e0012db4:	e58d2000 	str	r2, [sp]
e0012db8:	e59d3030 	ldr	r3, [sp, #48]	@ 0x30
e0012dbc:	e28d2008 	add	r2, sp, #8
e0012dc0:	e8920006 	ldm	r2, {r1, r2}
e0012dc4:	e28d0014 	add	r0, sp, #20
e0012dc8:	ebffff4b 	bl	e0012afc <resolveAddressBits>
e0012dcc:	e59d301c 	ldr	r3, [sp, #28]
e0012dd0:	e59d2014 	ldr	r2, [sp, #20]
e0012dd4:	e3520000 	cmp	r2, #0
e0012dd8:	1a000021 	bne	e0012e64 <lookupSlotForCNodeOp+0xf4>
e0012ddc:	e3530000 	cmp	r3, #0
e0012de0:	1a000029 	bne	e0012e8c <lookupSlotForCNodeOp+0x11c>
e0012de4:	e3a03000 	mov	r3, #0
e0012de8:	e5843000 	str	r3, [r4]
e0012dec:	e59d3018 	ldr	r3, [sp, #24]
e0012df0:	e5843004 	str	r3, [r4, #4]
e0012df4:	e1a00004 	mov	r0, r4
e0012df8:	e28dd024 	add	sp, sp, #36	@ 0x24
e0012dfc:	e8bd8030 	pop	{r4, r5, pc}
e0012e00:	e30c3000 	movw	r3, #49152	@ 0xc000
e0012e04:	e34e3001 	movt	r3, #57345	@ 0xe001
e0012e08:	e3a02006 	mov	r2, #6
e0012e0c:	e5832864 	str	r2, [r3, #2148]	@ 0x864
e0012e10:	e5835860 	str	r5, [r3, #2144]	@ 0x860
e0012e14:	e3a02000 	mov	r2, #0
e0012e18:	e5832844 	str	r2, [r3, #2116]	@ 0x844
e0012e1c:	e5832848 	str	r2, [r3, #2120]	@ 0x848
e0012e20:	e3a03003 	mov	r3, #3
e0012e24:	e5803000 	str	r3, [r0]
e0012e28:	e5802004 	str	r2, [r0, #4]
e0012e2c:	eafffff0 	b	e0012df4 <lookupSlotForCNodeOp+0x84>
e0012e30:	e30c3000 	movw	r3, #49152	@ 0xc000
e0012e34:	e34e3001 	movt	r3, #57345	@ 0xe001
e0012e38:	e3a02004 	mov	r2, #4
e0012e3c:	e5832864 	str	r2, [r3, #2148]	@ 0x864
e0012e40:	e3a02001 	mov	r2, #1
e0012e44:	e5832854 	str	r2, [r3, #2132]	@ 0x854
e0012e48:	e3a02020 	mov	r2, #32
e0012e4c:	e5832858 	str	r2, [r3, #2136]	@ 0x858
e0012e50:	e3a03003 	mov	r3, #3
e0012e54:	e5803000 	str	r3, [r0]
e0012e58:	e3a03000 	mov	r3, #0
e0012e5c:	e5803004 	str	r3, [r0, #4]
e0012e60:	eaffffe3 	b	e0012df4 <lookupSlotForCNodeOp+0x84>
e0012e64:	e30c3000 	movw	r3, #49152	@ 0xc000
e0012e68:	e34e3001 	movt	r3, #57345	@ 0xe001
e0012e6c:	e3a02006 	mov	r2, #6
e0012e70:	e5832864 	str	r2, [r3, #2148]	@ 0x864
e0012e74:	e5835860 	str	r5, [r3, #2144]	@ 0x860
e0012e78:	e3a03003 	mov	r3, #3
e0012e7c:	e5843000 	str	r3, [r4]
e0012e80:	e3a03000 	mov	r3, #0
e0012e84:	e5843004 	str	r3, [r4, #4]
e0012e88:	eaffffd9 	b	e0012df4 <lookupSlotForCNodeOp+0x84>
e0012e8c:	e30c2000 	movw	r2, #49152	@ 0xc000
e0012e90:	e34e2001 	movt	r2, #57345	@ 0xe001
e0012e94:	e3a01006 	mov	r1, #6
e0012e98:	e5821864 	str	r1, [r2, #2148]	@ 0x864
e0012e9c:	e5825860 	str	r5, [r2, #2144]	@ 0x860
e0012ea0:	e1a03103 	lsl	r3, r3, #2
e0012ea4:	e6ef3073 	uxtb	r3, r3
e0012ea8:	e3833002 	orr	r3, r3, #2
e0012eac:	e5823844 	str	r3, [r2, #2116]	@ 0x844
e0012eb0:	e3a03000 	mov	r3, #0
e0012eb4:	e5823848 	str	r3, [r2, #2120]	@ 0x848
e0012eb8:	e3a02003 	mov	r2, #3
e0012ebc:	e5842000 	str	r2, [r4]
e0012ec0:	e5843004 	str	r3, [r4, #4]
e0012ec4:	eaffffca 	b	e0012df4 <lookupSlotForCNodeOp+0x84>

e0012ec8 <lookupSourceSlot>:
e0012ec8:	e92d4010 	push	{r4, lr}
e0012ecc:	e24dd010 	sub	sp, sp, #16
e0012ed0:	e1a04000 	mov	r4, r0
e0012ed4:	e28dc008 	add	ip, sp, #8
e0012ed8:	e88c0006 	stm	ip, {r1, r2}
e0012edc:	e59d2018 	ldr	r2, [sp, #24]
e0012ee0:	e58d2004 	str	r2, [sp, #4]
e0012ee4:	e58d3000 	str	r3, [sp]
e0012ee8:	e89c000c 	ldm	ip, {r2, r3}
e0012eec:	e3a01001 	mov	r1, #1
e0012ef0:	ebffff9e 	bl	e0012d70 <lookupSlotForCNodeOp>
e0012ef4:	e1a00004 	mov	r0, r4
e0012ef8:	e28dd010 	add	sp, sp, #16
e0012efc:	e8bd8010 	pop	{r4, pc}

e0012f00 <lookupTargetSlot>:
e0012f00:	e92d4010 	push	{r4, lr}
e0012f04:	e24dd010 	sub	sp, sp, #16
e0012f08:	e1a04000 	mov	r4, r0
e0012f0c:	e28dc008 	add	ip, sp, #8
e0012f10:	e88c0006 	stm	ip, {r1, r2}
e0012f14:	e59d2018 	ldr	r2, [sp, #24]
e0012f18:	e58d2004 	str	r2, [sp, #4]
e0012f1c:	e58d3000 	str	r3, [sp]
e0012f20:	e89c000c 	ldm	ip, {r2, r3}
e0012f24:	e3a01000 	mov	r1, #0
e0012f28:	ebffff90 	bl	e0012d70 <lookupSlotForCNodeOp>
e0012f2c:	e1a00004 	mov	r0, r4
e0012f30:	e28dd010 	add	sp, sp, #16
e0012f34:	e8bd8010 	pop	{r4, pc}

e0012f38 <lookupPivotSlot>:
e0012f38:	e92d4010 	push	{r4, lr}
e0012f3c:	e24dd010 	sub	sp, sp, #16
e0012f40:	e1a04000 	mov	r4, r0
e0012f44:	e28dc008 	add	ip, sp, #8
e0012f48:	e88c0006 	stm	ip, {r1, r2}
e0012f4c:	e59d2018 	ldr	r2, [sp, #24]
e0012f50:	e58d2004 	str	r2, [sp, #4]
e0012f54:	e58d3000 	str	r3, [sp]
e0012f58:	e89c000c 	ldm	ip, {r2, r3}
e0012f5c:	e3a01001 	mov	r1, #1
e0012f60:	ebffff82 	bl	e0012d70 <lookupSlotForCNodeOp>
e0012f64:	e1a00004 	mov	r0, r4
e0012f68:	e28dd010 	add	sp, sp, #16
e0012f6c:	e8bd8010 	pop	{r4, pc}

e0012f70 <doFaultTransfer>:
e0012f70:	e92d4070 	push	{r4, r5, r6, lr}
e0012f74:	e1a06000 	mov	r6, r0
e0012f78:	e1a05001 	mov	r5, r1
e0012f7c:	e1a04002 	mov	r4, r2
e0012f80:	e1a02003 	mov	r2, r3
e0012f84:	e1a01004 	mov	r1, r4
e0012f88:	e1a00005 	mov	r0, r5
e0012f8c:	ebfffb67 	bl	e0011d30 <setMRs_fault>
e0012f90:	e5953060 	ldr	r3, [r5, #96]	@ 0x60
e0012f94:	e1a03603 	lsl	r3, r3, #12
e0012f98:	e6ff3073 	uxth	r3, r3
e0012f9c:	e200007f 	and	r0, r0, #127	@ 0x7f
e0012fa0:	e1833000 	orr	r3, r3, r0
e0012fa4:	e5843004 	str	r3, [r4, #4]
e0012fa8:	e5846000 	str	r6, [r4]
e0012fac:	e8bd8070 	pop	{r4, r5, r6, pc}

e0012fb0 <doNBRecvFailedTransfer>:
e0012fb0:	e3a03000 	mov	r3, #0
e0012fb4:	e5803000 	str	r3, [r0]
e0012fb8:	e12fff1e 	bx	lr

e0012fbc <switchToIdleThread>:
e0012fbc:	e92d4010 	push	{r4, lr}
e0012fc0:	ebfff8fd 	bl	e00113bc <Arch_switchToIdleThread>
e0012fc4:	e30c3000 	movw	r3, #49152	@ 0xc000
e0012fc8:	e34e3001 	movt	r3, #57345	@ 0xe001
e0012fcc:	e593286c 	ldr	r2, [r3, #2156]	@ 0x86c
e0012fd0:	e5832840 	str	r2, [r3, #2112]	@ 0x840
e0012fd4:	e8bd8010 	pop	{r4, pc}

e0012fd8 <setMCPriority>:
e0012fd8:	e5801074 	str	r1, [r0, #116]	@ 0x74
e0012fdc:	e12fff1e 	bx	lr

e0012fe0 <preemptionPoint>:
e0012fe0:	e30c3000 	movw	r3, #49152	@ 0xc000
e0012fe4:	e34e3001 	movt	r3, #57345	@ 0xe001
e0012fe8:	e5933880 	ldr	r3, [r3, #2176]	@ 0x880
e0012fec:	e2833001 	add	r3, r3, #1
e0012ff0:	e3530063 	cmp	r3, #99	@ 0x63
e0012ff4:	8a000004 	bhi	e001300c <preemptionPoint+0x2c>
e0012ff8:	e30c2000 	movw	r2, #49152	@ 0xc000
e0012ffc:	e34e2001 	movt	r2, #57345	@ 0xe001
e0013000:	e5823880 	str	r3, [r2, #2176]	@ 0x880
e0013004:	e3a00000 	mov	r0, #0
e0013008:	e12fff1e 	bx	lr
e001300c:	e30c3000 	movw	r3, #49152	@ 0xc000
e0013010:	e34e3001 	movt	r3, #57345	@ 0xe001
e0013014:	e3a02000 	mov	r2, #0
e0013018:	e5832880 	str	r2, [r3, #2176]	@ 0x880
e001301c:	e30231ff 	movw	r3, #8703	@ 0x21ff
e0013020:	e34f3ff0 	movt	r3, #65520	@ 0xfff0
e0013024:	e51330e7 	ldr	r3, [r3, #-231]	@ 0xffffff19
e0013028:	e7e93053 	ubfx	r3, r3, #0, #10
e001302c:	e3530fff 	cmp	r3, #1020	@ 0x3fc
e0013030:	21a00002 	movcs	r0, r2
e0013034:	33a00004 	movcc	r0, #4
e0013038:	e12fff1e 	bx	lr

e001303c <cteMove>:
e001303c:	e92d4010 	push	{r4, lr}
e0013040:	e24dd008 	sub	sp, sp, #8
e0013044:	e1a0400d 	mov	r4, sp
e0013048:	e8840003 	stm	r4, {r0, r1}
e001304c:	e592e008 	ldr	lr, [r2, #8]
e0013050:	e592c00c 	ldr	ip, [r2, #12]
e0013054:	e8940003 	ldm	r4, {r0, r1}
e0013058:	e8830003 	stm	r3, {r0, r1}
e001305c:	e3a01000 	mov	r1, #0
e0013060:	e5821000 	str	r1, [r2]
e0013064:	e5821004 	str	r1, [r2, #4]
e0013068:	e583e008 	str	lr, [r3, #8]
e001306c:	e583c00c 	str	ip, [r3, #12]
e0013070:	e5821008 	str	r1, [r2, #8]
e0013074:	e582100c 	str	r1, [r2, #12]
e0013078:	e3dee007 	bics	lr, lr, #7
e001307c:	159e200c 	ldrne	r2, [lr, #12]
e0013080:	12022007 	andne	r2, r2, #7
e0013084:	13c31007 	bicne	r1, r3, #7
e0013088:	11822001 	orrne	r2, r2, r1
e001308c:	158e200c 	strne	r2, [lr, #12]
e0013090:	e3dcc007 	bics	ip, ip, #7
e0013094:	159c2008 	ldrne	r2, [ip, #8]
e0013098:	12022007 	andne	r2, r2, #7
e001309c:	13c33007 	bicne	r3, r3, #7
e00130a0:	11823003 	orrne	r3, r2, r3
e00130a4:	158c3008 	strne	r3, [ip, #8]
e00130a8:	e28dd008 	add	sp, sp, #8
e00130ac:	e8bd8010 	pop	{r4, pc}

e00130b0 <invokeCNodeMove>:
e00130b0:	e52de004 	push	{lr}		@ (str lr, [sp, #-4]!)
e00130b4:	e24dd00c 	sub	sp, sp, #12
e00130b8:	e1a0c00d 	mov	ip, sp
e00130bc:	e88c0003 	stm	ip, {r0, r1}
e00130c0:	e89c0003 	ldm	ip, {r0, r1}
e00130c4:	ebffffdc 	bl	e001303c <cteMove>
e00130c8:	e3a00000 	mov	r0, #0
e00130cc:	e28dd00c 	add	sp, sp, #12
e00130d0:	e49df004 	pop	{pc}		@ (ldr pc, [sp], #4)

e00130d4 <invokeCNodeSaveCaller>:
e00130d4:	e52de004 	push	{lr}		@ (str lr, [sp, #-4]!)
e00130d8:	e24dd00c 	sub	sp, sp, #12
e00130dc:	e1a03000 	mov	r3, r0
e00130e0:	e30c2000 	movw	r2, #49152	@ 0xc000
e00130e4:	e34e2001 	movt	r2, #57345	@ 0xe001
e00130e8:	e5922840 	ldr	r2, [r2, #2112]	@ 0x840
e00130ec:	e3c22f7f 	bic	r2, r2, #508	@ 0x1fc
e00130f0:	e3c22003 	bic	r2, r2, #3
e00130f4:	e2822030 	add	r2, r2, #48	@ 0x30
e00130f8:	e8920003 	ldm	r2, {r0, r1}
e00130fc:	e28dc008 	add	ip, sp, #8
e0013100:	e90c0003 	stmdb	ip, {r0, r1}
e0013104:	e200100e 	and	r1, r0, #14
e0013108:	e351000e 	cmp	r1, #14
e001310c:	1200100f 	andne	r1, r0, #15
e0013110:	06ef1070 	uxtbeq	r1, r0
e0013114:	e3510000 	cmp	r1, #0
e0013118:	0a000003 	beq	e001312c <invokeCNodeSaveCaller+0x58>
e001311c:	e3510008 	cmp	r1, #8
e0013120:	1a000008 	bne	e0013148 <invokeCNodeSaveCaller+0x74>
e0013124:	e3100010 	tst	r0, #16
e0013128:	0a000002 	beq	e0013138 <invokeCNodeSaveCaller+0x64>
e001312c:	e3a00000 	mov	r0, #0
e0013130:	e28dd00c 	add	sp, sp, #12
e0013134:	e49df004 	pop	{pc}		@ (ldr pc, [sp], #4)
e0013138:	e28d1008 	add	r1, sp, #8
e001313c:	e9110003 	ldmdb	r1, {r0, r1}
e0013140:	ebffffbd 	bl	e001303c <cteMove>
e0013144:	eafffff8 	b	e001312c <invokeCNodeSaveCaller+0x58>
e0013148:	ebfff5f5 	bl	e0010924 <halt>

e001314c <cteSwap>:
e001314c:	e24dd008 	sub	sp, sp, #8
e0013150:	e92d4010 	push	{r4, lr}
e0013154:	e24dd008 	sub	sp, sp, #8
e0013158:	e1a0c00d 	mov	ip, sp
e001315c:	e88c0003 	stm	ip, {r0, r1}
e0013160:	e58d3014 	str	r3, [sp, #20]
e0013164:	e59d301c 	ldr	r3, [sp, #28]
e0013168:	e28d1014 	add	r1, sp, #20
e001316c:	e8910003 	ldm	r1, {r0, r1}
e0013170:	e8820003 	stm	r2, {r0, r1}
e0013174:	e89c0003 	ldm	ip, {r0, r1}
e0013178:	e8830003 	stm	r3, {r0, r1}
e001317c:	e592e008 	ldr	lr, [r2, #8]
e0013180:	e592c00c 	ldr	ip, [r2, #12]
e0013184:	e3de0007 	bics	r0, lr, #7
e0013188:	1590100c 	ldrne	r1, [r0, #12]
e001318c:	12011007 	andne	r1, r1, #7
e0013190:	13c34007 	bicne	r4, r3, #7
e0013194:	11811004 	orrne	r1, r1, r4
e0013198:	1580100c 	strne	r1, [r0, #12]
e001319c:	e3dc0007 	bics	r0, ip, #7
e00131a0:	15901008 	ldrne	r1, [r0, #8]
e00131a4:	12011007 	andne	r1, r1, #7
e00131a8:	13c34007 	bicne	r4, r3, #7
e00131ac:	11811004 	orrne	r1, r1, r4
e00131b0:	15801008 	strne	r1, [r0, #8]
e00131b4:	e5930008 	ldr	r0, [r3, #8]
e00131b8:	e593100c 	ldr	r1, [r3, #12]
e00131bc:	e5820008 	str	r0, [r2, #8]
e00131c0:	e582100c 	str	r1, [r2, #12]
e00131c4:	e583e008 	str	lr, [r3, #8]
e00131c8:	e583c00c 	str	ip, [r3, #12]
e00131cc:	e3d00007 	bics	r0, r0, #7
e00131d0:	1590300c 	ldrne	r3, [r0, #12]
e00131d4:	12033007 	andne	r3, r3, #7
e00131d8:	13c2c007 	bicne	ip, r2, #7
e00131dc:	1183300c 	orrne	r3, r3, ip
e00131e0:	1580300c 	strne	r3, [r0, #12]
e00131e4:	e3d11007 	bics	r1, r1, #7
e00131e8:	15913008 	ldrne	r3, [r1, #8]
e00131ec:	12033007 	andne	r3, r3, #7
e00131f0:	13c22007 	bicne	r2, r2, #7
e00131f4:	11832002 	orrne	r2, r3, r2
e00131f8:	15812008 	strne	r2, [r1, #8]
e00131fc:	e28dd008 	add	sp, sp, #8
e0013200:	e8bd4010 	pop	{r4, lr}
e0013204:	e28dd008 	add	sp, sp, #8
e0013208:	e12fff1e 	bx	lr

e001320c <invokeCNodeRotate>:
e001320c:	e92d4030 	push	{r4, r5, lr}
e0013210:	e24dd01c 	sub	sp, sp, #28
e0013214:	e28dc018 	add	ip, sp, #24
e0013218:	e90c0003 	stmdb	ip, {r0, r1}
e001321c:	e28d1008 	add	r1, sp, #8
e0013220:	e881000c 	stm	r1, {r2, r3}
e0013224:	e59d4028 	ldr	r4, [sp, #40]	@ 0x28
e0013228:	e59d502c 	ldr	r5, [sp, #44]	@ 0x2c
e001322c:	e59d3030 	ldr	r3, [sp, #48]	@ 0x30
e0013230:	e1540003 	cmp	r4, r3
e0013234:	0a00000b 	beq	e0013268 <invokeCNodeRotate+0x5c>
e0013238:	e1a02005 	mov	r2, r5
e001323c:	e28d1008 	add	r1, sp, #8
e0013240:	e8910003 	ldm	r1, {r0, r1}
e0013244:	ebffff7c 	bl	e001303c <cteMove>
e0013248:	e1a03005 	mov	r3, r5
e001324c:	e1a02004 	mov	r2, r4
e0013250:	e28d1018 	add	r1, sp, #24
e0013254:	e9110003 	ldmdb	r1, {r0, r1}
e0013258:	ebffff77 	bl	e001303c <cteMove>
e001325c:	e3a00000 	mov	r0, #0
e0013260:	e28dd01c 	add	sp, sp, #28
e0013264:	e8bd8030 	pop	{r4, r5, pc}
e0013268:	e58d5004 	str	r5, [sp, #4]
e001326c:	e59d300c 	ldr	r3, [sp, #12]
e0013270:	e58d3000 	str	r3, [sp]
e0013274:	e1a03002 	mov	r3, r2
e0013278:	e1a02004 	mov	r2, r4
e001327c:	e14c00d8 	ldrd	r0, [ip, #-8]
e0013280:	ebffffb1 	bl	e001314c <cteSwap>
e0013284:	eafffff4 	b	e001325c <invokeCNodeRotate+0x50>

e0013288 <capSwapForDelete>:
e0013288:	e1500001 	cmp	r0, r1
e001328c:	012fff1e 	bxeq	lr
e0013290:	e52de004 	push	{lr}		@ (str lr, [sp, #-4]!)
e0013294:	e24dd01c 	sub	sp, sp, #28
e0013298:	e1a02000 	mov	r2, r0
e001329c:	e1a03001 	mov	r3, r1
e00132a0:	e28dc010 	add	ip, sp, #16
e00132a4:	e1c000d0 	ldrd	r0, [r0]
e00132a8:	e88c0003 	stm	ip, {r0, r1}
e00132ac:	e28de008 	add	lr, sp, #8
e00132b0:	e8930003 	ldm	r3, {r0, r1}
e00132b4:	e88e0003 	stm	lr, {r0, r1}
e00132b8:	e58d3004 	str	r3, [sp, #4]
e00132bc:	e58d1000 	str	r1, [sp]
e00132c0:	e1a03000 	mov	r3, r0
e00132c4:	e89c0003 	ldm	ip, {r0, r1}
e00132c8:	ebffff9f 	bl	e001314c <cteSwap>
e00132cc:	e28dd01c 	add	sp, sp, #28
e00132d0:	e49df004 	pop	{pc}		@ (ldr pc, [sp], #4)

e00132d4 <insertNewCap>:
e00132d4:	e52de004 	push	{lr}		@ (str lr, [sp, #-4]!)
e00132d8:	e24dd00c 	sub	sp, sp, #12
e00132dc:	e1a0e000 	mov	lr, r0
e00132e0:	e1a0c001 	mov	ip, r1
e00132e4:	e1a0100d 	mov	r1, sp
e00132e8:	e881000c 	stm	r1, {r2, r3}
e00132ec:	e590200c 	ldr	r2, [r0, #12]
e00132f0:	e3c22007 	bic	r2, r2, #7
e00132f4:	e8910003 	ldm	r1, {r0, r1}
e00132f8:	e88c0009 	stm	ip, {r0, r3}
e00132fc:	e3ce3007 	bic	r3, lr, #7
e0013300:	e58c3008 	str	r3, [ip, #8]
e0013304:	e3823003 	orr	r3, r2, #3
e0013308:	e58c300c 	str	r3, [ip, #12]
e001330c:	e3520000 	cmp	r2, #0
e0013310:	15923008 	ldrne	r3, [r2, #8]
e0013314:	12033007 	andne	r3, r3, #7
e0013318:	13cc1007 	bicne	r1, ip, #7
e001331c:	11833001 	orrne	r3, r3, r1
e0013320:	15823008 	strne	r3, [r2, #8]
e0013324:	e59e100c 	ldr	r1, [lr, #12]
e0013328:	e2011007 	and	r1, r1, #7
e001332c:	e3ccc007 	bic	ip, ip, #7
e0013330:	e181c00c 	orr	ip, r1, ip
e0013334:	e58ec00c 	str	ip, [lr, #12]
e0013338:	e28dd00c 	add	sp, sp, #12
e001333c:	e49df004 	pop	{pc}		@ (ldr pc, [sp], #4)

e0013340 <setupReplyMaster>:
e0013340:	e3c03f7f 	bic	r3, r0, #508	@ 0x1fc
e0013344:	e3c33003 	bic	r3, r3, #3
e0013348:	e2831020 	add	r1, r3, #32
e001334c:	e5932020 	ldr	r2, [r3, #32]
e0013350:	e202c00e 	and	ip, r2, #14
e0013354:	e35c000e 	cmp	ip, #14
e0013358:	1202200f 	andne	r2, r2, #15
e001335c:	06ef2072 	uxtbeq	r2, r2
e0013360:	e3520000 	cmp	r2, #0
e0013364:	112fff1e 	bxne	lr
e0013368:	e3c0003f 	bic	r0, r0, #63	@ 0x3f
e001336c:	e3800038 	orr	r0, r0, #56	@ 0x38
e0013370:	e5830020 	str	r0, [r3, #32]
e0013374:	e3a03000 	mov	r3, #0
e0013378:	e5813004 	str	r3, [r1, #4]
e001337c:	e5813008 	str	r3, [r1, #8]
e0013380:	e3a03003 	mov	r3, #3
e0013384:	e581300c 	str	r3, [r1, #12]
e0013388:	e12fff1e 	bx	lr

e001338c <ensureEmptySlot>:
e001338c:	e5900000 	ldr	r0, [r0]
e0013390:	e200300e 	and	r3, r0, #14
e0013394:	e353000e 	cmp	r3, #14
e0013398:	1200000f 	andne	r0, r0, #15
e001339c:	06ef0070 	uxtbeq	r0, r0
e00133a0:	e3500000 	cmp	r0, #0
e00133a4:	130c3000 	movwne	r3, #49152	@ 0xc000
e00133a8:	134e3001 	movtne	r3, #57345	@ 0xe001
e00133ac:	13a02008 	movne	r2, #8
e00133b0:	15832864 	strne	r2, [r3, #2148]	@ 0x864
e00133b4:	13a00003 	movne	r0, #3
e00133b8:	e12fff1e 	bx	lr

e00133bc <getReceiveSlots>:
e00133bc:	e2513000 	subs	r3, r1, #0
e00133c0:	0a000021 	beq	e001344c <getReceiveSlots+0x90>
e00133c4:	e92d4030 	push	{r4, r5, lr}
e00133c8:	e24dd02c 	sub	sp, sp, #44	@ 0x2c
e00133cc:	e59341f8 	ldr	r4, [r3, #504]	@ 0x1f8
e00133d0:	e59351fc 	ldr	r5, [r3, #508]	@ 0x1fc
e00133d4:	e59321f4 	ldr	r2, [r3, #500]	@ 0x1f4
e00133d8:	e1a01000 	mov	r1, r0
e00133dc:	e28d001c 	add	r0, sp, #28
e00133e0:	ebfffe38 	bl	e0012cc8 <lookupCap>
e00133e4:	e59d301c 	ldr	r3, [sp, #28]
e00133e8:	e3530000 	cmp	r3, #0
e00133ec:	13a00000 	movne	r0, #0
e00133f0:	1a000013 	bne	e0013444 <getReceiveSlots+0x88>
e00133f4:	e28d200c 	add	r2, sp, #12
e00133f8:	e28d3028 	add	r3, sp, #40	@ 0x28
e00133fc:	e9130003 	ldmdb	r3, {r0, r1}
e0013400:	e8820003 	stm	r2, {r0, r1}
e0013404:	e58d5000 	str	r5, [sp]
e0013408:	e1a03004 	mov	r3, r4
e001340c:	e8920006 	ldm	r2, {r1, r2}
e0013410:	e28d0014 	add	r0, sp, #20
e0013414:	ebfffeb9 	bl	e0012f00 <lookupTargetSlot>
e0013418:	e59d3014 	ldr	r3, [sp, #20]
e001341c:	e3530000 	cmp	r3, #0
e0013420:	1a00000b 	bne	e0013454 <getReceiveSlots+0x98>
e0013424:	e59d0018 	ldr	r0, [sp, #24]
e0013428:	e5903000 	ldr	r3, [r0]
e001342c:	e203200e 	and	r2, r3, #14
e0013430:	e352000e 	cmp	r2, #14
e0013434:	1203300f 	andne	r3, r3, #15
e0013438:	06ef3073 	uxtbeq	r3, r3
e001343c:	e3530000 	cmp	r3, #0
e0013440:	13a00000 	movne	r0, #0
e0013444:	e28dd02c 	add	sp, sp, #44	@ 0x2c
e0013448:	e8bd8030 	pop	{r4, r5, pc}
e001344c:	e1a00003 	mov	r0, r3
e0013450:	e12fff1e 	bx	lr
e0013454:	e3a00000 	mov	r0, #0
e0013458:	eafffff9 	b	e0013444 <getReceiveSlots+0x88>

e001345c <loadCapTransfer>:
e001345c:	e591c1f8 	ldr	ip, [r1, #504]	@ 0x1f8
e0013460:	e59121fc 	ldr	r2, [r1, #508]	@ 0x1fc
e0013464:	e59111f4 	ldr	r1, [r1, #500]	@ 0x1f4
e0013468:	e5801000 	str	r1, [r0]
e001346c:	e580c004 	str	ip, [r0, #4]
e0013470:	e5802008 	str	r2, [r0, #8]
e0013474:	e12fff1e 	bx	lr

e0013478 <replyFromKernel_success_empty>:
e0013478:	e3a03000 	mov	r3, #0
e001347c:	e5803000 	str	r3, [r0]
e0013480:	e5803004 	str	r3, [r0, #4]
e0013484:	e12fff1e 	bx	lr

e0013488 <invokeIRQHandler_AckIRQ>:
e0013488:	e1a022a0 	lsr	r2, r0, #5
e001348c:	e200001f 	and	r0, r0, #31
e0013490:	e3a03001 	mov	r3, #1
e0013494:	e1a00013 	lsl	r0, r3, r0
e0013498:	e1a02102 	lsl	r2, r2, #2
e001349c:	e30131ff 	movw	r3, #4607	@ 0x11ff
e00134a0:	e34f3ff0 	movt	r3, #65520	@ 0xfff0
e00134a4:	e0823003 	add	r3, r2, r3
e00134a8:	e50300ff 	str	r0, [r3, #-255]	@ 0xffffff01
e00134ac:	e12fff1e 	bx	lr

e00134b0 <isIRQActive>:
e00134b0:	e30c3000 	movw	r3, #49152	@ 0xc000
e00134b4:	e34e3001 	movt	r3, #57345	@ 0xe001
e00134b8:	e0833100 	add	r3, r3, r0, lsl #2
e00134bc:	e5930884 	ldr	r0, [r3, #2180]	@ 0x884
e00134c0:	e2500000 	subs	r0, r0, #0
e00134c4:	13a00001 	movne	r0, #1
e00134c8:	e12fff1e 	bx	lr

e00134cc <setIRQState>:
e00134cc:	e30c3000 	movw	r3, #49152	@ 0xc000
e00134d0:	e34e3001 	movt	r3, #57345	@ 0xe001
e00134d4:	e0833101 	add	r3, r3, r1, lsl #2
e00134d8:	e5830884 	str	r0, [r3, #2180]	@ 0x884
e00134dc:	e3500000 	cmp	r0, #0
e00134e0:	e1a022a1 	lsr	r2, r1, #5
e00134e4:	e201101f 	and	r1, r1, #31
e00134e8:	e3a03001 	mov	r3, #1
e00134ec:	e1a01113 	lsl	r1, r3, r1
e00134f0:	e1a02102 	lsl	r2, r2, #2
e00134f4:	0301327f 	movweq	r3, #4735	@ 0x127f
e00134f8:	130131ff 	movwne	r3, #4607	@ 0x11ff
e00134fc:	e34f3ff0 	movt	r3, #65520	@ 0xfff0
e0013500:	e0823003 	add	r3, r2, r3
e0013504:	e50310ff 	str	r1, [r3, #-255]	@ 0xffffff01
e0013508:	e12fff1e 	bx	lr

e001350c <deletedIRQHandler>:
e001350c:	e92d4010 	push	{r4, lr}
e0013510:	e1a01000 	mov	r1, r0
e0013514:	e3a00000 	mov	r0, #0
e0013518:	ebffffeb 	bl	e00134cc <setIRQState>
e001351c:	e8bd8010 	pop	{r4, pc}

e0013520 <emptySlot>:
e0013520:	e52de004 	push	{lr}		@ (str lr, [sp, #-4]!)
e0013524:	e24dd00c 	sub	sp, sp, #12
e0013528:	e28d3008 	add	r3, sp, #8
e001352c:	e9030006 	stmdb	r3, {r1, r2}
e0013530:	e5903000 	ldr	r3, [r0]
e0013534:	e203200e 	and	r2, r3, #14
e0013538:	e352000e 	cmp	r2, #14
e001353c:	1203300f 	andne	r3, r3, #15
e0013540:	06ef3073 	uxtbeq	r3, r3
e0013544:	e3530000 	cmp	r3, #0
e0013548:	0a00001f 	beq	e00135cc <emptySlot+0xac>
e001354c:	e590300c 	ldr	r3, [r0, #12]
e0013550:	e5902008 	ldr	r2, [r0, #8]
e0013554:	e3c31007 	bic	r1, r3, #7
e0013558:	e3d22007 	bics	r2, r2, #7
e001355c:	1592c00c 	ldrne	ip, [r2, #12]
e0013560:	120cc007 	andne	ip, ip, #7
e0013564:	118cc001 	orrne	ip, ip, r1
e0013568:	1582c00c 	strne	ip, [r2, #12]
e001356c:	e3510000 	cmp	r1, #0
e0013570:	0a000009 	beq	e001359c <emptySlot+0x7c>
e0013574:	e591c008 	ldr	ip, [r1, #8]
e0013578:	e20cc007 	and	ip, ip, #7
e001357c:	e18c2002 	orr	r2, ip, r2
e0013580:	e5812008 	str	r2, [r1, #8]
e0013584:	e591200c 	ldr	r2, [r1, #12]
e0013588:	e1833002 	orr	r3, r3, r2
e001358c:	e2033001 	and	r3, r3, #1
e0013590:	e3c22001 	bic	r2, r2, #1
e0013594:	e1833002 	orr	r3, r3, r2
e0013598:	e581300c 	str	r3, [r1, #12]
e001359c:	e3a03000 	mov	r3, #0
e00135a0:	e5803000 	str	r3, [r0]
e00135a4:	e5803004 	str	r3, [r0, #4]
e00135a8:	e5803008 	str	r3, [r0, #8]
e00135ac:	e580300c 	str	r3, [r0, #12]
e00135b0:	e59d3000 	ldr	r3, [sp]
e00135b4:	e203200e 	and	r2, r3, #14
e00135b8:	e352000e 	cmp	r2, #14
e00135bc:	1a000002 	bne	e00135cc <emptySlot+0xac>
e00135c0:	e6ef3073 	uxtb	r3, r3
e00135c4:	e353001e 	cmp	r3, #30
e00135c8:	0a000001 	beq	e00135d4 <emptySlot+0xb4>
e00135cc:	e28dd00c 	add	sp, sp, #12
e00135d0:	e49df004 	pop	{pc}		@ (ldr pc, [sp], #4)
e00135d4:	e5dd0004 	ldrb	r0, [sp, #4]
e00135d8:	ebffffcb 	bl	e001350c <deletedIRQHandler>
e00135dc:	eafffffa 	b	e00135cc <emptySlot+0xac>

e00135e0 <completeSignal>:
e00135e0:	e3510000 	cmp	r1, #0
e00135e4:	0a000009 	beq	e0013610 <completeSignal+0x30>
e00135e8:	e5903000 	ldr	r3, [r0]
e00135ec:	e2033003 	and	r3, r3, #3
e00135f0:	e3530002 	cmp	r3, #2
e00135f4:	1a000005 	bne	e0013610 <completeSignal+0x30>
e00135f8:	e5903008 	ldr	r3, [r0, #8]
e00135fc:	e5813000 	str	r3, [r1]
e0013600:	e5903000 	ldr	r3, [r0]
e0013604:	e3c33003 	bic	r3, r3, #3
e0013608:	e5803000 	str	r3, [r0]
e001360c:	e12fff1e 	bx	lr
e0013610:	e92d4010 	push	{r4, lr}
e0013614:	ebfff4c2 	bl	e0010924 <halt>

e0013618 <unbindMaybeNotification>:
e0013618:	e590300c 	ldr	r3, [r0, #12]
e001361c:	e3d3200f 	bics	r2, r3, #15
e0013620:	1203300f 	andne	r3, r3, #15
e0013624:	1580300c 	strne	r3, [r0, #12]
e0013628:	13a03000 	movne	r3, #0
e001362c:	1582305c 	strne	r3, [r2, #92]	@ 0x5c
e0013630:	e12fff1e 	bx	lr

e0013634 <unbindNotification>:
e0013634:	e590305c 	ldr	r3, [r0, #92]	@ 0x5c
e0013638:	e3530000 	cmp	r3, #0
e001363c:	1593200c 	ldrne	r2, [r3, #12]
e0013640:	1202200f 	andne	r2, r2, #15
e0013644:	1583200c 	strne	r2, [r3, #12]
e0013648:	13a03000 	movne	r3, #0
e001364c:	1580305c 	strne	r3, [r0, #92]	@ 0x5c
e0013650:	e12fff1e 	bx	lr

e0013654 <bindNotification>:
e0013654:	e591300c 	ldr	r3, [r1, #12]
e0013658:	e203300f 	and	r3, r3, #15
e001365c:	e3c0200f 	bic	r2, r0, #15
e0013660:	e1833002 	orr	r3, r3, r2
e0013664:	e581300c 	str	r3, [r1, #12]
e0013668:	e580105c 	str	r1, [r0, #92]	@ 0x5c
e001366c:	e12fff1e 	bx	lr

e0013670 <getObjectSize>:
e0013670:	e92d4010 	push	{r4, lr}
e0013674:	e3500004 	cmp	r0, #4
e0013678:	8a000007 	bhi	e001369c <getObjectSize+0x2c>
e001367c:	e3500004 	cmp	r0, #4
e0013680:	979ff100 	ldrls	pc, [pc, r0, lsl #2]
e0013684:	ea00000a 	b	e00136b4 <getObjectSize+0x44>
e0013688:	e00136c0 	.word	0xe00136c0
e001368c:	e00136b8 	.word	0xe00136b8
e0013690:	e00136a4 	.word	0xe00136a4
e0013694:	e00136a4 	.word	0xe00136a4
e0013698:	e00136ac 	.word	0xe00136ac
e001369c:	ebfff976 	bl	e0011c7c <Arch_getObjectSize>
e00136a0:	e8bd8010 	pop	{r4, pc}
e00136a4:	e3a00004 	mov	r0, #4
e00136a8:	e8bd8010 	pop	{r4, pc}
e00136ac:	e2810004 	add	r0, r1, #4
e00136b0:	e8bd8010 	pop	{r4, pc}
e00136b4:	ebfff49a 	bl	e0010924 <halt>
e00136b8:	e3a00009 	mov	r0, #9
e00136bc:	e8bd8010 	pop	{r4, pc}
e00136c0:	e1a00001 	mov	r0, r1
e00136c4:	e8bd8010 	pop	{r4, pc}

e00136c8 <hasCancelSendRights>:
e00136c8:	e24dd008 	sub	sp, sp, #8
e00136cc:	e28d3008 	add	r3, sp, #8
e00136d0:	e9030003 	stmdb	r3, {r0, r1}
e00136d4:	e1a03000 	mov	r3, r0
e00136d8:	e200200e 	and	r2, r0, #14
e00136dc:	e352000e 	cmp	r2, #14
e00136e0:	1200300f 	andne	r3, r0, #15
e00136e4:	06ef3073 	uxtbeq	r3, r3
e00136e8:	e3530004 	cmp	r3, #4
e00136ec:	13a00000 	movne	r0, #0
e00136f0:	0a000001 	beq	e00136fc <hasCancelSendRights+0x34>
e00136f4:	e28dd008 	add	sp, sp, #8
e00136f8:	e12fff1e 	bx	lr
e00136fc:	e59d0004 	ldr	r0, [sp, #4]
e0013700:	e2003003 	and	r3, r0, #3
e0013704:	e3530003 	cmp	r3, #3
e0013708:	13a00000 	movne	r0, #0
e001370c:	1afffff8 	bne	e00136f4 <hasCancelSendRights+0x2c>
e0013710:	e200000c 	and	r0, r0, #12
e0013714:	e350000c 	cmp	r0, #12
e0013718:	13a00000 	movne	r0, #0
e001371c:	03a00001 	moveq	r0, #1
e0013720:	eafffff3 	b	e00136f4 <hasCancelSendRights+0x2c>

e0013724 <updateCapData>:
e0013724:	e24dd008 	sub	sp, sp, #8
e0013728:	e52de004 	push	{lr}		@ (str lr, [sp, #-4]!)
e001372c:	e58d3008 	str	r3, [sp, #8]
e0013730:	e59de00c 	ldr	lr, [sp, #12]
e0013734:	e203c00e 	and	ip, r3, #14
e0013738:	e35c000e 	cmp	ip, #14
e001373c:	1203c00f 	andne	ip, r3, #15
e0013740:	06efc073 	uxtbeq	ip, r3
e0013744:	e31c0001 	tst	ip, #1
e0013748:	15803000 	strne	r3, [r0]
e001374c:	1580e004 	strne	lr, [r0, #4]
e0013750:	1a000007 	bne	e0013774 <updateCapData+0x50>
e0013754:	e35c0006 	cmp	ip, #6
e0013758:	0a000011 	beq	e00137a4 <updateCapData+0x80>
e001375c:	e35c000a 	cmp	ip, #10
e0013760:	0a000018 	beq	e00137c8 <updateCapData+0xa4>
e0013764:	e35c0004 	cmp	ip, #4
e0013768:	15803000 	strne	r3, [r0]
e001376c:	1580e004 	strne	lr, [r0, #4]
e0013770:	0a000002 	beq	e0013780 <updateCapData+0x5c>
e0013774:	e49de004 	pop	{lr}		@ (ldr lr, [sp], #4)
e0013778:	e28dd008 	add	sp, sp, #8
e001377c:	e12fff1e 	bx	lr
e0013780:	e1911223 	orrs	r1, r1, r3, lsr #4
e0013784:	0203100f 	andeq	r1, r3, #15
e0013788:	01813202 	orreq	r3, r1, r2, lsl #4
e001378c:	05803000 	streq	r3, [r0]
e0013790:	0580e004 	streq	lr, [r0, #4]
e0013794:	13a03000 	movne	r3, #0
e0013798:	15803000 	strne	r3, [r0]
e001379c:	15803004 	strne	r3, [r0, #4]
e00137a0:	eafffff3 	b	e0013774 <updateCapData+0x50>
e00137a4:	e191122e 	orrs	r1, r1, lr, lsr #4
e00137a8:	05803000 	streq	r3, [r0]
e00137ac:	020ee00f 	andeq	lr, lr, #15
e00137b0:	018e2202 	orreq	r2, lr, r2, lsl #4
e00137b4:	05802004 	streq	r2, [r0, #4]
e00137b8:	13a03000 	movne	r3, #0
e00137bc:	15803000 	strne	r3, [r0]
e00137c0:	15803004 	strne	r3, [r0, #4]
e00137c4:	eaffffea 	b	e0013774 <updateCapData+0x50>
e00137c8:	e7e4c1d2 	ubfx	ip, r2, #3, #5
e00137cc:	e7e4195e 	ubfx	r1, lr, #18, #5
e00137d0:	e081100c 	add	r1, r1, ip
e00137d4:	e3510020 	cmp	r1, #32
e00137d8:	83a03000 	movhi	r3, #0
e00137dc:	85803000 	strhi	r3, [r0]
e00137e0:	85803004 	strhi	r3, [r0, #4]
e00137e4:	8affffe2 	bhi	e0013774 <updateCapData+0x50>
e00137e8:	e5803000 	str	r3, [r0]
e00137ec:	e1a02422 	lsr	r2, r2, #8
e00137f0:	e3e03000 	mvn	r3, #0
e00137f4:	e1c22c13 	bic	r2, r2, r3, lsl ip
e00137f8:	e7f12052 	ubfx	r2, r2, #0, #18
e00137fc:	e3a03000 	mov	r3, #0
e0013800:	e34f307c 	movt	r3, #61564	@ 0xf07c
e0013804:	e003300e 	and	r3, r3, lr
e0013808:	e1833002 	orr	r3, r3, r2
e001380c:	e1833b8c 	orr	r3, r3, ip, lsl #23
e0013810:	e5803004 	str	r3, [r0, #4]
e0013814:	eaffffd6 	b	e0013774 <updateCapData+0x50>

e0013818 <maskCapRights>:
e0013818:	e92d4010 	push	{r4, lr}
e001381c:	e24dd008 	sub	sp, sp, #8
e0013820:	e1a04000 	mov	r4, r0
e0013824:	e28d0008 	add	r0, sp, #8
e0013828:	e900000c 	stmdb	r0, {r2, r3}
e001382c:	e1a03002 	mov	r3, r2
e0013830:	e202200e 	and	r2, r2, #14
e0013834:	e352000e 	cmp	r2, #14
e0013838:	1203200f 	andne	r2, r3, #15
e001383c:	06ef2073 	uxtbeq	r2, r3
e0013840:	e3120001 	tst	r2, #1
e0013844:	1a000042 	bne	e0013954 <maskCapRights+0x13c>
e0013848:	e59d0004 	ldr	r0, [sp, #4]
e001384c:	e352003e 	cmp	r2, #62	@ 0x3e
e0013850:	979ff102 	ldrls	pc, [pc, r2, lsl #2]
e0013854:	ea00006d 	b	e0013a10 <maskCapRights+0x1f8>
e0013858:	e0013970 	.word	0xe0013970
e001385c:	e0013a10 	.word	0xe0013a10
e0013860:	e0013970 	.word	0xe0013970
e0013864:	e0013a10 	.word	0xe0013a10
e0013868:	e0013980 	.word	0xe0013980
e001386c:	e0013a10 	.word	0xe0013a10
e0013870:	e00139c4 	.word	0xe00139c4
e0013874:	e0013a10 	.word	0xe0013a10
e0013878:	e00139ec 	.word	0xe00139ec
e001387c:	e0013a10 	.word	0xe0013a10
e0013880:	e0013970 	.word	0xe0013970
e0013884:	e0013a10 	.word	0xe0013a10
e0013888:	e0013970 	.word	0xe0013970
e001388c:	e0013a10 	.word	0xe0013a10
e0013890:	e0013970 	.word	0xe0013970
e0013894:	e0013a10 	.word	0xe0013a10
e0013898:	e0013a10 	.word	0xe0013a10
e001389c:	e0013a10 	.word	0xe0013a10
e00138a0:	e0013a10 	.word	0xe0013a10
e00138a4:	e0013a10 	.word	0xe0013a10
e00138a8:	e0013a10 	.word	0xe0013a10
e00138ac:	e0013a10 	.word	0xe0013a10
e00138b0:	e0013a10 	.word	0xe0013a10
e00138b4:	e0013a10 	.word	0xe0013a10
e00138b8:	e0013a10 	.word	0xe0013a10
e00138bc:	e0013a10 	.word	0xe0013a10
e00138c0:	e0013a10 	.word	0xe0013a10
e00138c4:	e0013a10 	.word	0xe0013a10
e00138c8:	e0013a10 	.word	0xe0013a10
e00138cc:	e0013a10 	.word	0xe0013a10
e00138d0:	e0013970 	.word	0xe0013970
e00138d4:	e0013a10 	.word	0xe0013a10
e00138d8:	e0013a10 	.word	0xe0013a10
e00138dc:	e0013a10 	.word	0xe0013a10
e00138e0:	e0013a10 	.word	0xe0013a10
e00138e4:	e0013a10 	.word	0xe0013a10
e00138e8:	e0013a10 	.word	0xe0013a10
e00138ec:	e0013a10 	.word	0xe0013a10
e00138f0:	e0013a10 	.word	0xe0013a10
e00138f4:	e0013a10 	.word	0xe0013a10
e00138f8:	e0013a10 	.word	0xe0013a10
e00138fc:	e0013a10 	.word	0xe0013a10
e0013900:	e0013a10 	.word	0xe0013a10
e0013904:	e0013a10 	.word	0xe0013a10
e0013908:	e0013a10 	.word	0xe0013a10
e001390c:	e0013a10 	.word	0xe0013a10
e0013910:	e0013970 	.word	0xe0013970
e0013914:	e0013a10 	.word	0xe0013a10
e0013918:	e0013a10 	.word	0xe0013a10
e001391c:	e0013a10 	.word	0xe0013a10
e0013920:	e0013a10 	.word	0xe0013a10
e0013924:	e0013a10 	.word	0xe0013a10
e0013928:	e0013a10 	.word	0xe0013a10
e001392c:	e0013a10 	.word	0xe0013a10
e0013930:	e0013a10 	.word	0xe0013a10
e0013934:	e0013a10 	.word	0xe0013a10
e0013938:	e0013a10 	.word	0xe0013a10
e001393c:	e0013a10 	.word	0xe0013a10
e0013940:	e0013a10 	.word	0xe0013a10
e0013944:	e0013a10 	.word	0xe0013a10
e0013948:	e0013a10 	.word	0xe0013a10
e001394c:	e0013a10 	.word	0xe0013a10
e0013950:	e0013970 	.word	0xe0013970
e0013954:	e28d3008 	add	r3, sp, #8
e0013958:	e913000c 	ldmdb	r3, {r2, r3}
e001395c:	e1a00004 	mov	r0, r4
e0013960:	ebfff78b 	bl	e0011794 <Arch_maskCapRights>
e0013964:	e1a00004 	mov	r0, r4
e0013968:	e28dd008 	add	sp, sp, #8
e001396c:	e8bd8010 	pop	{r4, pc}
e0013970:	e28d3008 	add	r3, sp, #8
e0013974:	e9130003 	ldmdb	r3, {r0, r1}
e0013978:	e8840003 	stm	r4, {r0, r1}
e001397c:	eafffff8 	b	e0013964 <maskCapRights+0x14c>
e0013980:	e5843000 	str	r3, [r4]
e0013984:	e0013000 	and	r3, r1, r0
e0013988:	e2032002 	and	r2, r3, #2
e001398c:	e1e03f81 	mvn	r3, r1, lsl #31
e0013990:	e1e03fa3 	mvn	r3, r3, lsr #31
e0013994:	e0033000 	and	r3, r3, r0
e0013998:	e3c33006 	bic	r3, r3, #6
e001399c:	e1833002 	orr	r3, r3, r2
e00139a0:	e0012000 	and	r2, r1, r0
e00139a4:	e2022004 	and	r2, r2, #4
e00139a8:	e1833002 	orr	r3, r3, r2
e00139ac:	e3c33008 	bic	r3, r3, #8
e00139b0:	e0011000 	and	r1, r1, r0
e00139b4:	e2011008 	and	r1, r1, #8
e00139b8:	e1833001 	orr	r3, r3, r1
e00139bc:	e5843004 	str	r3, [r4, #4]
e00139c0:	eaffffe7 	b	e0013964 <maskCapRights+0x14c>
e00139c4:	e5843000 	str	r3, [r4]
e00139c8:	e0013000 	and	r3, r1, r0
e00139cc:	e2033002 	and	r3, r3, #2
e00139d0:	e1e01f81 	mvn	r1, r1, lsl #31
e00139d4:	e1e01fa1 	mvn	r1, r1, lsr #31
e00139d8:	e0011000 	and	r1, r1, r0
e00139dc:	e3c11002 	bic	r1, r1, #2
e00139e0:	e1831001 	orr	r1, r3, r1
e00139e4:	e5841004 	str	r1, [r4, #4]
e00139e8:	eaffffdd 	b	e0013964 <maskCapRights+0x14c>
e00139ec:	e1a022a3 	lsr	r2, r3, #5
e00139f0:	e0022121 	and	r2, r2, r1, lsr #2
e00139f4:	e1a02282 	lsl	r2, r2, #5
e00139f8:	e2022020 	and	r2, r2, #32
e00139fc:	e3c33020 	bic	r3, r3, #32
e0013a00:	e1823003 	orr	r3, r2, r3
e0013a04:	e5843000 	str	r3, [r4]
e0013a08:	e5840004 	str	r0, [r4, #4]
e0013a0c:	eaffffd4 	b	e0013964 <maskCapRights+0x14c>
e0013a10:	ebfff3c3 	bl	e0010924 <halt>

e0013a14 <createObject>:
e0013a14:	e92d4010 	push	{r4, lr}
e0013a18:	e24dd008 	sub	sp, sp, #8
e0013a1c:	e1a04000 	mov	r4, r0
e0013a20:	e3510004 	cmp	r1, #4
e0013a24:	8a000007 	bhi	e0013a48 <createObject+0x34>
e0013a28:	e3510004 	cmp	r1, #4
e0013a2c:	979ff101 	ldrls	pc, [pc, r1, lsl #2]
e0013a30:	ea000036 	b	e0013b10 <createObject+0xfc>
e0013a34:	e0013ae8 	.word	0xe0013ae8
e0013a38:	e0013a64 	.word	0xe0013a64
e0013a3c:	e0013aa0 	.word	0xe0013aa0
e0013a40:	e0013ab4 	.word	0xe0013ab4
e0013a44:	e0013acc 	.word	0xe0013acc
e0013a48:	e59d0010 	ldr	r0, [sp, #16]
e0013a4c:	e58d0000 	str	r0, [sp]
e0013a50:	e1a00004 	mov	r0, r4
e0013a54:	ebfffa4c 	bl	e001238c <Arch_createObject>
e0013a58:	e1a00004 	mov	r0, r4
e0013a5c:	e28dd008 	add	sp, sp, #8
e0013a60:	e8bd8010 	pop	{r4, pc}
e0013a64:	e3a03e15 	mov	r3, #336	@ 0x150
e0013a68:	e5823140 	str	r3, [r2, #320]	@ 0x140
e0013a6c:	e3a03005 	mov	r3, #5
e0013a70:	e582317c 	str	r3, [r2, #380]	@ 0x17c
e0013a74:	e30c3000 	movw	r3, #49152	@ 0xc000
e0013a78:	e34e3001 	movt	r3, #57345	@ 0xe001
e0013a7c:	e5933b04 	ldr	r3, [r3, #2820]	@ 0xb04
e0013a80:	e5823170 	str	r3, [r2, #368]	@ 0x170
e0013a84:	e2822c01 	add	r2, r2, #256	@ 0x100
e0013a88:	e3c2200f 	bic	r2, r2, #15
e0013a8c:	e382200c 	orr	r2, r2, #12
e0013a90:	e5802000 	str	r2, [r0]
e0013a94:	e3a03000 	mov	r3, #0
e0013a98:	e5803004 	str	r3, [r0, #4]
e0013a9c:	eaffffed 	b	e0013a58 <createObject+0x44>
e0013aa0:	e3a03004 	mov	r3, #4
e0013aa4:	e5803000 	str	r3, [r0]
e0013aa8:	e382200f 	orr	r2, r2, #15
e0013aac:	e5802004 	str	r2, [r0, #4]
e0013ab0:	eaffffe8 	b	e0013a58 <createObject+0x44>
e0013ab4:	e3c2200f 	bic	r2, r2, #15
e0013ab8:	e3822006 	orr	r2, r2, #6
e0013abc:	e5802000 	str	r2, [r0]
e0013ac0:	e3a03003 	mov	r3, #3
e0013ac4:	e5803004 	str	r3, [r0, #4]
e0013ac8:	eaffffe2 	b	e0013a58 <createObject+0x44>
e0013acc:	e3c2201f 	bic	r2, r2, #31
e0013ad0:	e382200a 	orr	r2, r2, #10
e0013ad4:	e5802000 	str	r2, [r0]
e0013ad8:	e1a03903 	lsl	r3, r3, #18
e0013adc:	e203371f 	and	r3, r3, #8126464	@ 0x7c0000
e0013ae0:	e5803004 	str	r3, [r0, #4]
e0013ae4:	eaffffdb 	b	e0013a58 <createObject+0x44>
e0013ae8:	e3c2200f 	bic	r2, r2, #15
e0013aec:	e3822002 	orr	r2, r2, #2
e0013af0:	e5802000 	str	r2, [r0]
e0013af4:	e59d2010 	ldr	r2, [sp, #16]
e0013af8:	e2522000 	subs	r2, r2, #0
e0013afc:	13a02001 	movne	r2, #1
e0013b00:	e203301f 	and	r3, r3, #31
e0013b04:	e1833282 	orr	r3, r3, r2, lsl #5
e0013b08:	e5803004 	str	r3, [r0, #4]
e0013b0c:	eaffffd1 	b	e0013a58 <createObject+0x44>
e0013b10:	ebfff383 	bl	e0010924 <halt>

e0013b14 <createNewObjects>:
e0013b14:	e92d4ff0 	push	{r4, r5, r6, r7, r8, r9, sl, fp, lr}
e0013b18:	e24dd01c 	sub	sp, sp, #28
e0013b1c:	e58d000c 	str	r0, [sp, #12]
e0013b20:	e1a08001 	mov	r8, r1
e0013b24:	e1a04002 	mov	r4, r2
e0013b28:	e1a05003 	mov	r5, r3
e0013b2c:	e59d9040 	ldr	r9, [sp, #64]	@ 0x40
e0013b30:	e59da044 	ldr	sl, [sp, #68]	@ 0x44
e0013b34:	e59db04c 	ldr	fp, [sp, #76]	@ 0x4c
e0013b38:	e59d1048 	ldr	r1, [sp, #72]	@ 0x48
e0013b3c:	ebfffecb 	bl	e0013670 <getObjectSize>
e0013b40:	e3590000 	cmp	r9, #0
e0013b44:	0a000011 	beq	e0013b90 <createNewObjects+0x7c>
e0013b48:	e1a07000 	mov	r7, r0
e0013b4c:	e0845205 	add	r5, r4, r5, lsl #4
e0013b50:	e3a04000 	mov	r4, #0
e0013b54:	e28d6010 	add	r6, sp, #16
e0013b58:	e58db000 	str	fp, [sp]
e0013b5c:	e59d3048 	ldr	r3, [sp, #72]	@ 0x48
e0013b60:	e08a2714 	add	r2, sl, r4, lsl r7
e0013b64:	e59d100c 	ldr	r1, [sp, #12]
e0013b68:	e1a00006 	mov	r0, r6
e0013b6c:	ebffffa8 	bl	e0013a14 <createObject>
e0013b70:	e896000c 	ldm	r6, {r2, r3}
e0013b74:	e1a01005 	mov	r1, r5
e0013b78:	e1a00008 	mov	r0, r8
e0013b7c:	ebfffdd4 	bl	e00132d4 <insertNewCap>
e0013b80:	e2844001 	add	r4, r4, #1
e0013b84:	e2855010 	add	r5, r5, #16
e0013b88:	e1590004 	cmp	r9, r4
e0013b8c:	1afffff1 	bne	e0013b58 <createNewObjects+0x44>
e0013b90:	e28dd01c 	add	sp, sp, #28
e0013b94:	e8bd8ff0 	pop	{r4, r5, r6, r7, r8, r9, sl, fp, pc}

e0013b98 <cap_get_capSizeBits>:
e0013b98:	e52de004 	push	{lr}		@ (str lr, [sp, #-4]!)
e0013b9c:	e24dd00c 	sub	sp, sp, #12
e0013ba0:	e28d3008 	add	r3, sp, #8
e0013ba4:	e9030003 	stmdb	r3, {r0, r1}
e0013ba8:	e1a03000 	mov	r3, r0
e0013bac:	e200200e 	and	r2, r0, #14
e0013bb0:	e352000e 	cmp	r2, #14
e0013bb4:	1200000f 	andne	r0, r0, #15
e0013bb8:	06ef0073 	uxtbeq	r0, r3
e0013bbc:	e350003e 	cmp	r0, #62	@ 0x3e
e0013bc0:	979ff100 	ldrls	pc, [pc, r0, lsl #2]
e0013bc4:	ea000055 	b	e0013d20 <cap_get_capSizeBits+0x188>
e0013bc8:	e0013cd0 	.word	0xe0013cd0
e0013bcc:	e0013d20 	.word	0xe0013d20
e0013bd0:	e0013ccc 	.word	0xe0013ccc
e0013bd4:	e0013d20 	.word	0xe0013d20
e0013bd8:	e0013dd4 	.word	0xe0013dd4
e0013bdc:	e0013d20 	.word	0xe0013d20
e0013be0:	e0013dd4 	.word	0xe0013dd4
e0013be4:	e0013d20 	.word	0xe0013d20
e0013be8:	e0013d08 	.word	0xe0013d08
e0013bec:	e0013d20 	.word	0xe0013d20
e0013bf0:	e0013cd8 	.word	0xe0013cd8
e0013bf4:	e0013d20 	.word	0xe0013d20
e0013bf8:	e0013cc4 	.word	0xe0013cc4
e0013bfc:	e0013d20 	.word	0xe0013d20
e0013c00:	e0013d10 	.word	0xe0013d10
e0013c04:	e0013d20 	.word	0xe0013d20
e0013c08:	e0013d20 	.word	0xe0013d20
e0013c0c:	e0013d20 	.word	0xe0013d20
e0013c10:	e0013d20 	.word	0xe0013d20
e0013c14:	e0013d20 	.word	0xe0013d20
e0013c18:	e0013d20 	.word	0xe0013d20
e0013c1c:	e0013d20 	.word	0xe0013d20
e0013c20:	e0013d20 	.word	0xe0013d20
e0013c24:	e0013d20 	.word	0xe0013d20
e0013c28:	e0013d20 	.word	0xe0013d20
e0013c2c:	e0013d20 	.word	0xe0013d20
e0013c30:	e0013d20 	.word	0xe0013d20
e0013c34:	e0013d20 	.word	0xe0013d20
e0013c38:	e0013d20 	.word	0xe0013d20
e0013c3c:	e0013d20 	.word	0xe0013d20
e0013c40:	e0013d18 	.word	0xe0013d18
e0013c44:	e0013d20 	.word	0xe0013d20
e0013c48:	e0013d20 	.word	0xe0013d20
e0013c4c:	e0013d20 	.word	0xe0013d20
e0013c50:	e0013d20 	.word	0xe0013d20
e0013c54:	e0013d20 	.word	0xe0013d20
e0013c58:	e0013d20 	.word	0xe0013d20
e0013c5c:	e0013d20 	.word	0xe0013d20
e0013c60:	e0013d20 	.word	0xe0013d20
e0013c64:	e0013d20 	.word	0xe0013d20
e0013c68:	e0013d20 	.word	0xe0013d20
e0013c6c:	e0013d20 	.word	0xe0013d20
e0013c70:	e0013d20 	.word	0xe0013d20
e0013c74:	e0013d20 	.word	0xe0013d20
e0013c78:	e0013d20 	.word	0xe0013d20
e0013c7c:	e0013d20 	.word	0xe0013d20
e0013c80:	e0013ce4 	.word	0xe0013ce4
e0013c84:	e0013d20 	.word	0xe0013d20
e0013c88:	e0013d20 	.word	0xe0013d20
e0013c8c:	e0013d20 	.word	0xe0013d20
e0013c90:	e0013d20 	.word	0xe0013d20
e0013c94:	e0013d20 	.word	0xe0013d20
e0013c98:	e0013d20 	.word	0xe0013d20
e0013c9c:	e0013d20 	.word	0xe0013d20
e0013ca0:	e0013d20 	.word	0xe0013d20
e0013ca4:	e0013d20 	.word	0xe0013d20
e0013ca8:	e0013d20 	.word	0xe0013d20
e0013cac:	e0013d20 	.word	0xe0013d20
e0013cb0:	e0013d20 	.word	0xe0013d20
e0013cb4:	e0013d20 	.word	0xe0013d20
e0013cb8:	e0013d20 	.word	0xe0013d20
e0013cbc:	e0013d20 	.word	0xe0013d20
e0013cc0:	e0013d00 	.word	0xe0013d00
e0013cc4:	e3a00009 	mov	r0, #9
e0013cc8:	ea000000 	b	e0013cd0 <cap_get_capSizeBits+0x138>
e0013ccc:	e201001f 	and	r0, r1, #31
e0013cd0:	e28dd00c 	add	sp, sp, #12
e0013cd4:	e49df004 	pop	{pc}		@ (ldr pc, [sp], #4)
e0013cd8:	e7e40951 	ubfx	r0, r1, #18, #5
e0013cdc:	e2800004 	add	r0, r0, #4
e0013ce0:	eafffffa 	b	e0013cd0 <cap_get_capSizeBits+0x138>
e0013ce4:	e1a03423 	lsr	r3, r3, #8
e0013ce8:	e203203f 	and	r2, r3, #63	@ 0x3f
e0013cec:	e3520020 	cmp	r2, #32
e0013cf0:	0a000039 	beq	e0013ddc <cap_get_capSizeBits+0x244>
e0013cf4:	e203301f 	and	r3, r3, #31
e0013cf8:	e2830004 	add	r0, r3, #4
e0013cfc:	eafffff3 	b	e0013cd0 <cap_get_capSizeBits+0x138>
e0013d00:	e3a00000 	mov	r0, #0
e0013d04:	eafffff1 	b	e0013cd0 <cap_get_capSizeBits+0x138>
e0013d08:	e3a00000 	mov	r0, #0
e0013d0c:	eaffffef 	b	e0013cd0 <cap_get_capSizeBits+0x138>
e0013d10:	e3a00000 	mov	r0, #0
e0013d14:	eaffffed 	b	e0013cd0 <cap_get_capSizeBits+0x138>
e0013d18:	e3a00000 	mov	r0, #0
e0013d1c:	eaffffeb 	b	e0013cd0 <cap_get_capSizeBits+0x138>
e0013d20:	e2403001 	sub	r3, r0, #1
e0013d24:	e353000a 	cmp	r3, #10
e0013d28:	979ff103 	ldrls	pc, [pc, r3, lsl #2]
e0013d2c:	ea000022 	b	e0013dbc <cap_get_capSizeBits+0x224>
e0013d30:	e0013d64 	.word	0xe0013d64
e0013d34:	e0013dbc 	.word	0xe0013dbc
e0013d38:	e0013d64 	.word	0xe0013d64
e0013d3c:	e0013dbc 	.word	0xe0013dbc
e0013d40:	e0013dac 	.word	0xe0013dac
e0013d44:	e0013dbc 	.word	0xe0013dbc
e0013d48:	e0013dc4 	.word	0xe0013dc4
e0013d4c:	e0013dbc 	.word	0xe0013dbc
e0013d50:	e0013d5c 	.word	0xe0013d5c
e0013d54:	e0013dbc 	.word	0xe0013dbc
e0013d58:	e0013db4 	.word	0xe0013db4
e0013d5c:	e3a0000e 	mov	r0, #14
e0013d60:	eaffffda 	b	e0013cd0 <cap_get_capSizeBits+0x138>
e0013d64:	e3500003 	cmp	r0, #3
e0013d68:	13a0000c 	movne	r0, #12
e0013d6c:	1affffd7 	bne	e0013cd0 <cap_get_capSizeBits+0x138>
e0013d70:	e1a01f21 	lsr	r1, r1, #30
e0013d74:	e3510003 	cmp	r1, #3
e0013d78:	979ff101 	ldrls	pc, [pc, r1, lsl #2]
e0013d7c:	ea000009 	b	e0013da8 <cap_get_capSizeBits+0x210>
e0013d80:	e0013dcc 	.word	0xe0013dcc
e0013d84:	e0013d90 	.word	0xe0013d90
e0013d88:	e0013d98 	.word	0xe0013d98
e0013d8c:	e0013da0 	.word	0xe0013da0
e0013d90:	e3a00010 	mov	r0, #16
e0013d94:	eaffffcd 	b	e0013cd0 <cap_get_capSizeBits+0x138>
e0013d98:	e3a00014 	mov	r0, #20
e0013d9c:	eaffffcb 	b	e0013cd0 <cap_get_capSizeBits+0x138>
e0013da0:	e3a00018 	mov	r0, #24
e0013da4:	eaffffc9 	b	e0013cd0 <cap_get_capSizeBits+0x138>
e0013da8:	ebfff2dd 	bl	e0010924 <halt>
e0013dac:	e3a0000c 	mov	r0, #12
e0013db0:	eaffffc6 	b	e0013cd0 <cap_get_capSizeBits+0x138>
e0013db4:	e3a00000 	mov	r0, #0
e0013db8:	eaffffc4 	b	e0013cd0 <cap_get_capSizeBits+0x138>
e0013dbc:	e3a00000 	mov	r0, #0
e0013dc0:	eaffffc2 	b	e0013cd0 <cap_get_capSizeBits+0x138>
e0013dc4:	e3a0000a 	mov	r0, #10
e0013dc8:	eaffffc0 	b	e0013cd0 <cap_get_capSizeBits+0x138>
e0013dcc:	e3a0000c 	mov	r0, #12
e0013dd0:	eaffffbe 	b	e0013cd0 <cap_get_capSizeBits+0x138>
e0013dd4:	e3a00004 	mov	r0, #4
e0013dd8:	eaffffbc 	b	e0013cd0 <cap_get_capSizeBits+0x138>
e0013ddc:	e3a00009 	mov	r0, #9
e0013de0:	eaffffba 	b	e0013cd0 <cap_get_capSizeBits+0x138>

e0013de4 <cap_get_capIsPhysical>:
e0013de4:	e24dd008 	sub	sp, sp, #8
e0013de8:	e28d3008 	add	r3, sp, #8
e0013dec:	e9030003 	stmdb	r3, {r0, r1}
e0013df0:	e1a03000 	mov	r3, r0
e0013df4:	e200200e 	and	r2, r0, #14
e0013df8:	e352000e 	cmp	r2, #14
e0013dfc:	1200300f 	andne	r3, r0, #15
e0013e00:	06ef3073 	uxtbeq	r3, r3
e0013e04:	e2432002 	sub	r2, r3, #2
e0013e08:	e352003c 	cmp	r2, #60	@ 0x3c
e0013e0c:	979ff102 	ldrls	pc, [pc, r2, lsl #2]
e0013e10:	ea00003e 	b	e0013f10 <cap_get_capIsPhysical+0x12c>
e0013e14:	e0013f54 	.word	0xe0013f54
e0013e18:	e0013f10 	.word	0xe0013f10
e0013e1c:	e0013f54 	.word	0xe0013f54
e0013e20:	e0013f10 	.word	0xe0013f10
e0013e24:	e0013f54 	.word	0xe0013f54
e0013e28:	e0013f10 	.word	0xe0013f10
e0013e2c:	e0013f08 	.word	0xe0013f08
e0013e30:	e0013f10 	.word	0xe0013f10
e0013e34:	e0013f54 	.word	0xe0013f54
e0013e38:	e0013f10 	.word	0xe0013f10
e0013e3c:	e0013f54 	.word	0xe0013f54
e0013e40:	e0013f10 	.word	0xe0013f10
e0013e44:	e0013f08 	.word	0xe0013f08
e0013e48:	e0013f10 	.word	0xe0013f10
e0013e4c:	e0013f10 	.word	0xe0013f10
e0013e50:	e0013f10 	.word	0xe0013f10
e0013e54:	e0013f10 	.word	0xe0013f10
e0013e58:	e0013f10 	.word	0xe0013f10
e0013e5c:	e0013f10 	.word	0xe0013f10
e0013e60:	e0013f10 	.word	0xe0013f10
e0013e64:	e0013f10 	.word	0xe0013f10
e0013e68:	e0013f10 	.word	0xe0013f10
e0013e6c:	e0013f10 	.word	0xe0013f10
e0013e70:	e0013f10 	.word	0xe0013f10
e0013e74:	e0013f10 	.word	0xe0013f10
e0013e78:	e0013f10 	.word	0xe0013f10
e0013e7c:	e0013f10 	.word	0xe0013f10
e0013e80:	e0013f10 	.word	0xe0013f10
e0013e84:	e0013f08 	.word	0xe0013f08
e0013e88:	e0013f10 	.word	0xe0013f10
e0013e8c:	e0013f10 	.word	0xe0013f10
e0013e90:	e0013f10 	.word	0xe0013f10
e0013e94:	e0013f10 	.word	0xe0013f10
e0013e98:	e0013f10 	.word	0xe0013f10
e0013e9c:	e0013f10 	.word	0xe0013f10
e0013ea0:	e0013f10 	.word	0xe0013f10
e0013ea4:	e0013f10 	.word	0xe0013f10
e0013ea8:	e0013f10 	.word	0xe0013f10
e0013eac:	e0013f10 	.word	0xe0013f10
e0013eb0:	e0013f10 	.word	0xe0013f10
e0013eb4:	e0013f10 	.word	0xe0013f10
e0013eb8:	e0013f10 	.word	0xe0013f10
e0013ebc:	e0013f10 	.word	0xe0013f10
e0013ec0:	e0013f10 	.word	0xe0013f10
e0013ec4:	e0013f54 	.word	0xe0013f54
e0013ec8:	e0013f10 	.word	0xe0013f10
e0013ecc:	e0013f10 	.word	0xe0013f10
e0013ed0:	e0013f10 	.word	0xe0013f10
e0013ed4:	e0013f10 	.word	0xe0013f10
e0013ed8:	e0013f10 	.word	0xe0013f10
e0013edc:	e0013f10 	.word	0xe0013f10
e0013ee0:	e0013f10 	.word	0xe0013f10
e0013ee4:	e0013f10 	.word	0xe0013f10
e0013ee8:	e0013f10 	.word	0xe0013f10
e0013eec:	e0013f10 	.word	0xe0013f10
e0013ef0:	e0013f10 	.word	0xe0013f10
e0013ef4:	e0013f10 	.word	0xe0013f10
e0013ef8:	e0013f10 	.word	0xe0013f10
e0013efc:	e0013f10 	.word	0xe0013f10
e0013f00:	e0013f10 	.word	0xe0013f10
e0013f04:	e0013f08 	.word	0xe0013f08
e0013f08:	e3a00000 	mov	r0, #0
e0013f0c:	ea000011 	b	e0013f58 <cap_get_capIsPhysical+0x174>
e0013f10:	e2433001 	sub	r3, r3, #1
e0013f14:	e3530008 	cmp	r3, #8
e0013f18:	979ff103 	ldrls	pc, [pc, r3, lsl #2]
e0013f1c:	ea000008 	b	e0013f44 <cap_get_capIsPhysical+0x160>
e0013f20:	e0013f4c 	.word	0xe0013f4c
e0013f24:	e0013f44 	.word	0xe0013f44
e0013f28:	e0013f4c 	.word	0xe0013f4c
e0013f2c:	e0013f44 	.word	0xe0013f44
e0013f30:	e0013f4c 	.word	0xe0013f4c
e0013f34:	e0013f44 	.word	0xe0013f44
e0013f38:	e0013f4c 	.word	0xe0013f4c
e0013f3c:	e0013f44 	.word	0xe0013f44
e0013f40:	e0013f4c 	.word	0xe0013f4c
e0013f44:	e3a00000 	mov	r0, #0
e0013f48:	ea000002 	b	e0013f58 <cap_get_capIsPhysical+0x174>
e0013f4c:	e3a00001 	mov	r0, #1
e0013f50:	ea000000 	b	e0013f58 <cap_get_capIsPhysical+0x174>
e0013f54:	e3a00001 	mov	r0, #1
e0013f58:	e28dd008 	add	sp, sp, #8
e0013f5c:	e12fff1e 	bx	lr

e0013f60 <cap_get_capPtr>:
e0013f60:	e24dd008 	sub	sp, sp, #8
e0013f64:	e28d3008 	add	r3, sp, #8
e0013f68:	e9030003 	stmdb	r3, {r0, r1}
e0013f6c:	e200300e 	and	r3, r0, #14
e0013f70:	e353000e 	cmp	r3, #14
e0013f74:	1200200f 	andne	r2, r0, #15
e0013f78:	06ef2070 	uxtbeq	r2, r0
e0013f7c:	e2423002 	sub	r3, r2, #2
e0013f80:	e353003c 	cmp	r3, #60	@ 0x3c
e0013f84:	979ff103 	ldrls	pc, [pc, r3, lsl #2]
e0013f88:	ea000051 	b	e00140d4 <cap_get_capPtr+0x174>
e0013f8c:	e0014080 	.word	0xe0014080
e0013f90:	e00140d4 	.word	0xe00140d4
e0013f94:	e001408c 	.word	0xe001408c
e0013f98:	e00140d4 	.word	0xe00140d4
e0013f9c:	e0014094 	.word	0xe0014094
e0013fa0:	e00140d4 	.word	0xe00140d4
e0013fa4:	e0014160 	.word	0xe0014160
e0013fa8:	e00140d4 	.word	0xe00140d4
e0013fac:	e001409c 	.word	0xe001409c
e0013fb0:	e00140d4 	.word	0xe00140d4
e0013fb4:	e00140a4 	.word	0xe00140a4
e0013fb8:	e00140d4 	.word	0xe00140d4
e0013fbc:	e0014160 	.word	0xe0014160
e0013fc0:	e00140d4 	.word	0xe00140d4
e0013fc4:	e00140d4 	.word	0xe00140d4
e0013fc8:	e00140d4 	.word	0xe00140d4
e0013fcc:	e00140d4 	.word	0xe00140d4
e0013fd0:	e00140d4 	.word	0xe00140d4
e0013fd4:	e00140d4 	.word	0xe00140d4
e0013fd8:	e00140d4 	.word	0xe00140d4
e0013fdc:	e00140d4 	.word	0xe00140d4
e0013fe0:	e00140d4 	.word	0xe00140d4
e0013fe4:	e00140d4 	.word	0xe00140d4
e0013fe8:	e00140d4 	.word	0xe00140d4
e0013fec:	e00140d4 	.word	0xe00140d4
e0013ff0:	e00140d4 	.word	0xe00140d4
e0013ff4:	e00140d4 	.word	0xe00140d4
e0013ff8:	e00140d4 	.word	0xe00140d4
e0013ffc:	e0014160 	.word	0xe0014160
e0014000:	e00140d4 	.word	0xe00140d4
e0014004:	e00140d4 	.word	0xe00140d4
e0014008:	e00140d4 	.word	0xe00140d4
e001400c:	e00140d4 	.word	0xe00140d4
e0014010:	e00140d4 	.word	0xe00140d4
e0014014:	e00140d4 	.word	0xe00140d4
e0014018:	e00140d4 	.word	0xe00140d4
e001401c:	e00140d4 	.word	0xe00140d4
e0014020:	e00140d4 	.word	0xe00140d4
e0014024:	e00140d4 	.word	0xe00140d4
e0014028:	e00140d4 	.word	0xe00140d4
e001402c:	e00140d4 	.word	0xe00140d4
e0014030:	e00140d4 	.word	0xe00140d4
e0014034:	e00140d4 	.word	0xe00140d4
e0014038:	e00140d4 	.word	0xe00140d4
e001403c:	e00140b0 	.word	0xe00140b0
e0014040:	e00140d4 	.word	0xe00140d4
e0014044:	e00140d4 	.word	0xe00140d4
e0014048:	e00140d4 	.word	0xe00140d4
e001404c:	e00140d4 	.word	0xe00140d4
e0014050:	e00140d4 	.word	0xe00140d4
e0014054:	e00140d4 	.word	0xe00140d4
e0014058:	e00140d4 	.word	0xe00140d4
e001405c:	e00140d4 	.word	0xe00140d4
e0014060:	e00140d4 	.word	0xe00140d4
e0014064:	e00140d4 	.word	0xe00140d4
e0014068:	e00140d4 	.word	0xe00140d4
e001406c:	e00140d4 	.word	0xe00140d4
e0014070:	e00140d4 	.word	0xe00140d4
e0014074:	e00140d4 	.word	0xe00140d4
e0014078:	e00140d4 	.word	0xe00140d4
e001407c:	e0014160 	.word	0xe0014160
e0014080:	e3c0000f 	bic	r0, r0, #15
e0014084:	e28dd008 	add	sp, sp, #8
e0014088:	e12fff1e 	bx	lr
e001408c:	e3c1000f 	bic	r0, r1, #15
e0014090:	eafffffb 	b	e0014084 <cap_get_capPtr+0x124>
e0014094:	e3c0000f 	bic	r0, r0, #15
e0014098:	eafffff9 	b	e0014084 <cap_get_capPtr+0x124>
e001409c:	e3c0001f 	bic	r0, r0, #31
e00140a0:	eafffff7 	b	e0014084 <cap_get_capPtr+0x124>
e00140a4:	e3c00f7f 	bic	r0, r0, #508	@ 0x1fc
e00140a8:	e3c00003 	bic	r0, r0, #3
e00140ac:	eafffff4 	b	e0014084 <cap_get_capPtr+0x124>
e00140b0:	e1a00420 	lsr	r0, r0, #8
e00140b4:	e200303f 	and	r3, r0, #63	@ 0x3f
e00140b8:	e3530020 	cmp	r3, #32
e00140bc:	1200001f 	andne	r0, r0, #31
e00140c0:	03a00004 	moveq	r0, #4
e00140c4:	e2803001 	add	r3, r0, #1
e00140c8:	e3e00000 	mvn	r0, #0
e00140cc:	e0010310 	and	r0, r1, r0, lsl r3
e00140d0:	eaffffeb 	b	e0014084 <cap_get_capPtr+0x124>
e00140d4:	e2423001 	sub	r3, r2, #1
e00140d8:	e3530008 	cmp	r3, #8
e00140dc:	979ff103 	ldrls	pc, [pc, r3, lsl #2]
e00140e0:	ea00001c 	b	e0014158 <cap_get_capPtr+0x1f8>
e00140e4:	e0014108 	.word	0xe0014108
e00140e8:	e0014158 	.word	0xe0014158
e00140ec:	e0014108 	.word	0xe0014108
e00140f0:	e0014158 	.word	0xe0014158
e00140f4:	e0014150 	.word	0xe0014150
e00140f8:	e0014158 	.word	0xe0014158
e00140fc:	e0014138 	.word	0xe0014138
e0014100:	e0014158 	.word	0xe0014158
e0014104:	e0014144 	.word	0xe0014144
e0014108:	e3520001 	cmp	r2, #1
e001410c:	0a000005 	beq	e0014128 <cap_get_capPtr+0x1c8>
e0014110:	e3520003 	cmp	r2, #3
e0014114:	13a00000 	movne	r0, #0
e0014118:	01a00500 	lsleq	r0, r0, #10
e001411c:	03c00dff 	biceq	r0, r0, #16320	@ 0x3fc0
e0014120:	03c0003f 	biceq	r0, r0, #63	@ 0x3f
e0014124:	eaffffd6 	b	e0014084 <cap_get_capPtr+0x124>
e0014128:	e1a00400 	lsl	r0, r0, #8
e001412c:	e3c00eff 	bic	r0, r0, #4080	@ 0xff0
e0014130:	e3c0000f 	bic	r0, r0, #15
e0014134:	eaffffd2 	b	e0014084 <cap_get_capPtr+0x124>
e0014138:	e3c00fff 	bic	r0, r0, #1020	@ 0x3fc
e001413c:	e3c00003 	bic	r0, r0, #3
e0014140:	eaffffcf 	b	e0014084 <cap_get_capPtr+0x124>
e0014144:	e3c00dff 	bic	r0, r0, #16320	@ 0x3fc0
e0014148:	e3c0003f 	bic	r0, r0, #63	@ 0x3f
e001414c:	eaffffcc 	b	e0014084 <cap_get_capPtr+0x124>
e0014150:	e3c0000f 	bic	r0, r0, #15
e0014154:	eaffffca 	b	e0014084 <cap_get_capPtr+0x124>
e0014158:	e3a00000 	mov	r0, #0
e001415c:	eaffffc8 	b	e0014084 <cap_get_capPtr+0x124>
e0014160:	e3a00000 	mov	r0, #0
e0014164:	eaffffc6 	b	e0014084 <cap_get_capPtr+0x124>

e0014168 <sameRegionAs>:
e0014168:	e92d41f0 	push	{r4, r5, r6, r7, r8, lr}
e001416c:	e24dd010 	sub	sp, sp, #16
e0014170:	e28dc010 	add	ip, sp, #16
e0014174:	e90c0003 	stmdb	ip, {r0, r1}
e0014178:	e1a0100d 	mov	r1, sp
e001417c:	e881000c 	stm	r1, {r2, r3}
e0014180:	e59d500c 	ldr	r5, [sp, #12]
e0014184:	e1a03002 	mov	r3, r2
e0014188:	e59d1004 	ldr	r1, [sp, #4]
e001418c:	e1a04000 	mov	r4, r0
e0014190:	e200200e 	and	r2, r0, #14
e0014194:	e352000e 	cmp	r2, #14
e0014198:	1200000f 	andne	r0, r0, #15
e001419c:	06ef0074 	uxtbeq	r0, r4
e00141a0:	e2402002 	sub	r2, r0, #2
e00141a4:	e352003c 	cmp	r2, #60	@ 0x3c
e00141a8:	979ff102 	ldrls	pc, [pc, r2, lsl #2]
e00141ac:	ea0000bd 	b	e00144a8 <sameRegionAs+0x340>
e00141b0:	e00142a4 	.word	0xe00142a4
e00141b4:	e00144a8 	.word	0xe00144a8
e00141b8:	e0014310 	.word	0xe0014310
e00141bc:	e00144a8 	.word	0xe00144a8
e00141c0:	e0014344 	.word	0xe0014344
e00141c4:	e00144a8 	.word	0xe00144a8
e00141c8:	e00143f4 	.word	0xe00143f4
e00141cc:	e00144a8 	.word	0xe00144a8
e00141d0:	e0014378 	.word	0xe0014378
e00141d4:	e00144a8 	.word	0xe00144a8
e00141d8:	e00143c0 	.word	0xe00143c0
e00141dc:	e00144a8 	.word	0xe00144a8
e00141e0:	e001444c 	.word	0xe001444c
e00141e4:	e00144a8 	.word	0xe00144a8
e00141e8:	e00144a8 	.word	0xe00144a8
e00141ec:	e00144a8 	.word	0xe00144a8
e00141f0:	e00144a8 	.word	0xe00144a8
e00141f4:	e00144a8 	.word	0xe00144a8
e00141f8:	e00144a8 	.word	0xe00144a8
e00141fc:	e00144a8 	.word	0xe00144a8
e0014200:	e00144a8 	.word	0xe00144a8
e0014204:	e00144a8 	.word	0xe00144a8
e0014208:	e00144a8 	.word	0xe00144a8
e001420c:	e00144a8 	.word	0xe00144a8
e0014210:	e00144a8 	.word	0xe00144a8
e0014214:	e00144a8 	.word	0xe00144a8
e0014218:	e00144a8 	.word	0xe00144a8
e001421c:	e00144a8 	.word	0xe00144a8
e0014220:	e0014470 	.word	0xe0014470
e0014224:	e00144a8 	.word	0xe00144a8
e0014228:	e00144a8 	.word	0xe00144a8
e001422c:	e00144a8 	.word	0xe00144a8
e0014230:	e00144a8 	.word	0xe00144a8
e0014234:	e00144a8 	.word	0xe00144a8
e0014238:	e00144a8 	.word	0xe00144a8
e001423c:	e00144a8 	.word	0xe00144a8
e0014240:	e00144a8 	.word	0xe00144a8
e0014244:	e00144a8 	.word	0xe00144a8
e0014248:	e00144a8 	.word	0xe00144a8
e001424c:	e00144a8 	.word	0xe00144a8
e0014250:	e00144a8 	.word	0xe00144a8
e0014254:	e00144a8 	.word	0xe00144a8
e0014258:	e00144a8 	.word	0xe00144a8
e001425c:	e00144a8 	.word	0xe00144a8
e0014260:	e00144a8 	.word	0xe00144a8
e0014264:	e00144a8 	.word	0xe00144a8
e0014268:	e00144a8 	.word	0xe00144a8
e001426c:	e00144a8 	.word	0xe00144a8
e0014270:	e00144a8 	.word	0xe00144a8
e0014274:	e00144a8 	.word	0xe00144a8
e0014278:	e00144a8 	.word	0xe00144a8
e001427c:	e00144a8 	.word	0xe00144a8
e0014280:	e00144a8 	.word	0xe00144a8
e0014284:	e00144a8 	.word	0xe00144a8
e0014288:	e00144a8 	.word	0xe00144a8
e001428c:	e00144a8 	.word	0xe00144a8
e0014290:	e00144a8 	.word	0xe00144a8
e0014294:	e00144a8 	.word	0xe00144a8
e0014298:	e00144a8 	.word	0xe00144a8
e001429c:	e00144a8 	.word	0xe00144a8
e00142a0:	e0014428 	.word	0xe0014428
e00142a4:	e1a0300d 	mov	r3, sp
e00142a8:	e8930003 	ldm	r3, {r0, r1}
e00142ac:	ebfffecc 	bl	e0013de4 <cap_get_capIsPhysical>
e00142b0:	e3500000 	cmp	r0, #0
e00142b4:	0a000062 	beq	e0014444 <sameRegionAs+0x2dc>
e00142b8:	e3c4700f 	bic	r7, r4, #15
e00142bc:	e1a0800d 	mov	r8, sp
e00142c0:	e8980003 	ldm	r8, {r0, r1}
e00142c4:	ebffff25 	bl	e0013f60 <cap_get_capPtr>
e00142c8:	e1a06000 	mov	r6, r0
e00142cc:	e205001f 	and	r0, r5, #31
e00142d0:	e3a05001 	mov	r5, #1
e00142d4:	e2474001 	sub	r4, r7, #1
e00142d8:	e0844015 	add	r4, r4, r5, lsl r0
e00142dc:	e8980003 	ldm	r8, {r0, r1}
e00142e0:	ebfffe2c 	bl	e0013b98 <cap_get_capSizeBits>
e00142e4:	e0865015 	add	r5, r6, r5, lsl r0
e00142e8:	e2455001 	sub	r5, r5, #1
e00142ec:	e1540005 	cmp	r4, r5
e00142f0:	33a00000 	movcc	r0, #0
e00142f4:	23a00001 	movcs	r0, #1
e00142f8:	e1560005 	cmp	r6, r5
e00142fc:	83a00000 	movhi	r0, #0
e0014300:	e1560007 	cmp	r6, r7
e0014304:	33a00000 	movcc	r0, #0
e0014308:	22000001 	andcs	r0, r0, #1
e001430c:	ea00004c 	b	e0014444 <sameRegionAs+0x2dc>
e0014310:	e203200e 	and	r2, r3, #14
e0014314:	e352000e 	cmp	r2, #14
e0014318:	1203000f 	andne	r0, r3, #15
e001431c:	06ef0073 	uxtbeq	r0, r3
e0014320:	e3500004 	cmp	r0, #4
e0014324:	13a00000 	movne	r0, #0
e0014328:	1a000045 	bne	e0014444 <sameRegionAs+0x2dc>
e001432c:	e3c1000f 	bic	r0, r1, #15
e0014330:	e3c5500f 	bic	r5, r5, #15
e0014334:	e1500005 	cmp	r0, r5
e0014338:	13a00000 	movne	r0, #0
e001433c:	03a00001 	moveq	r0, #1
e0014340:	ea00003f 	b	e0014444 <sameRegionAs+0x2dc>
e0014344:	e203200e 	and	r2, r3, #14
e0014348:	e352000e 	cmp	r2, #14
e001434c:	1203200f 	andne	r2, r3, #15
e0014350:	06ef2073 	uxtbeq	r2, r3
e0014354:	e3520006 	cmp	r2, #6
e0014358:	13a00000 	movne	r0, #0
e001435c:	1a000038 	bne	e0014444 <sameRegionAs+0x2dc>
e0014360:	e3c3000f 	bic	r0, r3, #15
e0014364:	e3c4400f 	bic	r4, r4, #15
e0014368:	e1500004 	cmp	r0, r4
e001436c:	13a00000 	movne	r0, #0
e0014370:	03a00001 	moveq	r0, #1
e0014374:	ea000032 	b	e0014444 <sameRegionAs+0x2dc>
e0014378:	e203200e 	and	r2, r3, #14
e001437c:	e352000e 	cmp	r2, #14
e0014380:	1203200f 	andne	r2, r3, #15
e0014384:	06ef2073 	uxtbeq	r2, r3
e0014388:	e352000a 	cmp	r2, #10
e001438c:	13a00000 	movne	r0, #0
e0014390:	1a00002b 	bne	e0014444 <sameRegionAs+0x2dc>
e0014394:	e3c3001f 	bic	r0, r3, #31
e0014398:	e3c4401f 	bic	r4, r4, #31
e001439c:	e1500004 	cmp	r0, r4
e00143a0:	13a00000 	movne	r0, #0
e00143a4:	1a000026 	bne	e0014444 <sameRegionAs+0x2dc>
e00143a8:	e7e40951 	ubfx	r0, r1, #18, #5
e00143ac:	e7e45955 	ubfx	r5, r5, #18, #5
e00143b0:	e1500005 	cmp	r0, r5
e00143b4:	13a00000 	movne	r0, #0
e00143b8:	03a00001 	moveq	r0, #1
e00143bc:	ea000020 	b	e0014444 <sameRegionAs+0x2dc>
e00143c0:	e203200e 	and	r2, r3, #14
e00143c4:	e352000e 	cmp	r2, #14
e00143c8:	1203200f 	andne	r2, r3, #15
e00143cc:	06ef2073 	uxtbeq	r2, r3
e00143d0:	e352000c 	cmp	r2, #12
e00143d4:	13a00000 	movne	r0, #0
e00143d8:	1a000019 	bne	e0014444 <sameRegionAs+0x2dc>
e00143dc:	e3c3000f 	bic	r0, r3, #15
e00143e0:	e3c4400f 	bic	r4, r4, #15
e00143e4:	e1500004 	cmp	r0, r4
e00143e8:	13a00000 	movne	r0, #0
e00143ec:	03a00001 	moveq	r0, #1
e00143f0:	ea000013 	b	e0014444 <sameRegionAs+0x2dc>
e00143f4:	e203200e 	and	r2, r3, #14
e00143f8:	e352000e 	cmp	r2, #14
e00143fc:	1203200f 	andne	r2, r3, #15
e0014400:	06ef2073 	uxtbeq	r2, r3
e0014404:	e3520008 	cmp	r2, #8
e0014408:	13a00000 	movne	r0, #0
e001440c:	1a00000c 	bne	e0014444 <sameRegionAs+0x2dc>
e0014410:	e3c3003f 	bic	r0, r3, #63	@ 0x3f
e0014414:	e3c4403f 	bic	r4, r4, #63	@ 0x3f
e0014418:	e1500004 	cmp	r0, r4
e001441c:	13a00000 	movne	r0, #0
e0014420:	03a00001 	moveq	r0, #1
e0014424:	ea000006 	b	e0014444 <sameRegionAs+0x2dc>
e0014428:	e203200e 	and	r2, r3, #14
e001442c:	e352000e 	cmp	r2, #14
e0014430:	1203000f 	andne	r0, r3, #15
e0014434:	06ef0073 	uxtbeq	r0, r3
e0014438:	e350003e 	cmp	r0, #62	@ 0x3e
e001443c:	13a00000 	movne	r0, #0
e0014440:	03a00001 	moveq	r0, #1
e0014444:	e28dd010 	add	sp, sp, #16
e0014448:	e8bd81f0 	pop	{r4, r5, r6, r7, r8, pc}
e001444c:	e203200e 	and	r2, r3, #14
e0014450:	e352000e 	cmp	r2, #14
e0014454:	1203000f 	andne	r0, r3, #15
e0014458:	06ef0073 	uxtbeq	r0, r3
e001445c:	e3c00010 	bic	r0, r0, #16
e0014460:	e350000e 	cmp	r0, #14
e0014464:	13a00000 	movne	r0, #0
e0014468:	03a00001 	moveq	r0, #1
e001446c:	eafffff4 	b	e0014444 <sameRegionAs+0x2dc>
e0014470:	e203200e 	and	r2, r3, #14
e0014474:	e352000e 	cmp	r2, #14
e0014478:	13a00000 	movne	r0, #0
e001447c:	1afffff0 	bne	e0014444 <sameRegionAs+0x2dc>
e0014480:	e6ef0073 	uxtb	r0, r3
e0014484:	e350001e 	cmp	r0, #30
e0014488:	13a00000 	movne	r0, #0
e001448c:	1affffec 	bne	e0014444 <sameRegionAs+0x2dc>
e0014490:	e6ef1071 	uxtb	r1, r1
e0014494:	e6ef0075 	uxtb	r0, r5
e0014498:	e1510000 	cmp	r1, r0
e001449c:	13a00000 	movne	r0, #0
e00144a0:	03a00001 	moveq	r0, #1
e00144a4:	eaffffe6 	b	e0014444 <sameRegionAs+0x2dc>
e00144a8:	e2100001 	ands	r0, r0, #1
e00144ac:	0affffe4 	beq	e0014444 <sameRegionAs+0x2dc>
e00144b0:	e203200e 	and	r2, r3, #14
e00144b4:	e352000e 	cmp	r2, #14
e00144b8:	1203000f 	andne	r0, r3, #15
e00144bc:	06ef0073 	uxtbeq	r0, r3
e00144c0:	e2100001 	ands	r0, r0, #1
e00144c4:	0affffde 	beq	e0014444 <sameRegionAs+0x2dc>
e00144c8:	e1a0300d 	mov	r3, sp
e00144cc:	e893000c 	ldm	r3, {r2, r3}
e00144d0:	e28d1010 	add	r1, sp, #16
e00144d4:	e9110003 	ldmdb	r1, {r0, r1}
e00144d8:	ebfff4d4 	bl	e0011830 <Arch_sameRegionAs>
e00144dc:	eaffffd8 	b	e0014444 <sameRegionAs+0x2dc>

e00144e0 <isMDBParentOf>:
e00144e0:	e92d4070 	push	{r4, r5, r6, lr}
e00144e4:	e590400c 	ldr	r4, [r0, #12]
e00144e8:	e7e040d4 	ubfx	r4, r4, #1, #1
e00144ec:	e3540000 	cmp	r4, #0
e00144f0:	0a000010 	beq	e0014538 <isMDBParentOf+0x58>
e00144f4:	e1a05000 	mov	r5, r0
e00144f8:	e1a06001 	mov	r6, r1
e00144fc:	e1c120d0 	ldrd	r2, [r1]
e0014500:	e1c000d0 	ldrd	r0, [r0]
e0014504:	ebffff17 	bl	e0014168 <sameRegionAs>
e0014508:	e2503000 	subs	r3, r0, #0
e001450c:	01a04003 	moveq	r4, r3
e0014510:	0a000008 	beq	e0014538 <isMDBParentOf+0x58>
e0014514:	e5953000 	ldr	r3, [r5]
e0014518:	e203200e 	and	r2, r3, #14
e001451c:	e352000e 	cmp	r2, #14
e0014520:	1203200f 	andne	r2, r3, #15
e0014524:	06ef2073 	uxtbeq	r2, r3
e0014528:	e3520004 	cmp	r2, #4
e001452c:	0a000003 	beq	e0014540 <isMDBParentOf+0x60>
e0014530:	e3520006 	cmp	r2, #6
e0014534:	0a00000a 	beq	e0014564 <isMDBParentOf+0x84>
e0014538:	e1a00004 	mov	r0, r4
e001453c:	e8bd8070 	pop	{r4, r5, r6, pc}
e0014540:	e1b03223 	lsrs	r3, r3, #4
e0014544:	0afffffb 	beq	e0014538 <isMDBParentOf+0x58>
e0014548:	e5962000 	ldr	r2, [r6]
e001454c:	e1530222 	cmp	r3, r2, lsr #4
e0014550:	0596400c 	ldreq	r4, [r6, #12]
e0014554:	02244001 	eoreq	r4, r4, #1
e0014558:	02044001 	andeq	r4, r4, #1
e001455c:	13a04000 	movne	r4, #0
e0014560:	eafffff4 	b	e0014538 <isMDBParentOf+0x58>
e0014564:	e5953004 	ldr	r3, [r5, #4]
e0014568:	e1b03223 	lsrs	r3, r3, #4
e001456c:	0afffff1 	beq	e0014538 <isMDBParentOf+0x58>
e0014570:	e5962004 	ldr	r2, [r6, #4]
e0014574:	e1530222 	cmp	r3, r2, lsr #4
e0014578:	0596400c 	ldreq	r4, [r6, #12]
e001457c:	02244001 	eoreq	r4, r4, #1
e0014580:	02044001 	andeq	r4, r4, #1
e0014584:	13a04000 	movne	r4, #0
e0014588:	eaffffea 	b	e0014538 <isMDBParentOf+0x58>

e001458c <ensureNoChildren>:
e001458c:	e590100c 	ldr	r1, [r0, #12]
e0014590:	e3d11007 	bics	r1, r1, #7
e0014594:	0a000009 	beq	e00145c0 <ensureNoChildren+0x34>
e0014598:	e92d4010 	push	{r4, lr}
e001459c:	ebffffcf 	bl	e00144e0 <isMDBParentOf>
e00145a0:	e2501000 	subs	r1, r0, #0
e00145a4:	130c3000 	movwne	r3, #49152	@ 0xc000
e00145a8:	134e3001 	movtne	r3, #57345	@ 0xe001
e00145ac:	13a02009 	movne	r2, #9
e00145b0:	15832864 	strne	r2, [r3, #2148]	@ 0x864
e00145b4:	13a01003 	movne	r1, #3
e00145b8:	e1a00001 	mov	r0, r1
e00145bc:	e8bd8010 	pop	{r4, pc}
e00145c0:	e1a00001 	mov	r0, r1
e00145c4:	e12fff1e 	bx	lr

e00145c8 <deriveCap>:
e00145c8:	e92d40f0 	push	{r4, r5, r6, r7, lr}
e00145cc:	e24dd00c 	sub	sp, sp, #12
e00145d0:	e1a04000 	mov	r4, r0
e00145d4:	e28d0008 	add	r0, sp, #8
e00145d8:	e900000c 	stmdb	r0, {r2, r3}
e00145dc:	e1a05002 	mov	r5, r2
e00145e0:	e202300e 	and	r3, r2, #14
e00145e4:	e353000e 	cmp	r3, #14
e00145e8:	1202300f 	andne	r3, r2, #15
e00145ec:	06ef3072 	uxtbeq	r3, r2
e00145f0:	e2136001 	ands	r6, r3, #1
e00145f4:	1a00000d 	bne	e0014630 <deriveCap+0x68>
e00145f8:	e59d7004 	ldr	r7, [sp, #4]
e00145fc:	e3530008 	cmp	r3, #8
e0014600:	0a00001a 	beq	e0014670 <deriveCap+0xa8>
e0014604:	8a00000e 	bhi	e0014644 <deriveCap+0x7c>
e0014608:	e3530002 	cmp	r3, #2
e001460c:	1a000011 	bne	e0014658 <deriveCap+0x90>
e0014610:	e1a00001 	mov	r0, r1
e0014614:	ebffffdc 	bl	e001458c <ensureNoChildren>
e0014618:	e3500000 	cmp	r0, #0
e001461c:	01a06000 	moveq	r6, r0
e0014620:	11a07006 	movne	r7, r6
e0014624:	11a05006 	movne	r5, r6
e0014628:	11a06000 	movne	r6, r0
e001462c:	ea000009 	b	e0014658 <deriveCap+0x90>
e0014630:	e28d3008 	add	r3, sp, #8
e0014634:	e913000c 	ldmdb	r3, {r2, r3}
e0014638:	e1a00004 	mov	r0, r4
e001463c:	ebfff402 	bl	e001164c <Arch_deriveCap>
e0014640:	ea000007 	b	e0014664 <deriveCap+0x9c>
e0014644:	e3c33020 	bic	r3, r3, #32
e0014648:	e353000e 	cmp	r3, #14
e001464c:	01a07006 	moveq	r7, r6
e0014650:	e353000e 	cmp	r3, #14
e0014654:	01a05006 	moveq	r5, r6
e0014658:	e5846000 	str	r6, [r4]
e001465c:	e5845004 	str	r5, [r4, #4]
e0014660:	e5847008 	str	r7, [r4, #8]
e0014664:	e1a00004 	mov	r0, r4
e0014668:	e28dd00c 	add	sp, sp, #12
e001466c:	e8bd80f0 	pop	{r4, r5, r6, r7, pc}
e0014670:	e1a07006 	mov	r7, r6
e0014674:	e1a05006 	mov	r5, r6
e0014678:	eafffff6 	b	e0014658 <deriveCap+0x90>

e001467c <sameObjectAs>:
e001467c:	e52de004 	push	{lr}		@ (str lr, [sp, #-4]!)
e0014680:	e24dd014 	sub	sp, sp, #20
e0014684:	e28dc010 	add	ip, sp, #16
e0014688:	e90c0003 	stmdb	ip, {r0, r1}
e001468c:	e1a0100d 	mov	r1, sp
e0014690:	e881000c 	stm	r1, {r2, r3}
e0014694:	e1a03000 	mov	r3, r0
e0014698:	e200200e 	and	r2, r0, #14
e001469c:	e352000e 	cmp	r2, #14
e00146a0:	1200300f 	andne	r3, r0, #15
e00146a4:	06ef3073 	uxtbeq	r3, r3
e00146a8:	e3530002 	cmp	r3, #2
e00146ac:	03a00000 	moveq	r0, #0
e00146b0:	0a00000f 	beq	e00146f4 <sameObjectAs+0x78>
e00146b4:	e59d2000 	ldr	r2, [sp]
e00146b8:	e353000e 	cmp	r3, #14
e00146bc:	0a00000e 	beq	e00146fc <sameObjectAs+0x80>
e00146c0:	e3130001 	tst	r3, #1
e00146c4:	0a000005 	beq	e00146e0 <sameObjectAs+0x64>
e00146c8:	e202300e 	and	r3, r2, #14
e00146cc:	e353000e 	cmp	r3, #14
e00146d0:	1202200f 	andne	r2, r2, #15
e00146d4:	06ef2072 	uxtbeq	r2, r2
e00146d8:	e3120001 	tst	r2, #1
e00146dc:	1a00000e 	bne	e001471c <sameObjectAs+0xa0>
e00146e0:	e1a0300d 	mov	r3, sp
e00146e4:	e893000c 	ldm	r3, {r2, r3}
e00146e8:	e28d1010 	add	r1, sp, #16
e00146ec:	e9110003 	ldmdb	r1, {r0, r1}
e00146f0:	ebfffe9c 	bl	e0014168 <sameRegionAs>
e00146f4:	e28dd014 	add	sp, sp, #20
e00146f8:	e49df004 	pop	{pc}		@ (ldr pc, [sp], #4)
e00146fc:	e202300e 	and	r3, r2, #14
e0014700:	e353000e 	cmp	r3, #14
e0014704:	1afffff5 	bne	e00146e0 <sameObjectAs+0x64>
e0014708:	e6ef2072 	uxtb	r2, r2
e001470c:	e352001e 	cmp	r2, #30
e0014710:	1afffff2 	bne	e00146e0 <sameObjectAs+0x64>
e0014714:	e3a00000 	mov	r0, #0
e0014718:	eafffff5 	b	e00146f4 <sameObjectAs+0x78>
e001471c:	e1c120d0 	ldrd	r2, [r1]
e0014720:	e28d1010 	add	r1, sp, #16
e0014724:	e9110003 	ldmdb	r1, {r0, r1}
e0014728:	ebfff504 	bl	e0011b40 <Arch_sameObjectAs>
e001472c:	eafffff0 	b	e00146f4 <sameObjectAs+0x78>

e0014730 <isFinalCapability>:
e0014730:	e92d4070 	push	{r4, r5, r6, lr}
e0014734:	e1a04000 	mov	r4, r0
e0014738:	e590500c 	ldr	r5, [r0, #12]
e001473c:	e5903008 	ldr	r3, [r0, #8]
e0014740:	e3d31007 	bics	r1, r3, #7
e0014744:	0a000004 	beq	e001475c <isFinalCapability+0x2c>
e0014748:	e1c020d0 	ldrd	r2, [r0]
e001474c:	e8910003 	ldm	r1, {r0, r1}
e0014750:	ebffffc9 	bl	e001467c <sameObjectAs>
e0014754:	e3500000 	cmp	r0, #0
e0014758:	1a000007 	bne	e001477c <isFinalCapability+0x4c>
e001475c:	e3d55007 	bics	r5, r5, #7
e0014760:	0a000007 	beq	e0014784 <isFinalCapability+0x54>
e0014764:	e895000c 	ldm	r5, {r2, r3}
e0014768:	e8940003 	ldm	r4, {r0, r1}
e001476c:	ebffffc2 	bl	e001467c <sameObjectAs>
e0014770:	e16f0f10 	clz	r0, r0
e0014774:	e1a002a0 	lsr	r0, r0, #5
e0014778:	e8bd8070 	pop	{r4, r5, r6, pc}
e001477c:	e3a00000 	mov	r0, #0
e0014780:	e8bd8070 	pop	{r4, r5, r6, pc}
e0014784:	e3a00001 	mov	r0, #1
e0014788:	e8bd8070 	pop	{r4, r5, r6, pc}

e001478c <slotCapLongRunningDelete>:
e001478c:	e92d4010 	push	{r4, lr}
e0014790:	e5904000 	ldr	r4, [r0]
e0014794:	e204300e 	and	r3, r4, #14
e0014798:	e353000e 	cmp	r3, #14
e001479c:	1204400f 	andne	r4, r4, #15
e00147a0:	06ef4074 	uxtbeq	r4, r4
e00147a4:	e3540000 	cmp	r4, #0
e00147a8:	0a00000a 	beq	e00147d8 <slotCapLongRunningDelete+0x4c>
e00147ac:	ebffffdf 	bl	e0014730 <isFinalCapability>
e00147b0:	e3500000 	cmp	r0, #0
e00147b4:	01a04000 	moveq	r4, r0
e00147b8:	0a000006 	beq	e00147d8 <slotCapLongRunningDelete+0x4c>
e00147bc:	e354002e 	cmp	r4, #46	@ 0x2e
e00147c0:	03a04001 	moveq	r4, #1
e00147c4:	0a000003 	beq	e00147d8 <slotCapLongRunningDelete+0x4c>
e00147c8:	e244400a 	sub	r4, r4, #10
e00147cc:	e3d43002 	bics	r3, r4, #2
e00147d0:	03a04001 	moveq	r4, #1
e00147d4:	13a04000 	movne	r4, #0
e00147d8:	e1a00004 	mov	r0, r4
e00147dc:	e8bd8010 	pop	{r4, pc}

e00147e0 <isCapRevocable>:
e00147e0:	e24dd010 	sub	sp, sp, #16
e00147e4:	e28dc010 	add	ip, sp, #16
e00147e8:	e90c0003 	stmdb	ip, {r0, r1}
e00147ec:	e1a0100d 	mov	r1, sp
e00147f0:	e881000c 	stm	r1, {r2, r3}
e00147f4:	e1a02000 	mov	r2, r0
e00147f8:	e200300e 	and	r3, r0, #14
e00147fc:	e353000e 	cmp	r3, #14
e0014800:	1200300f 	andne	r3, r0, #15
e0014804:	06ef3070 	uxtbeq	r3, r0
e0014808:	e2130001 	ands	r0, r3, #1
e001480c:	13a00000 	movne	r0, #0
e0014810:	1a000025 	bne	e00148ac <isCapRevocable+0xcc>
e0014814:	e59d1000 	ldr	r1, [sp]
e0014818:	e2433002 	sub	r3, r3, #2
e001481c:	e353001c 	cmp	r3, #28
e0014820:	979ff103 	ldrls	pc, [pc, r3, lsl #2]
e0014824:	ea000020 	b	e00148ac <isCapRevocable+0xcc>
e0014828:	e00148f0 	.word	0xe00148f0
e001482c:	e00148ac 	.word	0xe00148ac
e0014830:	e001489c 	.word	0xe001489c
e0014834:	e00148ac 	.word	0xe00148ac
e0014838:	e00148b4 	.word	0xe00148b4
e001483c:	e00148ac 	.word	0xe00148ac
e0014840:	e00148ac 	.word	0xe00148ac
e0014844:	e00148ac 	.word	0xe00148ac
e0014848:	e00148ac 	.word	0xe00148ac
e001484c:	e00148ac 	.word	0xe00148ac
e0014850:	e00148ac 	.word	0xe00148ac
e0014854:	e00148ac 	.word	0xe00148ac
e0014858:	e00148ac 	.word	0xe00148ac
e001485c:	e00148ac 	.word	0xe00148ac
e0014860:	e00148ac 	.word	0xe00148ac
e0014864:	e00148ac 	.word	0xe00148ac
e0014868:	e00148ac 	.word	0xe00148ac
e001486c:	e00148ac 	.word	0xe00148ac
e0014870:	e00148ac 	.word	0xe00148ac
e0014874:	e00148ac 	.word	0xe00148ac
e0014878:	e00148ac 	.word	0xe00148ac
e001487c:	e00148ac 	.word	0xe00148ac
e0014880:	e00148ac 	.word	0xe00148ac
e0014884:	e00148ac 	.word	0xe00148ac
e0014888:	e00148ac 	.word	0xe00148ac
e001488c:	e00148ac 	.word	0xe00148ac
e0014890:	e00148ac 	.word	0xe00148ac
e0014894:	e00148ac 	.word	0xe00148ac
e0014898:	e00148d0 	.word	0xe00148d0
e001489c:	e1a02222 	lsr	r2, r2, #4
e00148a0:	e1520221 	cmp	r2, r1, lsr #4
e00148a4:	13a00001 	movne	r0, #1
e00148a8:	03a00000 	moveq	r0, #0
e00148ac:	e28dd010 	add	sp, sp, #16
e00148b0:	e12fff1e 	bx	lr
e00148b4:	e59d300c 	ldr	r3, [sp, #12]
e00148b8:	e1a03223 	lsr	r3, r3, #4
e00148bc:	e59d2004 	ldr	r2, [sp, #4]
e00148c0:	e1530222 	cmp	r3, r2, lsr #4
e00148c4:	13a00001 	movne	r0, #1
e00148c8:	03a00000 	moveq	r0, #0
e00148cc:	eafffff6 	b	e00148ac <isCapRevocable+0xcc>
e00148d0:	e201300e 	and	r3, r1, #14
e00148d4:	e353000e 	cmp	r3, #14
e00148d8:	1201000f 	andne	r0, r1, #15
e00148dc:	06ef0071 	uxtbeq	r0, r1
e00148e0:	e350000e 	cmp	r0, #14
e00148e4:	13a00000 	movne	r0, #0
e00148e8:	03a00001 	moveq	r0, #1
e00148ec:	eaffffee 	b	e00148ac <isCapRevocable+0xcc>
e00148f0:	e3a00001 	mov	r0, #1
e00148f4:	eaffffec 	b	e00148ac <isCapRevocable+0xcc>

e00148f8 <cteInsert>:
e00148f8:	e92d43f0 	push	{r4, r5, r6, r7, r8, r9, lr}
e00148fc:	e24dd014 	sub	sp, sp, #20
e0014900:	e1a0c00d 	mov	ip, sp
e0014904:	e88c0003 	stm	ip, {r0, r1}
e0014908:	e1a06002 	mov	r6, r2
e001490c:	e1a05003 	mov	r5, r3
e0014910:	e5929008 	ldr	r9, [r2, #8]
e0014914:	e592400c 	ldr	r4, [r2, #12]
e0014918:	e5927000 	ldr	r7, [r2]
e001491c:	e5928004 	ldr	r8, [r2, #4]
e0014920:	e58d7008 	str	r7, [sp, #8]
e0014924:	e58d800c 	str	r8, [sp, #12]
e0014928:	e28d3010 	add	r3, sp, #16
e001492c:	e913000c 	ldmdb	r3, {r2, r3}
e0014930:	e89c0003 	ldm	ip, {r0, r1}
e0014934:	ebffffa9 	bl	e00147e0 <isCapRevocable>
e0014938:	e2099007 	and	r9, r9, #7
e001493c:	e3c63007 	bic	r3, r6, #7
e0014940:	e1899003 	orr	r9, r9, r3
e0014944:	e1a0c080 	lsl	ip, r0, #1
e0014948:	e20c3002 	and	r3, ip, #2
e001494c:	e3c4c003 	bic	ip, r4, #3
e0014950:	e18cc003 	orr	ip, ip, r3
e0014954:	e2000001 	and	r0, r0, #1
e0014958:	e18cc000 	orr	ip, ip, r0
e001495c:	e207300e 	and	r3, r7, #14
e0014960:	e353000e 	cmp	r3, #14
e0014964:	1207300f 	andne	r3, r7, #15
e0014968:	06ef3077 	uxtbeq	r3, r7
e001496c:	e3530002 	cmp	r3, #2
e0014970:	0a000010 	beq	e00149b8 <cteInsert+0xc0>
e0014974:	e1a0300d 	mov	r3, sp
e0014978:	e8930003 	ldm	r3, {r0, r1}
e001497c:	e8850003 	stm	r5, {r0, r1}
e0014980:	e5859008 	str	r9, [r5, #8]
e0014984:	e585c00c 	str	ip, [r5, #12]
e0014988:	e3c55007 	bic	r5, r5, #7
e001498c:	e596300c 	ldr	r3, [r6, #12]
e0014990:	e2033007 	and	r3, r3, #7
e0014994:	e1833005 	orr	r3, r3, r5
e0014998:	e586300c 	str	r3, [r6, #12]
e001499c:	e3dcc007 	bics	ip, ip, #7
e00149a0:	159c3008 	ldrne	r3, [ip, #8]
e00149a4:	12033007 	andne	r3, r3, #7
e00149a8:	11835005 	orrne	r5, r3, r5
e00149ac:	158c5008 	strne	r5, [ip, #8]
e00149b0:	e28dd014 	add	sp, sp, #20
e00149b4:	e8bd83f0 	pop	{r4, r5, r6, r7, r8, r9, pc}
e00149b8:	e59d3000 	ldr	r3, [sp]
e00149bc:	e203200e 	and	r2, r3, #14
e00149c0:	e352000e 	cmp	r2, #14
e00149c4:	1203200f 	andne	r2, r3, #15
e00149c8:	06ef2073 	uxtbeq	r2, r3
e00149cc:	e3520002 	cmp	r2, #2
e00149d0:	1affffe7 	bne	e0014974 <cteInsert+0x7c>
e00149d4:	e3c7700f 	bic	r7, r7, #15
e00149d8:	e3c3300f 	bic	r3, r3, #15
e00149dc:	e1570003 	cmp	r7, r3
e00149e0:	1affffe3 	bne	e0014974 <cteInsert+0x7c>
e00149e4:	e208801f 	and	r8, r8, #31
e00149e8:	e59d3004 	ldr	r3, [sp, #4]
e00149ec:	e203301f 	and	r3, r3, #31
e00149f0:	e1530008 	cmp	r3, r8
e00149f4:	1affffde 	bne	e0014974 <cteInsert+0x7c>
e00149f8:	e2488004 	sub	r8, r8, #4
e00149fc:	e5963004 	ldr	r3, [r6, #4]
e0014a00:	e203303f 	and	r3, r3, #63	@ 0x3f
e0014a04:	e3a02040 	mov	r2, #64	@ 0x40
e0014a08:	e1838812 	orr	r8, r3, r2, lsl r8
e0014a0c:	e5868004 	str	r8, [r6, #4]
e0014a10:	eaffffd7 	b	e0014974 <cteInsert+0x7c>

e0014a14 <invokeCNodeInsert>:
e0014a14:	e52de004 	push	{lr}		@ (str lr, [sp, #-4]!)
e0014a18:	e24dd00c 	sub	sp, sp, #12
e0014a1c:	e1a0c00d 	mov	ip, sp
e0014a20:	e88c0003 	stm	ip, {r0, r1}
e0014a24:	e89c0003 	ldm	ip, {r0, r1}
e0014a28:	ebffffb2 	bl	e00148f8 <cteInsert>
e0014a2c:	e3a00000 	mov	r0, #0
e0014a30:	e28dd00c 	add	sp, sp, #12
e0014a34:	e49df004 	pop	{pc}		@ (ldr pc, [sp], #4)

e0014a38 <invokeIRQControl>:
e0014a38:	e92d4070 	push	{r4, r5, r6, lr}
e0014a3c:	e24dd008 	sub	sp, sp, #8
e0014a40:	e1a04000 	mov	r4, r0
e0014a44:	e1a06001 	mov	r6, r1
e0014a48:	e1a05002 	mov	r5, r2
e0014a4c:	e1a01000 	mov	r1, r0
e0014a50:	e3a00001 	mov	r0, #1
e0014a54:	ebfffa9c 	bl	e00134cc <setIRQState>
e0014a58:	e3a0301e 	mov	r3, #30
e0014a5c:	e58d3000 	str	r3, [sp]
e0014a60:	e6ef4074 	uxtb	r4, r4
e0014a64:	e58d4004 	str	r4, [sp, #4]
e0014a68:	e1a03006 	mov	r3, r6
e0014a6c:	e1a02005 	mov	r2, r5
e0014a70:	e28d1008 	add	r1, sp, #8
e0014a74:	e9110003 	ldmdb	r1, {r0, r1}
e0014a78:	ebffff9e 	bl	e00148f8 <cteInsert>
e0014a7c:	e3a00000 	mov	r0, #0
e0014a80:	e28dd008 	add	sp, sp, #8
e0014a84:	e8bd8070 	pop	{r4, r5, r6, pc}

e0014a88 <tcbSchedEnqueue>:
e0014a88:	e5903054 	ldr	r3, [r0, #84]	@ 0x54
e0014a8c:	e3130001 	tst	r3, #1
e0014a90:	112fff1e 	bxne	lr
e0014a94:	e92d41f0 	push	{r4, r5, r6, r7, r8, lr}
e0014a98:	e590e070 	ldr	lr, [r0, #112]	@ 0x70
e0014a9c:	e590c078 	ldr	ip, [r0, #120]	@ 0x78
e0014aa0:	e08c140e 	add	r1, ip, lr, lsl #8
e0014aa4:	e30e2000 	movw	r2, #57344	@ 0xe000
e0014aa8:	e34e2001 	movt	r2, #57345	@ 0xe001
e0014aac:	e7923181 	ldr	r3, [r2, r1, lsl #3]
e0014ab0:	e0822181 	add	r2, r2, r1, lsl #3
e0014ab4:	e5922004 	ldr	r2, [r2, #4]
e0014ab8:	e3520000 	cmp	r2, #0
e0014abc:	1583008c 	strne	r0, [r3, #140]	@ 0x8c
e0014ac0:	0a00000b 	beq	e0014af4 <tcbSchedEnqueue+0x6c>
e0014ac4:	e3a0c000 	mov	ip, #0
e0014ac8:	e580c08c 	str	ip, [r0, #140]	@ 0x8c
e0014acc:	e5803088 	str	r3, [r0, #136]	@ 0x88
e0014ad0:	e30e3000 	movw	r3, #57344	@ 0xe000
e0014ad4:	e34e3001 	movt	r3, #57345	@ 0xe001
e0014ad8:	e7830181 	str	r0, [r3, r1, lsl #3]
e0014adc:	e0833181 	add	r3, r3, r1, lsl #3
e0014ae0:	e5832004 	str	r2, [r3, #4]
e0014ae4:	e5903054 	ldr	r3, [r0, #84]	@ 0x54
e0014ae8:	e3833001 	orr	r3, r3, #1
e0014aec:	e5803054 	str	r3, [r0, #84]	@ 0x54
e0014af0:	e8bd81f0 	pop	{r4, r5, r6, r7, r8, pc}
e0014af4:	e1a082ac 	lsr	r8, ip, #5
e0014af8:	e2684007 	rsb	r4, r8, #7
e0014afc:	e30c2000 	movw	r2, #49152	@ 0xc000
e0014b00:	e34e2001 	movt	r2, #57345	@ 0xe001
e0014b04:	e082710e 	add	r7, r2, lr, lsl #2
e0014b08:	e3a06001 	mov	r6, #1
e0014b0c:	e5975600 	ldr	r5, [r7, #1536]	@ 0x600
e0014b10:	e1855816 	orr	r5, r5, r6, lsl r8
e0014b14:	e5875600 	str	r5, [r7, #1536]	@ 0x600
e0014b18:	e084e18e 	add	lr, r4, lr, lsl #3
e0014b1c:	e082210e 	add	r2, r2, lr, lsl #2
e0014b20:	e20cc01f 	and	ip, ip, #31
e0014b24:	e592e640 	ldr	lr, [r2, #1600]	@ 0x640
e0014b28:	e18ecc16 	orr	ip, lr, r6, lsl ip
e0014b2c:	e582c640 	str	ip, [r2, #1600]	@ 0x640
e0014b30:	e1a02000 	mov	r2, r0
e0014b34:	eaffffe2 	b	e0014ac4 <tcbSchedEnqueue+0x3c>

e0014b38 <rescheduleRequired>:
e0014b38:	e30c3000 	movw	r3, #49152	@ 0xc000
e0014b3c:	e34e3001 	movt	r3, #57345	@ 0xe001
e0014b40:	e593087c 	ldr	r0, [r3, #2172]	@ 0x87c
e0014b44:	e3500001 	cmp	r0, #1
e0014b48:	8a000004 	bhi	e0014b60 <rescheduleRequired+0x28>
e0014b4c:	e30c3000 	movw	r3, #49152	@ 0xc000
e0014b50:	e34e3001 	movt	r3, #57345	@ 0xe001
e0014b54:	e3a02001 	mov	r2, #1
e0014b58:	e583287c 	str	r2, [r3, #2172]	@ 0x87c
e0014b5c:	e12fff1e 	bx	lr
e0014b60:	e92d4010 	push	{r4, lr}
e0014b64:	ebffffc7 	bl	e0014a88 <tcbSchedEnqueue>
e0014b68:	e30c3000 	movw	r3, #49152	@ 0xc000
e0014b6c:	e34e3001 	movt	r3, #57345	@ 0xe001
e0014b70:	e3a02001 	mov	r2, #1
e0014b74:	e583287c 	str	r2, [r3, #2172]	@ 0x87c
e0014b78:	e8bd8010 	pop	{r4, pc}

e0014b7c <scheduleTCB>:
e0014b7c:	e30c3000 	movw	r3, #49152	@ 0xc000
e0014b80:	e34e3001 	movt	r3, #57345	@ 0xe001
e0014b84:	e5933840 	ldr	r3, [r3, #2112]	@ 0x840
e0014b88:	e1530000 	cmp	r3, r0
e0014b8c:	112fff1e 	bxne	lr
e0014b90:	e30c3000 	movw	r3, #49152	@ 0xc000
e0014b94:	e34e3001 	movt	r3, #57345	@ 0xe001
e0014b98:	e593387c 	ldr	r3, [r3, #2172]	@ 0x87c
e0014b9c:	e3530000 	cmp	r3, #0
e0014ba0:	112fff1e 	bxne	lr
e0014ba4:	e5903050 	ldr	r3, [r0, #80]	@ 0x50
e0014ba8:	e203300f 	and	r3, r3, #15
e0014bac:	e2433001 	sub	r3, r3, #1
e0014bb0:	e3530001 	cmp	r3, #1
e0014bb4:	912fff1e 	bxls	lr
e0014bb8:	e92d4010 	push	{r4, lr}
e0014bbc:	ebffffdd 	bl	e0014b38 <rescheduleRequired>
e0014bc0:	e8bd8010 	pop	{r4, pc}

e0014bc4 <setThreadState>:
e0014bc4:	e92d4010 	push	{r4, lr}
e0014bc8:	e5903050 	ldr	r3, [r0, #80]	@ 0x50
e0014bcc:	e3c3300f 	bic	r3, r3, #15
e0014bd0:	e201100f 	and	r1, r1, #15
e0014bd4:	e1833001 	orr	r3, r3, r1
e0014bd8:	e5803050 	str	r3, [r0, #80]	@ 0x50
e0014bdc:	ebffffe6 	bl	e0014b7c <scheduleTCB>
e0014be0:	e8bd8010 	pop	{r4, pc}

e0014be4 <Arch_decodeIRQControlInvocation>:
e0014be4:	e350002d 	cmp	r0, #45	@ 0x2d
e0014be8:	1a00004d 	bne	e0014d24 <Arch_decodeIRQControlInvocation+0x140>
e0014bec:	e92d40f0 	push	{r4, r5, r6, r7, lr}
e0014bf0:	e24dd01c 	sub	sp, sp, #28
e0014bf4:	e1a04002 	mov	r4, r2
e0014bf8:	e3510003 	cmp	r1, #3
e0014bfc:	9a00001c 	bls	e0014c74 <Arch_decodeIRQControlInvocation+0x90>
e0014c00:	e30c3000 	movw	r3, #49152	@ 0xc000
e0014c04:	e34e3001 	movt	r3, #57345	@ 0xe001
e0014c08:	e5931b08 	ldr	r1, [r3, #2824]	@ 0xb08
e0014c0c:	e3510000 	cmp	r1, #0
e0014c10:	0a000017 	beq	e0014c74 <Arch_decodeIRQControlInvocation+0x90>
e0014c14:	e30c3000 	movw	r3, #49152	@ 0xc000
e0014c18:	e34e3001 	movt	r3, #57345	@ 0xe001
e0014c1c:	e5932840 	ldr	r2, [r3, #2112]	@ 0x840
e0014c20:	e5925008 	ldr	r5, [r2, #8]
e0014c24:	e592600c 	ldr	r6, [r2, #12]
e0014c28:	e5923010 	ldr	r3, [r2, #16]
e0014c2c:	e592c014 	ldr	ip, [r2, #20]
e0014c30:	e28d2008 	add	r2, sp, #8
e0014c34:	e8910003 	ldm	r1, {r0, r1}
e0014c38:	e8820003 	stm	r2, {r0, r1}
e0014c3c:	e355009f 	cmp	r5, #159	@ 0x9f
e0014c40:	8a000012 	bhi	e0014c90 <Arch_decodeIRQControlInvocation+0xac>
e0014c44:	e30c2000 	movw	r2, #49152	@ 0xc000
e0014c48:	e34e2001 	movt	r2, #57345	@ 0xe001
e0014c4c:	e0822105 	add	r2, r2, r5, lsl #2
e0014c50:	e5922884 	ldr	r2, [r2, #2180]	@ 0x884
e0014c54:	e3520000 	cmp	r2, #0
e0014c58:	0a000016 	beq	e0014cb8 <Arch_decodeIRQControlInvocation+0xd4>
e0014c5c:	e30c3000 	movw	r3, #49152	@ 0xc000
e0014c60:	e34e3001 	movt	r3, #57345	@ 0xe001
e0014c64:	e3a02009 	mov	r2, #9
e0014c68:	e5832864 	str	r2, [r3, #2148]	@ 0x864
e0014c6c:	e3a00003 	mov	r0, #3
e0014c70:	ea000004 	b	e0014c88 <Arch_decodeIRQControlInvocation+0xa4>
e0014c74:	e30c3000 	movw	r3, #49152	@ 0xc000
e0014c78:	e34e3001 	movt	r3, #57345	@ 0xe001
e0014c7c:	e3a02007 	mov	r2, #7
e0014c80:	e5832864 	str	r2, [r3, #2148]	@ 0x864
e0014c84:	e3a00003 	mov	r0, #3
e0014c88:	e28dd01c 	add	sp, sp, #28
e0014c8c:	e8bd80f0 	pop	{r4, r5, r6, r7, pc}
e0014c90:	e30c3000 	movw	r3, #49152	@ 0xc000
e0014c94:	e34e3001 	movt	r3, #57345	@ 0xe001
e0014c98:	e3a02004 	mov	r2, #4
e0014c9c:	e5832864 	str	r2, [r3, #2148]	@ 0x864
e0014ca0:	e3a02000 	mov	r2, #0
e0014ca4:	e5832854 	str	r2, [r3, #2132]	@ 0x854
e0014ca8:	e3a0209f 	mov	r2, #159	@ 0x9f
e0014cac:	e5832858 	str	r2, [r3, #2136]	@ 0x858
e0014cb0:	e3a00003 	mov	r0, #3
e0014cb4:	eafffff3 	b	e0014c88 <Arch_decodeIRQControlInvocation+0xa4>
e0014cb8:	e58dc000 	str	ip, [sp]
e0014cbc:	e28d2008 	add	r2, sp, #8
e0014cc0:	e8920006 	ldm	r2, {r1, r2}
e0014cc4:	e28d0010 	add	r0, sp, #16
e0014cc8:	ebfff88c 	bl	e0012f00 <lookupTargetSlot>
e0014ccc:	e59d0010 	ldr	r0, [sp, #16]
e0014cd0:	e3500000 	cmp	r0, #0
e0014cd4:	1affffeb 	bne	e0014c88 <Arch_decodeIRQControlInvocation+0xa4>
e0014cd8:	e59d7014 	ldr	r7, [sp, #20]
e0014cdc:	e1a00007 	mov	r0, r7
e0014ce0:	ebfff9a9 	bl	e001338c <ensureEmptySlot>
e0014ce4:	e3500000 	cmp	r0, #0
e0014ce8:	1affffe6 	bne	e0014c88 <Arch_decodeIRQControlInvocation+0xa4>
e0014cec:	e30c3000 	movw	r3, #49152	@ 0xc000
e0014cf0:	e34e3001 	movt	r3, #57345	@ 0xe001
e0014cf4:	e3a01002 	mov	r1, #2
e0014cf8:	e5930840 	ldr	r0, [r3, #2112]	@ 0x840
e0014cfc:	ebffffb0 	bl	e0014bc4 <setThreadState>
e0014d00:	e2561000 	subs	r1, r6, #0
e0014d04:	13a01001 	movne	r1, #1
e0014d08:	e1a00005 	mov	r0, r5
e0014d0c:	ebfff750 	bl	e0012a54 <setIRQTrigger>
e0014d10:	e1a02004 	mov	r2, r4
e0014d14:	e1a01007 	mov	r1, r7
e0014d18:	e1a00005 	mov	r0, r5
e0014d1c:	ebffff45 	bl	e0014a38 <invokeIRQControl>
e0014d20:	eaffffd8 	b	e0014c88 <Arch_decodeIRQControlInvocation+0xa4>
e0014d24:	e30c3000 	movw	r3, #49152	@ 0xc000
e0014d28:	e34e3001 	movt	r3, #57345	@ 0xe001
e0014d2c:	e3a00003 	mov	r0, #3
e0014d30:	e5830864 	str	r0, [r3, #2148]	@ 0x864
e0014d34:	e12fff1e 	bx	lr

e0014d38 <handleDoubleFault>:
e0014d38:	e52de004 	push	{lr}		@ (str lr, [sp, #-4]!)
e0014d3c:	e24dd00c 	sub	sp, sp, #12
e0014d40:	e28d3008 	add	r3, sp, #8
e0014d44:	e9030006 	stmdb	r3, {r1, r2}
e0014d48:	e3a01000 	mov	r1, #0
e0014d4c:	ebffff9c 	bl	e0014bc4 <setThreadState>
e0014d50:	e28dd00c 	add	sp, sp, #12
e0014d54:	e49df004 	pop	{pc}		@ (ldr pc, [sp], #4)

e0014d58 <activateThread>:
e0014d58:	e92d4010 	push	{r4, lr}
e0014d5c:	e30c3000 	movw	r3, #49152	@ 0xc000
e0014d60:	e34e3001 	movt	r3, #57345	@ 0xe001
e0014d64:	e5930840 	ldr	r0, [r3, #2112]	@ 0x840
e0014d68:	e5903050 	ldr	r3, [r0, #80]	@ 0x50
e0014d6c:	e203300f 	and	r3, r3, #15
e0014d70:	e3530002 	cmp	r3, #2
e0014d74:	0a000004 	beq	e0014d8c <activateThread+0x34>
e0014d78:	e3530007 	cmp	r3, #7
e0014d7c:	08bd8010 	popeq	{r4, pc}
e0014d80:	e3530001 	cmp	r3, #1
e0014d84:	08bd8010 	popeq	{r4, pc}
e0014d88:	ebffeee5 	bl	e0010924 <halt>
e0014d8c:	e5903044 	ldr	r3, [r0, #68]	@ 0x44
e0014d90:	e580303c 	str	r3, [r0, #60]	@ 0x3c
e0014d94:	e3a01001 	mov	r1, #1
e0014d98:	ebffff89 	bl	e0014bc4 <setThreadState>
e0014d9c:	e8bd8010 	pop	{r4, pc}

e0014da0 <decodeIRQControlInvocation>:
e0014da0:	e92d4070 	push	{r4, r5, r6, lr}
e0014da4:	e24dd018 	sub	sp, sp, #24
e0014da8:	e1a04002 	mov	r4, r2
e0014dac:	e3500019 	cmp	r0, #25
e0014db0:	1a000044 	bne	e0014ec8 <decodeIRQControlInvocation+0x128>
e0014db4:	e3510002 	cmp	r1, #2
e0014db8:	9a00001b 	bls	e0014e2c <decodeIRQControlInvocation+0x8c>
e0014dbc:	e30c3000 	movw	r3, #49152	@ 0xc000
e0014dc0:	e34e3001 	movt	r3, #57345	@ 0xe001
e0014dc4:	e5932b08 	ldr	r2, [r3, #2824]	@ 0xb08
e0014dc8:	e3520000 	cmp	r2, #0
e0014dcc:	0a000016 	beq	e0014e2c <decodeIRQControlInvocation+0x8c>
e0014dd0:	e30c3000 	movw	r3, #49152	@ 0xc000
e0014dd4:	e34e3001 	movt	r3, #57345	@ 0xe001
e0014dd8:	e5931840 	ldr	r1, [r3, #2112]	@ 0x840
e0014ddc:	e5915008 	ldr	r5, [r1, #8]
e0014de0:	e591300c 	ldr	r3, [r1, #12]
e0014de4:	e591e010 	ldr	lr, [r1, #16]
e0014de8:	e28dc008 	add	ip, sp, #8
e0014dec:	e8920003 	ldm	r2, {r0, r1}
e0014df0:	e88c0003 	stm	ip, {r0, r1}
e0014df4:	e355009f 	cmp	r5, #159	@ 0x9f
e0014df8:	8a000011 	bhi	e0014e44 <decodeIRQControlInvocation+0xa4>
e0014dfc:	e30c2000 	movw	r2, #49152	@ 0xc000
e0014e00:	e34e2001 	movt	r2, #57345	@ 0xe001
e0014e04:	e0822105 	add	r2, r2, r5, lsl #2
e0014e08:	e5922884 	ldr	r2, [r2, #2180]	@ 0x884
e0014e0c:	e3520000 	cmp	r2, #0
e0014e10:	0a000015 	beq	e0014e6c <decodeIRQControlInvocation+0xcc>
e0014e14:	e30c3000 	movw	r3, #49152	@ 0xc000
e0014e18:	e34e3001 	movt	r3, #57345	@ 0xe001
e0014e1c:	e3a02009 	mov	r2, #9
e0014e20:	e5832864 	str	r2, [r3, #2148]	@ 0x864
e0014e24:	e3a00003 	mov	r0, #3
e0014e28:	ea000027 	b	e0014ecc <decodeIRQControlInvocation+0x12c>
e0014e2c:	e30c3000 	movw	r3, #49152	@ 0xc000
e0014e30:	e34e3001 	movt	r3, #57345	@ 0xe001
e0014e34:	e3a02007 	mov	r2, #7
e0014e38:	e5832864 	str	r2, [r3, #2148]	@ 0x864
e0014e3c:	e3a00003 	mov	r0, #3
e0014e40:	ea000021 	b	e0014ecc <decodeIRQControlInvocation+0x12c>
e0014e44:	e30c3000 	movw	r3, #49152	@ 0xc000
e0014e48:	e34e3001 	movt	r3, #57345	@ 0xe001
e0014e4c:	e3a02004 	mov	r2, #4
e0014e50:	e5832864 	str	r2, [r3, #2148]	@ 0x864
e0014e54:	e3a02000 	mov	r2, #0
e0014e58:	e5832854 	str	r2, [r3, #2132]	@ 0x854
e0014e5c:	e3a0209f 	mov	r2, #159	@ 0x9f
e0014e60:	e5832858 	str	r2, [r3, #2136]	@ 0x858
e0014e64:	e3a00003 	mov	r0, #3
e0014e68:	ea000017 	b	e0014ecc <decodeIRQControlInvocation+0x12c>
e0014e6c:	e58de000 	str	lr, [sp]
e0014e70:	e28d2008 	add	r2, sp, #8
e0014e74:	e8920006 	ldm	r2, {r1, r2}
e0014e78:	e28d0010 	add	r0, sp, #16
e0014e7c:	ebfff81f 	bl	e0012f00 <lookupTargetSlot>
e0014e80:	e59d0010 	ldr	r0, [sp, #16]
e0014e84:	e3500000 	cmp	r0, #0
e0014e88:	1a00000f 	bne	e0014ecc <decodeIRQControlInvocation+0x12c>
e0014e8c:	e59d6014 	ldr	r6, [sp, #20]
e0014e90:	e1a00006 	mov	r0, r6
e0014e94:	ebfff93c 	bl	e001338c <ensureEmptySlot>
e0014e98:	e3500000 	cmp	r0, #0
e0014e9c:	1a00000a 	bne	e0014ecc <decodeIRQControlInvocation+0x12c>
e0014ea0:	e30c3000 	movw	r3, #49152	@ 0xc000
e0014ea4:	e34e3001 	movt	r3, #57345	@ 0xe001
e0014ea8:	e3a01002 	mov	r1, #2
e0014eac:	e5930840 	ldr	r0, [r3, #2112]	@ 0x840
e0014eb0:	ebffff43 	bl	e0014bc4 <setThreadState>
e0014eb4:	e1a02004 	mov	r2, r4
e0014eb8:	e1a01006 	mov	r1, r6
e0014ebc:	e1a00005 	mov	r0, r5
e0014ec0:	ebfffedc 	bl	e0014a38 <invokeIRQControl>
e0014ec4:	ea000000 	b	e0014ecc <decodeIRQControlInvocation+0x12c>
e0014ec8:	ebffff45 	bl	e0014be4 <Arch_decodeIRQControlInvocation>
e0014ecc:	e28dd018 	add	sp, sp, #24
e0014ed0:	e8bd8070 	pop	{r4, r5, r6, pc}

e0014ed4 <receiveSignal>:
e0014ed4:	e92d4030 	push	{r4, r5, lr}
e0014ed8:	e24dd00c 	sub	sp, sp, #12
e0014edc:	e1a05000 	mov	r5, r0
e0014ee0:	e28d0008 	add	r0, sp, #8
e0014ee4:	e9000006 	stmdb	r0, {r1, r2}
e0014ee8:	e3c1400f 	bic	r4, r1, #15
e0014eec:	e5942000 	ldr	r2, [r4]
e0014ef0:	e3120002 	tst	r2, #2
e0014ef4:	0a000009 	beq	e0014f20 <receiveSignal+0x4c>
e0014ef8:	e2021003 	and	r1, r2, #3
e0014efc:	e3510002 	cmp	r1, #2
e0014f00:	1a000004 	bne	e0014f18 <receiveSignal+0x44>
e0014f04:	e5943008 	ldr	r3, [r4, #8]
e0014f08:	e5853000 	str	r3, [r5]
e0014f0c:	e5943000 	ldr	r3, [r4]
e0014f10:	e3c33003 	bic	r3, r3, #3
e0014f14:	e5843000 	str	r3, [r4]
e0014f18:	e28dd00c 	add	sp, sp, #12
e0014f1c:	e8bd8030 	pop	{r4, r5, pc}
e0014f20:	e3530000 	cmp	r3, #0
e0014f24:	03a03000 	moveq	r3, #0
e0014f28:	05853000 	streq	r3, [r5]
e0014f2c:	0afffff9 	beq	e0014f18 <receiveSignal+0x44>
e0014f30:	e3843006 	orr	r3, r4, #6
e0014f34:	e5853050 	str	r3, [r5, #80]	@ 0x50
e0014f38:	e1a00005 	mov	r0, r5
e0014f3c:	ebffff0e 	bl	e0014b7c <scheduleTCB>
e0014f40:	e5943004 	ldr	r3, [r4, #4]
e0014f44:	e5942000 	ldr	r2, [r4]
e0014f48:	e3c2200f 	bic	r2, r2, #15
e0014f4c:	e3d3300f 	bics	r3, r3, #15
e0014f50:	15825090 	strne	r5, [r2, #144]	@ 0x90
e0014f54:	01a03005 	moveq	r3, r5
e0014f58:	e5852094 	str	r2, [r5, #148]	@ 0x94
e0014f5c:	e3a02000 	mov	r2, #0
e0014f60:	e5852090 	str	r2, [r5, #144]	@ 0x90
e0014f64:	e5942000 	ldr	r2, [r4]
e0014f68:	e5941004 	ldr	r1, [r4, #4]
e0014f6c:	e201100f 	and	r1, r1, #15
e0014f70:	e3c3300f 	bic	r3, r3, #15
e0014f74:	e1813003 	orr	r3, r1, r3
e0014f78:	e5843004 	str	r3, [r4, #4]
e0014f7c:	e202300c 	and	r3, r2, #12
e0014f80:	e3c5500f 	bic	r5, r5, #15
e0014f84:	e1835005 	orr	r5, r3, r5
e0014f88:	e3855001 	orr	r5, r5, #1
e0014f8c:	e5845000 	str	r5, [r4]
e0014f90:	eaffffe0 	b	e0014f18 <receiveSignal+0x44>

e0014f94 <possibleSwitchTo>:
e0014f94:	e92d4010 	push	{r4, lr}
e0014f98:	e1a04000 	mov	r4, r0
e0014f9c:	e30c3000 	movw	r3, #49152	@ 0xc000
e0014fa0:	e34e3001 	movt	r3, #57345	@ 0xe001
e0014fa4:	e5902070 	ldr	r2, [r0, #112]	@ 0x70
e0014fa8:	e5933b04 	ldr	r3, [r3, #2820]	@ 0xb04
e0014fac:	e1520003 	cmp	r2, r3
e0014fb0:	1a000008 	bne	e0014fd8 <possibleSwitchTo+0x44>
e0014fb4:	e30c3000 	movw	r3, #49152	@ 0xc000
e0014fb8:	e34e3001 	movt	r3, #57345	@ 0xe001
e0014fbc:	e593387c 	ldr	r3, [r3, #2172]	@ 0x87c
e0014fc0:	e3530000 	cmp	r3, #0
e0014fc4:	0a000005 	beq	e0014fe0 <possibleSwitchTo+0x4c>
e0014fc8:	ebfffeda 	bl	e0014b38 <rescheduleRequired>
e0014fcc:	e1a00004 	mov	r0, r4
e0014fd0:	ebfffeac 	bl	e0014a88 <tcbSchedEnqueue>
e0014fd4:	e8bd8010 	pop	{r4, pc}
e0014fd8:	ebfffeaa 	bl	e0014a88 <tcbSchedEnqueue>
e0014fdc:	e8bd8010 	pop	{r4, pc}
e0014fe0:	e30c3000 	movw	r3, #49152	@ 0xc000
e0014fe4:	e34e3001 	movt	r3, #57345	@ 0xe001
e0014fe8:	e583087c 	str	r0, [r3, #2172]	@ 0x87c
e0014fec:	e8bd8010 	pop	{r4, pc}

e0014ff0 <cancelAllIPC>:
e0014ff0:	e5903000 	ldr	r3, [r0]
e0014ff4:	e3130003 	tst	r3, #3
e0014ff8:	012fff1e 	bxeq	lr
e0014ffc:	e92d4070 	push	{r4, r5, r6, lr}
e0015000:	e5904004 	ldr	r4, [r0, #4]
e0015004:	e204200f 	and	r2, r4, #15
e0015008:	e5802004 	str	r2, [r0, #4]
e001500c:	e203300c 	and	r3, r3, #12
e0015010:	e5803000 	str	r3, [r0]
e0015014:	e3d4400f 	bics	r4, r4, #15
e0015018:	0a000008 	beq	e0015040 <cancelAllIPC+0x50>
e001501c:	e3a05002 	mov	r5, #2
e0015020:	e1a01005 	mov	r1, r5
e0015024:	e1a00004 	mov	r0, r4
e0015028:	ebfffee5 	bl	e0014bc4 <setThreadState>
e001502c:	e1a00004 	mov	r0, r4
e0015030:	ebfffe94 	bl	e0014a88 <tcbSchedEnqueue>
e0015034:	e5944090 	ldr	r4, [r4, #144]	@ 0x90
e0015038:	e3540000 	cmp	r4, #0
e001503c:	1afffff7 	bne	e0015020 <cancelAllIPC+0x30>
e0015040:	ebfffebc 	bl	e0014b38 <rescheduleRequired>
e0015044:	e8bd8070 	pop	{r4, r5, r6, pc}

e0015048 <cancelAllSignals>:
e0015048:	e5903000 	ldr	r3, [r0]
e001504c:	e2032003 	and	r2, r3, #3
e0015050:	e3520001 	cmp	r2, #1
e0015054:	112fff1e 	bxne	lr
e0015058:	e92d4070 	push	{r4, r5, r6, lr}
e001505c:	e5904004 	ldr	r4, [r0, #4]
e0015060:	e204200f 	and	r2, r4, #15
e0015064:	e5802004 	str	r2, [r0, #4]
e0015068:	e203300c 	and	r3, r3, #12
e001506c:	e5803000 	str	r3, [r0]
e0015070:	e3d4400f 	bics	r4, r4, #15
e0015074:	0a000008 	beq	e001509c <cancelAllSignals+0x54>
e0015078:	e3a05002 	mov	r5, #2
e001507c:	e1a01005 	mov	r1, r5
e0015080:	e1a00004 	mov	r0, r4
e0015084:	ebfffece 	bl	e0014bc4 <setThreadState>
e0015088:	e1a00004 	mov	r0, r4
e001508c:	ebfffe7d 	bl	e0014a88 <tcbSchedEnqueue>
e0015090:	e5944090 	ldr	r4, [r4, #144]	@ 0x90
e0015094:	e3540000 	cmp	r4, #0
e0015098:	1afffff7 	bne	e001507c <cancelAllSignals+0x34>
e001509c:	ebfffea5 	bl	e0014b38 <rescheduleRequired>
e00150a0:	e8bd8070 	pop	{r4, r5, r6, pc}

e00150a4 <tcbSchedAppend>:
e00150a4:	e5903054 	ldr	r3, [r0, #84]	@ 0x54
e00150a8:	e3130001 	tst	r3, #1
e00150ac:	112fff1e 	bxne	lr
e00150b0:	e92d41f0 	push	{r4, r5, r6, r7, r8, lr}
e00150b4:	e5904070 	ldr	r4, [r0, #112]	@ 0x70
e00150b8:	e590e078 	ldr	lr, [r0, #120]	@ 0x78
e00150bc:	e08e1404 	add	r1, lr, r4, lsl #8
e00150c0:	e30e2000 	movw	r2, #57344	@ 0xe000
e00150c4:	e34e2001 	movt	r2, #57345	@ 0xe001
e00150c8:	e792c181 	ldr	ip, [r2, r1, lsl #3]
e00150cc:	e0822181 	add	r2, r2, r1, lsl #3
e00150d0:	e5923004 	ldr	r3, [r2, #4]
e00150d4:	e35c0000 	cmp	ip, #0
e00150d8:	15830088 	strne	r0, [r3, #136]	@ 0x88
e00150dc:	0a00000b 	beq	e0015110 <tcbSchedAppend+0x6c>
e00150e0:	e580308c 	str	r3, [r0, #140]	@ 0x8c
e00150e4:	e3a03000 	mov	r3, #0
e00150e8:	e5803088 	str	r3, [r0, #136]	@ 0x88
e00150ec:	e30e3000 	movw	r3, #57344	@ 0xe000
e00150f0:	e34e3001 	movt	r3, #57345	@ 0xe001
e00150f4:	e783c181 	str	ip, [r3, r1, lsl #3]
e00150f8:	e0833181 	add	r3, r3, r1, lsl #3
e00150fc:	e5830004 	str	r0, [r3, #4]
e0015100:	e5903054 	ldr	r3, [r0, #84]	@ 0x54
e0015104:	e3833001 	orr	r3, r3, #1
e0015108:	e5803054 	str	r3, [r0, #84]	@ 0x54
e001510c:	e8bd81f0 	pop	{r4, r5, r6, r7, r8, pc}
e0015110:	e1a082ae 	lsr	r8, lr, #5
e0015114:	e268c007 	rsb	ip, r8, #7
e0015118:	e30c2000 	movw	r2, #49152	@ 0xc000
e001511c:	e34e2001 	movt	r2, #57345	@ 0xe001
e0015120:	e0827104 	add	r7, r2, r4, lsl #2
e0015124:	e3a06001 	mov	r6, #1
e0015128:	e5975600 	ldr	r5, [r7, #1536]	@ 0x600
e001512c:	e1855816 	orr	r5, r5, r6, lsl r8
e0015130:	e5875600 	str	r5, [r7, #1536]	@ 0x600
e0015134:	e08c4184 	add	r4, ip, r4, lsl #3
e0015138:	e0822104 	add	r2, r2, r4, lsl #2
e001513c:	e20ee01f 	and	lr, lr, #31
e0015140:	e592c640 	ldr	ip, [r2, #1600]	@ 0x640
e0015144:	e18cee16 	orr	lr, ip, r6, lsl lr
e0015148:	e582e640 	str	lr, [r2, #1600]	@ 0x640
e001514c:	e1a0c000 	mov	ip, r0
e0015150:	eaffffe2 	b	e00150e0 <tcbSchedAppend+0x3c>

e0015154 <timerTick>:
e0015154:	e92d4010 	push	{r4, lr}
e0015158:	e30c3000 	movw	r3, #49152	@ 0xc000
e001515c:	e34e3001 	movt	r3, #57345	@ 0xe001
e0015160:	e5930840 	ldr	r0, [r3, #2112]	@ 0x840
e0015164:	e5903050 	ldr	r3, [r0, #80]	@ 0x50
e0015168:	e203300f 	and	r3, r3, #15
e001516c:	e3530001 	cmp	r3, #1
e0015170:	1a000004 	bne	e0015188 <timerTick+0x34>
e0015174:	e590307c 	ldr	r3, [r0, #124]	@ 0x7c
e0015178:	e3530001 	cmp	r3, #1
e001517c:	9a00000a 	bls	e00151ac <timerTick+0x58>
e0015180:	e2433001 	sub	r3, r3, #1
e0015184:	e580307c 	str	r3, [r0, #124]	@ 0x7c
e0015188:	e30c2000 	movw	r2, #49152	@ 0xc000
e001518c:	e34e2001 	movt	r2, #57345	@ 0xe001
e0015190:	e5923b18 	ldr	r3, [r2, #2840]	@ 0xb18
e0015194:	e2433001 	sub	r3, r3, #1
e0015198:	e5823b18 	str	r3, [r2, #2840]	@ 0xb18
e001519c:	e3530000 	cmp	r3, #0
e00151a0:	18bd8010 	popne	{r4, pc}
e00151a4:	ebfffe63 	bl	e0014b38 <rescheduleRequired>
e00151a8:	e8bd8010 	pop	{r4, pc}
e00151ac:	e3a03005 	mov	r3, #5
e00151b0:	e580307c 	str	r3, [r0, #124]	@ 0x7c
e00151b4:	ebffffba 	bl	e00150a4 <tcbSchedAppend>
e00151b8:	ebfffe5e 	bl	e0014b38 <rescheduleRequired>
e00151bc:	eafffff1 	b	e0015188 <timerTick+0x34>

e00151c0 <tcbSchedDequeue>:
e00151c0:	e5903054 	ldr	r3, [r0, #84]	@ 0x54
e00151c4:	e3130001 	tst	r3, #1
e00151c8:	012fff1e 	bxeq	lr
e00151cc:	e92d40f0 	push	{r4, r5, r6, r7, lr}
e00151d0:	e5904070 	ldr	r4, [r0, #112]	@ 0x70
e00151d4:	e5903078 	ldr	r3, [r0, #120]	@ 0x78
e00151d8:	e0831404 	add	r1, r3, r4, lsl #8
e00151dc:	e30e2000 	movw	r2, #57344	@ 0xe000
e00151e0:	e34e2001 	movt	r2, #57345	@ 0xe001
e00151e4:	e0822181 	add	r2, r2, r1, lsl #3
e00151e8:	e592e004 	ldr	lr, [r2, #4]
e00151ec:	e590208c 	ldr	r2, [r0, #140]	@ 0x8c
e00151f0:	e3520000 	cmp	r2, #0
e00151f4:	0a000012 	beq	e0015244 <tcbSchedDequeue+0x84>
e00151f8:	e30e3000 	movw	r3, #57344	@ 0xe000
e00151fc:	e34e3001 	movt	r3, #57345	@ 0xe001
e0015200:	e793c181 	ldr	ip, [r3, r1, lsl #3]
e0015204:	e5903088 	ldr	r3, [r0, #136]	@ 0x88
e0015208:	e5823088 	str	r3, [r2, #136]	@ 0x88
e001520c:	e5903088 	ldr	r3, [r0, #136]	@ 0x88
e0015210:	e3530000 	cmp	r3, #0
e0015214:	0a000024 	beq	e00152ac <tcbSchedDequeue+0xec>
e0015218:	e590208c 	ldr	r2, [r0, #140]	@ 0x8c
e001521c:	e583208c 	str	r2, [r3, #140]	@ 0x8c
e0015220:	e30e3000 	movw	r3, #57344	@ 0xe000
e0015224:	e34e3001 	movt	r3, #57345	@ 0xe001
e0015228:	e783c181 	str	ip, [r3, r1, lsl #3]
e001522c:	e0833181 	add	r3, r3, r1, lsl #3
e0015230:	e583e004 	str	lr, [r3, #4]
e0015234:	e5903054 	ldr	r3, [r0, #84]	@ 0x54
e0015238:	e3c33001 	bic	r3, r3, #1
e001523c:	e5803054 	str	r3, [r0, #84]	@ 0x54
e0015240:	e8bd80f0 	pop	{r4, r5, r6, r7, pc}
e0015244:	e590c088 	ldr	ip, [r0, #136]	@ 0x88
e0015248:	e35c0000 	cmp	ip, #0
e001524c:	1a000014 	bne	e00152a4 <tcbSchedDequeue+0xe4>
e0015250:	e1a062a3 	lsr	r6, r3, #5
e0015254:	e2665007 	rsb	r5, r6, #7
e0015258:	e203301f 	and	r3, r3, #31
e001525c:	e30c2000 	movw	r2, #49152	@ 0xc000
e0015260:	e34e2001 	movt	r2, #57345	@ 0xe001
e0015264:	e0855184 	add	r5, r5, r4, lsl #3
e0015268:	e0822105 	add	r2, r2, r5, lsl #2
e001526c:	e3a05001 	mov	r5, #1
e0015270:	e5927640 	ldr	r7, [r2, #1600]	@ 0x640
e0015274:	e1c73315 	bic	r3, r7, r5, lsl r3
e0015278:	e5823640 	str	r3, [r2, #1600]	@ 0x640
e001527c:	e3530000 	cmp	r3, #0
e0015280:	1affffe1 	bne	e001520c <tcbSchedDequeue+0x4c>
e0015284:	e30c3000 	movw	r3, #49152	@ 0xc000
e0015288:	e34e3001 	movt	r3, #57345	@ 0xe001
e001528c:	e0833104 	add	r3, r3, r4, lsl #2
e0015290:	e5932600 	ldr	r2, [r3, #1536]	@ 0x600
e0015294:	e1a04005 	mov	r4, r5
e0015298:	e1c26615 	bic	r6, r2, r5, lsl r6
e001529c:	e5836600 	str	r6, [r3, #1536]	@ 0x600
e00152a0:	eaffffd9 	b	e001520c <tcbSchedDequeue+0x4c>
e00152a4:	e1a0300c 	mov	r3, ip
e00152a8:	eaffffda 	b	e0015218 <tcbSchedDequeue+0x58>
e00152ac:	e590e08c 	ldr	lr, [r0, #140]	@ 0x8c
e00152b0:	eaffffda 	b	e0015220 <tcbSchedDequeue+0x60>

e00152b4 <switchToThread>:
e00152b4:	e92d4010 	push	{r4, lr}
e00152b8:	e1a04000 	mov	r4, r0
e00152bc:	ebfff037 	bl	e00113a0 <Arch_switchToThread>
e00152c0:	e1a00004 	mov	r0, r4
e00152c4:	ebffffbd 	bl	e00151c0 <tcbSchedDequeue>
e00152c8:	e30c3000 	movw	r3, #49152	@ 0xc000
e00152cc:	e34e3001 	movt	r3, #57345	@ 0xe001
e00152d0:	e5834840 	str	r4, [r3, #2112]	@ 0x840
e00152d4:	e8bd8010 	pop	{r4, pc}

e00152d8 <chooseThread>:
e00152d8:	e92d4010 	push	{r4, lr}
e00152dc:	e30c2000 	movw	r2, #49152	@ 0xc000
e00152e0:	e34e2001 	movt	r2, #57345	@ 0xe001
e00152e4:	e5920b04 	ldr	r0, [r2, #2820]	@ 0xb04
e00152e8:	e0822100 	add	r2, r2, r0, lsl #2
e00152ec:	e5922600 	ldr	r2, [r2, #1536]	@ 0x600
e00152f0:	e3520000 	cmp	r2, #0
e00152f4:	0a000010 	beq	e001533c <chooseThread+0x64>
e00152f8:	e16f2f12 	clz	r2, r2
e00152fc:	e30c1000 	movw	r1, #49152	@ 0xc000
e0015300:	e34e1001 	movt	r1, #57345	@ 0xe001
e0015304:	e2423018 	sub	r3, r2, #24
e0015308:	e0833180 	add	r3, r3, r0, lsl #3
e001530c:	e0811103 	add	r1, r1, r3, lsl #2
e0015310:	e5913640 	ldr	r3, [r1, #1600]	@ 0x640
e0015314:	e16f3f13 	clz	r3, r3
e0015318:	e30e1000 	movw	r1, #57344	@ 0xe000
e001531c:	e34e1001 	movt	r1, #57345	@ 0xe001
e0015320:	e262201f 	rsb	r2, r2, #31
e0015324:	e263301f 	rsb	r3, r3, #31
e0015328:	e1833282 	orr	r3, r3, r2, lsl #5
e001532c:	e0833400 	add	r3, r3, r0, lsl #8
e0015330:	e7910183 	ldr	r0, [r1, r3, lsl #3]
e0015334:	ebffffde 	bl	e00152b4 <switchToThread>
e0015338:	e8bd8010 	pop	{r4, pc}
e001533c:	ebfff71e 	bl	e0012fbc <switchToIdleThread>
e0015340:	e8bd8010 	pop	{r4, pc}

e0015344 <scheduleChooseNewThread>:
e0015344:	e92d4010 	push	{r4, lr}
e0015348:	e30c3000 	movw	r3, #49152	@ 0xc000
e001534c:	e34e3001 	movt	r3, #57345	@ 0xe001
e0015350:	e5933b18 	ldr	r3, [r3, #2840]	@ 0xb18
e0015354:	e3530000 	cmp	r3, #0
e0015358:	0a000001 	beq	e0015364 <scheduleChooseNewThread+0x20>
e001535c:	ebffffdd 	bl	e00152d8 <chooseThread>
e0015360:	e8bd8010 	pop	{r4, pc}
e0015364:	e30c3000 	movw	r3, #49152	@ 0xc000
e0015368:	e34e3001 	movt	r3, #57345	@ 0xe001
e001536c:	e5933b14 	ldr	r3, [r3, #2836]	@ 0xb14
e0015370:	e2833001 	add	r3, r3, #1
e0015374:	e3530002 	cmp	r3, #2
e0015378:	930c2000 	movwls	r2, #49152	@ 0xc000
e001537c:	934e2001 	movtls	r2, #57345	@ 0xe001
e0015380:	95823b14 	strls	r3, [r2, #2836]	@ 0xb14
e0015384:	830c3000 	movwhi	r3, #49152	@ 0xc000
e0015388:	834e3001 	movthi	r3, #57345	@ 0xe001
e001538c:	83a02000 	movhi	r2, #0
e0015390:	85832b14 	strhi	r2, [r3, #2836]	@ 0xb14
e0015394:	e30c3000 	movw	r3, #49152	@ 0xc000
e0015398:	e34e3001 	movt	r3, #57345	@ 0xe001
e001539c:	e3a02000 	mov	r2, #0
e00153a0:	e5832880 	str	r2, [r3, #2176]	@ 0x880
e00153a4:	e5931b14 	ldr	r1, [r3, #2836]	@ 0xb14
e00153a8:	e30b2228 	movw	r2, #45608	@ 0xb228
e00153ac:	e34e2001 	movt	r2, #57345	@ 0xe001
e00153b0:	e0822181 	add	r2, r2, r1, lsl #3
e00153b4:	e5921070 	ldr	r1, [r2, #112]	@ 0x70
e00153b8:	e5831b04 	str	r1, [r3, #2820]	@ 0xb04
e00153bc:	e5922074 	ldr	r2, [r2, #116]	@ 0x74
e00153c0:	e5832b18 	str	r2, [r3, #2840]	@ 0xb18
e00153c4:	eaffffe4 	b	e001535c <scheduleChooseNewThread+0x18>

e00153c8 <schedule>:
e00153c8:	e30c3000 	movw	r3, #49152	@ 0xc000
e00153cc:	e34e3001 	movt	r3, #57345	@ 0xe001
e00153d0:	e593387c 	ldr	r3, [r3, #2172]	@ 0x87c
e00153d4:	e3530000 	cmp	r3, #0
e00153d8:	0a00004c 	beq	e0015510 <schedule+0x148>
e00153dc:	e92d4010 	push	{r4, lr}
e00153e0:	e30c3000 	movw	r3, #49152	@ 0xc000
e00153e4:	e34e3001 	movt	r3, #57345	@ 0xe001
e00153e8:	e5930840 	ldr	r0, [r3, #2112]	@ 0x840
e00153ec:	e5903050 	ldr	r3, [r0, #80]	@ 0x50
e00153f0:	e203300f 	and	r3, r3, #15
e00153f4:	e2433001 	sub	r3, r3, #1
e00153f8:	e3530001 	cmp	r3, #1
e00153fc:	83a0c000 	movhi	ip, #0
e0015400:	9a00002a 	bls	e00154b0 <schedule+0xe8>
e0015404:	e30c3000 	movw	r3, #49152	@ 0xc000
e0015408:	e34e3001 	movt	r3, #57345	@ 0xe001
e001540c:	e593087c 	ldr	r0, [r3, #2172]	@ 0x87c
e0015410:	e3500001 	cmp	r0, #1
e0015414:	0a000028 	beq	e00154bc <schedule+0xf4>
e0015418:	e30c3000 	movw	r3, #49152	@ 0xc000
e001541c:	e34e3001 	movt	r3, #57345	@ 0xe001
e0015420:	e5932840 	ldr	r2, [r3, #2112]	@ 0x840
e0015424:	e593386c 	ldr	r3, [r3, #2156]	@ 0x86c
e0015428:	e1520003 	cmp	r2, r3
e001542c:	0a000003 	beq	e0015440 <schedule+0x78>
e0015430:	e5901078 	ldr	r1, [r0, #120]	@ 0x78
e0015434:	e5923078 	ldr	r3, [r2, #120]	@ 0x78
e0015438:	e1510003 	cmp	r1, r3
e001543c:	2a000020 	bcs	e00154c4 <schedule+0xfc>
e0015440:	e30c3000 	movw	r3, #49152	@ 0xc000
e0015444:	e34e3001 	movt	r3, #57345	@ 0xe001
e0015448:	e593eb04 	ldr	lr, [r3, #2820]	@ 0xb04
e001544c:	e083310e 	add	r3, r3, lr, lsl #2
e0015450:	e5933600 	ldr	r3, [r3, #1536]	@ 0x600
e0015454:	e3530000 	cmp	r3, #0
e0015458:	0a000019 	beq	e00154c4 <schedule+0xfc>
e001545c:	e16f3f13 	clz	r3, r3
e0015460:	e30c1000 	movw	r1, #49152	@ 0xc000
e0015464:	e34e1001 	movt	r1, #57345	@ 0xe001
e0015468:	e2434018 	sub	r4, r3, #24
e001546c:	e084e18e 	add	lr, r4, lr, lsl #3
e0015470:	e081110e 	add	r1, r1, lr, lsl #2
e0015474:	e5911640 	ldr	r1, [r1, #1600]	@ 0x640
e0015478:	e16f1f11 	clz	r1, r1
e001547c:	e263301f 	rsb	r3, r3, #31
e0015480:	e261101f 	rsb	r1, r1, #31
e0015484:	e1813283 	orr	r3, r1, r3, lsl #5
e0015488:	e5901078 	ldr	r1, [r0, #120]	@ 0x78
e001548c:	e1510003 	cmp	r1, r3
e0015490:	2a00000b 	bcs	e00154c4 <schedule+0xfc>
e0015494:	ebfffd7b 	bl	e0014a88 <tcbSchedEnqueue>
e0015498:	e30c3000 	movw	r3, #49152	@ 0xc000
e001549c:	e34e3001 	movt	r3, #57345	@ 0xe001
e00154a0:	e3a02001 	mov	r2, #1
e00154a4:	e583287c 	str	r2, [r3, #2172]	@ 0x87c
e00154a8:	ebffffa5 	bl	e0015344 <scheduleChooseNewThread>
e00154ac:	ea00000b 	b	e00154e0 <schedule+0x118>
e00154b0:	ebfffd74 	bl	e0014a88 <tcbSchedEnqueue>
e00154b4:	e3a0c001 	mov	ip, #1
e00154b8:	eaffffd1 	b	e0015404 <schedule+0x3c>
e00154bc:	ebffffa0 	bl	e0015344 <scheduleChooseNewThread>
e00154c0:	ea000006 	b	e00154e0 <schedule+0x118>
e00154c4:	e35c0000 	cmp	ip, #0
e00154c8:	0a000003 	beq	e00154dc <schedule+0x114>
e00154cc:	e5901078 	ldr	r1, [r0, #120]	@ 0x78
e00154d0:	e5923078 	ldr	r3, [r2, #120]	@ 0x78
e00154d4:	e1510003 	cmp	r1, r3
e00154d8:	0a000005 	beq	e00154f4 <schedule+0x12c>
e00154dc:	ebffff74 	bl	e00152b4 <switchToThread>
e00154e0:	e30c3000 	movw	r3, #49152	@ 0xc000
e00154e4:	e34e3001 	movt	r3, #57345	@ 0xe001
e00154e8:	e3a02000 	mov	r2, #0
e00154ec:	e583287c 	str	r2, [r3, #2172]	@ 0x87c
e00154f0:	e8bd8010 	pop	{r4, pc}
e00154f4:	ebfffeea 	bl	e00150a4 <tcbSchedAppend>
e00154f8:	e30c3000 	movw	r3, #49152	@ 0xc000
e00154fc:	e34e3001 	movt	r3, #57345	@ 0xe001
e0015500:	e3a02001 	mov	r2, #1
e0015504:	e583287c 	str	r2, [r3, #2172]	@ 0x87c
e0015508:	ebffff8d 	bl	e0015344 <scheduleChooseNewThread>
e001550c:	eafffff3 	b	e00154e0 <schedule+0x118>
e0015510:	e30c3000 	movw	r3, #49152	@ 0xc000
e0015514:	e34e3001 	movt	r3, #57345	@ 0xe001
e0015518:	e3a02000 	mov	r2, #0
e001551c:	e583287c 	str	r2, [r3, #2172]	@ 0x87c
e0015520:	e12fff1e 	bx	lr

e0015524 <setDomain>:
e0015524:	e92d4070 	push	{r4, r5, r6, lr}
e0015528:	e1a04000 	mov	r4, r0
e001552c:	e1a05001 	mov	r5, r1
e0015530:	ebffff22 	bl	e00151c0 <tcbSchedDequeue>
e0015534:	e5845070 	str	r5, [r4, #112]	@ 0x70
e0015538:	e5943050 	ldr	r3, [r4, #80]	@ 0x50
e001553c:	e203300f 	and	r3, r3, #15
e0015540:	e2433001 	sub	r3, r3, #1
e0015544:	e3530001 	cmp	r3, #1
e0015548:	9a000006 	bls	e0015568 <setDomain+0x44>
e001554c:	e30c3000 	movw	r3, #49152	@ 0xc000
e0015550:	e34e3001 	movt	r3, #57345	@ 0xe001
e0015554:	e5933840 	ldr	r3, [r3, #2112]	@ 0x840
e0015558:	e1530004 	cmp	r3, r4
e001555c:	18bd8070 	popne	{r4, r5, r6, pc}
e0015560:	ebfffd74 	bl	e0014b38 <rescheduleRequired>
e0015564:	e8bd8070 	pop	{r4, r5, r6, pc}
e0015568:	e1a00004 	mov	r0, r4
e001556c:	ebfffd45 	bl	e0014a88 <tcbSchedEnqueue>
e0015570:	eafffff5 	b	e001554c <setDomain+0x28>

e0015574 <setPriority>:
e0015574:	e92d4070 	push	{r4, r5, r6, lr}
e0015578:	e1a04000 	mov	r4, r0
e001557c:	e1a05001 	mov	r5, r1
e0015580:	ebffff0e 	bl	e00151c0 <tcbSchedDequeue>
e0015584:	e5845078 	str	r5, [r4, #120]	@ 0x78
e0015588:	e5943050 	ldr	r3, [r4, #80]	@ 0x50
e001558c:	e203300f 	and	r3, r3, #15
e0015590:	e2433001 	sub	r3, r3, #1
e0015594:	e3530001 	cmp	r3, #1
e0015598:	88bd8070 	pophi	{r4, r5, r6, pc}
e001559c:	e30c3000 	movw	r3, #49152	@ 0xc000
e00155a0:	e34e3001 	movt	r3, #57345	@ 0xe001
e00155a4:	e5933840 	ldr	r3, [r3, #2112]	@ 0x840
e00155a8:	e1530004 	cmp	r3, r4
e00155ac:	0a000002 	beq	e00155bc <setPriority+0x48>
e00155b0:	e1a00004 	mov	r0, r4
e00155b4:	ebfffe76 	bl	e0014f94 <possibleSwitchTo>
e00155b8:	e8bd8070 	pop	{r4, r5, r6, pc}
e00155bc:	ebfffd5d 	bl	e0014b38 <rescheduleRequired>
e00155c0:	e8bd8070 	pop	{r4, r5, r6, pc}

e00155c4 <tcbEPAppend>:
e00155c4:	e24dd008 	sub	sp, sp, #8
e00155c8:	e28dc008 	add	ip, sp, #8
e00155cc:	e90c000c 	stmdb	ip, {r2, r3}
e00155d0:	e1a03002 	mov	r3, r2
e00155d4:	e59d2004 	ldr	r2, [sp, #4]
e00155d8:	e3530000 	cmp	r3, #0
e00155dc:	15821090 	strne	r1, [r2, #144]	@ 0x90
e00155e0:	01a03001 	moveq	r3, r1
e00155e4:	e5812094 	str	r2, [r1, #148]	@ 0x94
e00155e8:	e3a02000 	mov	r2, #0
e00155ec:	e5812090 	str	r2, [r1, #144]	@ 0x90
e00155f0:	e5803000 	str	r3, [r0]
e00155f4:	e5801004 	str	r1, [r0, #4]
e00155f8:	e28dd008 	add	sp, sp, #8
e00155fc:	e12fff1e 	bx	lr

e0015600 <tcbEPDequeue>:
e0015600:	e52de004 	push	{lr}		@ (str lr, [sp, #-4]!)
e0015604:	e24dd00c 	sub	sp, sp, #12
e0015608:	e28dc008 	add	ip, sp, #8
e001560c:	e90c000c 	stmdb	ip, {r2, r3}
e0015610:	e1a02003 	mov	r2, r3
e0015614:	e5913094 	ldr	r3, [r1, #148]	@ 0x94
e0015618:	e3530000 	cmp	r3, #0
e001561c:	159dc000 	ldrne	ip, [sp]
e0015620:	1591e090 	ldrne	lr, [r1, #144]	@ 0x90
e0015624:	1583e090 	strne	lr, [r3, #144]	@ 0x90
e0015628:	0591c090 	ldreq	ip, [r1, #144]	@ 0x90
e001562c:	e5913090 	ldr	r3, [r1, #144]	@ 0x90
e0015630:	e3530000 	cmp	r3, #0
e0015634:	15911094 	ldrne	r1, [r1, #148]	@ 0x94
e0015638:	15831094 	strne	r1, [r3, #148]	@ 0x94
e001563c:	05912094 	ldreq	r2, [r1, #148]	@ 0x94
e0015640:	e580c000 	str	ip, [r0]
e0015644:	e5802004 	str	r2, [r0, #4]
e0015648:	e28dd00c 	add	sp, sp, #12
e001564c:	e49df004 	pop	{pc}		@ (ldr pc, [sp], #4)

e0015650 <cancelBadgedSends>:
e0015650:	e92d4ff0 	push	{r4, r5, r6, r7, r8, r9, sl, fp, lr}
e0015654:	e24dd014 	sub	sp, sp, #20
e0015658:	e5903000 	ldr	r3, [r0]
e001565c:	e2032003 	and	r2, r3, #3
e0015660:	e3520001 	cmp	r2, #1
e0015664:	0a000002 	beq	e0015674 <cancelBadgedSends+0x24>
e0015668:	e3130001 	tst	r3, #1
e001566c:	0a000033 	beq	e0015740 <cancelBadgedSends+0xf0>
e0015670:	ebffecab 	bl	e0010924 <halt>
e0015674:	e1a05000 	mov	r5, r0
e0015678:	e1a06001 	mov	r6, r1
e001567c:	e5908004 	ldr	r8, [r0, #4]
e0015680:	e3c3a00f 	bic	sl, r3, #15
e0015684:	e208200f 	and	r2, r8, #15
e0015688:	e5802004 	str	r2, [r0, #4]
e001568c:	e203200c 	and	r2, r3, #12
e0015690:	e5802000 	str	r2, [r0]
e0015694:	e3d8800f 	bics	r8, r8, #15
e0015698:	0a00002a 	beq	e0015748 <cancelBadgedSends+0xf8>
e001569c:	e1a04008 	mov	r4, r8
e00156a0:	e1a0b00d 	mov	fp, sp
e00156a4:	e28d9008 	add	r9, sp, #8
e00156a8:	ea000001 	b	e00156b4 <cancelBadgedSends+0x64>
e00156ac:	e3540000 	cmp	r4, #0
e00156b0:	0a000014 	beq	e0015708 <cancelBadgedSends+0xb8>
e00156b4:	e5943058 	ldr	r3, [r4, #88]	@ 0x58
e00156b8:	e1a07004 	mov	r7, r4
e00156bc:	e5944090 	ldr	r4, [r4, #144]	@ 0x90
e00156c0:	e1560223 	cmp	r6, r3, lsr #4
e00156c4:	1afffff8 	bne	e00156ac <cancelBadgedSends+0x5c>
e00156c8:	e3a01002 	mov	r1, #2
e00156cc:	e1a00007 	mov	r0, r7
e00156d0:	ebfffd3b 	bl	e0014bc4 <setThreadState>
e00156d4:	e1a00007 	mov	r0, r7
e00156d8:	ebfffcea 	bl	e0014a88 <tcbSchedEnqueue>
e00156dc:	e58d8008 	str	r8, [sp, #8]
e00156e0:	e58da00c 	str	sl, [sp, #12]
e00156e4:	e899000c 	ldm	r9, {r2, r3}
e00156e8:	e1a01007 	mov	r1, r7
e00156ec:	e1a0000b 	mov	r0, fp
e00156f0:	ebffffc2 	bl	e0015600 <tcbEPDequeue>
e00156f4:	e89b0003 	ldm	fp, {r0, r1}
e00156f8:	e8890003 	stm	r9, {r0, r1}
e00156fc:	e59d8008 	ldr	r8, [sp, #8]
e0015700:	e59da00c 	ldr	sl, [sp, #12]
e0015704:	eaffffe8 	b	e00156ac <cancelBadgedSends+0x5c>
e0015708:	e5953004 	ldr	r3, [r5, #4]
e001570c:	e203300f 	and	r3, r3, #15
e0015710:	e3c8200f 	bic	r2, r8, #15
e0015714:	e1833002 	orr	r3, r3, r2
e0015718:	e5853004 	str	r3, [r5, #4]
e001571c:	e5953000 	ldr	r3, [r5]
e0015720:	e203300f 	and	r3, r3, #15
e0015724:	e3caa00f 	bic	sl, sl, #15
e0015728:	e183a00a 	orr	sl, r3, sl
e001572c:	e3580000 	cmp	r8, #0
e0015730:	13caa003 	bicne	sl, sl, #3
e0015734:	138aa001 	orrne	sl, sl, #1
e0015738:	e585a000 	str	sl, [r5]
e001573c:	ebfffcfd 	bl	e0014b38 <rescheduleRequired>
e0015740:	e28dd014 	add	sp, sp, #20
e0015744:	e8bd8ff0 	pop	{r4, r5, r6, r7, r8, r9, sl, fp, pc}
e0015748:	e3c33003 	bic	r3, r3, #3
e001574c:	e5803000 	str	r3, [r0]
e0015750:	eafffff9 	b	e001573c <cancelBadgedSends+0xec>

e0015754 <invokeCNodeCancelBadgedSends>:
e0015754:	e52de004 	push	{lr}		@ (str lr, [sp, #-4]!)
e0015758:	e24dd00c 	sub	sp, sp, #12
e001575c:	e28d3008 	add	r3, sp, #8
e0015760:	e9030003 	stmdb	r3, {r0, r1}
e0015764:	e1b01220 	lsrs	r1, r0, #4
e0015768:	1a000002 	bne	e0015778 <invokeCNodeCancelBadgedSends+0x24>
e001576c:	e3a00000 	mov	r0, #0
e0015770:	e28dd00c 	add	sp, sp, #12
e0015774:	e49df004 	pop	{pc}		@ (ldr pc, [sp], #4)
e0015778:	e59d0004 	ldr	r0, [sp, #4]
e001577c:	e3c0000f 	bic	r0, r0, #15
e0015780:	ebffffb2 	bl	e0015650 <cancelBadgedSends>
e0015784:	eafffff8 	b	e001576c <invokeCNodeCancelBadgedSends+0x18>

e0015788 <cancelSignal>:
e0015788:	e92d40f0 	push	{r4, r5, r6, r7, lr}
e001578c:	e24dd014 	sub	sp, sp, #20
e0015790:	e1a05000 	mov	r5, r0
e0015794:	e1a04001 	mov	r4, r1
e0015798:	e5913000 	ldr	r3, [r1]
e001579c:	e3c3300f 	bic	r3, r3, #15
e00157a0:	e5912004 	ldr	r2, [r1, #4]
e00157a4:	e3c2200f 	bic	r2, r2, #15
e00157a8:	e58d2008 	str	r2, [sp, #8]
e00157ac:	e58d300c 	str	r3, [sp, #12]
e00157b0:	e1a0700d 	mov	r7, sp
e00157b4:	e28d6008 	add	r6, sp, #8
e00157b8:	e1a01000 	mov	r1, r0
e00157bc:	e1a00007 	mov	r0, r7
e00157c0:	ebffff8e 	bl	e0015600 <tcbEPDequeue>
e00157c4:	e8970003 	ldm	r7, {r0, r1}
e00157c8:	e8860003 	stm	r6, {r0, r1}
e00157cc:	e5943004 	ldr	r3, [r4, #4]
e00157d0:	e203300f 	and	r3, r3, #15
e00157d4:	e3c0200f 	bic	r2, r0, #15
e00157d8:	e1833002 	orr	r3, r3, r2
e00157dc:	e5843004 	str	r3, [r4, #4]
e00157e0:	e5943000 	ldr	r3, [r4]
e00157e4:	e203300f 	and	r3, r3, #15
e00157e8:	e59d200c 	ldr	r2, [sp, #12]
e00157ec:	e3c2200f 	bic	r2, r2, #15
e00157f0:	e1833002 	orr	r3, r3, r2
e00157f4:	e3500000 	cmp	r0, #0
e00157f8:	03c33003 	biceq	r3, r3, #3
e00157fc:	e5843000 	str	r3, [r4]
e0015800:	e3a01000 	mov	r1, #0
e0015804:	e1a00005 	mov	r0, r5
e0015808:	ebfffced 	bl	e0014bc4 <setThreadState>
e001580c:	e28dd014 	add	sp, sp, #20
e0015810:	e8bd80f0 	pop	{r4, r5, r6, r7, pc}

e0015814 <cancelIPC>:
e0015814:	e92d40f0 	push	{r4, r5, r6, r7, lr}
e0015818:	e24dd014 	sub	sp, sp, #20
e001581c:	e1a04000 	mov	r4, r0
e0015820:	e5901050 	ldr	r1, [r0, #80]	@ 0x50
e0015824:	e201300f 	and	r3, r1, #15
e0015828:	e3530005 	cmp	r3, #5
e001582c:	0a000028 	beq	e00158d4 <cancelIPC+0xc0>
e0015830:	8a000022 	bhi	e00158c0 <cancelIPC+0xac>
e0015834:	e2433003 	sub	r3, r3, #3
e0015838:	e3530001 	cmp	r3, #1
e001583c:	8a00001d 	bhi	e00158b8 <cancelIPC+0xa4>
e0015840:	e3c1500f 	bic	r5, r1, #15
e0015844:	e5953000 	ldr	r3, [r5]
e0015848:	e3c3300f 	bic	r3, r3, #15
e001584c:	e5952004 	ldr	r2, [r5, #4]
e0015850:	e3c2200f 	bic	r2, r2, #15
e0015854:	e58d2008 	str	r2, [sp, #8]
e0015858:	e58d300c 	str	r3, [sp, #12]
e001585c:	e1a0700d 	mov	r7, sp
e0015860:	e28d6008 	add	r6, sp, #8
e0015864:	e1a01000 	mov	r1, r0
e0015868:	e1a00007 	mov	r0, r7
e001586c:	ebffff63 	bl	e0015600 <tcbEPDequeue>
e0015870:	e8970003 	ldm	r7, {r0, r1}
e0015874:	e8860003 	stm	r6, {r0, r1}
e0015878:	e5953004 	ldr	r3, [r5, #4]
e001587c:	e203300f 	and	r3, r3, #15
e0015880:	e3c0200f 	bic	r2, r0, #15
e0015884:	e1833002 	orr	r3, r3, r2
e0015888:	e5853004 	str	r3, [r5, #4]
e001588c:	e5953000 	ldr	r3, [r5]
e0015890:	e203300f 	and	r3, r3, #15
e0015894:	e59d200c 	ldr	r2, [sp, #12]
e0015898:	e3c2200f 	bic	r2, r2, #15
e001589c:	e1833002 	orr	r3, r3, r2
e00158a0:	e3500000 	cmp	r0, #0
e00158a4:	03c33003 	biceq	r3, r3, #3
e00158a8:	e5853000 	str	r3, [r5]
e00158ac:	e3a01000 	mov	r1, #0
e00158b0:	e1a00004 	mov	r0, r4
e00158b4:	ebfffcc2 	bl	e0014bc4 <setThreadState>
e00158b8:	e28dd014 	add	sp, sp, #20
e00158bc:	e8bd80f0 	pop	{r4, r5, r6, r7, pc}
e00158c0:	e3530006 	cmp	r3, #6
e00158c4:	1afffffb 	bne	e00158b8 <cancelIPC+0xa4>
e00158c8:	e3c1100f 	bic	r1, r1, #15
e00158cc:	ebffffad 	bl	e0015788 <cancelSignal>
e00158d0:	eafffff8 	b	e00158b8 <cancelIPC+0xa4>
e00158d4:	e3a03000 	mov	r3, #0
e00158d8:	e5803060 	str	r3, [r0, #96]	@ 0x60
e00158dc:	e5803064 	str	r3, [r0, #100]	@ 0x64
e00158e0:	e3c04f7f 	bic	r4, r0, #508	@ 0x1fc
e00158e4:	e3c44003 	bic	r4, r4, #3
e00158e8:	e594002c 	ldr	r0, [r4, #44]	@ 0x2c
e00158ec:	e3d00007 	bics	r0, r0, #7
e00158f0:	0afffff0 	beq	e00158b8 <cancelIPC+0xa4>
e00158f4:	eb000317 	bl	e0016558 <cteDeleteOne>
e00158f8:	eaffffee 	b	e00158b8 <cancelIPC+0xa4>

e00158fc <suspend>:
e00158fc:	e92d4010 	push	{r4, lr}
e0015900:	e1a04000 	mov	r4, r0
e0015904:	ebffffc2 	bl	e0015814 <cancelIPC>
e0015908:	e5943050 	ldr	r3, [r4, #80]	@ 0x50
e001590c:	e203300f 	and	r3, r3, #15
e0015910:	e3530001 	cmp	r3, #1
e0015914:	0594303c 	ldreq	r3, [r4, #60]	@ 0x3c
e0015918:	05843044 	streq	r3, [r4, #68]	@ 0x44
e001591c:	e3a01000 	mov	r1, #0
e0015920:	e1a00004 	mov	r0, r4
e0015924:	ebfffca6 	bl	e0014bc4 <setThreadState>
e0015928:	e1a00004 	mov	r0, r4
e001592c:	ebfffe23 	bl	e00151c0 <tcbSchedDequeue>
e0015930:	e8bd8010 	pop	{r4, pc}

e0015934 <finaliseCap>:
e0015934:	e92d4070 	push	{r4, r5, r6, lr}
e0015938:	e24dd008 	sub	sp, sp, #8
e001593c:	e1a04000 	mov	r4, r0
e0015940:	e28d0008 	add	r0, sp, #8
e0015944:	e9000006 	stmdb	r0, {r1, r2}
e0015948:	e1a05001 	mov	r5, r1
e001594c:	e201200e 	and	r2, r1, #14
e0015950:	e352000e 	cmp	r2, #14
e0015954:	1201200f 	andne	r2, r1, #15
e0015958:	06ef2071 	uxtbeq	r2, r1
e001595c:	e3120001 	tst	r2, #1
e0015960:	1a00000e 	bne	e00159a0 <finaliseCap+0x6c>
e0015964:	e59d6004 	ldr	r6, [sp, #4]
e0015968:	e3520008 	cmp	r2, #8
e001596c:	8a000012 	bhi	e00159bc <finaliseCap+0x88>
e0015970:	e3520008 	cmp	r2, #8
e0015974:	979ff102 	ldrls	pc, [pc, r2, lsl #2]
e0015978:	ea000011 	b	e00159c4 <finaliseCap+0x90>
e001597c:	e0015a70 	.word	0xe0015a70
e0015980:	e00159c4 	.word	0xe00159c4
e0015984:	e00159c4 	.word	0xe00159c4
e0015988:	e00159c4 	.word	0xe00159c4
e001598c:	e0015a0c 	.word	0xe0015a0c
e0015990:	e00159c4 	.word	0xe00159c4
e0015994:	e0015a38 	.word	0xe0015a38
e0015998:	e00159c4 	.word	0xe00159c4
e001599c:	e0015a70 	.word	0xe0015a70
e00159a0:	e28d2008 	add	r2, sp, #8
e00159a4:	e9120006 	ldmdb	r2, {r1, r2}
e00159a8:	e1a00004 	mov	r0, r4
e00159ac:	ebfff394 	bl	e0012804 <Arch_finaliseCap>
e00159b0:	e1a00004 	mov	r0, r4
e00159b4:	e28dd008 	add	sp, sp, #8
e00159b8:	e8bd8070 	pop	{r4, r5, r6, pc}
e00159bc:	e352003e 	cmp	r2, #62	@ 0x3e
e00159c0:	0a00002a 	beq	e0015a70 <finaliseCap+0x13c>
e00159c4:	e59d1018 	ldr	r1, [sp, #24]
e00159c8:	e3510000 	cmp	r1, #0
e00159cc:	1a00002d 	bne	e0015a88 <finaliseCap+0x154>
e00159d0:	e352001e 	cmp	r2, #30
e00159d4:	0a000055 	beq	e0015b30 <finaliseCap+0x1fc>
e00159d8:	8a00002b 	bhi	e0015a8c <finaliseCap+0x158>
e00159dc:	e352000a 	cmp	r2, #10
e00159e0:	0a000031 	beq	e0015aac <finaliseCap+0x178>
e00159e4:	e352000c 	cmp	r2, #12
e00159e8:	1a000001 	bne	e00159f4 <finaliseCap+0xc0>
e00159ec:	e3530000 	cmp	r3, #0
e00159f0:	1a00003f 	bne	e0015af4 <finaliseCap+0x1c0>
e00159f4:	e3a03000 	mov	r3, #0
e00159f8:	e5843000 	str	r3, [r4]
e00159fc:	e5843004 	str	r3, [r4, #4]
e0015a00:	e5843008 	str	r3, [r4, #8]
e0015a04:	e584300c 	str	r3, [r4, #12]
e0015a08:	eaffffe8 	b	e00159b0 <finaliseCap+0x7c>
e0015a0c:	e3530000 	cmp	r3, #0
e0015a10:	1a000005 	bne	e0015a2c <finaliseCap+0xf8>
e0015a14:	e3a03000 	mov	r3, #0
e0015a18:	e5843000 	str	r3, [r4]
e0015a1c:	e5843004 	str	r3, [r4, #4]
e0015a20:	e5843008 	str	r3, [r4, #8]
e0015a24:	e584300c 	str	r3, [r4, #12]
e0015a28:	eaffffe0 	b	e00159b0 <finaliseCap+0x7c>
e0015a2c:	e3c6000f 	bic	r0, r6, #15
e0015a30:	ebfffd6e 	bl	e0014ff0 <cancelAllIPC>
e0015a34:	eafffff6 	b	e0015a14 <finaliseCap+0xe0>
e0015a38:	e3530000 	cmp	r3, #0
e0015a3c:	1a000005 	bne	e0015a58 <finaliseCap+0x124>
e0015a40:	e3a03000 	mov	r3, #0
e0015a44:	e5843000 	str	r3, [r4]
e0015a48:	e5843004 	str	r3, [r4, #4]
e0015a4c:	e5843008 	str	r3, [r4, #8]
e0015a50:	e584300c 	str	r3, [r4, #12]
e0015a54:	eaffffd5 	b	e00159b0 <finaliseCap+0x7c>
e0015a58:	e3c1500f 	bic	r5, r1, #15
e0015a5c:	e1a00005 	mov	r0, r5
e0015a60:	ebfff6ec 	bl	e0013618 <unbindMaybeNotification>
e0015a64:	e1a00005 	mov	r0, r5
e0015a68:	ebfffd76 	bl	e0015048 <cancelAllSignals>
e0015a6c:	eafffff3 	b	e0015a40 <finaliseCap+0x10c>
e0015a70:	e3a03000 	mov	r3, #0
e0015a74:	e5843000 	str	r3, [r4]
e0015a78:	e5843004 	str	r3, [r4, #4]
e0015a7c:	e5843008 	str	r3, [r4, #8]
e0015a80:	e584300c 	str	r3, [r4, #12]
e0015a84:	eaffffc9 	b	e00159b0 <finaliseCap+0x7c>
e0015a88:	ebffeba5 	bl	e0010924 <halt>
e0015a8c:	e352002e 	cmp	r2, #46	@ 0x2e
e0015a90:	1affffd7 	bne	e00159f4 <finaliseCap+0xc0>
e0015a94:	e5845000 	str	r5, [r4]
e0015a98:	e5846004 	str	r6, [r4, #4]
e0015a9c:	e3a03000 	mov	r3, #0
e0015aa0:	e5843008 	str	r3, [r4, #8]
e0015aa4:	e584300c 	str	r3, [r4, #12]
e0015aa8:	eaffffc0 	b	e00159b0 <finaliseCap+0x7c>
e0015aac:	e3530000 	cmp	r3, #0
e0015ab0:	0affffcf 	beq	e00159f4 <finaliseCap+0xc0>
e0015ab4:	e7e46956 	ubfx	r6, r6, #18, #5
e0015ab8:	e3c5501f 	bic	r5, r5, #31
e0015abc:	e1a03406 	lsl	r3, r6, #8
e0015ac0:	e383302e 	orr	r3, r3, #46	@ 0x2e
e0015ac4:	e5843000 	str	r3, [r4]
e0015ac8:	e2862001 	add	r2, r6, #1
e0015acc:	e3a03001 	mov	r3, #1
e0015ad0:	e0253613 	eor	r3, r5, r3, lsl r6
e0015ad4:	e3e01000 	mvn	r1, #0
e0015ad8:	e1c33211 	bic	r3, r3, r1, lsl r2
e0015adc:	e0233005 	eor	r3, r3, r5
e0015ae0:	e5843004 	str	r3, [r4, #4]
e0015ae4:	e3a03000 	mov	r3, #0
e0015ae8:	e5843008 	str	r3, [r4, #8]
e0015aec:	e584300c 	str	r3, [r4, #12]
e0015af0:	eaffffae 	b	e00159b0 <finaliseCap+0x7c>
e0015af4:	e3c5600f 	bic	r6, r5, #15
e0015af8:	e1a00006 	mov	r0, r6
e0015afc:	ebfff6cc 	bl	e0013634 <unbindNotification>
e0015b00:	e1a00006 	mov	r0, r6
e0015b04:	ebffff7c 	bl	e00158fc <suspend>
e0015b08:	e302302e 	movw	r3, #8238	@ 0x202e
e0015b0c:	e5843000 	str	r3, [r4]
e0015b10:	e3c55f7f 	bic	r5, r5, #508	@ 0x1fc
e0015b14:	e3c55003 	bic	r5, r5, #3
e0015b18:	e2255005 	eor	r5, r5, #5
e0015b1c:	e5845004 	str	r5, [r4, #4]
e0015b20:	e3a03000 	mov	r3, #0
e0015b24:	e5843008 	str	r3, [r4, #8]
e0015b28:	e584300c 	str	r3, [r4, #12]
e0015b2c:	eaffff9f 	b	e00159b0 <finaliseCap+0x7c>
e0015b30:	e3530000 	cmp	r3, #0
e0015b34:	0affffae 	beq	e00159f4 <finaliseCap+0xc0>
e0015b38:	e6ef0076 	uxtb	r0, r6
e0015b3c:	eb000302 	bl	e001674c <deletingIRQHandler>
e0015b40:	e3a03000 	mov	r3, #0
e0015b44:	e5843000 	str	r3, [r4]
e0015b48:	e5843004 	str	r3, [r4, #4]
e0015b4c:	e5845008 	str	r5, [r4, #8]
e0015b50:	e584600c 	str	r6, [r4, #12]
e0015b54:	eaffff95 	b	e00159b0 <finaliseCap+0x7c>

e0015b58 <cteDelete>:
e0015b58:	e92d4ff0 	push	{r4, r5, r6, r7, r8, r9, sl, fp, lr}
e0015b5c:	e24dd02c 	sub	sp, sp, #44	@ 0x2c
e0015b60:	e1a04000 	mov	r4, r0
e0015b64:	e1a07001 	mov	r7, r1
e0015b68:	e28d5008 	add	r5, sp, #8
e0015b6c:	e3a06000 	mov	r6, #0
e0015b70:	ea000032 	b	e0015c40 <cteDelete+0xe8>
e0015b74:	e21320ff 	ands	r2, r3, #255	@ 0xff
e0015b78:	0a000046 	beq	e0015c98 <cteDelete+0x140>
e0015b7c:	e352002e 	cmp	r2, #46	@ 0x2e
e0015b80:	1a000047 	bne	e0015ca4 <cteDelete+0x14c>
e0015b84:	e1a08423 	lsr	r8, r3, #8
e0015b88:	e208903f 	and	r9, r8, #63	@ 0x3f
e0015b8c:	e3590020 	cmp	r9, #32
e0015b90:	1208201f 	andne	r2, r8, #31
e0015b94:	03a02004 	moveq	r2, #4
e0015b98:	e59dc00c 	ldr	ip, [sp, #12]
e0015b9c:	e2820001 	add	r0, r2, #1
e0015ba0:	e3e01000 	mvn	r1, #0
e0015ba4:	e1dc1011 	bics	r1, ip, r1, lsl r0
e0015ba8:	0a00003a 	beq	e0015c98 <cteDelete+0x140>
e0015bac:	e3e02000 	mvn	r2, #0
e0015bb0:	e00c2012 	and	r2, ip, r2, lsl r0
e0015bb4:	e1540002 	cmp	r4, r2
e0015bb8:	03510001 	cmpeq	r1, #1
e0015bbc:	0a000035 	beq	e0015c98 <cteDelete+0x140>
e0015bc0:	e8950003 	ldm	r5, {r0, r1}
e0015bc4:	e8840003 	stm	r4, {r0, r1}
e0015bc8:	e3570000 	cmp	r7, #0
e0015bcc:	1a00005c 	bne	e0015d44 <cteDelete+0x1ec>
e0015bd0:	e35e000e 	cmp	lr, #14
e0015bd4:	1a00000a 	bne	e0015c04 <cteDelete+0xac>
e0015bd8:	e6ef3073 	uxtb	r3, r3
e0015bdc:	e353002e 	cmp	r3, #46	@ 0x2e
e0015be0:	1a000007 	bne	e0015c04 <cteDelete+0xac>
e0015be4:	e3590020 	cmp	r9, #32
e0015be8:	1208801f 	andne	r8, r8, #31
e0015bec:	03a08004 	moveq	r8, #4
e0015bf0:	e2888001 	add	r8, r8, #1
e0015bf4:	e3e03000 	mvn	r3, #0
e0015bf8:	e00cc813 	and	ip, ip, r3, lsl r8
e0015bfc:	e154000c 	cmp	r4, ip
e0015c00:	0a000028 	beq	e0015ca8 <cteDelete+0x150>
e0015c04:	e5940004 	ldr	r0, [r4, #4]
e0015c08:	e5943000 	ldr	r3, [r4]
e0015c0c:	e1a03423 	lsr	r3, r3, #8
e0015c10:	e203203f 	and	r2, r3, #63	@ 0x3f
e0015c14:	e3520020 	cmp	r2, #32
e0015c18:	0a000062 	beq	e0015da8 <cteDelete+0x250>
e0015c1c:	e203301f 	and	r3, r3, #31
e0015c20:	e2833001 	add	r3, r3, #1
e0015c24:	e3e02000 	mvn	r2, #0
e0015c28:	e0000312 	and	r0, r0, r2, lsl r3
e0015c2c:	e1a01004 	mov	r1, r4
e0015c30:	ebfff594 	bl	e0013288 <capSwapForDelete>
e0015c34:	ebfff4e9 	bl	e0012fe0 <preemptionPoint>
e0015c38:	e3500000 	cmp	r0, #0
e0015c3c:	1a00003b 	bne	e0015d30 <cteDelete+0x1d8>
e0015c40:	e5943000 	ldr	r3, [r4]
e0015c44:	e203200e 	and	r2, r3, #14
e0015c48:	e352000e 	cmp	r2, #14
e0015c4c:	1203300f 	andne	r3, r3, #15
e0015c50:	06ef3073 	uxtbeq	r3, r3
e0015c54:	e3530000 	cmp	r3, #0
e0015c58:	0a00002d 	beq	e0015d14 <cteDelete+0x1bc>
e0015c5c:	e1a00004 	mov	r0, r4
e0015c60:	ebfffab2 	bl	e0014730 <isFinalCapability>
e0015c64:	e1a03000 	mov	r3, r0
e0015c68:	e58d6000 	str	r6, [sp]
e0015c6c:	e8940006 	ldm	r4, {r1, r2}
e0015c70:	e1a00005 	mov	r0, r5
e0015c74:	ebffff2e 	bl	e0015934 <finaliseCap>
e0015c78:	e59db010 	ldr	fp, [sp, #16]
e0015c7c:	e59da014 	ldr	sl, [sp, #20]
e0015c80:	e59d3008 	ldr	r3, [sp, #8]
e0015c84:	e203e00e 	and	lr, r3, #14
e0015c88:	e35e000e 	cmp	lr, #14
e0015c8c:	0affffb8 	beq	e0015b74 <cteDelete+0x1c>
e0015c90:	e313000f 	tst	r3, #15
e0015c94:	1a000002 	bne	e0015ca4 <cteDelete+0x14c>
e0015c98:	e58db020 	str	fp, [sp, #32]
e0015c9c:	e58da024 	str	sl, [sp, #36]	@ 0x24
e0015ca0:	ea00001d 	b	e0015d1c <cteDelete+0x1c4>
e0015ca4:	ebffeb1e 	bl	e0010924 <halt>
e0015ca8:	e1a00007 	mov	r0, r7
e0015cac:	ea00001f 	b	e0015d30 <cteDelete+0x1d8>
e0015cb0:	e21320ff 	ands	r2, r3, #255	@ 0xff
e0015cb4:	0affffde 	beq	e0015c34 <cteDelete+0xdc>
e0015cb8:	e352002e 	cmp	r2, #46	@ 0x2e
e0015cbc:	1a000038 	bne	e0015da4 <cteDelete+0x24c>
e0015cc0:	e5941004 	ldr	r1, [r4, #4]
e0015cc4:	e1a03423 	lsr	r3, r3, #8
e0015cc8:	e203003f 	and	r0, r3, #63	@ 0x3f
e0015ccc:	e3500020 	cmp	r0, #32
e0015cd0:	1203301f 	andne	r3, r3, #31
e0015cd4:	03a03004 	moveq	r3, #4
e0015cd8:	e2833001 	add	r3, r3, #1
e0015cdc:	e3e02000 	mvn	r2, #0
e0015ce0:	e0012312 	and	r2, r1, r2, lsl r3
e0015ce4:	e1590002 	cmp	r9, r2
e0015ce8:	1affffd1 	bne	e0015c34 <cteDelete+0xdc>
e0015cec:	e3e0c000 	mvn	ip, #0
e0015cf0:	e1e0331c 	mvn	r3, ip, lsl r3
e0015cf4:	e0011003 	and	r1, r1, r3
e0015cf8:	e1510008 	cmp	r1, r8
e0015cfc:	0150000a 	cmpeq	r0, sl
e0015d00:	0088800c 	addeq	r8, r8, ip
e0015d04:	00033008 	andeq	r3, r3, r8
e0015d08:	01832002 	orreq	r2, r3, r2
e0015d0c:	05842004 	streq	r2, [r4, #4]
e0015d10:	eaffffc7 	b	e0015c34 <cteDelete+0xdc>
e0015d14:	e58d3020 	str	r3, [sp, #32]
e0015d18:	e58d3024 	str	r3, [sp, #36]	@ 0x24
e0015d1c:	e28d3028 	add	r3, sp, #40	@ 0x28
e0015d20:	e9130006 	ldmdb	r3, {r1, r2}
e0015d24:	e1a00004 	mov	r0, r4
e0015d28:	ebfff5fc 	bl	e0013520 <emptySlot>
e0015d2c:	e3a00000 	mov	r0, #0
e0015d30:	e28dd02c 	add	sp, sp, #44	@ 0x2c
e0015d34:	e8bd8ff0 	pop	{r4, r5, r6, r7, r8, r9, sl, fp, pc}
e0015d38:	e3c8901f 	bic	r9, r8, #31
e0015d3c:	e208801f 	and	r8, r8, #31
e0015d40:	ea00000b 	b	e0015d74 <cteDelete+0x21c>
e0015d44:	e5948004 	ldr	r8, [r4, #4]
e0015d48:	e5943000 	ldr	r3, [r4]
e0015d4c:	e1a03423 	lsr	r3, r3, #8
e0015d50:	e203a03f 	and	sl, r3, #63	@ 0x3f
e0015d54:	e35a0020 	cmp	sl, #32
e0015d58:	0afffff6 	beq	e0015d38 <cteDelete+0x1e0>
e0015d5c:	e203301f 	and	r3, r3, #31
e0015d60:	e2833001 	add	r3, r3, #1
e0015d64:	e3e09000 	mvn	r9, #0
e0015d68:	e0089319 	and	r9, r8, r9, lsl r3
e0015d6c:	e3e02000 	mvn	r2, #0
e0015d70:	e1c88312 	bic	r8, r8, r2, lsl r3
e0015d74:	e248021f 	sub	r0, r8, #-268435455	@ 0xf0000001
e0015d78:	e1a01006 	mov	r1, r6
e0015d7c:	e0890200 	add	r0, r9, r0, lsl #4
e0015d80:	ebffff74 	bl	e0015b58 <cteDelete>
e0015d84:	e3500000 	cmp	r0, #0
e0015d88:	1affffe8 	bne	e0015d30 <cteDelete+0x1d8>
e0015d8c:	e5943000 	ldr	r3, [r4]
e0015d90:	e203200e 	and	r2, r3, #14
e0015d94:	e352000e 	cmp	r2, #14
e0015d98:	0affffc4 	beq	e0015cb0 <cteDelete+0x158>
e0015d9c:	e313000f 	tst	r3, #15
e0015da0:	0affffa3 	beq	e0015c34 <cteDelete+0xdc>
e0015da4:	ebffeade 	bl	e0010924 <halt>
e0015da8:	e3c0001f 	bic	r0, r0, #31
e0015dac:	eaffff9e 	b	e0015c2c <cteDelete+0xd4>

e0015db0 <invokeCNodeDelete>:
e0015db0:	e92d4010 	push	{r4, lr}
e0015db4:	e3a01001 	mov	r1, #1
e0015db8:	ebffff66 	bl	e0015b58 <cteDelete>
e0015dbc:	e8bd8010 	pop	{r4, pc}

e0015dc0 <cteRevoke>:
e0015dc0:	e92d4070 	push	{r4, r5, r6, lr}
e0015dc4:	e1a05000 	mov	r5, r0
e0015dc8:	e590300c 	ldr	r3, [r0, #12]
e0015dcc:	e3c30007 	bic	r0, r3, #7
e0015dd0:	e3500000 	cmp	r0, #0
e0015dd4:	08bd8070 	popeq	{r4, r5, r6, pc}
e0015dd8:	e1a04000 	mov	r4, r0
e0015ddc:	e3a06001 	mov	r6, #1
e0015de0:	e1a01004 	mov	r1, r4
e0015de4:	e1a00005 	mov	r0, r5
e0015de8:	ebfff9bc 	bl	e00144e0 <isMDBParentOf>
e0015dec:	e3500000 	cmp	r0, #0
e0015df0:	08bd8070 	popeq	{r4, r5, r6, pc}
e0015df4:	e1a01006 	mov	r1, r6
e0015df8:	e1a00004 	mov	r0, r4
e0015dfc:	ebffff55 	bl	e0015b58 <cteDelete>
e0015e00:	e3500000 	cmp	r0, #0
e0015e04:	18bd8070 	popne	{r4, r5, r6, pc}
e0015e08:	ebfff474 	bl	e0012fe0 <preemptionPoint>
e0015e0c:	e3500000 	cmp	r0, #0
e0015e10:	18bd8070 	popne	{r4, r5, r6, pc}
e0015e14:	e595000c 	ldr	r0, [r5, #12]
e0015e18:	e3c00007 	bic	r0, r0, #7
e0015e1c:	e1a04000 	mov	r4, r0
e0015e20:	e3500000 	cmp	r0, #0
e0015e24:	1affffed 	bne	e0015de0 <cteRevoke+0x20>
e0015e28:	e8bd8070 	pop	{r4, r5, r6, pc}

e0015e2c <invokeCNodeRevoke>:
e0015e2c:	e92d4010 	push	{r4, lr}
e0015e30:	ebffffe2 	bl	e0015dc0 <cteRevoke>
e0015e34:	e8bd8010 	pop	{r4, pc}

e0015e38 <decodeCNodeInvocation>:
e0015e38:	e92d4ff0 	push	{r4, r5, r6, r7, r8, r9, sl, fp, lr}
e0015e3c:	e24dd05c 	sub	sp, sp, #92	@ 0x5c
e0015e40:	e1a06001 	mov	r6, r1
e0015e44:	e28d1010 	add	r1, sp, #16
e0015e48:	e881000c 	stm	r1, {r2, r3}
e0015e4c:	e2403010 	sub	r3, r0, #16
e0015e50:	e3530008 	cmp	r3, #8
e0015e54:	8a00003f 	bhi	e0015f58 <decodeCNodeInvocation+0x120>
e0015e58:	e1a04000 	mov	r4, r0
e0015e5c:	e3560001 	cmp	r6, #1
e0015e60:	9a000042 	bls	e0015f70 <decodeCNodeInvocation+0x138>
e0015e64:	e30c3000 	movw	r3, #49152	@ 0xc000
e0015e68:	e34e3001 	movt	r3, #57345	@ 0xe001
e0015e6c:	e5932840 	ldr	r2, [r3, #2112]	@ 0x840
e0015e70:	e5923008 	ldr	r3, [r2, #8]
e0015e74:	e592200c 	ldr	r2, [r2, #12]
e0015e78:	e58d2000 	str	r2, [sp]
e0015e7c:	e28d2010 	add	r2, sp, #16
e0015e80:	e8920006 	ldm	r2, {r1, r2}
e0015e84:	e28d0048 	add	r0, sp, #72	@ 0x48
e0015e88:	ebfff41c 	bl	e0012f00 <lookupTargetSlot>
e0015e8c:	e59d5048 	ldr	r5, [sp, #72]	@ 0x48
e0015e90:	e3550000 	cmp	r5, #0
e0015e94:	1a00003a 	bne	e0015f84 <decodeCNodeInvocation+0x14c>
e0015e98:	e59d704c 	ldr	r7, [sp, #76]	@ 0x4c
e0015e9c:	e2443013 	sub	r3, r4, #19
e0015ea0:	e3530003 	cmp	r3, #3
e0015ea4:	8a0000cb 	bhi	e00161d8 <decodeCNodeInvocation+0x3a0>
e0015ea8:	e3560003 	cmp	r6, #3
e0015eac:	9a000037 	bls	e0015f90 <decodeCNodeInvocation+0x158>
e0015eb0:	e30c3000 	movw	r3, #49152	@ 0xc000
e0015eb4:	e34e3001 	movt	r3, #57345	@ 0xe001
e0015eb8:	e5933b08 	ldr	r3, [r3, #2824]	@ 0xb08
e0015ebc:	e3530000 	cmp	r3, #0
e0015ec0:	0a000032 	beq	e0015f90 <decodeCNodeInvocation+0x158>
e0015ec4:	e30c2000 	movw	r2, #49152	@ 0xc000
e0015ec8:	e34e2001 	movt	r2, #57345	@ 0xe001
e0015ecc:	e5922840 	ldr	r2, [r2, #2112]	@ 0x840
e0015ed0:	e5929010 	ldr	r9, [r2, #16]
e0015ed4:	e5928014 	ldr	r8, [r2, #20]
e0015ed8:	e28d201c 	add	r2, sp, #28
e0015edc:	e8930003 	ldm	r3, {r0, r1}
e0015ee0:	e8820003 	stm	r2, {r0, r1}
e0015ee4:	e1a00007 	mov	r0, r7
e0015ee8:	ebfff527 	bl	e001338c <ensureEmptySlot>
e0015eec:	e2505000 	subs	r5, r0, #0
e0015ef0:	1a000023 	bne	e0015f84 <decodeCNodeInvocation+0x14c>
e0015ef4:	e58d8000 	str	r8, [sp]
e0015ef8:	e1a03009 	mov	r3, r9
e0015efc:	e28d201c 	add	r2, sp, #28
e0015f00:	e8920006 	ldm	r2, {r1, r2}
e0015f04:	e28d0048 	add	r0, sp, #72	@ 0x48
e0015f08:	ebfff3ee 	bl	e0012ec8 <lookupSourceSlot>
e0015f0c:	e59d5048 	ldr	r5, [sp, #72]	@ 0x48
e0015f10:	e3550000 	cmp	r5, #0
e0015f14:	1a00001a 	bne	e0015f84 <decodeCNodeInvocation+0x14c>
e0015f18:	e59da04c 	ldr	sl, [sp, #76]	@ 0x4c
e0015f1c:	e59a9000 	ldr	r9, [sl]
e0015f20:	e209300e 	and	r3, r9, #14
e0015f24:	e353000e 	cmp	r3, #14
e0015f28:	1209300f 	andne	r3, r9, #15
e0015f2c:	06ef3079 	uxtbeq	r3, r9
e0015f30:	e3530000 	cmp	r3, #0
e0015f34:	0a00001b 	beq	e0015fa8 <decodeCNodeInvocation+0x170>
e0015f38:	e2444013 	sub	r4, r4, #19
e0015f3c:	e3540003 	cmp	r4, #3
e0015f40:	979ff104 	ldrls	pc, [pc, r4, lsl #2]
e0015f44:	ea00000e 	b	e0015f84 <decodeCNodeInvocation+0x14c>
e0015f48:	e0015fe0 	.word	0xe0015fe0
e0015f4c:	e0016050 	.word	0xe0016050
e0015f50:	e00160e4 	.word	0xe00160e4
e0015f54:	e0016124 	.word	0xe0016124
e0015f58:	e30c3000 	movw	r3, #49152	@ 0xc000
e0015f5c:	e34e3001 	movt	r3, #57345	@ 0xe001
e0015f60:	e3a00003 	mov	r0, #3
e0015f64:	e5830864 	str	r0, [r3, #2148]	@ 0x864
e0015f68:	e1a05000 	mov	r5, r0
e0015f6c:	ea000004 	b	e0015f84 <decodeCNodeInvocation+0x14c>
e0015f70:	e30c3000 	movw	r3, #49152	@ 0xc000
e0015f74:	e34e3001 	movt	r3, #57345	@ 0xe001
e0015f78:	e3a02007 	mov	r2, #7
e0015f7c:	e5832864 	str	r2, [r3, #2148]	@ 0x864
e0015f80:	e3a05003 	mov	r5, #3
e0015f84:	e1a00005 	mov	r0, r5
e0015f88:	e28dd05c 	add	sp, sp, #92	@ 0x5c
e0015f8c:	e8bd8ff0 	pop	{r4, r5, r6, r7, r8, r9, sl, fp, pc}
e0015f90:	e30c3000 	movw	r3, #49152	@ 0xc000
e0015f94:	e34e3001 	movt	r3, #57345	@ 0xe001
e0015f98:	e3a02007 	mov	r2, #7
e0015f9c:	e5832864 	str	r2, [r3, #2148]	@ 0x864
e0015fa0:	e3a05003 	mov	r5, #3
e0015fa4:	eafffff6 	b	e0015f84 <decodeCNodeInvocation+0x14c>
e0015fa8:	e30c2000 	movw	r2, #49152	@ 0xc000
e0015fac:	e34e2001 	movt	r2, #57345	@ 0xe001
e0015fb0:	e3a03006 	mov	r3, #6
e0015fb4:	e5823864 	str	r3, [r2, #2148]	@ 0x864
e0015fb8:	e3a03001 	mov	r3, #1
e0015fbc:	e5823860 	str	r3, [r2, #2144]	@ 0x860
e0015fc0:	e1a03108 	lsl	r3, r8, #2
e0015fc4:	e6ef3073 	uxtb	r3, r3
e0015fc8:	e3833001 	orr	r3, r3, #1
e0015fcc:	e5823844 	str	r3, [r2, #2116]	@ 0x844
e0015fd0:	e3a03000 	mov	r3, #0
e0015fd4:	e5823848 	str	r3, [r2, #2120]	@ 0x848
e0015fd8:	e3a05003 	mov	r5, #3
e0015fdc:	eaffffe8 	b	e0015f84 <decodeCNodeInvocation+0x14c>
e0015fe0:	e3560004 	cmp	r6, #4
e0015fe4:	8a000005 	bhi	e0016000 <decodeCNodeInvocation+0x1c8>
e0015fe8:	e30c3000 	movw	r3, #49152	@ 0xc000
e0015fec:	e34e3001 	movt	r3, #57345	@ 0xe001
e0015ff0:	e3a02007 	mov	r2, #7
e0015ff4:	e5832864 	str	r2, [r3, #2148]	@ 0x864
e0015ff8:	e3a05003 	mov	r5, #3
e0015ffc:	eaffffe0 	b	e0015f84 <decodeCNodeInvocation+0x14c>
e0016000:	e28d402c 	add	r4, sp, #44	@ 0x2c
e0016004:	e89a000c 	ldm	sl, {r2, r3}
e0016008:	e59d1080 	ldr	r1, [sp, #128]	@ 0x80
e001600c:	e5911014 	ldr	r1, [r1, #20]
e0016010:	e1a00004 	mov	r0, r4
e0016014:	ebfff5ff 	bl	e0013818 <maskCapRights>
e0016018:	e894000c 	ldm	r4, {r2, r3}
e001601c:	e1a0100a 	mov	r1, sl
e0016020:	e28d003c 	add	r0, sp, #60	@ 0x3c
e0016024:	ebfff967 	bl	e00145c8 <deriveCap>
e0016028:	e59d403c 	ldr	r4, [sp, #60]	@ 0x3c
e001602c:	e3540000 	cmp	r4, #0
e0016030:	11a05004 	movne	r5, r4
e0016034:	1affffd2 	bne	e0015f84 <decodeCNodeInvocation+0x14c>
e0016038:	e59d9040 	ldr	r9, [sp, #64]	@ 0x40
e001603c:	e28d3024 	add	r3, sp, #36	@ 0x24
e0016040:	e28d2040 	add	r2, sp, #64	@ 0x40
e0016044:	e8920003 	ldm	r2, {r0, r1}
e0016048:	e8830003 	stm	r3, {r0, r1}
e001604c:	ea000028 	b	e00160f4 <decodeCNodeInvocation+0x2bc>
e0016050:	e3560005 	cmp	r6, #5
e0016054:	8a000005 	bhi	e0016070 <decodeCNodeInvocation+0x238>
e0016058:	e30c3000 	movw	r3, #49152	@ 0xc000
e001605c:	e34e3001 	movt	r3, #57345	@ 0xe001
e0016060:	e3a02007 	mov	r2, #7
e0016064:	e5832864 	str	r2, [r3, #2148]	@ 0x864
e0016068:	e3a05003 	mov	r5, #3
e001606c:	eaffffc4 	b	e0015f84 <decodeCNodeInvocation+0x14c>
e0016070:	e59d3080 	ldr	r3, [sp, #128]	@ 0x80
e0016074:	e5936018 	ldr	r6, [r3, #24]
e0016078:	e89a000c 	ldm	sl, {r2, r3}
e001607c:	e59d1080 	ldr	r1, [sp, #128]	@ 0x80
e0016080:	e5911014 	ldr	r1, [r1, #20]
e0016084:	e28d002c 	add	r0, sp, #44	@ 0x2c
e0016088:	ebfff5e2 	bl	e0013818 <maskCapRights>
e001608c:	e28d4050 	add	r4, sp, #80	@ 0x50
e0016090:	e59d3030 	ldr	r3, [sp, #48]	@ 0x30
e0016094:	e58d3000 	str	r3, [sp]
e0016098:	e59d302c 	ldr	r3, [sp, #44]	@ 0x2c
e001609c:	e1a02006 	mov	r2, r6
e00160a0:	e3a01000 	mov	r1, #0
e00160a4:	e1a00004 	mov	r0, r4
e00160a8:	ebfff59d 	bl	e0013724 <updateCapData>
e00160ac:	e894000c 	ldm	r4, {r2, r3}
e00160b0:	e1a0100a 	mov	r1, sl
e00160b4:	e28d003c 	add	r0, sp, #60	@ 0x3c
e00160b8:	ebfff942 	bl	e00145c8 <deriveCap>
e00160bc:	e59d403c 	ldr	r4, [sp, #60]	@ 0x3c
e00160c0:	e3540000 	cmp	r4, #0
e00160c4:	11a05004 	movne	r5, r4
e00160c8:	1affffad 	bne	e0015f84 <decodeCNodeInvocation+0x14c>
e00160cc:	e59d9040 	ldr	r9, [sp, #64]	@ 0x40
e00160d0:	e28d3024 	add	r3, sp, #36	@ 0x24
e00160d4:	e28d2040 	add	r2, sp, #64	@ 0x40
e00160d8:	e8920003 	ldm	r2, {r0, r1}
e00160dc:	e8830003 	stm	r3, {r0, r1}
e00160e0:	ea000003 	b	e00160f4 <decodeCNodeInvocation+0x2bc>
e00160e4:	e28d3024 	add	r3, sp, #36	@ 0x24
e00160e8:	e89a0003 	ldm	sl, {r0, r1}
e00160ec:	e8830003 	stm	r3, {r0, r1}
e00160f0:	e3a04001 	mov	r4, #1
e00160f4:	e209300e 	and	r3, r9, #14
e00160f8:	e353000e 	cmp	r3, #14
e00160fc:	1209300f 	andne	r3, r9, #15
e0016100:	06ef3079 	uxtbeq	r3, r9
e0016104:	e3530000 	cmp	r3, #0
e0016108:	1a000018 	bne	e0016170 <decodeCNodeInvocation+0x338>
e001610c:	e30c3000 	movw	r3, #49152	@ 0xc000
e0016110:	e34e3001 	movt	r3, #57345	@ 0xe001
e0016114:	e3a00003 	mov	r0, #3
e0016118:	e5830864 	str	r0, [r3, #2148]	@ 0x864
e001611c:	e1a05000 	mov	r5, r0
e0016120:	eaffff97 	b	e0015f84 <decodeCNodeInvocation+0x14c>
e0016124:	e3560004 	cmp	r6, #4
e0016128:	9a00000a 	bls	e0016158 <decodeCNodeInvocation+0x320>
e001612c:	e59a3004 	ldr	r3, [sl, #4]
e0016130:	e58d3000 	str	r3, [sp]
e0016134:	e59a3000 	ldr	r3, [sl]
e0016138:	e59d2080 	ldr	r2, [sp, #128]	@ 0x80
e001613c:	e5922014 	ldr	r2, [r2, #20]
e0016140:	e3a01001 	mov	r1, #1
e0016144:	e28d0024 	add	r0, sp, #36	@ 0x24
e0016148:	ebfff575 	bl	e0013724 <updateCapData>
e001614c:	e59d9024 	ldr	r9, [sp, #36]	@ 0x24
e0016150:	e3a04001 	mov	r4, #1
e0016154:	eaffffe6 	b	e00160f4 <decodeCNodeInvocation+0x2bc>
e0016158:	e30c3000 	movw	r3, #49152	@ 0xc000
e001615c:	e34e3001 	movt	r3, #57345	@ 0xe001
e0016160:	e3a02007 	mov	r2, #7
e0016164:	e5832864 	str	r2, [r3, #2148]	@ 0x864
e0016168:	e3a05003 	mov	r5, #3
e001616c:	eaffff84 	b	e0015f84 <decodeCNodeInvocation+0x14c>
e0016170:	e30c3000 	movw	r3, #49152	@ 0xc000
e0016174:	e34e3001 	movt	r3, #57345	@ 0xe001
e0016178:	e3a01002 	mov	r1, #2
e001617c:	e5930840 	ldr	r0, [r3, #2112]	@ 0x840
e0016180:	ebfffa8f 	bl	e0014bc4 <setThreadState>
e0016184:	e3540000 	cmp	r4, #0
e0016188:	0a000008 	beq	e00161b0 <decodeCNodeInvocation+0x378>
e001618c:	e58d9024 	str	r9, [sp, #36]	@ 0x24
e0016190:	e28dc034 	add	ip, sp, #52	@ 0x34
e0016194:	e28d3024 	add	r3, sp, #36	@ 0x24
e0016198:	e8930003 	ldm	r3, {r0, r1}
e001619c:	e88c0003 	stm	ip, {r0, r1}
e00161a0:	e1a03007 	mov	r3, r7
e00161a4:	e1a0200a 	mov	r2, sl
e00161a8:	ebfff3a3 	bl	e001303c <cteMove>
e00161ac:	eaffff74 	b	e0015f84 <decodeCNodeInvocation+0x14c>
e00161b0:	e58d9024 	str	r9, [sp, #36]	@ 0x24
e00161b4:	e28dc034 	add	ip, sp, #52	@ 0x34
e00161b8:	e28d3024 	add	r3, sp, #36	@ 0x24
e00161bc:	e8930003 	ldm	r3, {r0, r1}
e00161c0:	e88c0003 	stm	ip, {r0, r1}
e00161c4:	e1a03007 	mov	r3, r7
e00161c8:	e1a0200a 	mov	r2, sl
e00161cc:	ebfff9c9 	bl	e00148f8 <cteInsert>
e00161d0:	e1a05004 	mov	r5, r4
e00161d4:	eaffff6a 	b	e0015f84 <decodeCNodeInvocation+0x14c>
e00161d8:	e3540010 	cmp	r4, #16
e00161dc:	0a00006e 	beq	e001639c <decodeCNodeInvocation+0x564>
e00161e0:	e3540011 	cmp	r4, #17
e00161e4:	0a000075 	beq	e00163c0 <decodeCNodeInvocation+0x588>
e00161e8:	e3540018 	cmp	r4, #24
e00161ec:	0a00007c 	beq	e00163e4 <decodeCNodeInvocation+0x5ac>
e00161f0:	e3540012 	cmp	r4, #18
e00161f4:	0a000087 	beq	e0016418 <decodeCNodeInvocation+0x5e0>
e00161f8:	e3540017 	cmp	r4, #23
e00161fc:	1affff60 	bne	e0015f84 <decodeCNodeInvocation+0x14c>
e0016200:	e3560007 	cmp	r6, #7
e0016204:	9a000099 	bls	e0016470 <decodeCNodeInvocation+0x638>
e0016208:	e30c3000 	movw	r3, #49152	@ 0xc000
e001620c:	e34e3001 	movt	r3, #57345	@ 0xe001
e0016210:	e5932b08 	ldr	r2, [r3, #2824]	@ 0xb08
e0016214:	e3520000 	cmp	r2, #0
e0016218:	0a000094 	beq	e0016470 <decodeCNodeInvocation+0x638>
e001621c:	e30c3000 	movw	r3, #49152	@ 0xc000
e0016220:	e34e3001 	movt	r3, #57345	@ 0xe001
e0016224:	e5933b0c 	ldr	r3, [r3, #2828]	@ 0xb0c
e0016228:	e3530000 	cmp	r3, #0
e001622c:	0a00008f 	beq	e0016470 <decodeCNodeInvocation+0x638>
e0016230:	e30c1000 	movw	r1, #49152	@ 0xc000
e0016234:	e34e1001 	movt	r1, #57345	@ 0xe001
e0016238:	e5911840 	ldr	r1, [r1, #2112]	@ 0x840
e001623c:	e5919010 	ldr	r9, [r1, #16]
e0016240:	e5918014 	ldr	r8, [r1, #20]
e0016244:	e59d1080 	ldr	r1, [sp, #128]	@ 0x80
e0016248:	e5916014 	ldr	r6, [r1, #20]
e001624c:	e591a018 	ldr	sl, [r1, #24]
e0016250:	e5914020 	ldr	r4, [r1, #32]
e0016254:	e28dc024 	add	ip, sp, #36	@ 0x24
e0016258:	e8920003 	ldm	r2, {r0, r1}
e001625c:	e88c0003 	stm	ip, {r0, r1}
e0016260:	e28d202c 	add	r2, sp, #44	@ 0x2c
e0016264:	e8930003 	ldm	r3, {r0, r1}
e0016268:	e8820003 	stm	r2, {r0, r1}
e001626c:	e58d4000 	str	r4, [sp]
e0016270:	e59d3080 	ldr	r3, [sp, #128]	@ 0x80
e0016274:	e593301c 	ldr	r3, [r3, #28]
e0016278:	e8920006 	ldm	r2, {r1, r2}
e001627c:	e28d0048 	add	r0, sp, #72	@ 0x48
e0016280:	ebfff310 	bl	e0012ec8 <lookupSourceSlot>
e0016284:	e59d5048 	ldr	r5, [sp, #72]	@ 0x48
e0016288:	e3550000 	cmp	r5, #0
e001628c:	1affff3c 	bne	e0015f84 <decodeCNodeInvocation+0x14c>
e0016290:	e59db04c 	ldr	fp, [sp, #76]	@ 0x4c
e0016294:	e58d6000 	str	r6, [sp]
e0016298:	e1a03008 	mov	r3, r8
e001629c:	e28d2024 	add	r2, sp, #36	@ 0x24
e00162a0:	e8920006 	ldm	r2, {r1, r2}
e00162a4:	e28d0048 	add	r0, sp, #72	@ 0x48
e00162a8:	ebfff322 	bl	e0012f38 <lookupPivotSlot>
e00162ac:	e59d5048 	ldr	r5, [sp, #72]	@ 0x48
e00162b0:	e3550000 	cmp	r5, #0
e00162b4:	1affff32 	bne	e0015f84 <decodeCNodeInvocation+0x14c>
e00162b8:	e59d804c 	ldr	r8, [sp, #76]	@ 0x4c
e00162bc:	e1570008 	cmp	r7, r8
e00162c0:	115b0008 	cmpne	fp, r8
e00162c4:	0a00006f 	beq	e0016488 <decodeCNodeInvocation+0x650>
e00162c8:	e157000b 	cmp	r7, fp
e00162cc:	0a000003 	beq	e00162e0 <decodeCNodeInvocation+0x4a8>
e00162d0:	e1a00007 	mov	r0, r7
e00162d4:	ebfff42c 	bl	e001338c <ensureEmptySlot>
e00162d8:	e2505000 	subs	r5, r0, #0
e00162dc:	1affff28 	bne	e0015f84 <decodeCNodeInvocation+0x14c>
e00162e0:	e59b3000 	ldr	r3, [fp]
e00162e4:	e203200e 	and	r2, r3, #14
e00162e8:	e352000e 	cmp	r2, #14
e00162ec:	1203300f 	andne	r3, r3, #15
e00162f0:	06ef3073 	uxtbeq	r3, r3
e00162f4:	e3530000 	cmp	r3, #0
e00162f8:	0a000067 	beq	e001649c <decodeCNodeInvocation+0x664>
e00162fc:	e5983000 	ldr	r3, [r8]
e0016300:	e203200e 	and	r2, r3, #14
e0016304:	e352000e 	cmp	r2, #14
e0016308:	1203300f 	andne	r3, r3, #15
e001630c:	06ef3073 	uxtbeq	r3, r3
e0016310:	e3530000 	cmp	r3, #0
e0016314:	0a00006e 	beq	e00164d4 <decodeCNodeInvocation+0x69c>
e0016318:	e59b3004 	ldr	r3, [fp, #4]
e001631c:	e58d3000 	str	r3, [sp]
e0016320:	e59b3000 	ldr	r3, [fp]
e0016324:	e1a0200a 	mov	r2, sl
e0016328:	e3a01001 	mov	r1, #1
e001632c:	e28d0034 	add	r0, sp, #52	@ 0x34
e0016330:	ebfff4fb 	bl	e0013724 <updateCapData>
e0016334:	e5983004 	ldr	r3, [r8, #4]
e0016338:	e58d3000 	str	r3, [sp]
e001633c:	e5983000 	ldr	r3, [r8]
e0016340:	e1a02009 	mov	r2, r9
e0016344:	e3a01001 	mov	r1, #1
e0016348:	e28d003c 	add	r0, sp, #60	@ 0x3c
e001634c:	ebfff4f4 	bl	e0013724 <updateCapData>
e0016350:	e59d3034 	ldr	r3, [sp, #52]	@ 0x34
e0016354:	e203200e 	and	r2, r3, #14
e0016358:	e352000e 	cmp	r2, #14
e001635c:	1203300f 	andne	r3, r3, #15
e0016360:	06ef3073 	uxtbeq	r3, r3
e0016364:	e3530000 	cmp	r3, #0
e0016368:	0a000066 	beq	e0016508 <decodeCNodeInvocation+0x6d0>
e001636c:	e59d303c 	ldr	r3, [sp, #60]	@ 0x3c
e0016370:	e203200e 	and	r2, r3, #14
e0016374:	e352000e 	cmp	r2, #14
e0016378:	1203300f 	andne	r3, r3, #15
e001637c:	06ef3073 	uxtbeq	r3, r3
e0016380:	e3530000 	cmp	r3, #0
e0016384:	1a000064 	bne	e001651c <decodeCNodeInvocation+0x6e4>
e0016388:	e30c3000 	movw	r3, #49152	@ 0xc000
e001638c:	e34e3001 	movt	r3, #57345	@ 0xe001
e0016390:	e3a05003 	mov	r5, #3
e0016394:	e5835864 	str	r5, [r3, #2148]	@ 0x864
e0016398:	eafffef9 	b	e0015f84 <decodeCNodeInvocation+0x14c>
e001639c:	e30c3000 	movw	r3, #49152	@ 0xc000
e00163a0:	e34e3001 	movt	r3, #57345	@ 0xe001
e00163a4:	e3a01002 	mov	r1, #2
e00163a8:	e5930840 	ldr	r0, [r3, #2112]	@ 0x840
e00163ac:	ebfffa04 	bl	e0014bc4 <setThreadState>
e00163b0:	e1a00007 	mov	r0, r7
e00163b4:	ebfffe81 	bl	e0015dc0 <cteRevoke>
e00163b8:	e1a05000 	mov	r5, r0
e00163bc:	eafffef0 	b	e0015f84 <decodeCNodeInvocation+0x14c>
e00163c0:	e30c3000 	movw	r3, #49152	@ 0xc000
e00163c4:	e34e3001 	movt	r3, #57345	@ 0xe001
e00163c8:	e3a01002 	mov	r1, #2
e00163cc:	e5930840 	ldr	r0, [r3, #2112]	@ 0x840
e00163d0:	ebfff9fb 	bl	e0014bc4 <setThreadState>
e00163d4:	e1a00007 	mov	r0, r7
e00163d8:	ebfffe74 	bl	e0015db0 <invokeCNodeDelete>
e00163dc:	e1a05000 	mov	r5, r0
e00163e0:	eafffee7 	b	e0015f84 <decodeCNodeInvocation+0x14c>
e00163e4:	e1a00007 	mov	r0, r7
e00163e8:	ebfff3e7 	bl	e001338c <ensureEmptySlot>
e00163ec:	e2505000 	subs	r5, r0, #0
e00163f0:	1afffee3 	bne	e0015f84 <decodeCNodeInvocation+0x14c>
e00163f4:	e30c3000 	movw	r3, #49152	@ 0xc000
e00163f8:	e34e3001 	movt	r3, #57345	@ 0xe001
e00163fc:	e3a01002 	mov	r1, #2
e0016400:	e5930840 	ldr	r0, [r3, #2112]	@ 0x840
e0016404:	ebfff9ee 	bl	e0014bc4 <setThreadState>
e0016408:	e1a00007 	mov	r0, r7
e001640c:	ebfff330 	bl	e00130d4 <invokeCNodeSaveCaller>
e0016410:	e1a05000 	mov	r5, r0
e0016414:	eafffeda 	b	e0015f84 <decodeCNodeInvocation+0x14c>
e0016418:	e28d303c 	add	r3, sp, #60	@ 0x3c
e001641c:	e8970003 	ldm	r7, {r0, r1}
e0016420:	e8830003 	stm	r3, {r0, r1}
e0016424:	ebfff4a7 	bl	e00136c8 <hasCancelSendRights>
e0016428:	e3500000 	cmp	r0, #0
e001642c:	1a000005 	bne	e0016448 <decodeCNodeInvocation+0x610>
e0016430:	e30c3000 	movw	r3, #49152	@ 0xc000
e0016434:	e34e3001 	movt	r3, #57345	@ 0xe001
e0016438:	e3a00003 	mov	r0, #3
e001643c:	e5830864 	str	r0, [r3, #2148]	@ 0x864
e0016440:	e1a05000 	mov	r5, r0
e0016444:	eafffece 	b	e0015f84 <decodeCNodeInvocation+0x14c>
e0016448:	e30c3000 	movw	r3, #49152	@ 0xc000
e001644c:	e34e3001 	movt	r3, #57345	@ 0xe001
e0016450:	e3a01002 	mov	r1, #2
e0016454:	e5930840 	ldr	r0, [r3, #2112]	@ 0x840
e0016458:	ebfff9d9 	bl	e0014bc4 <setThreadState>
e001645c:	e28d303c 	add	r3, sp, #60	@ 0x3c
e0016460:	e8930003 	ldm	r3, {r0, r1}
e0016464:	ebfffcba 	bl	e0015754 <invokeCNodeCancelBadgedSends>
e0016468:	e1a05000 	mov	r5, r0
e001646c:	eafffec4 	b	e0015f84 <decodeCNodeInvocation+0x14c>
e0016470:	e30c3000 	movw	r3, #49152	@ 0xc000
e0016474:	e34e3001 	movt	r3, #57345	@ 0xe001
e0016478:	e3a02007 	mov	r2, #7
e001647c:	e5832864 	str	r2, [r3, #2148]	@ 0x864
e0016480:	e3a05003 	mov	r5, #3
e0016484:	eafffebe 	b	e0015f84 <decodeCNodeInvocation+0x14c>
e0016488:	e30c3000 	movw	r3, #49152	@ 0xc000
e001648c:	e34e3001 	movt	r3, #57345	@ 0xe001
e0016490:	e3a05003 	mov	r5, #3
e0016494:	e5835864 	str	r5, [r3, #2148]	@ 0x864
e0016498:	eafffeb9 	b	e0015f84 <decodeCNodeInvocation+0x14c>
e001649c:	e30c2000 	movw	r2, #49152	@ 0xc000
e00164a0:	e34e2001 	movt	r2, #57345	@ 0xe001
e00164a4:	e3a03006 	mov	r3, #6
e00164a8:	e5823864 	str	r3, [r2, #2148]	@ 0x864
e00164ac:	e3a03001 	mov	r3, #1
e00164b0:	e5823860 	str	r3, [r2, #2144]	@ 0x860
e00164b4:	e1a03104 	lsl	r3, r4, #2
e00164b8:	e6ef3073 	uxtb	r3, r3
e00164bc:	e3833001 	orr	r3, r3, #1
e00164c0:	e5823844 	str	r3, [r2, #2116]	@ 0x844
e00164c4:	e3a03000 	mov	r3, #0
e00164c8:	e5823848 	str	r3, [r2, #2120]	@ 0x848
e00164cc:	e3a05003 	mov	r5, #3
e00164d0:	eafffeab 	b	e0015f84 <decodeCNodeInvocation+0x14c>
e00164d4:	e30c2000 	movw	r2, #49152	@ 0xc000
e00164d8:	e34e2001 	movt	r2, #57345	@ 0xe001
e00164dc:	e3a03006 	mov	r3, #6
e00164e0:	e5823864 	str	r3, [r2, #2148]	@ 0x864
e00164e4:	e3a01000 	mov	r1, #0
e00164e8:	e5821860 	str	r1, [r2, #2144]	@ 0x860
e00164ec:	e1a03106 	lsl	r3, r6, #2
e00164f0:	e6ef3073 	uxtb	r3, r3
e00164f4:	e3833001 	orr	r3, r3, #1
e00164f8:	e5823844 	str	r3, [r2, #2116]	@ 0x844
e00164fc:	e5821848 	str	r1, [r2, #2120]	@ 0x848
e0016500:	e3a05003 	mov	r5, #3
e0016504:	eafffe9e 	b	e0015f84 <decodeCNodeInvocation+0x14c>
e0016508:	e30c3000 	movw	r3, #49152	@ 0xc000
e001650c:	e34e3001 	movt	r3, #57345	@ 0xe001
e0016510:	e3a05003 	mov	r5, #3
e0016514:	e5835864 	str	r5, [r3, #2148]	@ 0x864
e0016518:	eafffe99 	b	e0015f84 <decodeCNodeInvocation+0x14c>
e001651c:	e30c3000 	movw	r3, #49152	@ 0xc000
e0016520:	e34e3001 	movt	r3, #57345	@ 0xe001
e0016524:	e3a01002 	mov	r1, #2
e0016528:	e5930840 	ldr	r0, [r3, #2112]	@ 0x840
e001652c:	ebfff9a4 	bl	e0014bc4 <setThreadState>
e0016530:	e58d7008 	str	r7, [sp, #8]
e0016534:	e58d8004 	str	r8, [sp, #4]
e0016538:	e58db000 	str	fp, [sp]
e001653c:	e59d3040 	ldr	r3, [sp, #64]	@ 0x40
e0016540:	e59d203c 	ldr	r2, [sp, #60]	@ 0x3c
e0016544:	e59d1038 	ldr	r1, [sp, #56]	@ 0x38
e0016548:	e59d0034 	ldr	r0, [sp, #52]	@ 0x34
e001654c:	ebfff32e 	bl	e001320c <invokeCNodeRotate>
e0016550:	e1a05000 	mov	r5, r0
e0016554:	eafffe8a 	b	e0015f84 <decodeCNodeInvocation+0x14c>

e0016558 <cteDeleteOne>:
e0016558:	e92d4010 	push	{r4, lr}
e001655c:	e24dd020 	sub	sp, sp, #32
e0016560:	e1a04000 	mov	r4, r0
e0016564:	e5903000 	ldr	r3, [r0]
e0016568:	e203200e 	and	r2, r3, #14
e001656c:	e352000e 	cmp	r2, #14
e0016570:	1203300f 	andne	r3, r3, #15
e0016574:	06ef3073 	uxtbeq	r3, r3
e0016578:	e3530000 	cmp	r3, #0
e001657c:	1a000001 	bne	e0016588 <cteDeleteOne+0x30>
e0016580:	e28dd020 	add	sp, sp, #32
e0016584:	e8bd8010 	pop	{r4, pc}
e0016588:	ebfff868 	bl	e0014730 <isFinalCapability>
e001658c:	e1a03000 	mov	r3, r0
e0016590:	e3a02001 	mov	r2, #1
e0016594:	e58d2000 	str	r2, [sp]
e0016598:	e8940006 	ldm	r4, {r1, r2}
e001659c:	e28d0008 	add	r0, sp, #8
e00165a0:	ebfffce3 	bl	e0015934 <finaliseCap>
e00165a4:	e3a03000 	mov	r3, #0
e00165a8:	e58d3018 	str	r3, [sp, #24]
e00165ac:	e58d301c 	str	r3, [sp, #28]
e00165b0:	e28d3020 	add	r3, sp, #32
e00165b4:	e9130006 	ldmdb	r3, {r1, r2}
e00165b8:	e1a00004 	mov	r0, r4
e00165bc:	ebfff3d7 	bl	e0013520 <emptySlot>
e00165c0:	eaffffee 	b	e0016580 <cteDeleteOne+0x28>

e00165c4 <invokeIRQHandler_SetIRQHandler>:
e00165c4:	e92d4070 	push	{r4, r5, r6, lr}
e00165c8:	e24dd008 	sub	sp, sp, #8
e00165cc:	e1a0500d 	mov	r5, sp
e00165d0:	e8850006 	stm	r5, {r1, r2}
e00165d4:	e1a06003 	mov	r6, r3
e00165d8:	e30d1000 	movw	r1, #53248	@ 0xd000
e00165dc:	e34e1001 	movt	r1, #57345	@ 0xe001
e00165e0:	e0814200 	add	r4, r1, r0, lsl #4
e00165e4:	e1a00004 	mov	r0, r4
e00165e8:	ebffffda 	bl	e0016558 <cteDeleteOne>
e00165ec:	e1a03004 	mov	r3, r4
e00165f0:	e1a02006 	mov	r2, r6
e00165f4:	e8950003 	ldm	r5, {r0, r1}
e00165f8:	ebfff8be 	bl	e00148f8 <cteInsert>
e00165fc:	e28dd008 	add	sp, sp, #8
e0016600:	e8bd8070 	pop	{r4, r5, r6, pc}

e0016604 <invokeIRQHandler_ClearIRQHandler>:
e0016604:	e92d4010 	push	{r4, lr}
e0016608:	e30d3000 	movw	r3, #53248	@ 0xd000
e001660c:	e34e3001 	movt	r3, #57345	@ 0xe001
e0016610:	e0830200 	add	r0, r3, r0, lsl #4
e0016614:	ebffffcf 	bl	e0016558 <cteDeleteOne>
e0016618:	e8bd8010 	pop	{r4, pc}

e001661c <decodeIRQHandlerInvocation>:
e001661c:	e92d4030 	push	{r4, r5, lr}
e0016620:	e24dd00c 	sub	sp, sp, #12
e0016624:	e1a04001 	mov	r4, r1
e0016628:	e350001b 	cmp	r0, #27
e001662c:	0a000012 	beq	e001667c <decodeIRQHandlerInvocation+0x60>
e0016630:	e350001c 	cmp	r0, #28
e0016634:	0a00003b 	beq	e0016728 <decodeIRQHandlerInvocation+0x10c>
e0016638:	e350001a 	cmp	r0, #26
e001663c:	0a000004 	beq	e0016654 <decodeIRQHandlerInvocation+0x38>
e0016640:	e30c3000 	movw	r3, #49152	@ 0xc000
e0016644:	e34e3001 	movt	r3, #57345	@ 0xe001
e0016648:	e3a00003 	mov	r0, #3
e001664c:	e5830864 	str	r0, [r3, #2148]	@ 0x864
e0016650:	ea000007 	b	e0016674 <decodeIRQHandlerInvocation+0x58>
e0016654:	e30c3000 	movw	r3, #49152	@ 0xc000
e0016658:	e34e3001 	movt	r3, #57345	@ 0xe001
e001665c:	e3a01002 	mov	r1, #2
e0016660:	e5930840 	ldr	r0, [r3, #2112]	@ 0x840
e0016664:	ebfff956 	bl	e0014bc4 <setThreadState>
e0016668:	e1a00004 	mov	r0, r4
e001666c:	ebfff385 	bl	e0013488 <invokeIRQHandler_AckIRQ>
e0016670:	e3a00000 	mov	r0, #0
e0016674:	e28dd00c 	add	sp, sp, #12
e0016678:	e8bd8030 	pop	{r4, r5, pc}
e001667c:	e30c3000 	movw	r3, #49152	@ 0xc000
e0016680:	e34e3001 	movt	r3, #57345	@ 0xe001
e0016684:	e5935b08 	ldr	r5, [r3, #2824]	@ 0xb08
e0016688:	e3550000 	cmp	r5, #0
e001668c:	0a000017 	beq	e00166f0 <decodeIRQHandlerInvocation+0xd4>
e0016690:	e8950003 	ldm	r5, {r0, r1}
e0016694:	e28d3008 	add	r3, sp, #8
e0016698:	e9030003 	stmdb	r3, {r0, r1}
e001669c:	e200300e 	and	r3, r0, #14
e00166a0:	e353000e 	cmp	r3, #14
e00166a4:	1200000f 	andne	r0, r0, #15
e00166a8:	06ef0070 	uxtbeq	r0, r0
e00166ac:	e3500006 	cmp	r0, #6
e00166b0:	1a000014 	bne	e0016708 <decodeIRQHandlerInvocation+0xec>
e00166b4:	e5953004 	ldr	r3, [r5, #4]
e00166b8:	e3130001 	tst	r3, #1
e00166bc:	0a000011 	beq	e0016708 <decodeIRQHandlerInvocation+0xec>
e00166c0:	e30c3000 	movw	r3, #49152	@ 0xc000
e00166c4:	e34e3001 	movt	r3, #57345	@ 0xe001
e00166c8:	e3a01002 	mov	r1, #2
e00166cc:	e5930840 	ldr	r0, [r3, #2112]	@ 0x840
e00166d0:	ebfff93b 	bl	e0014bc4 <setThreadState>
e00166d4:	e1a03005 	mov	r3, r5
e00166d8:	e28d2008 	add	r2, sp, #8
e00166dc:	e9120006 	ldmdb	r2, {r1, r2}
e00166e0:	e1a00004 	mov	r0, r4
e00166e4:	ebffffb6 	bl	e00165c4 <invokeIRQHandler_SetIRQHandler>
e00166e8:	e3a00000 	mov	r0, #0
e00166ec:	eaffffe0 	b	e0016674 <decodeIRQHandlerInvocation+0x58>
e00166f0:	e30c3000 	movw	r3, #49152	@ 0xc000
e00166f4:	e34e3001 	movt	r3, #57345	@ 0xe001
e00166f8:	e3a02007 	mov	r2, #7
e00166fc:	e5832864 	str	r2, [r3, #2148]	@ 0x864
e0016700:	e3a00003 	mov	r0, #3
e0016704:	eaffffda 	b	e0016674 <decodeIRQHandlerInvocation+0x58>
e0016708:	e30c3000 	movw	r3, #49152	@ 0xc000
e001670c:	e34e3001 	movt	r3, #57345	@ 0xe001
e0016710:	e3a02002 	mov	r2, #2
e0016714:	e5832864 	str	r2, [r3, #2148]	@ 0x864
e0016718:	e3a02000 	mov	r2, #0
e001671c:	e5832850 	str	r2, [r3, #2128]	@ 0x850
e0016720:	e3a00003 	mov	r0, #3
e0016724:	eaffffd2 	b	e0016674 <decodeIRQHandlerInvocation+0x58>
e0016728:	e30c3000 	movw	r3, #49152	@ 0xc000
e001672c:	e34e3001 	movt	r3, #57345	@ 0xe001
e0016730:	e3a01002 	mov	r1, #2
e0016734:	e5930840 	ldr	r0, [r3, #2112]	@ 0x840
e0016738:	ebfff921 	bl	e0014bc4 <setThreadState>
e001673c:	e1a00004 	mov	r0, r4
e0016740:	ebffffaf 	bl	e0016604 <invokeIRQHandler_ClearIRQHandler>
e0016744:	e3a00000 	mov	r0, #0
e0016748:	eaffffc9 	b	e0016674 <decodeIRQHandlerInvocation+0x58>

e001674c <deletingIRQHandler>:
e001674c:	e92d4010 	push	{r4, lr}
e0016750:	e30d3000 	movw	r3, #53248	@ 0xd000
e0016754:	e34e3001 	movt	r3, #57345	@ 0xe001
e0016758:	e0830200 	add	r0, r3, r0, lsl #4
e001675c:	ebffff7d 	bl	e0016558 <cteDeleteOne>
e0016760:	e8bd8010 	pop	{r4, pc}

e0016764 <restart>:
e0016764:	e92d4010 	push	{r4, lr}
e0016768:	e1a04000 	mov	r4, r0
e001676c:	e5903050 	ldr	r3, [r0, #80]	@ 0x50
e0016770:	e213300f 	ands	r3, r3, #15
e0016774:	0a000002 	beq	e0016784 <restart+0x20>
e0016778:	e2433003 	sub	r3, r3, #3
e001677c:	e3530003 	cmp	r3, #3
e0016780:	88bd8010 	pophi	{r4, pc}
e0016784:	e1a00004 	mov	r0, r4
e0016788:	ebfffc21 	bl	e0015814 <cancelIPC>
e001678c:	e1a00004 	mov	r0, r4
e0016790:	ebfff2ea 	bl	e0013340 <setupReplyMaster>
e0016794:	e3a01002 	mov	r1, #2
e0016798:	e1a00004 	mov	r0, r4
e001679c:	ebfff908 	bl	e0014bc4 <setThreadState>
e00167a0:	e1a00004 	mov	r0, r4
e00167a4:	ebfff8b7 	bl	e0014a88 <tcbSchedEnqueue>
e00167a8:	e1a00004 	mov	r0, r4
e00167ac:	ebfff9f8 	bl	e0014f94 <possibleSwitchTo>
e00167b0:	e8bd8010 	pop	{r4, pc}

e00167b4 <sendSignal>:
e00167b4:	e92d41f0 	push	{r4, r5, r6, r7, r8, lr}
e00167b8:	e24dd010 	sub	sp, sp, #16
e00167bc:	e1a04000 	mov	r4, r0
e00167c0:	e1a05001 	mov	r5, r1
e00167c4:	e5902000 	ldr	r2, [r0]
e00167c8:	e2023003 	and	r3, r2, #3
e00167cc:	e3530001 	cmp	r3, #1
e00167d0:	0a00001f 	beq	e0016854 <sendSignal+0xa0>
e00167d4:	e3530002 	cmp	r3, #2
e00167d8:	0a00003e 	beq	e00168d8 <sendSignal+0x124>
e00167dc:	e3530000 	cmp	r3, #0
e00167e0:	0a000001 	beq	e00167ec <sendSignal+0x38>
e00167e4:	e28dd010 	add	sp, sp, #16
e00167e8:	e8bd81f0 	pop	{r4, r5, r6, r7, r8, pc}
e00167ec:	e590000c 	ldr	r0, [r0, #12]
e00167f0:	e3d0600f 	bics	r6, r0, #15
e00167f4:	0a000011 	beq	e0016840 <sendSignal+0x8c>
e00167f8:	e5963050 	ldr	r3, [r6, #80]	@ 0x50
e00167fc:	e203300f 	and	r3, r3, #15
e0016800:	e3530003 	cmp	r3, #3
e0016804:	0a000004 	beq	e001681c <sendSignal+0x68>
e0016808:	e3c22003 	bic	r2, r2, #3
e001680c:	e3822002 	orr	r2, r2, #2
e0016810:	e5842000 	str	r2, [r4]
e0016814:	e5841008 	str	r1, [r4, #8]
e0016818:	eafffff1 	b	e00167e4 <sendSignal+0x30>
e001681c:	e1a00006 	mov	r0, r6
e0016820:	ebfffbfb 	bl	e0015814 <cancelIPC>
e0016824:	e3a01001 	mov	r1, #1
e0016828:	e1a00006 	mov	r0, r6
e001682c:	ebfff8e4 	bl	e0014bc4 <setThreadState>
e0016830:	e5865000 	str	r5, [r6]
e0016834:	e1a00006 	mov	r0, r6
e0016838:	ebfff9d5 	bl	e0014f94 <possibleSwitchTo>
e001683c:	eaffffe8 	b	e00167e4 <sendSignal+0x30>
e0016840:	e3c22003 	bic	r2, r2, #3
e0016844:	e3822002 	orr	r2, r2, #2
e0016848:	e5842000 	str	r2, [r4]
e001684c:	e5841008 	str	r1, [r4, #8]
e0016850:	eaffffe3 	b	e00167e4 <sendSignal+0x30>
e0016854:	e5906004 	ldr	r6, [r0, #4]
e0016858:	e3c6600f 	bic	r6, r6, #15
e001685c:	e58d6008 	str	r6, [sp, #8]
e0016860:	e3c2200f 	bic	r2, r2, #15
e0016864:	e58d200c 	str	r2, [sp, #12]
e0016868:	e1a0800d 	mov	r8, sp
e001686c:	e28d7008 	add	r7, sp, #8
e0016870:	e897000c 	ldm	r7, {r2, r3}
e0016874:	e1a01006 	mov	r1, r6
e0016878:	e1a00008 	mov	r0, r8
e001687c:	ebfffb5f 	bl	e0015600 <tcbEPDequeue>
e0016880:	e8980003 	ldm	r8, {r0, r1}
e0016884:	e8870003 	stm	r7, {r0, r1}
e0016888:	e5943004 	ldr	r3, [r4, #4]
e001688c:	e203300f 	and	r3, r3, #15
e0016890:	e3c0200f 	bic	r2, r0, #15
e0016894:	e1833002 	orr	r3, r3, r2
e0016898:	e5843004 	str	r3, [r4, #4]
e001689c:	e5943000 	ldr	r3, [r4]
e00168a0:	e203300f 	and	r3, r3, #15
e00168a4:	e59d200c 	ldr	r2, [sp, #12]
e00168a8:	e3c2200f 	bic	r2, r2, #15
e00168ac:	e1833002 	orr	r3, r3, r2
e00168b0:	e3500000 	cmp	r0, #0
e00168b4:	03c33003 	biceq	r3, r3, #3
e00168b8:	e5843000 	str	r3, [r4]
e00168bc:	e3a01001 	mov	r1, #1
e00168c0:	e1a00006 	mov	r0, r6
e00168c4:	ebfff8be 	bl	e0014bc4 <setThreadState>
e00168c8:	e5865000 	str	r5, [r6]
e00168cc:	e1a00006 	mov	r0, r6
e00168d0:	ebfff9af 	bl	e0014f94 <possibleSwitchTo>
e00168d4:	eaffffc2 	b	e00167e4 <sendSignal+0x30>
e00168d8:	e5901008 	ldr	r1, [r0, #8]
e00168dc:	e1815005 	orr	r5, r1, r5
e00168e0:	e5805008 	str	r5, [r0, #8]
e00168e4:	eaffffbe 	b	e00167e4 <sendSignal+0x30>

e00168e8 <handleInterrupt>:
e00168e8:	e92d4010 	push	{r4, lr}
e00168ec:	e1a04000 	mov	r4, r0
e00168f0:	e350009f 	cmp	r0, #159	@ 0x9f
e00168f4:	8a00000a 	bhi	e0016924 <handleInterrupt+0x3c>
e00168f8:	e30c3000 	movw	r3, #49152	@ 0xc000
e00168fc:	e34e3001 	movt	r3, #57345	@ 0xe001
e0016900:	e0833100 	add	r3, r3, r0, lsl #2
e0016904:	e5933884 	ldr	r3, [r3, #2180]	@ 0x884
e0016908:	e3530003 	cmp	r3, #3
e001690c:	979ff103 	ldrls	pc, [pc, r3, lsl #2]
e0016910:	ea000048 	b	e0016a38 <handleInterrupt+0x150>
e0016914:	e0016a10 	.word	0xe0016a10
e0016918:	e001696c 	.word	0xe001696c
e001691c:	e00169d8 	.word	0xe00169d8
e0016920:	e00169ec 	.word	0xe00169ec
e0016924:	e1a022a0 	lsr	r2, r0, #5
e0016928:	e200401f 	and	r4, r0, #31
e001692c:	e3a03001 	mov	r3, #1
e0016930:	e1a04413 	lsl	r4, r3, r4
e0016934:	e1a02102 	lsl	r2, r2, #2
e0016938:	e301327f 	movw	r3, #4735	@ 0x127f
e001693c:	e34f3ff0 	movt	r3, #65520	@ 0xfff0
e0016940:	e0823003 	add	r3, r2, r3
e0016944:	e50340ff 	str	r4, [r3, #-255]	@ 0xffffff01
e0016948:	e30b3310 	movw	r3, #45840	@ 0xb310
e001694c:	e34e3001 	movt	r3, #57345	@ 0xe001
e0016950:	e5931000 	ldr	r1, [r3]
e0016954:	e30221ff 	movw	r2, #8703	@ 0x21ff
e0016958:	e34f2ff0 	movt	r2, #65520	@ 0xfff0
e001695c:	e50210ef 	str	r1, [r2, #-239]	@ 0xffffff11
e0016960:	e30023ff 	movw	r2, #1023	@ 0x3ff
e0016964:	e5832000 	str	r2, [r3]
e0016968:	e8bd8010 	pop	{r4, pc}
e001696c:	e30d3000 	movw	r3, #53248	@ 0xd000
e0016970:	e34e3001 	movt	r3, #57345	@ 0xe001
e0016974:	e0832200 	add	r2, r3, r0, lsl #4
e0016978:	e7930200 	ldr	r0, [r3, r0, lsl #4]
e001697c:	e200300e 	and	r3, r0, #14
e0016980:	e353000e 	cmp	r3, #14
e0016984:	1200300f 	andne	r3, r0, #15
e0016988:	06ef3070 	uxtbeq	r3, r0
e001698c:	e3530006 	cmp	r3, #6
e0016990:	0a000009 	beq	e00169bc <handleInterrupt+0xd4>
e0016994:	e1a022a4 	lsr	r2, r4, #5
e0016998:	e204401f 	and	r4, r4, #31
e001699c:	e3a03001 	mov	r3, #1
e00169a0:	e1a04413 	lsl	r4, r3, r4
e00169a4:	e1a02102 	lsl	r2, r2, #2
e00169a8:	e301327f 	movw	r3, #4735	@ 0x127f
e00169ac:	e34f3ff0 	movt	r3, #65520	@ 0xfff0
e00169b0:	e0823003 	add	r3, r2, r3
e00169b4:	e50340ff 	str	r4, [r3, #-255]	@ 0xffffff01
e00169b8:	ea00000b 	b	e00169ec <handleInterrupt+0x104>
e00169bc:	e5921004 	ldr	r1, [r2, #4]
e00169c0:	e3110001 	tst	r1, #1
e00169c4:	0afffff2 	beq	e0016994 <handleInterrupt+0xac>
e00169c8:	e1a01221 	lsr	r1, r1, #4
e00169cc:	e3c0000f 	bic	r0, r0, #15
e00169d0:	ebffff77 	bl	e00167b4 <sendSignal>
e00169d4:	eaffffee 	b	e0016994 <handleInterrupt+0xac>
e00169d8:	ebfff9dd 	bl	e0015154 <timerTick>
e00169dc:	e30236ff 	movw	r3, #9983	@ 0x26ff
e00169e0:	e34f3ff0 	movt	r3, #65520	@ 0xfff0
e00169e4:	e3a02001 	mov	r2, #1
e00169e8:	e50320f3 	str	r2, [r3, #-243]	@ 0xffffff0d
e00169ec:	e30b3310 	movw	r3, #45840	@ 0xb310
e00169f0:	e34e3001 	movt	r3, #57345	@ 0xe001
e00169f4:	e5931000 	ldr	r1, [r3]
e00169f8:	e30221ff 	movw	r2, #8703	@ 0x21ff
e00169fc:	e34f2ff0 	movt	r2, #65520	@ 0xfff0
e0016a00:	e50210ef 	str	r1, [r2, #-239]	@ 0xffffff11
e0016a04:	e30023ff 	movw	r2, #1023	@ 0x3ff
e0016a08:	e5832000 	str	r2, [r3]
e0016a0c:	e8bd8010 	pop	{r4, pc}
e0016a10:	e1a022a0 	lsr	r2, r0, #5
e0016a14:	e200401f 	and	r4, r0, #31
e0016a18:	e3a03001 	mov	r3, #1
e0016a1c:	e1a04413 	lsl	r4, r3, r4
e0016a20:	e1a02102 	lsl	r2, r2, #2
e0016a24:	e301327f 	movw	r3, #4735	@ 0x127f
e0016a28:	e34f3ff0 	movt	r3, #65520	@ 0xfff0
e0016a2c:	e0823003 	add	r3, r2, r3
e0016a30:	e50340ff 	str	r4, [r3, #-255]	@ 0xffffff01
e0016a34:	eaffffec 	b	e00169ec <handleInterrupt+0x104>
e0016a38:	ebffe7b9 	bl	e0010924 <halt>

e0016a3c <handleInterruptEntry>:
e0016a3c:	e92d4010 	push	{r4, lr}
e0016a40:	e30b3310 	movw	r3, #45840	@ 0xb310
e0016a44:	e34e3001 	movt	r3, #57345	@ 0xe001
e0016a48:	e5930000 	ldr	r0, [r3]
e0016a4c:	e7e90050 	ubfx	r0, r0, #0, #10
e0016a50:	e3500fff 	cmp	r0, #1020	@ 0x3fc
e0016a54:	3a00000c 	bcc	e0016a8c <handleInterruptEntry+0x50>
e0016a58:	e30231ff 	movw	r3, #8703	@ 0x21ff
e0016a5c:	e34f3ff0 	movt	r3, #65520	@ 0xfff0
e0016a60:	e51300f3 	ldr	r0, [r3, #-243]	@ 0xffffff0d
e0016a64:	e30b3310 	movw	r3, #45840	@ 0xb310
e0016a68:	e34e3001 	movt	r3, #57345	@ 0xe001
e0016a6c:	e5830000 	str	r0, [r3]
e0016a70:	e7e90050 	ubfx	r0, r0, #0, #10
e0016a74:	e3500fff 	cmp	r0, #1020	@ 0x3fc
e0016a78:	3a000003 	bcc	e0016a8c <handleInterruptEntry+0x50>
e0016a7c:	ebfffa51 	bl	e00153c8 <schedule>
e0016a80:	ebfff8b4 	bl	e0014d58 <activateThread>
e0016a84:	e3a00000 	mov	r0, #0
e0016a88:	e8bd8010 	pop	{r4, pc}
e0016a8c:	e30b3310 	movw	r3, #45840	@ 0xb310
e0016a90:	e34e3001 	movt	r3, #57345	@ 0xe001
e0016a94:	e5933004 	ldr	r3, [r3, #4]
e0016a98:	e1530000 	cmp	r3, r0
e0016a9c:	0afffff6 	beq	e0016a7c <handleInterruptEntry+0x40>
e0016aa0:	ebffff90 	bl	e00168e8 <handleInterrupt>
e0016aa4:	eafffff4 	b	e0016a7c <handleInterruptEntry+0x40>

e0016aa8 <performInvocation_Notification>:
e0016aa8:	e92d4010 	push	{r4, lr}
e0016aac:	ebffff40 	bl	e00167b4 <sendSignal>
e0016ab0:	e3a00000 	mov	r0, #0
e0016ab4:	e8bd8010 	pop	{r4, pc}

e0016ab8 <getExtraCPtr>:
e0016ab8:	e281107a 	add	r1, r1, #122	@ 0x7a
e0016abc:	e7900101 	ldr	r0, [r0, r1, lsl #2]
e0016ac0:	e12fff1e 	bx	lr

e0016ac4 <setExtraBadge>:
e0016ac4:	e282207a 	add	r2, r2, #122	@ 0x7a
e0016ac8:	e7801102 	str	r1, [r0, r2, lsl #2]
e0016acc:	e12fff1e 	bx	lr

e0016ad0 <setupCallerCap>:
e0016ad0:	e92d4070 	push	{r4, r5, r6, lr}
e0016ad4:	e24dd008 	sub	sp, sp, #8
e0016ad8:	e1a05000 	mov	r5, r0
e0016adc:	e1a06001 	mov	r6, r1
e0016ae0:	e1a04002 	mov	r4, r2
e0016ae4:	e3a01005 	mov	r1, #5
e0016ae8:	ebfff835 	bl	e0014bc4 <setThreadState>
e0016aec:	e1a04284 	lsl	r4, r4, #5
e0016af0:	e2044020 	and	r4, r4, #32
e0016af4:	e3c5303f 	bic	r3, r5, #63	@ 0x3f
e0016af8:	e1844003 	orr	r4, r4, r3
e0016afc:	e3844008 	orr	r4, r4, #8
e0016b00:	e58d4000 	str	r4, [sp]
e0016b04:	e3a03000 	mov	r3, #0
e0016b08:	e58d3004 	str	r3, [sp, #4]
e0016b0c:	e3c63f7f 	bic	r3, r6, #508	@ 0x1fc
e0016b10:	e3c33003 	bic	r3, r3, #3
e0016b14:	e3c52f7f 	bic	r2, r5, #508	@ 0x1fc
e0016b18:	e3c22003 	bic	r2, r2, #3
e0016b1c:	e2833030 	add	r3, r3, #48	@ 0x30
e0016b20:	e2822020 	add	r2, r2, #32
e0016b24:	e28d1008 	add	r1, sp, #8
e0016b28:	e9110003 	ldmdb	r1, {r0, r1}
e0016b2c:	ebfff771 	bl	e00148f8 <cteInsert>
e0016b30:	e28dd008 	add	sp, sp, #8
e0016b34:	e8bd8070 	pop	{r4, r5, r6, pc}

e0016b38 <deleteCallerCap>:
e0016b38:	e92d4010 	push	{r4, lr}
e0016b3c:	e3c00f7f 	bic	r0, r0, #508	@ 0x1fc
e0016b40:	e3c00003 	bic	r0, r0, #3
e0016b44:	e2800030 	add	r0, r0, #48	@ 0x30
e0016b48:	ebfffe82 	bl	e0016558 <cteDeleteOne>
e0016b4c:	e8bd8010 	pop	{r4, pc}

e0016b50 <lookupExtraCaps>:
e0016b50:	e92d43f0 	push	{r4, r5, r6, r7, r8, r9, lr}
e0016b54:	e24dd00c 	sub	sp, sp, #12
e0016b58:	e2515000 	subs	r5, r1, #0
e0016b5c:	0a00001b 	beq	e0016bd0 <lookupExtraCaps+0x80>
e0016b60:	e1a08000 	mov	r8, r0
e0016b64:	e7e193d2 	ubfx	r9, r2, #7, #2
e0016b68:	e3590000 	cmp	r9, #0
e0016b6c:	0a000011 	beq	e0016bb8 <lookupExtraCaps+0x68>
e0016b70:	e2855f79 	add	r5, r5, #484	@ 0x1e4
e0016b74:	e59f7084 	ldr	r7, [pc, #132]	@ e0016c00 <lookupExtraCaps+0xb0>
e0016b78:	e3a04000 	mov	r4, #0
e0016b7c:	e5b56004 	ldr	r6, [r5, #4]!
e0016b80:	e1a02006 	mov	r2, r6
e0016b84:	e1a01008 	mov	r1, r8
e0016b88:	e1a0000d 	mov	r0, sp
e0016b8c:	ebfff038 	bl	e0012c74 <lookupSlot>
e0016b90:	e59d0000 	ldr	r0, [sp]
e0016b94:	e3500000 	cmp	r0, #0
e0016b98:	1a000011 	bne	e0016be4 <lookupExtraCaps+0x94>
e0016b9c:	e59d3004 	ldr	r3, [sp, #4]
e0016ba0:	e4873004 	str	r3, [r7], #4
e0016ba4:	e2844001 	add	r4, r4, #1
e0016ba8:	e1540009 	cmp	r4, r9
e0016bac:	1afffff2 	bne	e0016b7c <lookupExtraCaps+0x2c>
e0016bb0:	e3590002 	cmp	r9, #2
e0016bb4:	8a00000f 	bhi	e0016bf8 <lookupExtraCaps+0xa8>
e0016bb8:	e30c3000 	movw	r3, #49152	@ 0xc000
e0016bbc:	e34e3001 	movt	r3, #57345	@ 0xe001
e0016bc0:	e0833109 	add	r3, r3, r9, lsl #2
e0016bc4:	e3a00000 	mov	r0, #0
e0016bc8:	e5830b08 	str	r0, [r3, #2824]	@ 0xb08
e0016bcc:	ea000009 	b	e0016bf8 <lookupExtraCaps+0xa8>
e0016bd0:	e30c3000 	movw	r3, #49152	@ 0xc000
e0016bd4:	e34e3001 	movt	r3, #57345	@ 0xe001
e0016bd8:	e3a00000 	mov	r0, #0
e0016bdc:	e5830b08 	str	r0, [r3, #2824]	@ 0xb08
e0016be0:	ea000004 	b	e0016bf8 <lookupExtraCaps+0xa8>
e0016be4:	e30c3000 	movw	r3, #49152	@ 0xc000
e0016be8:	e34e3001 	movt	r3, #57345	@ 0xe001
e0016bec:	e3a02001 	mov	r2, #1
e0016bf0:	e5832870 	str	r2, [r3, #2160]	@ 0x870
e0016bf4:	e5836874 	str	r6, [r3, #2164]	@ 0x874
e0016bf8:	e28dd00c 	add	sp, sp, #12
e0016bfc:	e8bd83f0 	pop	{r4, r5, r6, r7, r8, r9, pc}
e0016c00:	e001cb08 	.word	0xe001cb08

e0016c04 <copyMRs>:
e0016c04:	e92d4070 	push	{r4, r5, r6, lr}
e0016c08:	e1a06000 	mov	r6, r0
e0016c0c:	e59d0010 	ldr	r0, [sp, #16]
e0016c10:	e3500000 	cmp	r0, #0
e0016c14:	08bd8070 	popeq	{r4, r5, r6, pc}
e0016c18:	e30b4228 	movw	r4, #45608	@ 0xb228
e0016c1c:	e34e4001 	movt	r4, #57345	@ 0xe001
e0016c20:	e3a0c000 	mov	ip, #0
e0016c24:	e494e004 	ldr	lr, [r4], #4
e0016c28:	e796510e 	ldr	r5, [r6, lr, lsl #2]
e0016c2c:	e782510e 	str	r5, [r2, lr, lsl #2]
e0016c30:	e1a0500c 	mov	r5, ip
e0016c34:	e28cc001 	add	ip, ip, #1
e0016c38:	e150000c 	cmp	r0, ip
e0016c3c:	93a0e000 	movls	lr, #0
e0016c40:	83a0e001 	movhi	lr, #1
e0016c44:	e35c0003 	cmp	ip, #3
e0016c48:	83a0e000 	movhi	lr, #0
e0016c4c:	e35e0000 	cmp	lr, #0
e0016c50:	1afffff3 	bne	e0016c24 <copyMRs+0x20>
e0016c54:	e3510000 	cmp	r1, #0
e0016c58:	13530000 	cmpne	r3, #0
e0016c5c:	0a00000b 	beq	e0016c90 <copyMRs+0x8c>
e0016c60:	e150000c 	cmp	r0, ip
e0016c64:	9a00000b 	bls	e0016c98 <copyMRs+0x94>
e0016c68:	e2855105 	add	r5, r5, #1073741825	@ 0x40000001
e0016c6c:	e1a05105 	lsl	r5, r5, #2
e0016c70:	e0812005 	add	r2, r1, r5
e0016c74:	e0833005 	add	r3, r3, r5
e0016c78:	e081c100 	add	ip, r1, r0, lsl #2
e0016c7c:	e5b21004 	ldr	r1, [r2, #4]!
e0016c80:	e5a31004 	str	r1, [r3, #4]!
e0016c84:	e152000c 	cmp	r2, ip
e0016c88:	1afffffb 	bne	e0016c7c <copyMRs+0x78>
e0016c8c:	e8bd8070 	pop	{r4, r5, r6, pc}
e0016c90:	e1a0000c 	mov	r0, ip
e0016c94:	e8bd8070 	pop	{r4, r5, r6, pc}
e0016c98:	e1a0000c 	mov	r0, ip
e0016c9c:	e8bd8070 	pop	{r4, r5, r6, pc}

e0016ca0 <doNormalTransfer>:
e0016ca0:	e92d4ff0 	push	{r4, r5, r6, r7, r8, r9, sl, fp, lr}
e0016ca4:	e24dd02c 	sub	sp, sp, #44	@ 0x2c
e0016ca8:	e1a05000 	mov	r5, r0
e0016cac:	e1a0a001 	mov	sl, r1
e0016cb0:	e1a09002 	mov	r9, r2
e0016cb4:	e1a07003 	mov	r7, r3
e0016cb8:	e59d6054 	ldr	r6, [sp, #84]	@ 0x54
e0016cbc:	e59d8058 	ldr	r8, [sp, #88]	@ 0x58
e0016cc0:	e5904004 	ldr	r4, [r0, #4]
e0016cc4:	e204307f 	and	r3, r4, #127	@ 0x7f
e0016cc8:	e3530078 	cmp	r3, #120	@ 0x78
e0016ccc:	83c4407f 	bichi	r4, r4, #127	@ 0x7f
e0016cd0:	83844078 	orrhi	r4, r4, #120	@ 0x78
e0016cd4:	e59d3050 	ldr	r3, [sp, #80]	@ 0x50
e0016cd8:	e3530000 	cmp	r3, #0
e0016cdc:	1a000019 	bne	e0016d48 <doNormalTransfer+0xa8>
e0016ce0:	e30c3000 	movw	r3, #49152	@ 0xc000
e0016ce4:	e34e3001 	movt	r3, #57345	@ 0xe001
e0016ce8:	e3a02000 	mov	r2, #0
e0016cec:	e5832b08 	str	r2, [r3, #2824]	@ 0xb08
e0016cf0:	e204307f 	and	r3, r4, #127	@ 0x7f
e0016cf4:	e58d3000 	str	r3, [sp]
e0016cf8:	e1a03008 	mov	r3, r8
e0016cfc:	e1a02006 	mov	r2, r6
e0016d00:	e1a0100a 	mov	r1, sl
e0016d04:	e1a00005 	mov	r0, r5
e0016d08:	ebffffbd 	bl	e0016c04 <copyMRs>
e0016d0c:	e1a05000 	mov	r5, r0
e0016d10:	e3c44d3e 	bic	r4, r4, #3968	@ 0xf80
e0016d14:	e30c3000 	movw	r3, #49152	@ 0xc000
e0016d18:	e34e3001 	movt	r3, #57345	@ 0xe001
e0016d1c:	e5933b08 	ldr	r3, [r3, #2824]	@ 0xb08
e0016d20:	e3580000 	cmp	r8, #0
e0016d24:	13530000 	cmpne	r3, #0
e0016d28:	1a00000e 	bne	e0016d68 <doNormalTransfer+0xc8>
e0016d2c:	e3c4407f 	bic	r4, r4, #127	@ 0x7f
e0016d30:	e205507f 	and	r5, r5, #127	@ 0x7f
e0016d34:	e1844005 	orr	r4, r4, r5
e0016d38:	e5864004 	str	r4, [r6, #4]
e0016d3c:	e5867000 	str	r7, [r6]
e0016d40:	e28dd02c 	add	sp, sp, #44	@ 0x2c
e0016d44:	e8bd8ff0 	pop	{r4, r5, r6, r7, r8, r9, sl, fp, pc}
e0016d48:	e1a02004 	mov	r2, r4
e0016d4c:	ebffff7f 	bl	e0016b50 <lookupExtraCaps>
e0016d50:	e3500000 	cmp	r0, #0
e0016d54:	130c3000 	movwne	r3, #49152	@ 0xc000
e0016d58:	134e3001 	movtne	r3, #57345	@ 0xe001
e0016d5c:	13a02000 	movne	r2, #0
e0016d60:	15832b08 	strne	r2, [r3, #2824]	@ 0xb08
e0016d64:	eaffffe1 	b	e0016cf0 <doNormalTransfer+0x50>
e0016d68:	e1a01008 	mov	r1, r8
e0016d6c:	e1a00006 	mov	r0, r6
e0016d70:	ebfff191 	bl	e00133bc <getReceiveSlots>
e0016d74:	e59f3100 	ldr	r3, [pc, #256]	@ e0016e7c <doNormalTransfer+0x1dc>
e0016d78:	e3a0b000 	mov	fp, #0
e0016d7c:	e58d500c 	str	r5, [sp, #12]
e0016d80:	e1a0a000 	mov	sl, r0
e0016d84:	e1a05003 	mov	r5, r3
e0016d88:	e58d8058 	str	r8, [sp, #88]	@ 0x58
e0016d8c:	ea000019 	b	e0016df8 <doNormalTransfer+0x158>
e0016d90:	e35a0000 	cmp	sl, #0
e0016d94:	0a000033 	beq	e0016e68 <doNormalTransfer+0x1c8>
e0016d98:	e28d3014 	add	r3, sp, #20
e0016d9c:	e893000c 	ldm	r3, {r2, r3}
e0016da0:	e1a01008 	mov	r1, r8
e0016da4:	e28d001c 	add	r0, sp, #28
e0016da8:	ebfff606 	bl	e00145c8 <deriveCap>
e0016dac:	e59d301c 	ldr	r3, [sp, #28]
e0016db0:	e3530000 	cmp	r3, #0
e0016db4:	1a00002b 	bne	e0016e68 <doNormalTransfer+0x1c8>
e0016db8:	e59d3020 	ldr	r3, [sp, #32]
e0016dbc:	e203200e 	and	r2, r3, #14
e0016dc0:	e352000e 	cmp	r2, #14
e0016dc4:	1203300f 	andne	r3, r3, #15
e0016dc8:	06ef3073 	uxtbeq	r3, r3
e0016dcc:	e3530000 	cmp	r3, #0
e0016dd0:	0a000024 	beq	e0016e68 <doNormalTransfer+0x1c8>
e0016dd4:	e1a0300a 	mov	r3, sl
e0016dd8:	e1a02008 	mov	r2, r8
e0016ddc:	e28d1020 	add	r1, sp, #32
e0016de0:	e8910003 	ldm	r1, {r0, r1}
e0016de4:	ebfff6c3 	bl	e00148f8 <cteInsert>
e0016de8:	e3a0a000 	mov	sl, #0
e0016dec:	e28bb001 	add	fp, fp, #1
e0016df0:	e35b0003 	cmp	fp, #3
e0016df4:	0a00001b 	beq	e0016e68 <doNormalTransfer+0x1c8>
e0016df8:	e4958004 	ldr	r8, [r5], #4
e0016dfc:	e3580000 	cmp	r8, #0
e0016e00:	0a000018 	beq	e0016e68 <doNormalTransfer+0x1c8>
e0016e04:	e8980003 	ldm	r8, {r0, r1}
e0016e08:	e28d3014 	add	r3, sp, #20
e0016e0c:	e8830003 	stm	r3, {r0, r1}
e0016e10:	e200300e 	and	r3, r0, #14
e0016e14:	e353000e 	cmp	r3, #14
e0016e18:	1200300f 	andne	r3, r0, #15
e0016e1c:	06ef3070 	uxtbeq	r3, r0
e0016e20:	e3530004 	cmp	r3, #4
e0016e24:	1affffd9 	bne	e0016d90 <doNormalTransfer+0xf0>
e0016e28:	e5983004 	ldr	r3, [r8, #4]
e0016e2c:	e3c3300f 	bic	r3, r3, #15
e0016e30:	e1590003 	cmp	r9, r3
e0016e34:	1affffd5 	bne	e0016d90 <doNormalTransfer+0xf0>
e0016e38:	e59d3058 	ldr	r3, [sp, #88]	@ 0x58
e0016e3c:	e2833f7a 	add	r3, r3, #488	@ 0x1e8
e0016e40:	e1a00220 	lsr	r0, r0, #4
e0016e44:	e783010b 	str	r0, [r3, fp, lsl #2]
e0016e48:	e7e234d4 	ubfx	r3, r4, #9, #3
e0016e4c:	e3a02001 	mov	r2, #1
e0016e50:	e1833b12 	orr	r3, r3, r2, lsl fp
e0016e54:	e1a03483 	lsl	r3, r3, #9
e0016e58:	e2033c0e 	and	r3, r3, #3584	@ 0xe00
e0016e5c:	e3c44c0e 	bic	r4, r4, #3584	@ 0xe00
e0016e60:	e1834004 	orr	r4, r3, r4
e0016e64:	eaffffe0 	b	e0016dec <doNormalTransfer+0x14c>
e0016e68:	e59d500c 	ldr	r5, [sp, #12]
e0016e6c:	e1a0338b 	lsl	r3, fp, #7
e0016e70:	e2033d06 	and	r3, r3, #384	@ 0x180
e0016e74:	e1844003 	orr	r4, r4, r3
e0016e78:	eaffffab 	b	e0016d2c <doNormalTransfer+0x8c>
e0016e7c:	e001cb08 	.word	0xe001cb08

e0016e80 <doIPCTransfer>:
e0016e80:	e92d43f0 	push	{r4, r5, r6, r7, r8, r9, lr}
e0016e84:	e24dd014 	sub	sp, sp, #20
e0016e88:	e1a04000 	mov	r4, r0
e0016e8c:	e1a07001 	mov	r7, r1
e0016e90:	e1a05002 	mov	r5, r2
e0016e94:	e1a09003 	mov	r9, r3
e0016e98:	e59d8030 	ldr	r8, [sp, #48]	@ 0x30
e0016e9c:	e1a01008 	mov	r1, r8
e0016ea0:	e3a00001 	mov	r0, #1
e0016ea4:	ebffe798 	bl	e0010d0c <lookupIPCBuffer>
e0016ea8:	e1a06000 	mov	r6, r0
e0016eac:	e5942060 	ldr	r2, [r4, #96]	@ 0x60
e0016eb0:	e312000f 	tst	r2, #15
e0016eb4:	1a00000c 	bne	e0016eec <doIPCTransfer+0x6c>
e0016eb8:	e1a01004 	mov	r1, r4
e0016ebc:	e3a00000 	mov	r0, #0
e0016ec0:	ebffe791 	bl	e0010d0c <lookupIPCBuffer>
e0016ec4:	e1a01000 	mov	r1, r0
e0016ec8:	e58d6008 	str	r6, [sp, #8]
e0016ecc:	e58d8004 	str	r8, [sp, #4]
e0016ed0:	e58d9000 	str	r9, [sp]
e0016ed4:	e1a03005 	mov	r3, r5
e0016ed8:	e1a02007 	mov	r2, r7
e0016edc:	e1a00004 	mov	r0, r4
e0016ee0:	ebffff6e 	bl	e0016ca0 <doNormalTransfer>
e0016ee4:	e28dd014 	add	sp, sp, #20
e0016ee8:	e8bd83f0 	pop	{r4, r5, r6, r7, r8, r9, pc}
e0016eec:	e1a03000 	mov	r3, r0
e0016ef0:	e1a02008 	mov	r2, r8
e0016ef4:	e1a01004 	mov	r1, r4
e0016ef8:	e1a00005 	mov	r0, r5
e0016efc:	ebfff01b 	bl	e0012f70 <doFaultTransfer>
e0016f00:	eafffff7 	b	e0016ee4 <doIPCTransfer+0x64>

e0016f04 <doReplyTransfer>:
e0016f04:	e92d4070 	push	{r4, r5, r6, lr}
e0016f08:	e24dd008 	sub	sp, sp, #8
e0016f0c:	e1a05000 	mov	r5, r0
e0016f10:	e1a04001 	mov	r4, r1
e0016f14:	e1a06002 	mov	r6, r2
e0016f18:	e5912060 	ldr	r2, [r1, #96]	@ 0x60
e0016f1c:	e312000f 	tst	r2, #15
e0016f20:	1a00000c 	bne	e0016f58 <doReplyTransfer+0x54>
e0016f24:	e58d1000 	str	r1, [sp]
e0016f28:	e3a02000 	mov	r2, #0
e0016f2c:	e1a01002 	mov	r1, r2
e0016f30:	ebffffd2 	bl	e0016e80 <doIPCTransfer>
e0016f34:	e1a00006 	mov	r0, r6
e0016f38:	ebfffd86 	bl	e0016558 <cteDeleteOne>
e0016f3c:	e3a01001 	mov	r1, #1
e0016f40:	e1a00004 	mov	r0, r4
e0016f44:	ebfff71e 	bl	e0014bc4 <setThreadState>
e0016f48:	e1a00004 	mov	r0, r4
e0016f4c:	ebfff810 	bl	e0014f94 <possibleSwitchTo>
e0016f50:	e28dd008 	add	sp, sp, #8
e0016f54:	e8bd8070 	pop	{r4, r5, r6, pc}
e0016f58:	e1a00006 	mov	r0, r6
e0016f5c:	ebfffd7d 	bl	e0016558 <cteDeleteOne>
e0016f60:	e1a01005 	mov	r1, r5
e0016f64:	e1a00004 	mov	r0, r4
e0016f68:	ebffe7b6 	bl	e0010e48 <handleFaultReply>
e0016f6c:	e3a03000 	mov	r3, #0
e0016f70:	e5843060 	str	r3, [r4, #96]	@ 0x60
e0016f74:	e5843064 	str	r3, [r4, #100]	@ 0x64
e0016f78:	e1500003 	cmp	r0, r3
e0016f7c:	0a000005 	beq	e0016f98 <doReplyTransfer+0x94>
e0016f80:	e3a01002 	mov	r1, #2
e0016f84:	e1a00004 	mov	r0, r4
e0016f88:	ebfff70d 	bl	e0014bc4 <setThreadState>
e0016f8c:	e1a00004 	mov	r0, r4
e0016f90:	ebfff7ff 	bl	e0014f94 <possibleSwitchTo>
e0016f94:	eaffffed 	b	e0016f50 <doReplyTransfer+0x4c>
e0016f98:	e3a01000 	mov	r1, #0
e0016f9c:	e1a00004 	mov	r0, r4
e0016fa0:	ebfff707 	bl	e0014bc4 <setThreadState>
e0016fa4:	eaffffe9 	b	e0016f50 <doReplyTransfer+0x4c>

e0016fa8 <handleReply>:
e0016fa8:	e30c3000 	movw	r3, #49152	@ 0xc000
e0016fac:	e34e3001 	movt	r3, #57345	@ 0xe001
e0016fb0:	e5930840 	ldr	r0, [r3, #2112]	@ 0x840
e0016fb4:	e3c03f7f 	bic	r3, r0, #508	@ 0x1fc
e0016fb8:	e3c33003 	bic	r3, r3, #3
e0016fbc:	e2832030 	add	r2, r3, #48	@ 0x30
e0016fc0:	e5931030 	ldr	r1, [r3, #48]	@ 0x30
e0016fc4:	e201300e 	and	r3, r1, #14
e0016fc8:	e353000e 	cmp	r3, #14
e0016fcc:	1201300f 	andne	r3, r1, #15
e0016fd0:	06ef3071 	uxtbeq	r3, r1
e0016fd4:	e3530000 	cmp	r3, #0
e0016fd8:	012fff1e 	bxeq	lr
e0016fdc:	e92d4010 	push	{r4, lr}
e0016fe0:	e3530008 	cmp	r3, #8
e0016fe4:	1a000005 	bne	e0017000 <handleReply+0x58>
e0016fe8:	e3110010 	tst	r1, #16
e0016fec:	1a000003 	bne	e0017000 <handleReply+0x58>
e0016ff0:	e7e032d1 	ubfx	r3, r1, #5, #1
e0016ff4:	e3c1103f 	bic	r1, r1, #63	@ 0x3f
e0016ff8:	ebffffc1 	bl	e0016f04 <doReplyTransfer>
e0016ffc:	e8bd8010 	pop	{r4, pc}
e0017000:	ebffe647 	bl	e0010924 <halt>

e0017004 <performInvocation_Reply>:
e0017004:	e92d4010 	push	{r4, lr}
e0017008:	e1a03002 	mov	r3, r2
e001700c:	e30cc000 	movw	ip, #49152	@ 0xc000
e0017010:	e34ec001 	movt	ip, #57345	@ 0xe001
e0017014:	e1a02001 	mov	r2, r1
e0017018:	e1a01000 	mov	r1, r0
e001701c:	e59c0840 	ldr	r0, [ip, #2112]	@ 0x840
e0017020:	ebffffb7 	bl	e0016f04 <doReplyTransfer>
e0017024:	e3a00000 	mov	r0, #0
e0017028:	e8bd8010 	pop	{r4, pc}

e001702c <sendIPC>:
e001702c:	e92d4ff0 	push	{r4, r5, r6, r7, r8, r9, sl, fp, lr}
e0017030:	e24dd01c 	sub	sp, sp, #28
e0017034:	e1a06001 	mov	r6, r1
e0017038:	e1a07002 	mov	r7, r2
e001703c:	e1a05003 	mov	r5, r3
e0017040:	e59d8044 	ldr	r8, [sp, #68]	@ 0x44
e0017044:	e59d4048 	ldr	r4, [sp, #72]	@ 0x48
e0017048:	e5943000 	ldr	r3, [r4]
e001704c:	e3130002 	tst	r3, #2
e0017050:	0a000032 	beq	e0017120 <sendIPC+0xf4>
e0017054:	e2032003 	and	r2, r3, #3
e0017058:	e3520002 	cmp	r2, #2
e001705c:	1a000031 	bne	e0017128 <sendIPC+0xfc>
e0017060:	e5949004 	ldr	r9, [r4, #4]
e0017064:	e3c9900f 	bic	r9, r9, #15
e0017068:	e58d9010 	str	r9, [sp, #16]
e001706c:	e3c3300f 	bic	r3, r3, #15
e0017070:	e58d3014 	str	r3, [sp, #20]
e0017074:	e28db008 	add	fp, sp, #8
e0017078:	e28da010 	add	sl, sp, #16
e001707c:	e89a000c 	ldm	sl, {r2, r3}
e0017080:	e1a01009 	mov	r1, r9
e0017084:	e1a0000b 	mov	r0, fp
e0017088:	ebfff95c 	bl	e0015600 <tcbEPDequeue>
e001708c:	e89b0003 	ldm	fp, {r0, r1}
e0017090:	e88a0003 	stm	sl, {r0, r1}
e0017094:	e5943004 	ldr	r3, [r4, #4]
e0017098:	e203300f 	and	r3, r3, #15
e001709c:	e3c0200f 	bic	r2, r0, #15
e00170a0:	e1833002 	orr	r3, r3, r2
e00170a4:	e5843004 	str	r3, [r4, #4]
e00170a8:	e5943000 	ldr	r3, [r4]
e00170ac:	e203300f 	and	r3, r3, #15
e00170b0:	e59d2014 	ldr	r2, [sp, #20]
e00170b4:	e3c2200f 	bic	r2, r2, #15
e00170b8:	e1833002 	orr	r3, r3, r2
e00170bc:	e3500000 	cmp	r0, #0
e00170c0:	03c33003 	biceq	r3, r3, #3
e00170c4:	e5843000 	str	r3, [r4]
e00170c8:	e58d9000 	str	r9, [sp]
e00170cc:	e1a03005 	mov	r3, r5
e00170d0:	e1a02007 	mov	r2, r7
e00170d4:	e1a01004 	mov	r1, r4
e00170d8:	e1a00008 	mov	r0, r8
e00170dc:	ebffff67 	bl	e0016e80 <doIPCTransfer>
e00170e0:	e5994058 	ldr	r4, [r9, #88]	@ 0x58
e00170e4:	e3a01001 	mov	r1, #1
e00170e8:	e1a00009 	mov	r0, r9
e00170ec:	ebfff6b4 	bl	e0014bc4 <setThreadState>
e00170f0:	e1a00009 	mov	r0, r9
e00170f4:	ebfff7a6 	bl	e0014f94 <possibleSwitchTo>
e00170f8:	e3560000 	cmp	r6, #0
e00170fc:	0a000009 	beq	e0017128 <sendIPC+0xfc>
e0017100:	e59d3040 	ldr	r3, [sp, #64]	@ 0x40
e0017104:	e1953003 	orrs	r3, r5, r3
e0017108:	0a000032 	beq	e00171d8 <sendIPC+0x1ac>
e001710c:	e7e021d4 	ubfx	r2, r4, #3, #1
e0017110:	e1a01009 	mov	r1, r9
e0017114:	e1a00008 	mov	r0, r8
e0017118:	ebfffe6c 	bl	e0016ad0 <setupCallerCap>
e001711c:	ea000001 	b	e0017128 <sendIPC+0xfc>
e0017120:	e3500000 	cmp	r0, #0
e0017124:	1a000001 	bne	e0017130 <sendIPC+0x104>
e0017128:	e28dd01c 	add	sp, sp, #28
e001712c:	e8bd8ff0 	pop	{r4, r5, r6, r7, r8, r9, sl, fp, pc}
e0017130:	e3c4300f 	bic	r3, r4, #15
e0017134:	e3833004 	orr	r3, r3, #4
e0017138:	e5883050 	str	r3, [r8, #80]	@ 0x50
e001713c:	e5983058 	ldr	r3, [r8, #88]	@ 0x58
e0017140:	e203300f 	and	r3, r3, #15
e0017144:	e1833202 	orr	r3, r3, r2, lsl #4
e0017148:	e1a05185 	lsl	r5, r5, #3
e001714c:	e2055008 	and	r5, r5, #8
e0017150:	e3c3300c 	bic	r3, r3, #12
e0017154:	e1833005 	orr	r3, r3, r5
e0017158:	e59d2040 	ldr	r2, [sp, #64]	@ 0x40
e001715c:	e1a02102 	lsl	r2, r2, #2
e0017160:	e2022004 	and	r2, r2, #4
e0017164:	e1833002 	orr	r3, r3, r2
e0017168:	e3c33002 	bic	r3, r3, #2
e001716c:	e1a06081 	lsl	r6, r1, #1
e0017170:	e2066002 	and	r6, r6, #2
e0017174:	e1836006 	orr	r6, r3, r6
e0017178:	e5886058 	str	r6, [r8, #88]	@ 0x58
e001717c:	e1a00008 	mov	r0, r8
e0017180:	ebfff67d 	bl	e0014b7c <scheduleTCB>
e0017184:	e5943004 	ldr	r3, [r4, #4]
e0017188:	e5942000 	ldr	r2, [r4]
e001718c:	e3c2200f 	bic	r2, r2, #15
e0017190:	e3d3300f 	bics	r3, r3, #15
e0017194:	15828090 	strne	r8, [r2, #144]	@ 0x90
e0017198:	01a03008 	moveq	r3, r8
e001719c:	e5882094 	str	r2, [r8, #148]	@ 0x94
e00171a0:	e3a02000 	mov	r2, #0
e00171a4:	e5882090 	str	r2, [r8, #144]	@ 0x90
e00171a8:	e5942000 	ldr	r2, [r4]
e00171ac:	e5941004 	ldr	r1, [r4, #4]
e00171b0:	e201100f 	and	r1, r1, #15
e00171b4:	e3c3300f 	bic	r3, r3, #15
e00171b8:	e1813003 	orr	r3, r1, r3
e00171bc:	e5843004 	str	r3, [r4, #4]
e00171c0:	e202300c 	and	r3, r2, #12
e00171c4:	e3c8800f 	bic	r8, r8, #15
e00171c8:	e1838008 	orr	r8, r3, r8
e00171cc:	e3888001 	orr	r8, r8, #1
e00171d0:	e5848000 	str	r8, [r4]
e00171d4:	eaffffd3 	b	e0017128 <sendIPC+0xfc>
e00171d8:	e3a01000 	mov	r1, #0
e00171dc:	e1a00008 	mov	r0, r8
e00171e0:	ebfff677 	bl	e0014bc4 <setThreadState>
e00171e4:	eaffffcf 	b	e0017128 <sendIPC+0xfc>

e00171e8 <sendFaultIPC>:
e00171e8:	e92d41f0 	push	{r4, r5, r6, r7, r8, lr}
e00171ec:	e24dd020 	sub	sp, sp, #32
e00171f0:	e1a05000 	mov	r5, r0
e00171f4:	e30c3000 	movw	r3, #49152	@ 0xc000
e00171f8:	e34e3001 	movt	r3, #57345	@ 0xe001
e00171fc:	e5937844 	ldr	r7, [r3, #2116]	@ 0x844
e0017200:	e5938848 	ldr	r8, [r3, #2120]	@ 0x848
e0017204:	e5906080 	ldr	r6, [r0, #128]	@ 0x80
e0017208:	e1a02006 	mov	r2, r6
e001720c:	e1a01000 	mov	r1, r0
e0017210:	e28d0014 	add	r0, sp, #20
e0017214:	ebffeeab 	bl	e0012cc8 <lookupCap>
e0017218:	e59d4014 	ldr	r4, [sp, #20]
e001721c:	e3540000 	cmp	r4, #0
e0017220:	1a000021 	bne	e00172ac <sendFaultIPC+0xc4>
e0017224:	e59d2018 	ldr	r2, [sp, #24]
e0017228:	e202300e 	and	r3, r2, #14
e001722c:	e353000e 	cmp	r3, #14
e0017230:	1202300f 	andne	r3, r2, #15
e0017234:	06ef3072 	uxtbeq	r3, r2
e0017238:	e3530004 	cmp	r3, #4
e001723c:	1a000020 	bne	e00172c4 <sendFaultIPC+0xdc>
e0017240:	e59dc01c 	ldr	ip, [sp, #28]
e0017244:	e31c0001 	tst	ip, #1
e0017248:	0a00001d 	beq	e00172c4 <sendFaultIPC+0xdc>
e001724c:	e1a0312c 	lsr	r3, ip, #2
e0017250:	e18311ac 	orr	r1, r3, ip, lsr #3
e0017254:	e3110001 	tst	r1, #1
e0017258:	0a000019 	beq	e00172c4 <sendFaultIPC+0xdc>
e001725c:	e30ce000 	movw	lr, #49152	@ 0xc000
e0017260:	e34ee001 	movt	lr, #57345	@ 0xe001
e0017264:	e2856060 	add	r6, r5, #96	@ 0x60
e0017268:	e28e1e87 	add	r1, lr, #2160	@ 0x870
e001726c:	e8910003 	ldm	r1, {r0, r1}
e0017270:	e8860003 	stm	r6, {r0, r1}
e0017274:	e200100f 	and	r1, r0, #15
e0017278:	e3510001 	cmp	r1, #1
e001727c:	05857068 	streq	r7, [r5, #104]	@ 0x68
e0017280:	0585806c 	streq	r8, [r5, #108]	@ 0x6c
e0017284:	e3ccc00f 	bic	ip, ip, #15
e0017288:	e58dc008 	str	ip, [sp, #8]
e001728c:	e58d5004 	str	r5, [sp, #4]
e0017290:	e3a00001 	mov	r0, #1
e0017294:	e58d0000 	str	r0, [sp]
e0017298:	e0033000 	and	r3, r3, r0
e001729c:	e1a02222 	lsr	r2, r2, #4
e00172a0:	e1a01000 	mov	r1, r0
e00172a4:	ebffff60 	bl	e001702c <sendIPC>
e00172a8:	ea00000d 	b	e00172e4 <sendFaultIPC+0xfc>
e00172ac:	e30c3000 	movw	r3, #49152	@ 0xc000
e00172b0:	e34e3001 	movt	r3, #57345	@ 0xe001
e00172b4:	e3a04001 	mov	r4, #1
e00172b8:	e5834870 	str	r4, [r3, #2160]	@ 0x870
e00172bc:	e5836874 	str	r6, [r3, #2164]	@ 0x874
e00172c0:	ea000007 	b	e00172e4 <sendFaultIPC+0xfc>
e00172c4:	e30c3000 	movw	r3, #49152	@ 0xc000
e00172c8:	e34e3001 	movt	r3, #57345	@ 0xe001
e00172cc:	e3a04001 	mov	r4, #1
e00172d0:	e5834870 	str	r4, [r3, #2160]	@ 0x870
e00172d4:	e5836874 	str	r6, [r3, #2164]	@ 0x874
e00172d8:	e5834844 	str	r4, [r3, #2116]	@ 0x844
e00172dc:	e3a02000 	mov	r2, #0
e00172e0:	e5832848 	str	r2, [r3, #2120]	@ 0x848
e00172e4:	e1a00004 	mov	r0, r4
e00172e8:	e28dd020 	add	sp, sp, #32
e00172ec:	e8bd81f0 	pop	{r4, r5, r6, r7, r8, pc}

e00172f0 <handleFault>:
e00172f0:	e92d4010 	push	{r4, lr}
e00172f4:	e1a04000 	mov	r4, r0
e00172f8:	ebffffba 	bl	e00171e8 <sendFaultIPC>
e00172fc:	e3500000 	cmp	r0, #0
e0017300:	08bd8010 	popeq	{r4, pc}
e0017304:	e3a01000 	mov	r1, #0
e0017308:	e1a00004 	mov	r0, r4
e001730c:	ebfff62c 	bl	e0014bc4 <setThreadState>
e0017310:	e8bd8010 	pop	{r4, pc}

e0017314 <handleUnknownSyscall>:
e0017314:	e92d4010 	push	{r4, lr}
e0017318:	e30c3000 	movw	r3, #49152	@ 0xc000
e001731c:	e34e3001 	movt	r3, #57345	@ 0xe001
e0017320:	e3a02002 	mov	r2, #2
e0017324:	e5832870 	str	r2, [r3, #2160]	@ 0x870
e0017328:	e5830874 	str	r0, [r3, #2164]	@ 0x874
e001732c:	e5930840 	ldr	r0, [r3, #2112]	@ 0x840
e0017330:	ebffffee 	bl	e00172f0 <handleFault>
e0017334:	ebfff823 	bl	e00153c8 <schedule>
e0017338:	ebfff686 	bl	e0014d58 <activateThread>
e001733c:	e3a00000 	mov	r0, #0
e0017340:	e8bd8010 	pop	{r4, pc}

e0017344 <handleUserLevelFault>:
e0017344:	e92d4010 	push	{r4, lr}
e0017348:	e30c3000 	movw	r3, #49152	@ 0xc000
e001734c:	e34e3001 	movt	r3, #57345	@ 0xe001
e0017350:	e1a01201 	lsl	r1, r1, #4
e0017354:	e3811003 	orr	r1, r1, #3
e0017358:	e5831870 	str	r1, [r3, #2160]	@ 0x870
e001735c:	e5830874 	str	r0, [r3, #2164]	@ 0x874
e0017360:	e5930840 	ldr	r0, [r3, #2112]	@ 0x840
e0017364:	ebffffe1 	bl	e00172f0 <handleFault>
e0017368:	ebfff816 	bl	e00153c8 <schedule>
e001736c:	ebfff679 	bl	e0014d58 <activateThread>
e0017370:	e3a00000 	mov	r0, #0
e0017374:	e8bd8010 	pop	{r4, pc}

e0017378 <handleVMFaultEvent>:
e0017378:	e92d4010 	push	{r4, lr}
e001737c:	e1a01000 	mov	r1, r0
e0017380:	e30c3000 	movw	r3, #49152	@ 0xc000
e0017384:	e34e3001 	movt	r3, #57345	@ 0xe001
e0017388:	e5930840 	ldr	r0, [r3, #2112]	@ 0x840
e001738c:	ebffe846 	bl	e00114ac <handleVMFault>
e0017390:	e3500000 	cmp	r0, #0
e0017394:	1a000003 	bne	e00173a8 <handleVMFaultEvent+0x30>
e0017398:	ebfff80a 	bl	e00153c8 <schedule>
e001739c:	ebfff66d 	bl	e0014d58 <activateThread>
e00173a0:	e3a00000 	mov	r0, #0
e00173a4:	e8bd8010 	pop	{r4, pc}
e00173a8:	e30c3000 	movw	r3, #49152	@ 0xc000
e00173ac:	e34e3001 	movt	r3, #57345	@ 0xe001
e00173b0:	e5930840 	ldr	r0, [r3, #2112]	@ 0x840
e00173b4:	ebffffcd 	bl	e00172f0 <handleFault>
e00173b8:	eafffff6 	b	e0017398 <handleVMFaultEvent+0x20>

e00173bc <performInvocation_Endpoint>:
e00173bc:	e52de004 	push	{lr}		@ (str lr, [sp, #-4]!)
e00173c0:	e24dd014 	sub	sp, sp, #20
e00173c4:	e58d0008 	str	r0, [sp, #8]
e00173c8:	e30c0000 	movw	r0, #49152	@ 0xc000
e00173cc:	e34e0001 	movt	r0, #57345	@ 0xe001
e00173d0:	e5900840 	ldr	r0, [r0, #2112]	@ 0x840
e00173d4:	e58d0004 	str	r0, [sp, #4]
e00173d8:	e58d3000 	str	r3, [sp]
e00173dc:	e1a03002 	mov	r3, r2
e00173e0:	e1a02001 	mov	r2, r1
e00173e4:	e59d101c 	ldr	r1, [sp, #28]
e00173e8:	e59d0018 	ldr	r0, [sp, #24]
e00173ec:	ebffff0e 	bl	e001702c <sendIPC>
e00173f0:	e3a00000 	mov	r0, #0
e00173f4:	e28dd014 	add	sp, sp, #20
e00173f8:	e49df004 	pop	{pc}		@ (ldr pc, [sp], #4)

e00173fc <receiveIPC>:
e00173fc:	e92d43f0 	push	{r4, r5, r6, r7, r8, r9, lr}
e0017400:	e24dd024 	sub	sp, sp, #36	@ 0x24
e0017404:	e1a04000 	mov	r4, r0
e0017408:	e28d0010 	add	r0, sp, #16
e001740c:	e8800006 	stm	r0, {r1, r2}
e0017410:	e1a06002 	mov	r6, r2
e0017414:	e3c2500f 	bic	r5, r2, #15
e0017418:	e594005c 	ldr	r0, [r4, #92]	@ 0x5c
e001741c:	e3500000 	cmp	r0, #0
e0017420:	0a000003 	beq	e0017434 <receiveIPC+0x38>
e0017424:	e5902000 	ldr	r2, [r0]
e0017428:	e2022003 	and	r2, r2, #3
e001742c:	e3520002 	cmp	r2, #2
e0017430:	0a000007 	beq	e0017454 <receiveIPC+0x58>
e0017434:	e5952000 	ldr	r2, [r5]
e0017438:	e2021003 	and	r1, r2, #3
e001743c:	e3510001 	cmp	r1, #1
e0017440:	0a000029 	beq	e00174ec <receiveIPC+0xf0>
e0017444:	e3120001 	tst	r2, #1
e0017448:	0a000004 	beq	e0017460 <receiveIPC+0x64>
e001744c:	e28dd024 	add	sp, sp, #36	@ 0x24
e0017450:	e8bd83f0 	pop	{r4, r5, r6, r7, r8, r9, pc}
e0017454:	e1a01004 	mov	r1, r4
e0017458:	ebfff060 	bl	e00135e0 <completeSignal>
e001745c:	eafffffa 	b	e001744c <receiveIPC+0x50>
e0017460:	e3530000 	cmp	r3, #0
e0017464:	03a03000 	moveq	r3, #0
e0017468:	05843000 	streq	r3, [r4]
e001746c:	0afffff6 	beq	e001744c <receiveIPC+0x50>
e0017470:	e3853003 	orr	r3, r5, #3
e0017474:	e5843050 	str	r3, [r4, #80]	@ 0x50
e0017478:	e1a06086 	lsl	r6, r6, #1
e001747c:	e2066008 	and	r6, r6, #8
e0017480:	e5943058 	ldr	r3, [r4, #88]	@ 0x58
e0017484:	e3c33008 	bic	r3, r3, #8
e0017488:	e1866003 	orr	r6, r6, r3
e001748c:	e5846058 	str	r6, [r4, #88]	@ 0x58
e0017490:	e1a00004 	mov	r0, r4
e0017494:	ebfff5b8 	bl	e0014b7c <scheduleTCB>
e0017498:	e5953004 	ldr	r3, [r5, #4]
e001749c:	e5952000 	ldr	r2, [r5]
e00174a0:	e3c2200f 	bic	r2, r2, #15
e00174a4:	e3d3300f 	bics	r3, r3, #15
e00174a8:	15824090 	strne	r4, [r2, #144]	@ 0x90
e00174ac:	01a03004 	moveq	r3, r4
e00174b0:	e5842094 	str	r2, [r4, #148]	@ 0x94
e00174b4:	e3a02000 	mov	r2, #0
e00174b8:	e5842090 	str	r2, [r4, #144]	@ 0x90
e00174bc:	e5952000 	ldr	r2, [r5]
e00174c0:	e5951004 	ldr	r1, [r5, #4]
e00174c4:	e201100f 	and	r1, r1, #15
e00174c8:	e3c3300f 	bic	r3, r3, #15
e00174cc:	e1813003 	orr	r3, r1, r3
e00174d0:	e5853004 	str	r3, [r5, #4]
e00174d4:	e202300c 	and	r3, r2, #12
e00174d8:	e3c4400f 	bic	r4, r4, #15
e00174dc:	e1834004 	orr	r4, r3, r4
e00174e0:	e3844002 	orr	r4, r4, #2
e00174e4:	e5854000 	str	r4, [r5]
e00174e8:	eaffffd7 	b	e001744c <receiveIPC+0x50>
e00174ec:	e5957004 	ldr	r7, [r5, #4]
e00174f0:	e3c7700f 	bic	r7, r7, #15
e00174f4:	e58d7018 	str	r7, [sp, #24]
e00174f8:	e3c2200f 	bic	r2, r2, #15
e00174fc:	e58d201c 	str	r2, [sp, #28]
e0017500:	e28d9008 	add	r9, sp, #8
e0017504:	e28d8018 	add	r8, sp, #24
e0017508:	e898000c 	ldm	r8, {r2, r3}
e001750c:	e1a01007 	mov	r1, r7
e0017510:	e1a00009 	mov	r0, r9
e0017514:	ebfff839 	bl	e0015600 <tcbEPDequeue>
e0017518:	e8990003 	ldm	r9, {r0, r1}
e001751c:	e8880003 	stm	r8, {r0, r1}
e0017520:	e5953004 	ldr	r3, [r5, #4]
e0017524:	e203300f 	and	r3, r3, #15
e0017528:	e3c0200f 	bic	r2, r0, #15
e001752c:	e1833002 	orr	r3, r3, r2
e0017530:	e5853004 	str	r3, [r5, #4]
e0017534:	e5953000 	ldr	r3, [r5]
e0017538:	e203300f 	and	r3, r3, #15
e001753c:	e59d201c 	ldr	r2, [sp, #28]
e0017540:	e3c2200f 	bic	r2, r2, #15
e0017544:	e1833002 	orr	r3, r3, r2
e0017548:	e3500000 	cmp	r0, #0
e001754c:	03c33003 	biceq	r3, r3, #3
e0017550:	e5853000 	str	r3, [r5]
e0017554:	e5979058 	ldr	r9, [r7, #88]	@ 0x58
e0017558:	e1a081a9 	lsr	r8, r9, #3
e001755c:	e58d4000 	str	r4, [sp]
e0017560:	e2083001 	and	r3, r8, #1
e0017564:	e1a02229 	lsr	r2, r9, #4
e0017568:	e1a01005 	mov	r1, r5
e001756c:	e1a00007 	mov	r0, r7
e0017570:	ebfffe42 	bl	e0016e80 <doIPCTransfer>
e0017574:	e5973058 	ldr	r3, [r7, #88]	@ 0x58
e0017578:	e3130002 	tst	r3, #2
e001757c:	0a00000b 	beq	e00175b0 <receiveIPC+0x1b4>
e0017580:	e1888129 	orr	r8, r8, r9, lsr #2
e0017584:	e3180001 	tst	r8, #1
e0017588:	0a000004 	beq	e00175a0 <receiveIPC+0x1a4>
e001758c:	e7e02156 	ubfx	r2, r6, #2, #1
e0017590:	e1a01004 	mov	r1, r4
e0017594:	e1a00007 	mov	r0, r7
e0017598:	ebfffd4c 	bl	e0016ad0 <setupCallerCap>
e001759c:	eaffffaa 	b	e001744c <receiveIPC+0x50>
e00175a0:	e3a01000 	mov	r1, #0
e00175a4:	e1a00007 	mov	r0, r7
e00175a8:	ebfff585 	bl	e0014bc4 <setThreadState>
e00175ac:	eaffffa6 	b	e001744c <receiveIPC+0x50>
e00175b0:	e3a01001 	mov	r1, #1
e00175b4:	e1a00007 	mov	r0, r7
e00175b8:	ebfff581 	bl	e0014bc4 <setThreadState>
e00175bc:	e1a00007 	mov	r0, r7
e00175c0:	ebfff673 	bl	e0014f94 <possibleSwitchTo>
e00175c4:	eaffffa0 	b	e001744c <receiveIPC+0x50>

e00175c8 <handleRecv>:
e00175c8:	e92d4030 	push	{r4, r5, lr}
e00175cc:	e24dd014 	sub	sp, sp, #20
e00175d0:	e1a05000 	mov	r5, r0
e00175d4:	e30c2000 	movw	r2, #49152	@ 0xc000
e00175d8:	e34e2001 	movt	r2, #57345	@ 0xe001
e00175dc:	e5921840 	ldr	r1, [r2, #2112]	@ 0x840
e00175e0:	e5914000 	ldr	r4, [r1]
e00175e4:	e1a02004 	mov	r2, r4
e00175e8:	e28d0004 	add	r0, sp, #4
e00175ec:	ebffedb5 	bl	e0012cc8 <lookupCap>
e00175f0:	e59d000c 	ldr	r0, [sp, #12]
e00175f4:	e59d2004 	ldr	r2, [sp, #4]
e00175f8:	e3520000 	cmp	r2, #0
e00175fc:	1a000015 	bne	e0017658 <handleRecv+0x90>
e0017600:	e59d2008 	ldr	r2, [sp, #8]
e0017604:	e202300e 	and	r3, r2, #14
e0017608:	e353000e 	cmp	r3, #14
e001760c:	1202100f 	andne	r1, r2, #15
e0017610:	06ef1072 	uxtbeq	r1, r2
e0017614:	e3510004 	cmp	r1, #4
e0017618:	0a000016 	beq	e0017678 <handleRecv+0xb0>
e001761c:	e3510006 	cmp	r1, #6
e0017620:	0a00002c 	beq	e00176d8 <handleRecv+0x110>
e0017624:	e30c3000 	movw	r3, #49152	@ 0xc000
e0017628:	e34e3001 	movt	r3, #57345	@ 0xe001
e001762c:	e3a02001 	mov	r2, #1
e0017630:	e5832844 	str	r2, [r3, #2116]	@ 0x844
e0017634:	e3a02000 	mov	r2, #0
e0017638:	e5832848 	str	r2, [r3, #2120]	@ 0x848
e001763c:	e3a02106 	mov	r2, #-2147483647	@ 0x80000001
e0017640:	e5832870 	str	r2, [r3, #2160]	@ 0x870
e0017644:	e5834874 	str	r4, [r3, #2164]	@ 0x874
e0017648:	e5930840 	ldr	r0, [r3, #2112]	@ 0x840
e001764c:	ebffff27 	bl	e00172f0 <handleFault>
e0017650:	e28dd014 	add	sp, sp, #20
e0017654:	e8bd8030 	pop	{r4, r5, pc}
e0017658:	e30c3000 	movw	r3, #49152	@ 0xc000
e001765c:	e34e3001 	movt	r3, #57345	@ 0xe001
e0017660:	e3a02106 	mov	r2, #-2147483647	@ 0x80000001
e0017664:	e5832870 	str	r2, [r3, #2160]	@ 0x870
e0017668:	e5834874 	str	r4, [r3, #2164]	@ 0x874
e001766c:	e5930840 	ldr	r0, [r3, #2112]	@ 0x840
e0017670:	ebffff1e 	bl	e00172f0 <handleFault>
e0017674:	eafffff5 	b	e0017650 <handleRecv+0x88>
e0017678:	e3100002 	tst	r0, #2
e001767c:	0a000009 	beq	e00176a8 <handleRecv+0xe0>
e0017680:	e30c4000 	movw	r4, #49152	@ 0xc000
e0017684:	e34e4001 	movt	r4, #57345	@ 0xe001
e0017688:	e5940840 	ldr	r0, [r4, #2112]	@ 0x840
e001768c:	ebfffd29 	bl	e0016b38 <deleteCallerCap>
e0017690:	e1a03005 	mov	r3, r5
e0017694:	e28d2010 	add	r2, sp, #16
e0017698:	e9120006 	ldmdb	r2, {r1, r2}
e001769c:	e5940840 	ldr	r0, [r4, #2112]	@ 0x840
e00176a0:	ebffff55 	bl	e00173fc <receiveIPC>
e00176a4:	eaffffe9 	b	e0017650 <handleRecv+0x88>
e00176a8:	e30c3000 	movw	r3, #49152	@ 0xc000
e00176ac:	e34e3001 	movt	r3, #57345	@ 0xe001
e00176b0:	e3a02001 	mov	r2, #1
e00176b4:	e5832844 	str	r2, [r3, #2116]	@ 0x844
e00176b8:	e3a02000 	mov	r2, #0
e00176bc:	e5832848 	str	r2, [r3, #2120]	@ 0x848
e00176c0:	e3a02106 	mov	r2, #-2147483647	@ 0x80000001
e00176c4:	e5832870 	str	r2, [r3, #2160]	@ 0x870
e00176c8:	e5834874 	str	r4, [r3, #2164]	@ 0x874
e00176cc:	e5930840 	ldr	r0, [r3, #2112]	@ 0x840
e00176d0:	ebffff06 	bl	e00172f0 <handleFault>
e00176d4:	eaffffdd 	b	e0017650 <handleRecv+0x88>
e00176d8:	e3c2200f 	bic	r2, r2, #15
e00176dc:	e592300c 	ldr	r3, [r2, #12]
e00176e0:	e3c3300f 	bic	r3, r3, #15
e00176e4:	e3100002 	tst	r0, #2
e00176e8:	0a00000e 	beq	e0017728 <handleRecv+0x160>
e00176ec:	e3530000 	cmp	r3, #0
e00176f0:	1a000007 	bne	e0017714 <handleRecv+0x14c>
e00176f4:	e30c0000 	movw	r0, #49152	@ 0xc000
e00176f8:	e34e0001 	movt	r0, #57345	@ 0xe001
e00176fc:	e1a03005 	mov	r3, r5
e0017700:	e28d2010 	add	r2, sp, #16
e0017704:	e9120006 	ldmdb	r2, {r1, r2}
e0017708:	e5900840 	ldr	r0, [r0, #2112]	@ 0x840
e001770c:	ebfff5f0 	bl	e0014ed4 <receiveSignal>
e0017710:	eaffffce 	b	e0017650 <handleRecv+0x88>
e0017714:	e30c2000 	movw	r2, #49152	@ 0xc000
e0017718:	e34e2001 	movt	r2, #57345	@ 0xe001
e001771c:	e5922840 	ldr	r2, [r2, #2112]	@ 0x840
e0017720:	e1520003 	cmp	r2, r3
e0017724:	0afffff2 	beq	e00176f4 <handleRecv+0x12c>
e0017728:	e30c3000 	movw	r3, #49152	@ 0xc000
e001772c:	e34e3001 	movt	r3, #57345	@ 0xe001
e0017730:	e3a02001 	mov	r2, #1
e0017734:	e5832844 	str	r2, [r3, #2116]	@ 0x844
e0017738:	e3a02000 	mov	r2, #0
e001773c:	e5832848 	str	r2, [r3, #2120]	@ 0x848
e0017740:	e3a02106 	mov	r2, #-2147483647	@ 0x80000001
e0017744:	e5832870 	str	r2, [r3, #2160]	@ 0x870
e0017748:	e5834874 	str	r4, [r3, #2164]	@ 0x874
e001774c:	e5930840 	ldr	r0, [r3, #2112]	@ 0x840
e0017750:	ebfffee6 	bl	e00172f0 <handleFault>
e0017754:	eaffffbd 	b	e0017650 <handleRecv+0x88>

e0017758 <decodeDomainInvocation>:
e0017758:	e350001d 	cmp	r0, #29
e001775c:	1a00001b 	bne	e00177d0 <decodeDomainInvocation+0x78>
e0017760:	e3510000 	cmp	r1, #0
e0017764:	0a00001e 	beq	e00177e4 <decodeDomainInvocation+0x8c>
e0017768:	e92d4070 	push	{r4, r5, r6, lr}
e001776c:	e30c3000 	movw	r3, #49152	@ 0xc000
e0017770:	e34e3001 	movt	r3, #57345	@ 0xe001
e0017774:	e5930840 	ldr	r0, [r3, #2112]	@ 0x840
e0017778:	e5905008 	ldr	r5, [r0, #8]
e001777c:	e355000f 	cmp	r5, #15
e0017780:	8a00001d 	bhi	e00177fc <decodeDomainInvocation+0xa4>
e0017784:	e30c3000 	movw	r3, #49152	@ 0xc000
e0017788:	e34e3001 	movt	r3, #57345	@ 0xe001
e001778c:	e5933b08 	ldr	r3, [r3, #2824]	@ 0xb08
e0017790:	e3530000 	cmp	r3, #0
e0017794:	0a000020 	beq	e001781c <decodeDomainInvocation+0xc4>
e0017798:	e5934000 	ldr	r4, [r3]
e001779c:	e204300e 	and	r3, r4, #14
e00177a0:	e353000e 	cmp	r3, #14
e00177a4:	1204300f 	andne	r3, r4, #15
e00177a8:	06ef3074 	uxtbeq	r3, r4
e00177ac:	e353000c 	cmp	r3, #12
e00177b0:	1a00001f 	bne	e0017834 <decodeDomainInvocation+0xdc>
e00177b4:	e3a01002 	mov	r1, #2
e00177b8:	ebfff501 	bl	e0014bc4 <setThreadState>
e00177bc:	e1a01005 	mov	r1, r5
e00177c0:	e3c4000f 	bic	r0, r4, #15
e00177c4:	ebfff756 	bl	e0015524 <setDomain>
e00177c8:	e3a00000 	mov	r0, #0
e00177cc:	e8bd8070 	pop	{r4, r5, r6, pc}
e00177d0:	e30c3000 	movw	r3, #49152	@ 0xc000
e00177d4:	e34e3001 	movt	r3, #57345	@ 0xe001
e00177d8:	e3a00003 	mov	r0, #3
e00177dc:	e5830864 	str	r0, [r3, #2148]	@ 0x864
e00177e0:	e12fff1e 	bx	lr
e00177e4:	e30c3000 	movw	r3, #49152	@ 0xc000
e00177e8:	e34e3001 	movt	r3, #57345	@ 0xe001
e00177ec:	e3a02007 	mov	r2, #7
e00177f0:	e5832864 	str	r2, [r3, #2148]	@ 0x864
e00177f4:	e3a00003 	mov	r0, #3
e00177f8:	e12fff1e 	bx	lr
e00177fc:	e30c3000 	movw	r3, #49152	@ 0xc000
e0017800:	e34e3001 	movt	r3, #57345	@ 0xe001
e0017804:	e3a02001 	mov	r2, #1
e0017808:	e5832864 	str	r2, [r3, #2148]	@ 0x864
e001780c:	e3a02000 	mov	r2, #0
e0017810:	e583284c 	str	r2, [r3, #2124]	@ 0x84c
e0017814:	e3a00003 	mov	r0, #3
e0017818:	e8bd8070 	pop	{r4, r5, r6, pc}
e001781c:	e30c3000 	movw	r3, #49152	@ 0xc000
e0017820:	e34e3001 	movt	r3, #57345	@ 0xe001
e0017824:	e3a02007 	mov	r2, #7
e0017828:	e5832864 	str	r2, [r3, #2148]	@ 0x864
e001782c:	e3a00003 	mov	r0, #3
e0017830:	e8bd8070 	pop	{r4, r5, r6, pc}
e0017834:	e30c3000 	movw	r3, #49152	@ 0xc000
e0017838:	e34e3001 	movt	r3, #57345	@ 0xe001
e001783c:	e3a02001 	mov	r2, #1
e0017840:	e5832864 	str	r2, [r3, #2148]	@ 0x864
e0017844:	e583284c 	str	r2, [r3, #2124]	@ 0x84c
e0017848:	e3a00003 	mov	r0, #3
e001784c:	e8bd8070 	pop	{r4, r5, r6, pc}

e0017850 <invokeTCB_Suspend>:
e0017850:	e92d4010 	push	{r4, lr}
e0017854:	ebfff828 	bl	e00158fc <suspend>
e0017858:	e3a00000 	mov	r0, #0
e001785c:	e8bd8010 	pop	{r4, pc}

e0017860 <invokeTCB_Resume>:
e0017860:	e92d4010 	push	{r4, lr}
e0017864:	ebfffbbe 	bl	e0016764 <restart>
e0017868:	e3a00000 	mov	r0, #0
e001786c:	e8bd8010 	pop	{r4, pc}

e0017870 <invokeTCB_ThreadControl>:
e0017870:	e92d40f0 	push	{r4, r5, r6, r7, lr}
e0017874:	e24dd00c 	sub	sp, sp, #12
e0017878:	e1a05000 	mov	r5, r0
e001787c:	e1a06001 	mov	r6, r1
e0017880:	e59d404c 	ldr	r4, [sp, #76]	@ 0x4c
e0017884:	e3c0000f 	bic	r0, r0, #15
e0017888:	e380000c 	orr	r0, r0, #12
e001788c:	e58d0000 	str	r0, [sp]
e0017890:	e3a01000 	mov	r1, #0
e0017894:	e58d1004 	str	r1, [sp, #4]
e0017898:	e2141004 	ands	r1, r4, #4
e001789c:	0a000064 	beq	e0017a34 <invokeTCB_ThreadControl+0x1c4>
e00178a0:	e5852080 	str	r2, [r5, #128]	@ 0x80
e00178a4:	e3140008 	tst	r4, #8
e00178a8:	1a00002c 	bne	e0017960 <invokeTCB_ThreadControl+0xf0>
e00178ac:	e3c57f7f 	bic	r7, r5, #508	@ 0x1fc
e00178b0:	e3c77003 	bic	r7, r7, #3
e00178b4:	e3a01001 	mov	r1, #1
e00178b8:	e1a00007 	mov	r0, r7
e00178bc:	ebfff8a5 	bl	e0015b58 <cteDelete>
e00178c0:	e3500000 	cmp	r0, #0
e00178c4:	1a000060 	bne	e0017a4c <invokeTCB_ThreadControl+0x1dc>
e00178c8:	e59d302c 	ldr	r3, [sp, #44]	@ 0x2c
e00178cc:	e893000c 	ldm	r3, {r2, r3}
e00178d0:	e28d1024 	add	r1, sp, #36	@ 0x24
e00178d4:	e8910003 	ldm	r1, {r0, r1}
e00178d8:	ebfff367 	bl	e001467c <sameObjectAs>
e00178dc:	e3500000 	cmp	r0, #0
e00178e0:	0a000005 	beq	e00178fc <invokeTCB_ThreadControl+0x8c>
e00178e4:	e896000c 	ldm	r6, {r2, r3}
e00178e8:	e28d1008 	add	r1, sp, #8
e00178ec:	e9110003 	ldmdb	r1, {r0, r1}
e00178f0:	ebfff361 	bl	e001467c <sameObjectAs>
e00178f4:	e3500000 	cmp	r0, #0
e00178f8:	1a00001c 	bne	e0017970 <invokeTCB_ThreadControl+0x100>
e00178fc:	e2877010 	add	r7, r7, #16
e0017900:	e3a01001 	mov	r1, #1
e0017904:	e1a00007 	mov	r0, r7
e0017908:	ebfff892 	bl	e0015b58 <cteDelete>
e001790c:	e3500000 	cmp	r0, #0
e0017910:	1a00004d 	bne	e0017a4c <invokeTCB_ThreadControl+0x1dc>
e0017914:	e59d3038 	ldr	r3, [sp, #56]	@ 0x38
e0017918:	e893000c 	ldm	r3, {r2, r3}
e001791c:	e28d1030 	add	r1, sp, #48	@ 0x30
e0017920:	e8910003 	ldm	r1, {r0, r1}
e0017924:	ebfff354 	bl	e001467c <sameObjectAs>
e0017928:	e3500000 	cmp	r0, #0
e001792c:	0a000042 	beq	e0017a3c <invokeTCB_ThreadControl+0x1cc>
e0017930:	e896000c 	ldm	r6, {r2, r3}
e0017934:	e28d1008 	add	r1, sp, #8
e0017938:	e9110003 	ldmdb	r1, {r0, r1}
e001793c:	ebfff34e 	bl	e001467c <sameObjectAs>
e0017940:	e3500000 	cmp	r0, #0
e0017944:	0a00003c 	beq	e0017a3c <invokeTCB_ThreadControl+0x1cc>
e0017948:	e1a03007 	mov	r3, r7
e001794c:	e59d2038 	ldr	r2, [sp, #56]	@ 0x38
e0017950:	e28d1030 	add	r1, sp, #48	@ 0x30
e0017954:	e8910003 	ldm	r1, {r0, r1}
e0017958:	ebfff3e6 	bl	e00148f8 <cteInsert>
e001795c:	ea000036 	b	e0017a3c <invokeTCB_ThreadControl+0x1cc>
e0017960:	e5853074 	str	r3, [r5, #116]	@ 0x74
e0017964:	e3510000 	cmp	r1, #0
e0017968:	0a000033 	beq	e0017a3c <invokeTCB_ThreadControl+0x1cc>
e001796c:	eaffffce 	b	e00178ac <invokeTCB_ThreadControl+0x3c>
e0017970:	e1a03007 	mov	r3, r7
e0017974:	e59d202c 	ldr	r2, [sp, #44]	@ 0x2c
e0017978:	e28d1024 	add	r1, sp, #36	@ 0x24
e001797c:	e8910003 	ldm	r1, {r0, r1}
e0017980:	ebfff3dc 	bl	e00148f8 <cteInsert>
e0017984:	eaffffdc 	b	e00178fc <invokeTCB_ThreadControl+0x8c>
e0017988:	e3c50f7f 	bic	r0, r5, #508	@ 0x1fc
e001798c:	e3c00003 	bic	r0, r0, #3
e0017990:	e2807040 	add	r7, r0, #64	@ 0x40
e0017994:	e3a01001 	mov	r1, #1
e0017998:	e1a00007 	mov	r0, r7
e001799c:	ebfff86d 	bl	e0015b58 <cteDelete>
e00179a0:	e3500000 	cmp	r0, #0
e00179a4:	1a000028 	bne	e0017a4c <invokeTCB_ThreadControl+0x1dc>
e00179a8:	e59d303c 	ldr	r3, [sp, #60]	@ 0x3c
e00179ac:	e5853084 	str	r3, [r5, #132]	@ 0x84
e00179b0:	e59d3048 	ldr	r3, [sp, #72]	@ 0x48
e00179b4:	e3530000 	cmp	r3, #0
e00179b8:	0a00000b 	beq	e00179ec <invokeTCB_ThreadControl+0x17c>
e00179bc:	e893000c 	ldm	r3, {r2, r3}
e00179c0:	e28d1040 	add	r1, sp, #64	@ 0x40
e00179c4:	e8910003 	ldm	r1, {r0, r1}
e00179c8:	ebfff32b 	bl	e001467c <sameObjectAs>
e00179cc:	e3500000 	cmp	r0, #0
e00179d0:	0a000005 	beq	e00179ec <invokeTCB_ThreadControl+0x17c>
e00179d4:	e896000c 	ldm	r6, {r2, r3}
e00179d8:	e28d1008 	add	r1, sp, #8
e00179dc:	e9110003 	ldmdb	r1, {r0, r1}
e00179e0:	ebfff325 	bl	e001467c <sameObjectAs>
e00179e4:	e3500000 	cmp	r0, #0
e00179e8:	1a000006 	bne	e0017a08 <invokeTCB_ThreadControl+0x198>
e00179ec:	e30c3000 	movw	r3, #49152	@ 0xc000
e00179f0:	e34e3001 	movt	r3, #57345	@ 0xe001
e00179f4:	e5933840 	ldr	r3, [r3, #2112]	@ 0x840
e00179f8:	e1530005 	cmp	r3, r5
e00179fc:	1a000010 	bne	e0017a44 <invokeTCB_ThreadControl+0x1d4>
e0017a00:	ebfff44c 	bl	e0014b38 <rescheduleRequired>
e0017a04:	ea00000e 	b	e0017a44 <invokeTCB_ThreadControl+0x1d4>
e0017a08:	e1a03007 	mov	r3, r7
e0017a0c:	e59d2048 	ldr	r2, [sp, #72]	@ 0x48
e0017a10:	e28d1040 	add	r1, sp, #64	@ 0x40
e0017a14:	e8910003 	ldm	r1, {r0, r1}
e0017a18:	ebfff3b6 	bl	e00148f8 <cteInsert>
e0017a1c:	eafffff2 	b	e00179ec <invokeTCB_ThreadControl+0x17c>
e0017a20:	e59d1020 	ldr	r1, [sp, #32]
e0017a24:	e1a00005 	mov	r0, r5
e0017a28:	ebfff6d1 	bl	e0015574 <setPriority>
e0017a2c:	e3a00000 	mov	r0, #0
e0017a30:	ea000005 	b	e0017a4c <invokeTCB_ThreadControl+0x1dc>
e0017a34:	e3140008 	tst	r4, #8
e0017a38:	1affffc8 	bne	e0017960 <invokeTCB_ThreadControl+0xf0>
e0017a3c:	e3140002 	tst	r4, #2
e0017a40:	1affffd0 	bne	e0017988 <invokeTCB_ThreadControl+0x118>
e0017a44:	e2140001 	ands	r0, r4, #1
e0017a48:	1afffff4 	bne	e0017a20 <invokeTCB_ThreadControl+0x1b0>
e0017a4c:	e28dd00c 	add	sp, sp, #12
e0017a50:	e8bd80f0 	pop	{r4, r5, r6, r7, pc}

e0017a54 <decodeTCBConfigure>:
e0017a54:	e92d4ff0 	push	{r4, r5, r6, r7, r8, r9, sl, fp, lr}
e0017a58:	e24dd074 	sub	sp, sp, #116	@ 0x74
e0017a5c:	e28dc040 	add	ip, sp, #64	@ 0x40
e0017a60:	e88c0003 	stm	ip, {r0, r1}
e0017a64:	e58d3034 	str	r3, [sp, #52]	@ 0x34
e0017a68:	e3520003 	cmp	r2, #3
e0017a6c:	9a000084 	bls	e0017c84 <decodeTCBConfigure+0x230>
e0017a70:	e30c3000 	movw	r3, #49152	@ 0xc000
e0017a74:	e34e3001 	movt	r3, #57345	@ 0xe001
e0017a78:	e5934b08 	ldr	r4, [r3, #2824]	@ 0xb08
e0017a7c:	e3540000 	cmp	r4, #0
e0017a80:	0a00007f 	beq	e0017c84 <decodeTCBConfigure+0x230>
e0017a84:	e30c3000 	movw	r3, #49152	@ 0xc000
e0017a88:	e34e3001 	movt	r3, #57345	@ 0xe001
e0017a8c:	e5936b0c 	ldr	r6, [r3, #2828]	@ 0xb0c
e0017a90:	e3560000 	cmp	r6, #0
e0017a94:	0a00007a 	beq	e0017c84 <decodeTCBConfigure+0x230>
e0017a98:	e30c3000 	movw	r3, #49152	@ 0xc000
e0017a9c:	e34e3001 	movt	r3, #57345	@ 0xe001
e0017aa0:	e5935b10 	ldr	r5, [r3, #2832]	@ 0xb10
e0017aa4:	e3550000 	cmp	r5, #0
e0017aa8:	0a000075 	beq	e0017c84 <decodeTCBConfigure+0x230>
e0017aac:	e30c3000 	movw	r3, #49152	@ 0xc000
e0017ab0:	e34e3001 	movt	r3, #57345	@ 0xe001
e0017ab4:	e5933840 	ldr	r3, [r3, #2112]	@ 0x840
e0017ab8:	e5932008 	ldr	r2, [r3, #8]
e0017abc:	e58d203c 	str	r2, [sp, #60]	@ 0x3c
e0017ac0:	e593a00c 	ldr	sl, [r3, #12]
e0017ac4:	e5932010 	ldr	r2, [r3, #16]
e0017ac8:	e58d2038 	str	r2, [sp, #56]	@ 0x38
e0017acc:	e5939014 	ldr	r9, [r3, #20]
e0017ad0:	e28d3060 	add	r3, sp, #96	@ 0x60
e0017ad4:	e8940003 	ldm	r4, {r0, r1}
e0017ad8:	e8830003 	stm	r3, {r0, r1}
e0017adc:	e1a07000 	mov	r7, r0
e0017ae0:	e28d3058 	add	r3, sp, #88	@ 0x58
e0017ae4:	e8960003 	ldm	r6, {r0, r1}
e0017ae8:	e8830003 	stm	r3, {r0, r1}
e0017aec:	e8950003 	ldm	r5, {r0, r1}
e0017af0:	e28d3070 	add	r3, sp, #112	@ 0x70
e0017af4:	e9030003 	stmdb	r3, {r0, r1}
e0017af8:	e3590000 	cmp	r9, #0
e0017afc:	03a05000 	moveq	r5, #0
e0017b00:	1a000066 	bne	e0017ca0 <decodeTCBConfigure+0x24c>
e0017b04:	e59db040 	ldr	fp, [sp, #64]	@ 0x40
e0017b08:	e3cb8f7f 	bic	r8, fp, #508	@ 0x1fc
e0017b0c:	e3c88003 	bic	r8, r8, #3
e0017b10:	e1a00008 	mov	r0, r8
e0017b14:	ebfff31c 	bl	e001478c <slotCapLongRunningDelete>
e0017b18:	e3500000 	cmp	r0, #0
e0017b1c:	1a000070 	bne	e0017ce4 <decodeTCBConfigure+0x290>
e0017b20:	e2880010 	add	r0, r8, #16
e0017b24:	ebfff318 	bl	e001478c <slotCapLongRunningDelete>
e0017b28:	e3500000 	cmp	r0, #0
e0017b2c:	1a00006c 	bne	e0017ce4 <decodeTCBConfigure+0x290>
e0017b30:	e35a0000 	cmp	sl, #0
e0017b34:	0a000008 	beq	e0017b5c <decodeTCBConfigure+0x108>
e0017b38:	e58d7060 	str	r7, [sp, #96]	@ 0x60
e0017b3c:	e59d3064 	ldr	r3, [sp, #100]	@ 0x64
e0017b40:	e58d3000 	str	r3, [sp]
e0017b44:	e1a03007 	mov	r3, r7
e0017b48:	e1a0200a 	mov	r2, sl
e0017b4c:	e3a01000 	mov	r1, #0
e0017b50:	e28d0060 	add	r0, sp, #96	@ 0x60
e0017b54:	ebffeef2 	bl	e0013724 <updateCapData>
e0017b58:	e59d7060 	ldr	r7, [sp, #96]	@ 0x60
e0017b5c:	e58d7060 	str	r7, [sp, #96]	@ 0x60
e0017b60:	e28d3060 	add	r3, sp, #96	@ 0x60
e0017b64:	e893000c 	ldm	r3, {r2, r3}
e0017b68:	e1a01004 	mov	r1, r4
e0017b6c:	e28d004c 	add	r0, sp, #76	@ 0x4c
e0017b70:	ebfff294 	bl	e00145c8 <deriveCap>
e0017b74:	e59d004c 	ldr	r0, [sp, #76]	@ 0x4c
e0017b78:	e3500000 	cmp	r0, #0
e0017b7c:	1a000045 	bne	e0017c98 <decodeTCBConfigure+0x244>
e0017b80:	e59d7050 	ldr	r7, [sp, #80]	@ 0x50
e0017b84:	e28d3060 	add	r3, sp, #96	@ 0x60
e0017b88:	e28d2050 	add	r2, sp, #80	@ 0x50
e0017b8c:	e8920003 	ldm	r2, {r0, r1}
e0017b90:	e8830003 	stm	r3, {r0, r1}
e0017b94:	e207300e 	and	r3, r7, #14
e0017b98:	e353000e 	cmp	r3, #14
e0017b9c:	1207300f 	andne	r3, r7, #15
e0017ba0:	06ef3077 	uxtbeq	r3, r7
e0017ba4:	e353000a 	cmp	r3, #10
e0017ba8:	1a000052 	bne	e0017cf8 <decodeTCBConfigure+0x2a4>
e0017bac:	e59d2038 	ldr	r2, [sp, #56]	@ 0x38
e0017bb0:	e3520000 	cmp	r2, #0
e0017bb4:	0a000005 	beq	e0017bd0 <decodeTCBConfigure+0x17c>
e0017bb8:	e59d305c 	ldr	r3, [sp, #92]	@ 0x5c
e0017bbc:	e58d3000 	str	r3, [sp]
e0017bc0:	e59d3058 	ldr	r3, [sp, #88]	@ 0x58
e0017bc4:	e3a01000 	mov	r1, #0
e0017bc8:	e28d0058 	add	r0, sp, #88	@ 0x58
e0017bcc:	ebffeed4 	bl	e0013724 <updateCapData>
e0017bd0:	e28d3058 	add	r3, sp, #88	@ 0x58
e0017bd4:	e893000c 	ldm	r3, {r2, r3}
e0017bd8:	e1a01006 	mov	r1, r6
e0017bdc:	e28d004c 	add	r0, sp, #76	@ 0x4c
e0017be0:	ebfff278 	bl	e00145c8 <deriveCap>
e0017be4:	e59d004c 	ldr	r0, [sp, #76]	@ 0x4c
e0017be8:	e3500000 	cmp	r0, #0
e0017bec:	1a000029 	bne	e0017c98 <decodeTCBConfigure+0x244>
e0017bf0:	e28d3058 	add	r3, sp, #88	@ 0x58
e0017bf4:	e28d2050 	add	r2, sp, #80	@ 0x50
e0017bf8:	e8920003 	ldm	r2, {r0, r1}
e0017bfc:	e8830003 	stm	r3, {r0, r1}
e0017c00:	ebffe549 	bl	e001112c <isValidVTableRoot>
e0017c04:	e3500000 	cmp	r0, #0
e0017c08:	0a00003f 	beq	e0017d0c <decodeTCBConfigure+0x2b8>
e0017c0c:	e30c3000 	movw	r3, #49152	@ 0xc000
e0017c10:	e34e3001 	movt	r3, #57345	@ 0xe001
e0017c14:	e3a01002 	mov	r1, #2
e0017c18:	e5930840 	ldr	r0, [r3, #2112]	@ 0x840
e0017c1c:	ebfff3e8 	bl	e0014bc4 <setThreadState>
e0017c20:	e58d7060 	str	r7, [sp, #96]	@ 0x60
e0017c24:	e3a03006 	mov	r3, #6
e0017c28:	e58d302c 	str	r3, [sp, #44]	@ 0x2c
e0017c2c:	e58d5028 	str	r5, [sp, #40]	@ 0x28
e0017c30:	e28d3020 	add	r3, sp, #32
e0017c34:	e28d2070 	add	r2, sp, #112	@ 0x70
e0017c38:	e9120003 	ldmdb	r2, {r0, r1}
e0017c3c:	e8830003 	stm	r3, {r0, r1}
e0017c40:	e58d901c 	str	r9, [sp, #28]
e0017c44:	e58d6018 	str	r6, [sp, #24]
e0017c48:	e28d3010 	add	r3, sp, #16
e0017c4c:	e28d2058 	add	r2, sp, #88	@ 0x58
e0017c50:	e8920003 	ldm	r2, {r0, r1}
e0017c54:	e8830003 	stm	r3, {r0, r1}
e0017c58:	e58d400c 	str	r4, [sp, #12]
e0017c5c:	e28d3060 	add	r3, sp, #96	@ 0x60
e0017c60:	e8930003 	ldm	r3, {r0, r1}
e0017c64:	e98d0003 	stmib	sp, {r0, r1}
e0017c68:	e3a03000 	mov	r3, #0
e0017c6c:	e58d3000 	str	r3, [sp]
e0017c70:	e59d203c 	ldr	r2, [sp, #60]	@ 0x3c
e0017c74:	e59d1034 	ldr	r1, [sp, #52]	@ 0x34
e0017c78:	e3cb000f 	bic	r0, fp, #15
e0017c7c:	ebfffefb 	bl	e0017870 <invokeTCB_ThreadControl>
e0017c80:	ea000004 	b	e0017c98 <decodeTCBConfigure+0x244>
e0017c84:	e30c3000 	movw	r3, #49152	@ 0xc000
e0017c88:	e34e3001 	movt	r3, #57345	@ 0xe001
e0017c8c:	e3a02007 	mov	r2, #7
e0017c90:	e5832864 	str	r2, [r3, #2148]	@ 0x864
e0017c94:	e3a00003 	mov	r0, #3
e0017c98:	e28dd074 	add	sp, sp, #116	@ 0x74
e0017c9c:	e8bd8ff0 	pop	{r4, r5, r6, r7, r8, r9, sl, fp, pc}
e0017ca0:	e913000c 	ldmdb	r3, {r2, r3}
e0017ca4:	e1a01005 	mov	r1, r5
e0017ca8:	e28d004c 	add	r0, sp, #76	@ 0x4c
e0017cac:	ebfff245 	bl	e00145c8 <deriveCap>
e0017cb0:	e59d004c 	ldr	r0, [sp, #76]	@ 0x4c
e0017cb4:	e3500000 	cmp	r0, #0
e0017cb8:	1afffff6 	bne	e0017c98 <decodeTCBConfigure+0x244>
e0017cbc:	e28d3068 	add	r3, sp, #104	@ 0x68
e0017cc0:	e28d2050 	add	r2, sp, #80	@ 0x50
e0017cc4:	e8920003 	ldm	r2, {r0, r1}
e0017cc8:	e8830003 	stm	r3, {r0, r1}
e0017ccc:	e8930006 	ldm	r3, {r1, r2}
e0017cd0:	e1a00009 	mov	r0, r9
e0017cd4:	ebffe4d7 	bl	e0011038 <checkValidIPCBuffer>
e0017cd8:	e3500000 	cmp	r0, #0
e0017cdc:	0affff88 	beq	e0017b04 <decodeTCBConfigure+0xb0>
e0017ce0:	eaffffec 	b	e0017c98 <decodeTCBConfigure+0x244>
e0017ce4:	e30c3000 	movw	r3, #49152	@ 0xc000
e0017ce8:	e34e3001 	movt	r3, #57345	@ 0xe001
e0017cec:	e3a00003 	mov	r0, #3
e0017cf0:	e5830864 	str	r0, [r3, #2148]	@ 0x864
e0017cf4:	eaffffe7 	b	e0017c98 <decodeTCBConfigure+0x244>
e0017cf8:	e30c3000 	movw	r3, #49152	@ 0xc000
e0017cfc:	e34e3001 	movt	r3, #57345	@ 0xe001
e0017d00:	e3a00003 	mov	r0, #3
e0017d04:	e5830864 	str	r0, [r3, #2148]	@ 0x864
e0017d08:	eaffffe2 	b	e0017c98 <decodeTCBConfigure+0x244>
e0017d0c:	e30c3000 	movw	r3, #49152	@ 0xc000
e0017d10:	e34e3001 	movt	r3, #57345	@ 0xe001
e0017d14:	e3a00003 	mov	r0, #3
e0017d18:	e5830864 	str	r0, [r3, #2148]	@ 0x864
e0017d1c:	eaffffdd 	b	e0017c98 <decodeTCBConfigure+0x244>

e0017d20 <decodeSetPriority>:
e0017d20:	e92d4010 	push	{r4, lr}
e0017d24:	e24dd040 	sub	sp, sp, #64	@ 0x40
e0017d28:	e28d3030 	add	r3, sp, #48	@ 0x30
e0017d2c:	e8830003 	stm	r3, {r0, r1}
e0017d30:	e3520000 	cmp	r2, #0
e0017d34:	0a000014 	beq	e0017d8c <decodeSetPriority+0x6c>
e0017d38:	e30c3000 	movw	r3, #49152	@ 0xc000
e0017d3c:	e34e3001 	movt	r3, #57345	@ 0xe001
e0017d40:	e5933b08 	ldr	r3, [r3, #2824]	@ 0xb08
e0017d44:	e3530000 	cmp	r3, #0
e0017d48:	0a00000f 	beq	e0017d8c <decodeSetPriority+0x6c>
e0017d4c:	e5933000 	ldr	r3, [r3]
e0017d50:	e203200e 	and	r2, r3, #14
e0017d54:	e352000e 	cmp	r2, #14
e0017d58:	1203200f 	andne	r2, r3, #15
e0017d5c:	06ef2073 	uxtbeq	r2, r3
e0017d60:	e352000c 	cmp	r2, #12
e0017d64:	0a00000e 	beq	e0017da4 <decodeSetPriority+0x84>
e0017d68:	e30c3000 	movw	r3, #49152	@ 0xc000
e0017d6c:	e34e3001 	movt	r3, #57345	@ 0xe001
e0017d70:	e3a02002 	mov	r2, #2
e0017d74:	e5832864 	str	r2, [r3, #2148]	@ 0x864
e0017d78:	e3a02001 	mov	r2, #1
e0017d7c:	e5832850 	str	r2, [r3, #2128]	@ 0x850
e0017d80:	e3a00003 	mov	r0, #3
e0017d84:	e28dd040 	add	sp, sp, #64	@ 0x40
e0017d88:	e8bd8010 	pop	{r4, pc}
e0017d8c:	e30c3000 	movw	r3, #49152	@ 0xc000
e0017d90:	e34e3001 	movt	r3, #57345	@ 0xe001
e0017d94:	e3a02007 	mov	r2, #7
e0017d98:	e5832864 	str	r2, [r3, #2148]	@ 0x864
e0017d9c:	e3a00003 	mov	r0, #3
e0017da0:	eafffff7 	b	e0017d84 <decodeSetPriority+0x64>
e0017da4:	e30c2000 	movw	r2, #49152	@ 0xc000
e0017da8:	e34e2001 	movt	r2, #57345	@ 0xe001
e0017dac:	e5920840 	ldr	r0, [r2, #2112]	@ 0x840
e0017db0:	e5904008 	ldr	r4, [r0, #8]
e0017db4:	e3c3300f 	bic	r3, r3, #15
e0017db8:	e5933074 	ldr	r3, [r3, #116]	@ 0x74
e0017dbc:	e1540003 	cmp	r4, r3
e0017dc0:	8a00001a 	bhi	e0017e30 <decodeSetPriority+0x110>
e0017dc4:	e3a01002 	mov	r1, #2
e0017dc8:	ebfff37d 	bl	e0014bc4 <setThreadState>
e0017dcc:	e3a03000 	mov	r3, #0
e0017dd0:	e58d3038 	str	r3, [sp, #56]	@ 0x38
e0017dd4:	e58d303c 	str	r3, [sp, #60]	@ 0x3c
e0017dd8:	e3a02001 	mov	r2, #1
e0017ddc:	e58d202c 	str	r2, [sp, #44]	@ 0x2c
e0017de0:	e58d3028 	str	r3, [sp, #40]	@ 0x28
e0017de4:	e28dc020 	add	ip, sp, #32
e0017de8:	e28d2038 	add	r2, sp, #56	@ 0x38
e0017dec:	e8920003 	ldm	r2, {r0, r1}
e0017df0:	e88c0003 	stm	ip, {r0, r1}
e0017df4:	e58d301c 	str	r3, [sp, #28]
e0017df8:	e58d3018 	str	r3, [sp, #24]
e0017dfc:	e28dc010 	add	ip, sp, #16
e0017e00:	e8920003 	ldm	r2, {r0, r1}
e0017e04:	e88c0003 	stm	ip, {r0, r1}
e0017e08:	e58d300c 	str	r3, [sp, #12]
e0017e0c:	e8920003 	ldm	r2, {r0, r1}
e0017e10:	e98d0003 	stmib	sp, {r0, r1}
e0017e14:	e58d4000 	str	r4, [sp]
e0017e18:	e1a02003 	mov	r2, r3
e0017e1c:	e1a01003 	mov	r1, r3
e0017e20:	e59d0030 	ldr	r0, [sp, #48]	@ 0x30
e0017e24:	e3c0000f 	bic	r0, r0, #15
e0017e28:	ebfffe90 	bl	e0017870 <invokeTCB_ThreadControl>
e0017e2c:	eaffffd4 	b	e0017d84 <decodeSetPriority+0x64>
e0017e30:	e30c2000 	movw	r2, #49152	@ 0xc000
e0017e34:	e34e2001 	movt	r2, #57345	@ 0xe001
e0017e38:	e3a01004 	mov	r1, #4
e0017e3c:	e5821864 	str	r1, [r2, #2148]	@ 0x864
e0017e40:	e3a01000 	mov	r1, #0
e0017e44:	e5821854 	str	r1, [r2, #2132]	@ 0x854
e0017e48:	e5823858 	str	r3, [r2, #2136]	@ 0x858
e0017e4c:	e3a00003 	mov	r0, #3
e0017e50:	eaffffcb 	b	e0017d84 <decodeSetPriority+0x64>

e0017e54 <decodeSetMCPriority>:
e0017e54:	e92d4010 	push	{r4, lr}
e0017e58:	e24dd040 	sub	sp, sp, #64	@ 0x40
e0017e5c:	e28d3030 	add	r3, sp, #48	@ 0x30
e0017e60:	e8830003 	stm	r3, {r0, r1}
e0017e64:	e3520000 	cmp	r2, #0
e0017e68:	0a000014 	beq	e0017ec0 <decodeSetMCPriority+0x6c>
e0017e6c:	e30c3000 	movw	r3, #49152	@ 0xc000
e0017e70:	e34e3001 	movt	r3, #57345	@ 0xe001
e0017e74:	e5933b08 	ldr	r3, [r3, #2824]	@ 0xb08
e0017e78:	e3530000 	cmp	r3, #0
e0017e7c:	0a00000f 	beq	e0017ec0 <decodeSetMCPriority+0x6c>
e0017e80:	e5933000 	ldr	r3, [r3]
e0017e84:	e203200e 	and	r2, r3, #14
e0017e88:	e352000e 	cmp	r2, #14
e0017e8c:	1203200f 	andne	r2, r3, #15
e0017e90:	06ef2073 	uxtbeq	r2, r3
e0017e94:	e352000c 	cmp	r2, #12
e0017e98:	0a00000e 	beq	e0017ed8 <decodeSetMCPriority+0x84>
e0017e9c:	e30c3000 	movw	r3, #49152	@ 0xc000
e0017ea0:	e34e3001 	movt	r3, #57345	@ 0xe001
e0017ea4:	e3a02002 	mov	r2, #2
e0017ea8:	e5832864 	str	r2, [r3, #2148]	@ 0x864
e0017eac:	e3a02001 	mov	r2, #1
e0017eb0:	e5832850 	str	r2, [r3, #2128]	@ 0x850
e0017eb4:	e3a00003 	mov	r0, #3
e0017eb8:	e28dd040 	add	sp, sp, #64	@ 0x40
e0017ebc:	e8bd8010 	pop	{r4, pc}
e0017ec0:	e30c3000 	movw	r3, #49152	@ 0xc000
e0017ec4:	e34e3001 	movt	r3, #57345	@ 0xe001
e0017ec8:	e3a02007 	mov	r2, #7
e0017ecc:	e5832864 	str	r2, [r3, #2148]	@ 0x864
e0017ed0:	e3a00003 	mov	r0, #3
e0017ed4:	eafffff7 	b	e0017eb8 <decodeSetMCPriority+0x64>
e0017ed8:	e30c2000 	movw	r2, #49152	@ 0xc000
e0017edc:	e34e2001 	movt	r2, #57345	@ 0xe001
e0017ee0:	e5920840 	ldr	r0, [r2, #2112]	@ 0x840
e0017ee4:	e5904008 	ldr	r4, [r0, #8]
e0017ee8:	e3c3300f 	bic	r3, r3, #15
e0017eec:	e5933074 	ldr	r3, [r3, #116]	@ 0x74
e0017ef0:	e1540003 	cmp	r4, r3
e0017ef4:	8a00001a 	bhi	e0017f64 <decodeSetMCPriority+0x110>
e0017ef8:	e3a01002 	mov	r1, #2
e0017efc:	ebfff330 	bl	e0014bc4 <setThreadState>
e0017f00:	e3a02000 	mov	r2, #0
e0017f04:	e58d2038 	str	r2, [sp, #56]	@ 0x38
e0017f08:	e58d203c 	str	r2, [sp, #60]	@ 0x3c
e0017f0c:	e3a03008 	mov	r3, #8
e0017f10:	e58d302c 	str	r3, [sp, #44]	@ 0x2c
e0017f14:	e58d2028 	str	r2, [sp, #40]	@ 0x28
e0017f18:	e28dc020 	add	ip, sp, #32
e0017f1c:	e28d3038 	add	r3, sp, #56	@ 0x38
e0017f20:	e8930003 	ldm	r3, {r0, r1}
e0017f24:	e88c0003 	stm	ip, {r0, r1}
e0017f28:	e58d201c 	str	r2, [sp, #28]
e0017f2c:	e58d2018 	str	r2, [sp, #24]
e0017f30:	e28dc010 	add	ip, sp, #16
e0017f34:	e8930003 	ldm	r3, {r0, r1}
e0017f38:	e88c0003 	stm	ip, {r0, r1}
e0017f3c:	e58d200c 	str	r2, [sp, #12]
e0017f40:	e8930003 	ldm	r3, {r0, r1}
e0017f44:	e98d0003 	stmib	sp, {r0, r1}
e0017f48:	e58d2000 	str	r2, [sp]
e0017f4c:	e1a03004 	mov	r3, r4
e0017f50:	e1a01002 	mov	r1, r2
e0017f54:	e59d0030 	ldr	r0, [sp, #48]	@ 0x30
e0017f58:	e3c0000f 	bic	r0, r0, #15
e0017f5c:	ebfffe43 	bl	e0017870 <invokeTCB_ThreadControl>
e0017f60:	eaffffd4 	b	e0017eb8 <decodeSetMCPriority+0x64>
e0017f64:	e30c2000 	movw	r2, #49152	@ 0xc000
e0017f68:	e34e2001 	movt	r2, #57345	@ 0xe001
e0017f6c:	e3a01004 	mov	r1, #4
e0017f70:	e5821864 	str	r1, [r2, #2148]	@ 0x864
e0017f74:	e3a01000 	mov	r1, #0
e0017f78:	e5821854 	str	r1, [r2, #2132]	@ 0x854
e0017f7c:	e5823858 	str	r3, [r2, #2136]	@ 0x858
e0017f80:	e3a00003 	mov	r0, #3
e0017f84:	eaffffcb 	b	e0017eb8 <decodeSetMCPriority+0x64>

e0017f88 <decodeSetSchedParams>:
e0017f88:	e92d4030 	push	{r4, r5, lr}
e0017f8c:	e24dd044 	sub	sp, sp, #68	@ 0x44
e0017f90:	e28d3030 	add	r3, sp, #48	@ 0x30
e0017f94:	e8830003 	stm	r3, {r0, r1}
e0017f98:	e3520001 	cmp	r2, #1
e0017f9c:	9a000014 	bls	e0017ff4 <decodeSetSchedParams+0x6c>
e0017fa0:	e30c3000 	movw	r3, #49152	@ 0xc000
e0017fa4:	e34e3001 	movt	r3, #57345	@ 0xe001
e0017fa8:	e5933b08 	ldr	r3, [r3, #2824]	@ 0xb08
e0017fac:	e3530000 	cmp	r3, #0
e0017fb0:	0a00000f 	beq	e0017ff4 <decodeSetSchedParams+0x6c>
e0017fb4:	e5933000 	ldr	r3, [r3]
e0017fb8:	e203200e 	and	r2, r3, #14
e0017fbc:	e352000e 	cmp	r2, #14
e0017fc0:	1203200f 	andne	r2, r3, #15
e0017fc4:	06ef2073 	uxtbeq	r2, r3
e0017fc8:	e352000c 	cmp	r2, #12
e0017fcc:	0a00000e 	beq	e001800c <decodeSetSchedParams+0x84>
e0017fd0:	e30c3000 	movw	r3, #49152	@ 0xc000
e0017fd4:	e34e3001 	movt	r3, #57345	@ 0xe001
e0017fd8:	e3a02002 	mov	r2, #2
e0017fdc:	e5832864 	str	r2, [r3, #2148]	@ 0x864
e0017fe0:	e3a02001 	mov	r2, #1
e0017fe4:	e5832850 	str	r2, [r3, #2128]	@ 0x850
e0017fe8:	e3a00003 	mov	r0, #3
e0017fec:	e28dd044 	add	sp, sp, #68	@ 0x44
e0017ff0:	e8bd8030 	pop	{r4, r5, pc}
e0017ff4:	e30c3000 	movw	r3, #49152	@ 0xc000
e0017ff8:	e34e3001 	movt	r3, #57345	@ 0xe001
e0017ffc:	e3a02007 	mov	r2, #7
e0018000:	e5832864 	str	r2, [r3, #2148]	@ 0x864
e0018004:	e3a00003 	mov	r0, #3
e0018008:	eafffff7 	b	e0017fec <decodeSetSchedParams+0x64>
e001800c:	e30c2000 	movw	r2, #49152	@ 0xc000
e0018010:	e34e2001 	movt	r2, #57345	@ 0xe001
e0018014:	e5920840 	ldr	r0, [r2, #2112]	@ 0x840
e0018018:	e5904008 	ldr	r4, [r0, #8]
e001801c:	e3c3300f 	bic	r3, r3, #15
e0018020:	e5933074 	ldr	r3, [r3, #116]	@ 0x74
e0018024:	e1540003 	cmp	r4, r3
e0018028:	8a00001d 	bhi	e00180a4 <decodeSetSchedParams+0x11c>
e001802c:	e590500c 	ldr	r5, [r0, #12]
e0018030:	e1550003 	cmp	r5, r3
e0018034:	8a000023 	bhi	e00180c8 <decodeSetSchedParams+0x140>
e0018038:	e3a01002 	mov	r1, #2
e001803c:	ebfff2e0 	bl	e0014bc4 <setThreadState>
e0018040:	e3a02000 	mov	r2, #0
e0018044:	e58d2038 	str	r2, [sp, #56]	@ 0x38
e0018048:	e58d203c 	str	r2, [sp, #60]	@ 0x3c
e001804c:	e3a03009 	mov	r3, #9
e0018050:	e58d302c 	str	r3, [sp, #44]	@ 0x2c
e0018054:	e58d2028 	str	r2, [sp, #40]	@ 0x28
e0018058:	e28dc020 	add	ip, sp, #32
e001805c:	e28d3038 	add	r3, sp, #56	@ 0x38
e0018060:	e8930003 	ldm	r3, {r0, r1}
e0018064:	e88c0003 	stm	ip, {r0, r1}
e0018068:	e58d201c 	str	r2, [sp, #28]
e001806c:	e58d2018 	str	r2, [sp, #24]
e0018070:	e28dc010 	add	ip, sp, #16
e0018074:	e8930003 	ldm	r3, {r0, r1}
e0018078:	e88c0003 	stm	ip, {r0, r1}
e001807c:	e58d200c 	str	r2, [sp, #12]
e0018080:	e8930003 	ldm	r3, {r0, r1}
e0018084:	e98d0003 	stmib	sp, {r0, r1}
e0018088:	e58d5000 	str	r5, [sp]
e001808c:	e1a03004 	mov	r3, r4
e0018090:	e1a01002 	mov	r1, r2
e0018094:	e59d0030 	ldr	r0, [sp, #48]	@ 0x30
e0018098:	e3c0000f 	bic	r0, r0, #15
e001809c:	ebfffdf3 	bl	e0017870 <invokeTCB_ThreadControl>
e00180a0:	eaffffd1 	b	e0017fec <decodeSetSchedParams+0x64>
e00180a4:	e30c2000 	movw	r2, #49152	@ 0xc000
e00180a8:	e34e2001 	movt	r2, #57345	@ 0xe001
e00180ac:	e3a01004 	mov	r1, #4
e00180b0:	e5821864 	str	r1, [r2, #2148]	@ 0x864
e00180b4:	e3a01000 	mov	r1, #0
e00180b8:	e5821854 	str	r1, [r2, #2132]	@ 0x854
e00180bc:	e5823858 	str	r3, [r2, #2136]	@ 0x858
e00180c0:	e3a00003 	mov	r0, #3
e00180c4:	eaffffc8 	b	e0017fec <decodeSetSchedParams+0x64>
e00180c8:	e30c2000 	movw	r2, #49152	@ 0xc000
e00180cc:	e34e2001 	movt	r2, #57345	@ 0xe001
e00180d0:	e3a01004 	mov	r1, #4
e00180d4:	e5821864 	str	r1, [r2, #2148]	@ 0x864
e00180d8:	e3a01000 	mov	r1, #0
e00180dc:	e5821854 	str	r1, [r2, #2132]	@ 0x854
e00180e0:	e5823858 	str	r3, [r2, #2136]	@ 0x858
e00180e4:	e3a00003 	mov	r0, #3
e00180e8:	eaffffbf 	b	e0017fec <decodeSetSchedParams+0x64>

e00180ec <decodeSetIPCBuffer>:
e00180ec:	e92d4070 	push	{r4, r5, r6, lr}
e00180f0:	e24dd058 	sub	sp, sp, #88	@ 0x58
e00180f4:	e28dc030 	add	ip, sp, #48	@ 0x30
e00180f8:	e88c0003 	stm	ip, {r0, r1}
e00180fc:	e3520000 	cmp	r2, #0
e0018100:	0a00001f 	beq	e0018184 <decodeSetIPCBuffer+0x98>
e0018104:	e1a05003 	mov	r5, r3
e0018108:	e30c3000 	movw	r3, #49152	@ 0xc000
e001810c:	e34e3001 	movt	r3, #57345	@ 0xe001
e0018110:	e5934b08 	ldr	r4, [r3, #2824]	@ 0xb08
e0018114:	e3540000 	cmp	r4, #0
e0018118:	0a000019 	beq	e0018184 <decodeSetIPCBuffer+0x98>
e001811c:	e30c3000 	movw	r3, #49152	@ 0xc000
e0018120:	e34e3001 	movt	r3, #57345	@ 0xe001
e0018124:	e5933840 	ldr	r3, [r3, #2112]	@ 0x840
e0018128:	e5936008 	ldr	r6, [r3, #8]
e001812c:	e28d3048 	add	r3, sp, #72	@ 0x48
e0018130:	e8940003 	ldm	r4, {r0, r1}
e0018134:	e8830003 	stm	r3, {r0, r1}
e0018138:	e3560000 	cmp	r6, #0
e001813c:	0a000016 	beq	e001819c <decodeSetIPCBuffer+0xb0>
e0018140:	e893000c 	ldm	r3, {r2, r3}
e0018144:	e1a01004 	mov	r1, r4
e0018148:	e28d003c 	add	r0, sp, #60	@ 0x3c
e001814c:	ebfff11d 	bl	e00145c8 <deriveCap>
e0018150:	e59d003c 	ldr	r0, [sp, #60]	@ 0x3c
e0018154:	e3500000 	cmp	r0, #0
e0018158:	1a00002e 	bne	e0018218 <decodeSetIPCBuffer+0x12c>
e001815c:	e28d3048 	add	r3, sp, #72	@ 0x48
e0018160:	e28d2040 	add	r2, sp, #64	@ 0x40
e0018164:	e8920003 	ldm	r2, {r0, r1}
e0018168:	e8830003 	stm	r3, {r0, r1}
e001816c:	e8930006 	ldm	r3, {r1, r2}
e0018170:	e1a00006 	mov	r0, r6
e0018174:	ebffe3af 	bl	e0011038 <checkValidIPCBuffer>
e0018178:	e3500000 	cmp	r0, #0
e001817c:	0a000007 	beq	e00181a0 <decodeSetIPCBuffer+0xb4>
e0018180:	ea000024 	b	e0018218 <decodeSetIPCBuffer+0x12c>
e0018184:	e30c3000 	movw	r3, #49152	@ 0xc000
e0018188:	e34e3001 	movt	r3, #57345	@ 0xe001
e001818c:	e3a02007 	mov	r2, #7
e0018190:	e5832864 	str	r2, [r3, #2148]	@ 0x864
e0018194:	e3a00003 	mov	r0, #3
e0018198:	ea00001e 	b	e0018218 <decodeSetIPCBuffer+0x12c>
e001819c:	e3a04000 	mov	r4, #0
e00181a0:	e30c3000 	movw	r3, #49152	@ 0xc000
e00181a4:	e34e3001 	movt	r3, #57345	@ 0xe001
e00181a8:	e3a01002 	mov	r1, #2
e00181ac:	e5930840 	ldr	r0, [r3, #2112]	@ 0x840
e00181b0:	ebfff283 	bl	e0014bc4 <setThreadState>
e00181b4:	e3a02000 	mov	r2, #0
e00181b8:	e58d2050 	str	r2, [sp, #80]	@ 0x50
e00181bc:	e58d2054 	str	r2, [sp, #84]	@ 0x54
e00181c0:	e3a03002 	mov	r3, #2
e00181c4:	e58d302c 	str	r3, [sp, #44]	@ 0x2c
e00181c8:	e58d4028 	str	r4, [sp, #40]	@ 0x28
e00181cc:	e28d3020 	add	r3, sp, #32
e00181d0:	e28d1048 	add	r1, sp, #72	@ 0x48
e00181d4:	e8910003 	ldm	r1, {r0, r1}
e00181d8:	e8830003 	stm	r3, {r0, r1}
e00181dc:	e58d601c 	str	r6, [sp, #28]
e00181e0:	e58d2018 	str	r2, [sp, #24]
e00181e4:	e28dc010 	add	ip, sp, #16
e00181e8:	e28d3050 	add	r3, sp, #80	@ 0x50
e00181ec:	e8930003 	ldm	r3, {r0, r1}
e00181f0:	e88c0003 	stm	ip, {r0, r1}
e00181f4:	e58d200c 	str	r2, [sp, #12]
e00181f8:	e8930003 	ldm	r3, {r0, r1}
e00181fc:	e98d0003 	stmib	sp, {r0, r1}
e0018200:	e58d2000 	str	r2, [sp]
e0018204:	e1a03002 	mov	r3, r2
e0018208:	e1a01005 	mov	r1, r5
e001820c:	e59d0030 	ldr	r0, [sp, #48]	@ 0x30
e0018210:	e3c0000f 	bic	r0, r0, #15
e0018214:	ebfffd95 	bl	e0017870 <invokeTCB_ThreadControl>
e0018218:	e28dd058 	add	sp, sp, #88	@ 0x58
e001821c:	e8bd8070 	pop	{r4, r5, r6, pc}

e0018220 <decodeSetSpace>:
e0018220:	e92d4ff0 	push	{r4, r5, r6, r7, r8, r9, sl, fp, lr}
e0018224:	e24dd06c 	sub	sp, sp, #108	@ 0x6c
e0018228:	e28dc038 	add	ip, sp, #56	@ 0x38
e001822c:	e88c0003 	stm	ip, {r0, r1}
e0018230:	e58d3034 	str	r3, [sp, #52]	@ 0x34
e0018234:	e3520002 	cmp	r2, #2
e0018238:	9a000078 	bls	e0018420 <decodeSetSpace+0x200>
e001823c:	e30c3000 	movw	r3, #49152	@ 0xc000
e0018240:	e34e3001 	movt	r3, #57345	@ 0xe001
e0018244:	e5934b08 	ldr	r4, [r3, #2824]	@ 0xb08
e0018248:	e3540000 	cmp	r4, #0
e001824c:	0a000073 	beq	e0018420 <decodeSetSpace+0x200>
e0018250:	e30c3000 	movw	r3, #49152	@ 0xc000
e0018254:	e34e3001 	movt	r3, #57345	@ 0xe001
e0018258:	e5936b0c 	ldr	r6, [r3, #2828]	@ 0xb0c
e001825c:	e3560000 	cmp	r6, #0
e0018260:	0a00006e 	beq	e0018420 <decodeSetSpace+0x200>
e0018264:	e30c3000 	movw	r3, #49152	@ 0xc000
e0018268:	e34e3001 	movt	r3, #57345	@ 0xe001
e001826c:	e5933840 	ldr	r3, [r3, #2112]	@ 0x840
e0018270:	e593b008 	ldr	fp, [r3, #8]
e0018274:	e593900c 	ldr	r9, [r3, #12]
e0018278:	e593a010 	ldr	sl, [r3, #16]
e001827c:	e28d3058 	add	r3, sp, #88	@ 0x58
e0018280:	e8940003 	ldm	r4, {r0, r1}
e0018284:	e8830003 	stm	r3, {r0, r1}
e0018288:	e1a07000 	mov	r7, r0
e001828c:	e28d3050 	add	r3, sp, #80	@ 0x50
e0018290:	e8960003 	ldm	r6, {r0, r1}
e0018294:	e8830003 	stm	r3, {r0, r1}
e0018298:	e59d8038 	ldr	r8, [sp, #56]	@ 0x38
e001829c:	e3c85f7f 	bic	r5, r8, #508	@ 0x1fc
e00182a0:	e3c55003 	bic	r5, r5, #3
e00182a4:	e1a00005 	mov	r0, r5
e00182a8:	ebfff137 	bl	e001478c <slotCapLongRunningDelete>
e00182ac:	e3500000 	cmp	r0, #0
e00182b0:	1a000061 	bne	e001843c <decodeSetSpace+0x21c>
e00182b4:	e2850010 	add	r0, r5, #16
e00182b8:	ebfff133 	bl	e001478c <slotCapLongRunningDelete>
e00182bc:	e3500000 	cmp	r0, #0
e00182c0:	1a00005d 	bne	e001843c <decodeSetSpace+0x21c>
e00182c4:	e3590000 	cmp	r9, #0
e00182c8:	0a000008 	beq	e00182f0 <decodeSetSpace+0xd0>
e00182cc:	e58d7058 	str	r7, [sp, #88]	@ 0x58
e00182d0:	e59d305c 	ldr	r3, [sp, #92]	@ 0x5c
e00182d4:	e58d3000 	str	r3, [sp]
e00182d8:	e1a03007 	mov	r3, r7
e00182dc:	e1a02009 	mov	r2, r9
e00182e0:	e3a01000 	mov	r1, #0
e00182e4:	e28d0058 	add	r0, sp, #88	@ 0x58
e00182e8:	ebffed0d 	bl	e0013724 <updateCapData>
e00182ec:	e59d7058 	ldr	r7, [sp, #88]	@ 0x58
e00182f0:	e58d7058 	str	r7, [sp, #88]	@ 0x58
e00182f4:	e28d3058 	add	r3, sp, #88	@ 0x58
e00182f8:	e893000c 	ldm	r3, {r2, r3}
e00182fc:	e1a01004 	mov	r1, r4
e0018300:	e28d0044 	add	r0, sp, #68	@ 0x44
e0018304:	ebfff0af 	bl	e00145c8 <deriveCap>
e0018308:	e59d0044 	ldr	r0, [sp, #68]	@ 0x44
e001830c:	e3500000 	cmp	r0, #0
e0018310:	1a000047 	bne	e0018434 <decodeSetSpace+0x214>
e0018314:	e59d5048 	ldr	r5, [sp, #72]	@ 0x48
e0018318:	e28d3058 	add	r3, sp, #88	@ 0x58
e001831c:	e28d2048 	add	r2, sp, #72	@ 0x48
e0018320:	e8920003 	ldm	r2, {r0, r1}
e0018324:	e8830003 	stm	r3, {r0, r1}
e0018328:	e205300e 	and	r3, r5, #14
e001832c:	e353000e 	cmp	r3, #14
e0018330:	1205300f 	andne	r3, r5, #15
e0018334:	06ef3075 	uxtbeq	r3, r5
e0018338:	e353000a 	cmp	r3, #10
e001833c:	1a000043 	bne	e0018450 <decodeSetSpace+0x230>
e0018340:	e35a0000 	cmp	sl, #0
e0018344:	0a000006 	beq	e0018364 <decodeSetSpace+0x144>
e0018348:	e59d3054 	ldr	r3, [sp, #84]	@ 0x54
e001834c:	e58d3000 	str	r3, [sp]
e0018350:	e59d3050 	ldr	r3, [sp, #80]	@ 0x50
e0018354:	e1a0200a 	mov	r2, sl
e0018358:	e3a01000 	mov	r1, #0
e001835c:	e28d0050 	add	r0, sp, #80	@ 0x50
e0018360:	ebffecef 	bl	e0013724 <updateCapData>
e0018364:	e28d3050 	add	r3, sp, #80	@ 0x50
e0018368:	e893000c 	ldm	r3, {r2, r3}
e001836c:	e1a01006 	mov	r1, r6
e0018370:	e28d0044 	add	r0, sp, #68	@ 0x44
e0018374:	ebfff093 	bl	e00145c8 <deriveCap>
e0018378:	e59d0044 	ldr	r0, [sp, #68]	@ 0x44
e001837c:	e3500000 	cmp	r0, #0
e0018380:	1a00002b 	bne	e0018434 <decodeSetSpace+0x214>
e0018384:	e28d3050 	add	r3, sp, #80	@ 0x50
e0018388:	e28d2048 	add	r2, sp, #72	@ 0x48
e001838c:	e8920003 	ldm	r2, {r0, r1}
e0018390:	e8830003 	stm	r3, {r0, r1}
e0018394:	ebffe364 	bl	e001112c <isValidVTableRoot>
e0018398:	e3500000 	cmp	r0, #0
e001839c:	0a000030 	beq	e0018464 <decodeSetSpace+0x244>
e00183a0:	e30c3000 	movw	r3, #49152	@ 0xc000
e00183a4:	e34e3001 	movt	r3, #57345	@ 0xe001
e00183a8:	e3a01002 	mov	r1, #2
e00183ac:	e5930840 	ldr	r0, [r3, #2112]	@ 0x840
e00183b0:	ebfff203 	bl	e0014bc4 <setThreadState>
e00183b4:	e3a03000 	mov	r3, #0
e00183b8:	e58d3060 	str	r3, [sp, #96]	@ 0x60
e00183bc:	e58d3064 	str	r3, [sp, #100]	@ 0x64
e00183c0:	e58d5058 	str	r5, [sp, #88]	@ 0x58
e00183c4:	e3a02004 	mov	r2, #4
e00183c8:	e58d202c 	str	r2, [sp, #44]	@ 0x2c
e00183cc:	e58d3028 	str	r3, [sp, #40]	@ 0x28
e00183d0:	e28d2020 	add	r2, sp, #32
e00183d4:	e28d1068 	add	r1, sp, #104	@ 0x68
e00183d8:	e9110003 	ldmdb	r1, {r0, r1}
e00183dc:	e8820003 	stm	r2, {r0, r1}
e00183e0:	e58d301c 	str	r3, [sp, #28]
e00183e4:	e58d6018 	str	r6, [sp, #24]
e00183e8:	e28d2010 	add	r2, sp, #16
e00183ec:	e28d1050 	add	r1, sp, #80	@ 0x50
e00183f0:	e8910003 	ldm	r1, {r0, r1}
e00183f4:	e8820003 	stm	r2, {r0, r1}
e00183f8:	e58d400c 	str	r4, [sp, #12]
e00183fc:	e28d2058 	add	r2, sp, #88	@ 0x58
e0018400:	e8920003 	ldm	r2, {r0, r1}
e0018404:	e98d0003 	stmib	sp, {r0, r1}
e0018408:	e58d3000 	str	r3, [sp]
e001840c:	e1a0200b 	mov	r2, fp
e0018410:	e59d1034 	ldr	r1, [sp, #52]	@ 0x34
e0018414:	e3c8000f 	bic	r0, r8, #15
e0018418:	ebfffd14 	bl	e0017870 <invokeTCB_ThreadControl>
e001841c:	ea000004 	b	e0018434 <decodeSetSpace+0x214>
e0018420:	e30c3000 	movw	r3, #49152	@ 0xc000
e0018424:	e34e3001 	movt	r3, #57345	@ 0xe001
e0018428:	e3a02007 	mov	r2, #7
e001842c:	e5832864 	str	r2, [r3, #2148]	@ 0x864
e0018430:	e3a00003 	mov	r0, #3
e0018434:	e28dd06c 	add	sp, sp, #108	@ 0x6c
e0018438:	e8bd8ff0 	pop	{r4, r5, r6, r7, r8, r9, sl, fp, pc}
e001843c:	e30c3000 	movw	r3, #49152	@ 0xc000
e0018440:	e34e3001 	movt	r3, #57345	@ 0xe001
e0018444:	e3a00003 	mov	r0, #3
e0018448:	e5830864 	str	r0, [r3, #2148]	@ 0x864
e001844c:	eafffff8 	b	e0018434 <decodeSetSpace+0x214>
e0018450:	e30c3000 	movw	r3, #49152	@ 0xc000
e0018454:	e34e3001 	movt	r3, #57345	@ 0xe001
e0018458:	e3a00003 	mov	r0, #3
e001845c:	e5830864 	str	r0, [r3, #2148]	@ 0x864
e0018460:	eafffff3 	b	e0018434 <decodeSetSpace+0x214>
e0018464:	e30c3000 	movw	r3, #49152	@ 0xc000
e0018468:	e34e3001 	movt	r3, #57345	@ 0xe001
e001846c:	e3a00003 	mov	r0, #3
e0018470:	e5830864 	str	r0, [r3, #2148]	@ 0x864
e0018474:	eaffffee 	b	e0018434 <decodeSetSpace+0x214>

e0018478 <invokeTCB_CopyRegisters>:
e0018478:	e92d4070 	push	{r4, r5, r6, lr}
e001847c:	e1a04000 	mov	r4, r0
e0018480:	e1a05001 	mov	r5, r1
e0018484:	e1a06003 	mov	r6, r3
e0018488:	e3520000 	cmp	r2, #0
e001848c:	1a000022 	bne	e001851c <invokeTCB_CopyRegisters+0xa4>
e0018490:	e3560000 	cmp	r6, #0
e0018494:	1a000023 	bne	e0018528 <invokeTCB_CopyRegisters+0xb0>
e0018498:	e59d3010 	ldr	r3, [sp, #16]
e001849c:	e3530000 	cmp	r3, #0
e00184a0:	0a00000a 	beq	e00184d0 <invokeTCB_CopyRegisters+0x58>
e00184a4:	e30b0228 	movw	r0, #45608	@ 0xb228
e00184a8:	e34e0001 	movt	r0, #57345	@ 0xe001
e00184ac:	e2803088 	add	r3, r0, #136	@ 0x88
e00184b0:	e28000b0 	add	r0, r0, #176	@ 0xb0
e00184b4:	e4932004 	ldr	r2, [r3], #4
e00184b8:	e7951102 	ldr	r1, [r5, r2, lsl #2]
e00184bc:	e7841102 	str	r1, [r4, r2, lsl #2]
e00184c0:	e1530000 	cmp	r3, r0
e00184c4:	1afffffa 	bne	e00184b4 <invokeTCB_CopyRegisters+0x3c>
e00184c8:	e5943044 	ldr	r3, [r4, #68]	@ 0x44
e00184cc:	e584303c 	str	r3, [r4, #60]	@ 0x3c
e00184d0:	e59d3014 	ldr	r3, [sp, #20]
e00184d4:	e3530000 	cmp	r3, #0
e00184d8:	0a000008 	beq	e0018500 <invokeTCB_CopyRegisters+0x88>
e00184dc:	e30b0228 	movw	r0, #45608	@ 0xb228
e00184e0:	e34e0001 	movt	r0, #57345	@ 0xe001
e00184e4:	e28030ac 	add	r3, r0, #172	@ 0xac
e00184e8:	e28000d0 	add	r0, r0, #208	@ 0xd0
e00184ec:	e5b32004 	ldr	r2, [r3, #4]!
e00184f0:	e7951102 	ldr	r1, [r5, r2, lsl #2]
e00184f4:	e7841102 	str	r1, [r4, r2, lsl #2]
e00184f8:	e1530000 	cmp	r3, r0
e00184fc:	1afffffa 	bne	e00184ec <invokeTCB_CopyRegisters+0x74>
e0018500:	e30c3000 	movw	r3, #49152	@ 0xc000
e0018504:	e34e3001 	movt	r3, #57345	@ 0xe001
e0018508:	e5933840 	ldr	r3, [r3, #2112]	@ 0x840
e001850c:	e1530004 	cmp	r3, r4
e0018510:	0a000007 	beq	e0018534 <invokeTCB_CopyRegisters+0xbc>
e0018514:	e3a00000 	mov	r0, #0
e0018518:	e8bd8070 	pop	{r4, r5, r6, pc}
e001851c:	e1a00001 	mov	r0, r1
e0018520:	ebfff4f5 	bl	e00158fc <suspend>
e0018524:	eaffffd9 	b	e0018490 <invokeTCB_CopyRegisters+0x18>
e0018528:	e1a00004 	mov	r0, r4
e001852c:	ebfff88c 	bl	e0016764 <restart>
e0018530:	eaffffd8 	b	e0018498 <invokeTCB_CopyRegisters+0x20>
e0018534:	ebfff17f 	bl	e0014b38 <rescheduleRequired>
e0018538:	eafffff5 	b	e0018514 <invokeTCB_CopyRegisters+0x9c>

e001853c <decodeCopyRegisters>:
e001853c:	e92d4030 	push	{r4, r5, lr}
e0018540:	e24dd01c 	sub	sp, sp, #28
e0018544:	e28d3018 	add	r3, sp, #24
e0018548:	e9030003 	stmdb	r3, {r0, r1}
e001854c:	e3520000 	cmp	r2, #0
e0018550:	0a000014 	beq	e00185a8 <decodeCopyRegisters+0x6c>
e0018554:	e30c3000 	movw	r3, #49152	@ 0xc000
e0018558:	e34e3001 	movt	r3, #57345	@ 0xe001
e001855c:	e5933b08 	ldr	r3, [r3, #2824]	@ 0xb08
e0018560:	e3530000 	cmp	r3, #0
e0018564:	0a00000f 	beq	e00185a8 <decodeCopyRegisters+0x6c>
e0018568:	e5934000 	ldr	r4, [r3]
e001856c:	e204300e 	and	r3, r4, #14
e0018570:	e353000e 	cmp	r3, #14
e0018574:	1204300f 	andne	r3, r4, #15
e0018578:	06ef3074 	uxtbeq	r3, r4
e001857c:	e353000c 	cmp	r3, #12
e0018580:	0a00000e 	beq	e00185c0 <decodeCopyRegisters+0x84>
e0018584:	e30c3000 	movw	r3, #49152	@ 0xc000
e0018588:	e34e3001 	movt	r3, #57345	@ 0xe001
e001858c:	e3a02002 	mov	r2, #2
e0018590:	e5832864 	str	r2, [r3, #2148]	@ 0x864
e0018594:	e3a02001 	mov	r2, #1
e0018598:	e5832850 	str	r2, [r3, #2128]	@ 0x850
e001859c:	e3a00003 	mov	r0, #3
e00185a0:	e28dd01c 	add	sp, sp, #28
e00185a4:	e8bd8030 	pop	{r4, r5, pc}
e00185a8:	e30c3000 	movw	r3, #49152	@ 0xc000
e00185ac:	e34e3001 	movt	r3, #57345	@ 0xe001
e00185b0:	e3a02007 	mov	r2, #7
e00185b4:	e5832864 	str	r2, [r3, #2148]	@ 0x864
e00185b8:	e3a00003 	mov	r0, #3
e00185bc:	eafffff7 	b	e00185a0 <decodeCopyRegisters+0x64>
e00185c0:	e30c3000 	movw	r3, #49152	@ 0xc000
e00185c4:	e34e3001 	movt	r3, #57345	@ 0xe001
e00185c8:	e5930840 	ldr	r0, [r3, #2112]	@ 0x840
e00185cc:	e5905008 	ldr	r5, [r0, #8]
e00185d0:	e3a01002 	mov	r1, #2
e00185d4:	ebfff17a 	bl	e0014bc4 <setThreadState>
e00185d8:	e3a03000 	mov	r3, #0
e00185dc:	e58d3008 	str	r3, [sp, #8]
e00185e0:	e2053008 	and	r3, r5, #8
e00185e4:	e58d3004 	str	r3, [sp, #4]
e00185e8:	e2053004 	and	r3, r5, #4
e00185ec:	e58d3000 	str	r3, [sp]
e00185f0:	e2053002 	and	r3, r5, #2
e00185f4:	e2052001 	and	r2, r5, #1
e00185f8:	e3c4100f 	bic	r1, r4, #15
e00185fc:	e59d0010 	ldr	r0, [sp, #16]
e0018600:	e3c0000f 	bic	r0, r0, #15
e0018604:	ebffff9b 	bl	e0018478 <invokeTCB_CopyRegisters>
e0018608:	eaffffe4 	b	e00185a0 <decodeCopyRegisters+0x64>

e001860c <invokeTCB_ReadRegisters>:
e001860c:	e92d41f0 	push	{r4, r5, r6, r7, r8, lr}
e0018610:	e1a05000 	mov	r5, r0
e0018614:	e1a04002 	mov	r4, r2
e0018618:	e30c3000 	movw	r3, #49152	@ 0xc000
e001861c:	e34e3001 	movt	r3, #57345	@ 0xe001
e0018620:	e5936840 	ldr	r6, [r3, #2112]	@ 0x840
e0018624:	e3510000 	cmp	r1, #0
e0018628:	1a000031 	bne	e00186f4 <invokeTCB_ReadRegisters+0xe8>
e001862c:	e59d3018 	ldr	r3, [sp, #24]
e0018630:	e3530000 	cmp	r3, #0
e0018634:	0a000029 	beq	e00186e0 <invokeTCB_ReadRegisters+0xd4>
e0018638:	e1a01006 	mov	r1, r6
e001863c:	e3a00001 	mov	r0, #1
e0018640:	ebffe1b1 	bl	e0010d0c <lookupIPCBuffer>
e0018644:	e3a03000 	mov	r3, #0
e0018648:	e5863000 	str	r3, [r6]
e001864c:	e1540003 	cmp	r4, r3
e0018650:	01a03004 	moveq	r3, r4
e0018654:	0a00001e 	beq	e00186d4 <invokeTCB_ReadRegisters+0xc8>
e0018658:	e30b1228 	movw	r1, #45608	@ 0xb228
e001865c:	e34e1001 	movt	r1, #57345	@ 0xe001
e0018660:	e281e088 	add	lr, r1, #136	@ 0x88
e0018664:	e4912004 	ldr	r2, [r1], #4
e0018668:	e49ec004 	ldr	ip, [lr], #4
e001866c:	e795c10c 	ldr	ip, [r5, ip, lsl #2]
e0018670:	e786c102 	str	ip, [r6, r2, lsl #2]
e0018674:	e1a0c003 	mov	ip, r3
e0018678:	e2833001 	add	r3, r3, #1
e001867c:	e1540003 	cmp	r4, r3
e0018680:	93a02000 	movls	r2, #0
e0018684:	83a02001 	movhi	r2, #1
e0018688:	e3530003 	cmp	r3, #3
e001868c:	83a07000 	movhi	r7, #0
e0018690:	92027001 	andls	r7, r2, #1
e0018694:	e3570000 	cmp	r7, #0
e0018698:	1afffff1 	bne	e0018664 <invokeTCB_ReadRegisters+0x58>
e001869c:	e2501000 	subs	r1, r0, #0
e00186a0:	13a01001 	movne	r1, #1
e00186a4:	e0022001 	and	r2, r2, r1
e00186a8:	e3530009 	cmp	r3, #9
e00186ac:	83a02000 	movhi	r2, #0
e00186b0:	92022001 	andls	r2, r2, #1
e00186b4:	e3520000 	cmp	r2, #0
e00186b8:	1a00000f 	bne	e00186fc <invokeTCB_ReadRegisters+0xf0>
e00186bc:	e354000a 	cmp	r4, #10
e00186c0:	93a01000 	movls	r1, #0
e00186c4:	82011001 	andhi	r1, r1, #1
e00186c8:	e3510000 	cmp	r1, #0
e00186cc:	03a04000 	moveq	r4, #0
e00186d0:	1a000018 	bne	e0018738 <invokeTCB_ReadRegisters+0x12c>
e00186d4:	e0833004 	add	r3, r3, r4
e00186d8:	e203307f 	and	r3, r3, #127	@ 0x7f
e00186dc:	e5863004 	str	r3, [r6, #4]
e00186e0:	e3a01001 	mov	r1, #1
e00186e4:	e1a00006 	mov	r0, r6
e00186e8:	ebfff135 	bl	e0014bc4 <setThreadState>
e00186ec:	e3a00000 	mov	r0, #0
e00186f0:	e8bd81f0 	pop	{r4, r5, r6, r7, r8, pc}
e00186f4:	ebfff480 	bl	e00158fc <suspend>
e00186f8:	eaffffcb 	b	e001862c <invokeTCB_ReadRegisters+0x20>
e00186fc:	e59fe070 	ldr	lr, [pc, #112]	@ e0018774 <invokeTCB_ReadRegisters+0x168>
e0018700:	e08ee103 	add	lr, lr, r3, lsl #2
e0018704:	e28c1105 	add	r1, ip, #1073741825	@ 0x40000001
e0018708:	e0801101 	add	r1, r0, r1, lsl #2
e001870c:	e49ec004 	ldr	ip, [lr], #4
e0018710:	e2833001 	add	r3, r3, #1
e0018714:	e795c10c 	ldr	ip, [r5, ip, lsl #2]
e0018718:	e5a1c004 	str	ip, [r1, #4]!
e001871c:	e3530009 	cmp	r3, #9
e0018720:	91530004 	cmpls	r3, r4
e0018724:	3afffff8 	bcc	e001870c <invokeTCB_ReadRegisters+0x100>
e0018728:	e1a01002 	mov	r1, r2
e001872c:	eaffffe2 	b	e00186bc <invokeTCB_ReadRegisters+0xb0>
e0018730:	e1a04002 	mov	r4, r2
e0018734:	eaffffe6 	b	e00186d4 <invokeTCB_ReadRegisters+0xc8>
e0018738:	e5952008 	ldr	r2, [r5, #8]
e001873c:	e5a0202c 	str	r2, [r0, #44]!	@ 0x2c
e0018740:	e59f1030 	ldr	r1, [pc, #48]	@ e0018778 <invokeTCB_ReadRegisters+0x16c>
e0018744:	e3a02001 	mov	r2, #1
e0018748:	e282c00a 	add	ip, r2, #10
e001874c:	e15c0004 	cmp	ip, r4
e0018750:	2afffff6 	bcs	e0018730 <invokeTCB_ReadRegisters+0x124>
e0018754:	e491c004 	ldr	ip, [r1], #4
e0018758:	e795c10c 	ldr	ip, [r5, ip, lsl #2]
e001875c:	e5a0c004 	str	ip, [r0, #4]!
e0018760:	e2822001 	add	r2, r2, #1
e0018764:	e3520009 	cmp	r2, #9
e0018768:	1afffff6 	bne	e0018748 <invokeTCB_ReadRegisters+0x13c>
e001876c:	e1a04002 	mov	r4, r2
e0018770:	eaffffd7 	b	e00186d4 <invokeTCB_ReadRegisters+0xc8>
e0018774:	e001b2b0 	.word	0xe001b2b0
e0018778:	e001b2dc 	.word	0xe001b2dc

e001877c <decodeReadRegisters>:
e001877c:	e92d40f0 	push	{r4, r5, r6, r7, lr}
e0018780:	e24dd014 	sub	sp, sp, #20
e0018784:	e28dc010 	add	ip, sp, #16
e0018788:	e90c0003 	stmdb	ip, {r0, r1}
e001878c:	e3520001 	cmp	r2, #1
e0018790:	9a000016 	bls	e00187f0 <decodeReadRegisters+0x74>
e0018794:	e1a06003 	mov	r6, r3
e0018798:	e30c2000 	movw	r2, #49152	@ 0xc000
e001879c:	e34e2001 	movt	r2, #57345	@ 0xe001
e00187a0:	e5920840 	ldr	r0, [r2, #2112]	@ 0x840
e00187a4:	e590500c 	ldr	r5, [r0, #12]
e00187a8:	e2453001 	sub	r3, r5, #1
e00187ac:	e3530012 	cmp	r3, #18
e00187b0:	8a000014 	bhi	e0018808 <decodeReadRegisters+0x8c>
e00187b4:	e59d4008 	ldr	r4, [sp, #8]
e00187b8:	e3c4400f 	bic	r4, r4, #15
e00187bc:	e1540000 	cmp	r4, r0
e00187c0:	0a000019 	beq	e001882c <decodeReadRegisters+0xb0>
e00187c4:	e5907008 	ldr	r7, [r0, #8]
e00187c8:	e3a01002 	mov	r1, #2
e00187cc:	ebfff0fc 	bl	e0014bc4 <setThreadState>
e00187d0:	e58d6000 	str	r6, [sp]
e00187d4:	e3a03000 	mov	r3, #0
e00187d8:	e1a02005 	mov	r2, r5
e00187dc:	e2071001 	and	r1, r7, #1
e00187e0:	e1a00004 	mov	r0, r4
e00187e4:	ebffff88 	bl	e001860c <invokeTCB_ReadRegisters>
e00187e8:	e28dd014 	add	sp, sp, #20
e00187ec:	e8bd80f0 	pop	{r4, r5, r6, r7, pc}
e00187f0:	e30c3000 	movw	r3, #49152	@ 0xc000
e00187f4:	e34e3001 	movt	r3, #57345	@ 0xe001
e00187f8:	e3a02007 	mov	r2, #7
e00187fc:	e5832864 	str	r2, [r3, #2148]	@ 0x864
e0018800:	e3a00003 	mov	r0, #3
e0018804:	eafffff7 	b	e00187e8 <decodeReadRegisters+0x6c>
e0018808:	e1a03002 	mov	r3, r2
e001880c:	e3a02004 	mov	r2, #4
e0018810:	e5832864 	str	r2, [r3, #2148]	@ 0x864
e0018814:	e3a02001 	mov	r2, #1
e0018818:	e5832854 	str	r2, [r3, #2132]	@ 0x854
e001881c:	e3a02013 	mov	r2, #19
e0018820:	e5832858 	str	r2, [r3, #2136]	@ 0x858
e0018824:	e3a00003 	mov	r0, #3
e0018828:	eaffffee 	b	e00187e8 <decodeReadRegisters+0x6c>
e001882c:	e30c3000 	movw	r3, #49152	@ 0xc000
e0018830:	e34e3001 	movt	r3, #57345	@ 0xe001
e0018834:	e3a00003 	mov	r0, #3
e0018838:	e5830864 	str	r0, [r3, #2148]	@ 0x864
e001883c:	eaffffe9 	b	e00187e8 <decodeReadRegisters+0x6c>

e0018840 <invokeTCB_WriteRegisters>:
e0018840:	e92d47f0 	push	{r4, r5, r6, r7, r8, r9, sl, lr}
e0018844:	e1a04000 	mov	r4, r0
e0018848:	e59d6020 	ldr	r6, [sp, #32]
e001884c:	e3520013 	cmp	r2, #19
e0018850:	31a05002 	movcc	r5, r2
e0018854:	23a05013 	movcs	r5, #19
e0018858:	e3520000 	cmp	r2, #0
e001885c:	0a000040 	beq	e0018964 <invokeTCB_WriteRegisters+0x124>
e0018860:	e59fe128 	ldr	lr, [pc, #296]	@ e0018990 <invokeTCB_WriteRegisters+0x150>
e0018864:	e3a03000 	mov	r3, #0
e0018868:	e286900c 	add	r9, r6, #12
e001886c:	e30c8000 	movw	r8, #49152	@ 0xc000
e0018870:	e34e8001 	movt	r8, #57345	@ 0xe001
e0018874:	e30b7228 	movw	r7, #45608	@ 0xb228
e0018878:	e34e7001 	movt	r7, #57345	@ 0xe001
e001887c:	e49ea004 	ldr	sl, [lr], #4
e0018880:	e2830002 	add	r0, r3, #2
e0018884:	e3500003 	cmp	r0, #3
e0018888:	95980840 	ldrls	r0, [r8, #2112]	@ 0x840
e001888c:	9087c103 	addls	ip, r7, r3, lsl #2
e0018890:	959cc008 	ldrls	ip, [ip, #8]
e0018894:	9790c10c 	ldrls	ip, [r0, ip, lsl #2]
e0018898:	8799c103 	ldrhi	ip, [r9, r3, lsl #2]
e001889c:	e35a0010 	cmp	sl, #16
e00188a0:	020cc33e 	andeq	ip, ip, #-134217728	@ 0xf8000000
e00188a4:	038cce15 	orreq	ip, ip, #336	@ 0x150
e00188a8:	e784c10a 	str	ip, [r4, sl, lsl #2]
e00188ac:	e2833001 	add	r3, r3, #1
e00188b0:	e3530009 	cmp	r3, #9
e00188b4:	83a00000 	movhi	r0, #0
e00188b8:	93a00001 	movls	r0, #1
e00188bc:	e1550003 	cmp	r5, r3
e00188c0:	93a00000 	movls	r0, #0
e00188c4:	e3500000 	cmp	r0, #0
e00188c8:	1affffeb 	bne	e001887c <invokeTCB_WriteRegisters+0x3c>
e00188cc:	e352000a 	cmp	r2, #10
e00188d0:	9a000023 	bls	e0018964 <invokeTCB_WriteRegisters+0x124>
e00188d4:	e59fc0b8 	ldr	ip, [pc, #184]	@ e0018994 <invokeTCB_WriteRegisters+0x154>
e00188d8:	e3a0300c 	mov	r3, #12
e00188dc:	e2866004 	add	r6, r6, #4
e00188e0:	e30c7000 	movw	r7, #49152	@ 0xc000
e00188e4:	e34e7001 	movt	r7, #57345	@ 0xe001
e00188e8:	e30be228 	movw	lr, #45608	@ 0xb228
e00188ec:	e34ee001 	movt	lr, #57345	@ 0xe001
e00188f0:	ea00000e 	b	e0018930 <invokeTCB_WriteRegisters+0xf0>
e00188f4:	e5972840 	ldr	r2, [r7, #2112]	@ 0x840
e00188f8:	e79e8103 	ldr	r8, [lr, r3, lsl #2]
e00188fc:	e7922108 	ldr	r2, [r2, r8, lsl #2]
e0018900:	e3500010 	cmp	r0, #16
e0018904:	1a000015 	bne	e0018960 <invokeTCB_WriteRegisters+0x120>
e0018908:	e202233e 	and	r2, r2, #-134217728	@ 0xf8000000
e001890c:	e3822e15 	orr	r2, r2, #336	@ 0x150
e0018910:	e7842100 	str	r2, [r4, r0, lsl #2]
e0018914:	e3530014 	cmp	r3, #20
e0018918:	0a000011 	beq	e0018964 <invokeTCB_WriteRegisters+0x124>
e001891c:	e2832001 	add	r2, r3, #1
e0018920:	e2433001 	sub	r3, r3, #1
e0018924:	e1550003 	cmp	r5, r3
e0018928:	9a00000d 	bls	e0018964 <invokeTCB_WriteRegisters+0x124>
e001892c:	e1a03002 	mov	r3, r2
e0018930:	e5bc0004 	ldr	r0, [ip, #4]!
e0018934:	e3530003 	cmp	r3, #3
e0018938:	9affffed 	bls	e00188f4 <invokeTCB_WriteRegisters+0xb4>
e001893c:	e7962103 	ldr	r2, [r6, r3, lsl #2]
e0018940:	e3500010 	cmp	r0, #16
e0018944:	1afffff1 	bne	e0018910 <invokeTCB_WriteRegisters+0xd0>
e0018948:	eaffffee 	b	e0018908 <invokeTCB_WriteRegisters+0xc8>
e001894c:	e1a00004 	mov	r0, r4
e0018950:	ebfff783 	bl	e0016764 <restart>
e0018954:	ea000006 	b	e0018974 <invokeTCB_WriteRegisters+0x134>
e0018958:	ebfff076 	bl	e0014b38 <rescheduleRequired>
e001895c:	ea000009 	b	e0018988 <invokeTCB_WriteRegisters+0x148>
e0018960:	e7842100 	str	r2, [r4, r0, lsl #2]
e0018964:	e5943044 	ldr	r3, [r4, #68]	@ 0x44
e0018968:	e584303c 	str	r3, [r4, #60]	@ 0x3c
e001896c:	e3510000 	cmp	r1, #0
e0018970:	1afffff5 	bne	e001894c <invokeTCB_WriteRegisters+0x10c>
e0018974:	e30c3000 	movw	r3, #49152	@ 0xc000
e0018978:	e34e3001 	movt	r3, #57345	@ 0xe001
e001897c:	e5933840 	ldr	r3, [r3, #2112]	@ 0x840
e0018980:	e1530004 	cmp	r3, r4
e0018984:	0afffff3 	beq	e0018958 <invokeTCB_WriteRegisters+0x118>
e0018988:	e3a00000 	mov	r0, #0
e001898c:	e8bd87f0 	pop	{r4, r5, r6, r7, r8, r9, sl, pc}
e0018990:	e001b2b0 	.word	0xe001b2b0
e0018994:	e001b2d4 	.word	0xe001b2d4

e0018998 <decodeWriteRegisters>:
e0018998:	e92d40f0 	push	{r4, r5, r6, r7, lr}
e001899c:	e24dd014 	sub	sp, sp, #20
e00189a0:	e28dc010 	add	ip, sp, #16
e00189a4:	e90c0003 	stmdb	ip, {r0, r1}
e00189a8:	e3520001 	cmp	r2, #1
e00189ac:	9a000016 	bls	e0018a0c <decodeWriteRegisters+0x74>
e00189b0:	e1a06003 	mov	r6, r3
e00189b4:	e30c1000 	movw	r1, #49152	@ 0xc000
e00189b8:	e34e1001 	movt	r1, #57345	@ 0xe001
e00189bc:	e5910840 	ldr	r0, [r1, #2112]	@ 0x840
e00189c0:	e590500c 	ldr	r5, [r0, #12]
e00189c4:	e2422002 	sub	r2, r2, #2
e00189c8:	e1520005 	cmp	r2, r5
e00189cc:	3a000014 	bcc	e0018a24 <decodeWriteRegisters+0x8c>
e00189d0:	e59d4008 	ldr	r4, [sp, #8]
e00189d4:	e3c4400f 	bic	r4, r4, #15
e00189d8:	e1540000 	cmp	r4, r0
e00189dc:	0a000014 	beq	e0018a34 <decodeWriteRegisters+0x9c>
e00189e0:	e5907008 	ldr	r7, [r0, #8]
e00189e4:	e3a01002 	mov	r1, #2
e00189e8:	ebfff075 	bl	e0014bc4 <setThreadState>
e00189ec:	e58d6000 	str	r6, [sp]
e00189f0:	e3a03000 	mov	r3, #0
e00189f4:	e1a02005 	mov	r2, r5
e00189f8:	e2071001 	and	r1, r7, #1
e00189fc:	e1a00004 	mov	r0, r4
e0018a00:	ebffff8e 	bl	e0018840 <invokeTCB_WriteRegisters>
e0018a04:	e28dd014 	add	sp, sp, #20
e0018a08:	e8bd80f0 	pop	{r4, r5, r6, r7, pc}
e0018a0c:	e30c3000 	movw	r3, #49152	@ 0xc000
e0018a10:	e34e3001 	movt	r3, #57345	@ 0xe001
e0018a14:	e3a02007 	mov	r2, #7
e0018a18:	e5832864 	str	r2, [r3, #2148]	@ 0x864
e0018a1c:	e3a00003 	mov	r0, #3
e0018a20:	eafffff7 	b	e0018a04 <decodeWriteRegisters+0x6c>
e0018a24:	e3a02007 	mov	r2, #7
e0018a28:	e5812864 	str	r2, [r1, #2148]	@ 0x864
e0018a2c:	e3a00003 	mov	r0, #3
e0018a30:	eafffff3 	b	e0018a04 <decodeWriteRegisters+0x6c>
e0018a34:	e30c3000 	movw	r3, #49152	@ 0xc000
e0018a38:	e34e3001 	movt	r3, #57345	@ 0xe001
e0018a3c:	e3a00003 	mov	r0, #3
e0018a40:	e5830864 	str	r0, [r3, #2148]	@ 0x864
e0018a44:	eaffffee 	b	e0018a04 <decodeWriteRegisters+0x6c>

e0018a48 <invokeTCB_NotificationControl>:
e0018a48:	e92d4010 	push	{r4, lr}
e0018a4c:	e3510000 	cmp	r1, #0
e0018a50:	0a000002 	beq	e0018a60 <invokeTCB_NotificationControl+0x18>
e0018a54:	ebffeafe 	bl	e0013654 <bindNotification>
e0018a58:	e3a00000 	mov	r0, #0
e0018a5c:	e8bd8010 	pop	{r4, pc}
e0018a60:	ebffeaf3 	bl	e0013634 <unbindNotification>
e0018a64:	eafffffb 	b	e0018a58 <invokeTCB_NotificationControl+0x10>

e0018a68 <decodeBindNotification>:
e0018a68:	e92d4030 	push	{r4, r5, lr}
e0018a6c:	e24dd00c 	sub	sp, sp, #12
e0018a70:	e28d3008 	add	r3, sp, #8
e0018a74:	e9030003 	stmdb	r3, {r0, r1}
e0018a78:	e30c3000 	movw	r3, #49152	@ 0xc000
e0018a7c:	e34e3001 	movt	r3, #57345	@ 0xe001
e0018a80:	e5933b08 	ldr	r3, [r3, #2824]	@ 0xb08
e0018a84:	e3530000 	cmp	r3, #0
e0018a88:	0a00001e 	beq	e0018b08 <decodeBindNotification+0xa0>
e0018a8c:	e59d4000 	ldr	r4, [sp]
e0018a90:	e3c4400f 	bic	r4, r4, #15
e0018a94:	e594205c 	ldr	r2, [r4, #92]	@ 0x5c
e0018a98:	e3520000 	cmp	r2, #0
e0018a9c:	1a00001f 	bne	e0018b20 <decodeBindNotification+0xb8>
e0018aa0:	e5931000 	ldr	r1, [r3]
e0018aa4:	e201200e 	and	r2, r1, #14
e0018aa8:	e352000e 	cmp	r2, #14
e0018aac:	1201200f 	andne	r2, r1, #15
e0018ab0:	06ef2071 	uxtbeq	r2, r1
e0018ab4:	e3520006 	cmp	r2, #6
e0018ab8:	1a00001e 	bne	e0018b38 <decodeBindNotification+0xd0>
e0018abc:	e3c1500f 	bic	r5, r1, #15
e0018ac0:	e5933004 	ldr	r3, [r3, #4]
e0018ac4:	e3130002 	tst	r3, #2
e0018ac8:	0a00001f 	beq	e0018b4c <decodeBindNotification+0xe4>
e0018acc:	e5953004 	ldr	r3, [r5, #4]
e0018ad0:	e3d3300f 	bics	r3, r3, #15
e0018ad4:	1a000021 	bne	e0018b60 <decodeBindNotification+0xf8>
e0018ad8:	e595300c 	ldr	r3, [r5, #12]
e0018adc:	e3d3300f 	bics	r3, r3, #15
e0018ae0:	1a00001e 	bne	e0018b60 <decodeBindNotification+0xf8>
e0018ae4:	e30c3000 	movw	r3, #49152	@ 0xc000
e0018ae8:	e34e3001 	movt	r3, #57345	@ 0xe001
e0018aec:	e3a01002 	mov	r1, #2
e0018af0:	e5930840 	ldr	r0, [r3, #2112]	@ 0x840
e0018af4:	ebfff032 	bl	e0014bc4 <setThreadState>
e0018af8:	e1a01005 	mov	r1, r5
e0018afc:	e1a00004 	mov	r0, r4
e0018b00:	ebffffd0 	bl	e0018a48 <invokeTCB_NotificationControl>
e0018b04:	ea000009 	b	e0018b30 <decodeBindNotification+0xc8>
e0018b08:	e30c3000 	movw	r3, #49152	@ 0xc000
e0018b0c:	e34e3001 	movt	r3, #57345	@ 0xe001
e0018b10:	e3a02007 	mov	r2, #7
e0018b14:	e5832864 	str	r2, [r3, #2148]	@ 0x864
e0018b18:	e3a00003 	mov	r0, #3
e0018b1c:	ea000003 	b	e0018b30 <decodeBindNotification+0xc8>
e0018b20:	e30c3000 	movw	r3, #49152	@ 0xc000
e0018b24:	e34e3001 	movt	r3, #57345	@ 0xe001
e0018b28:	e3a00003 	mov	r0, #3
e0018b2c:	e5830864 	str	r0, [r3, #2148]	@ 0x864
e0018b30:	e28dd00c 	add	sp, sp, #12
e0018b34:	e8bd8030 	pop	{r4, r5, pc}
e0018b38:	e30c3000 	movw	r3, #49152	@ 0xc000
e0018b3c:	e34e3001 	movt	r3, #57345	@ 0xe001
e0018b40:	e3a00003 	mov	r0, #3
e0018b44:	e5830864 	str	r0, [r3, #2148]	@ 0x864
e0018b48:	eafffff8 	b	e0018b30 <decodeBindNotification+0xc8>
e0018b4c:	e30c3000 	movw	r3, #49152	@ 0xc000
e0018b50:	e34e3001 	movt	r3, #57345	@ 0xe001
e0018b54:	e3a00003 	mov	r0, #3
e0018b58:	e5830864 	str	r0, [r3, #2148]	@ 0x864
e0018b5c:	eafffff3 	b	e0018b30 <decodeBindNotification+0xc8>
e0018b60:	e30c3000 	movw	r3, #49152	@ 0xc000
e0018b64:	e34e3001 	movt	r3, #57345	@ 0xe001
e0018b68:	e3a00003 	mov	r0, #3
e0018b6c:	e5830864 	str	r0, [r3, #2148]	@ 0x864
e0018b70:	eaffffee 	b	e0018b30 <decodeBindNotification+0xc8>

e0018b74 <decodeUnbindNotification>:
e0018b74:	e92d4010 	push	{r4, lr}
e0018b78:	e24dd008 	sub	sp, sp, #8
e0018b7c:	e28d3008 	add	r3, sp, #8
e0018b80:	e9030003 	stmdb	r3, {r0, r1}
e0018b84:	e3c0400f 	bic	r4, r0, #15
e0018b88:	e594305c 	ldr	r3, [r4, #92]	@ 0x5c
e0018b8c:	e3530000 	cmp	r3, #0
e0018b90:	0a000009 	beq	e0018bbc <decodeUnbindNotification+0x48>
e0018b94:	e30c3000 	movw	r3, #49152	@ 0xc000
e0018b98:	e34e3001 	movt	r3, #57345	@ 0xe001
e0018b9c:	e3a01002 	mov	r1, #2
e0018ba0:	e5930840 	ldr	r0, [r3, #2112]	@ 0x840
e0018ba4:	ebfff006 	bl	e0014bc4 <setThreadState>
e0018ba8:	e3a01000 	mov	r1, #0
e0018bac:	e1a00004 	mov	r0, r4
e0018bb0:	ebffffa4 	bl	e0018a48 <invokeTCB_NotificationControl>
e0018bb4:	e28dd008 	add	sp, sp, #8
e0018bb8:	e8bd8010 	pop	{r4, pc}
e0018bbc:	e30c3000 	movw	r3, #49152	@ 0xc000
e0018bc0:	e34e3001 	movt	r3, #57345	@ 0xe001
e0018bc4:	e3a00003 	mov	r0, #3
e0018bc8:	e5830864 	str	r0, [r3, #2148]	@ 0x864
e0018bcc:	eafffff8 	b	e0018bb4 <decodeUnbindNotification+0x40>

e0018bd0 <decodeTCBInvocation>:
e0018bd0:	e92d4070 	push	{r4, r5, r6, lr}
e0018bd4:	e24dd010 	sub	sp, sp, #16
e0018bd8:	e28dc010 	add	ip, sp, #16
e0018bdc:	e90c000c 	stmdb	ip, {r2, r3}
e0018be0:	e1a04002 	mov	r4, r2
e0018be4:	e2400002 	sub	r0, r0, #2
e0018be8:	e350000d 	cmp	r0, #13
e0018bec:	979ff100 	ldrls	pc, [pc, r0, lsl #2]
e0018bf0:	ea00007d 	b	e0018dec <decodeTCBInvocation+0x21c>
e0018bf4:	e0018c2c 	.word	0xe0018c2c
e0018bf8:	e0018c50 	.word	0xe0018c50
e0018bfc:	e0018c68 	.word	0xe0018c68
e0018c00:	e0018cc8 	.word	0xe0018cc8
e0018c04:	e0018ce8 	.word	0xe0018ce8
e0018c08:	e0018d00 	.word	0xe0018d00
e0018c0c:	e0018d18 	.word	0xe0018d18
e0018c10:	e0018d30 	.word	0xe0018d30
e0018c14:	e0018d50 	.word	0xe0018d50
e0018c18:	e0018c80 	.word	0xe0018c80
e0018c1c:	e0018ca4 	.word	0xe0018ca4
e0018c20:	e0018d70 	.word	0xe0018d70
e0018c24:	e0018d80 	.word	0xe0018d80
e0018c28:	e0018d90 	.word	0xe0018d90
e0018c2c:	e59d3028 	ldr	r3, [sp, #40]	@ 0x28
e0018c30:	e58d3000 	str	r3, [sp]
e0018c34:	e59d3024 	ldr	r3, [sp, #36]	@ 0x24
e0018c38:	e1a02001 	mov	r2, r1
e0018c3c:	e28d1010 	add	r1, sp, #16
e0018c40:	e9110003 	ldmdb	r1, {r0, r1}
e0018c44:	ebfffecc 	bl	e001877c <decodeReadRegisters>
e0018c48:	e28dd010 	add	sp, sp, #16
e0018c4c:	e8bd8070 	pop	{r4, r5, r6, pc}
e0018c50:	e59d3028 	ldr	r3, [sp, #40]	@ 0x28
e0018c54:	e1a02001 	mov	r2, r1
e0018c58:	e28d1010 	add	r1, sp, #16
e0018c5c:	e9110003 	ldmdb	r1, {r0, r1}
e0018c60:	ebffff4c 	bl	e0018998 <decodeWriteRegisters>
e0018c64:	eafffff7 	b	e0018c48 <decodeTCBInvocation+0x78>
e0018c68:	e59d3028 	ldr	r3, [sp, #40]	@ 0x28
e0018c6c:	e1a02001 	mov	r2, r1
e0018c70:	e28d1010 	add	r1, sp, #16
e0018c74:	e9110003 	ldmdb	r1, {r0, r1}
e0018c78:	ebfffe2f 	bl	e001853c <decodeCopyRegisters>
e0018c7c:	eafffff1 	b	e0018c48 <decodeTCBInvocation+0x78>
e0018c80:	e30c3000 	movw	r3, #49152	@ 0xc000
e0018c84:	e34e3001 	movt	r3, #57345	@ 0xe001
e0018c88:	e3a01002 	mov	r1, #2
e0018c8c:	e5930840 	ldr	r0, [r3, #2112]	@ 0x840
e0018c90:	ebffefcb 	bl	e0014bc4 <setThreadState>
e0018c94:	e3c4000f 	bic	r0, r4, #15
e0018c98:	ebfff317 	bl	e00158fc <suspend>
e0018c9c:	e3a00000 	mov	r0, #0
e0018ca0:	eaffffe8 	b	e0018c48 <decodeTCBInvocation+0x78>
e0018ca4:	e30c3000 	movw	r3, #49152	@ 0xc000
e0018ca8:	e34e3001 	movt	r3, #57345	@ 0xe001
e0018cac:	e3a01002 	mov	r1, #2
e0018cb0:	e5930840 	ldr	r0, [r3, #2112]	@ 0x840
e0018cb4:	ebffefc2 	bl	e0014bc4 <setThreadState>
e0018cb8:	e3c4000f 	bic	r0, r4, #15
e0018cbc:	ebfff6a8 	bl	e0016764 <restart>
e0018cc0:	e3a00000 	mov	r0, #0
e0018cc4:	eaffffdf 	b	e0018c48 <decodeTCBInvocation+0x78>
e0018cc8:	e59d3028 	ldr	r3, [sp, #40]	@ 0x28
e0018ccc:	e58d3000 	str	r3, [sp]
e0018cd0:	e59d3020 	ldr	r3, [sp, #32]
e0018cd4:	e1a02001 	mov	r2, r1
e0018cd8:	e28d1010 	add	r1, sp, #16
e0018cdc:	e9110003 	ldmdb	r1, {r0, r1}
e0018ce0:	ebfffb5b 	bl	e0017a54 <decodeTCBConfigure>
e0018ce4:	eaffffd7 	b	e0018c48 <decodeTCBInvocation+0x78>
e0018ce8:	e59d3028 	ldr	r3, [sp, #40]	@ 0x28
e0018cec:	e1a02001 	mov	r2, r1
e0018cf0:	e28d1010 	add	r1, sp, #16
e0018cf4:	e9110003 	ldmdb	r1, {r0, r1}
e0018cf8:	ebfffc08 	bl	e0017d20 <decodeSetPriority>
e0018cfc:	eaffffd1 	b	e0018c48 <decodeTCBInvocation+0x78>
e0018d00:	e59d3028 	ldr	r3, [sp, #40]	@ 0x28
e0018d04:	e1a02001 	mov	r2, r1
e0018d08:	e28d1010 	add	r1, sp, #16
e0018d0c:	e9110003 	ldmdb	r1, {r0, r1}
e0018d10:	ebfffc4f 	bl	e0017e54 <decodeSetMCPriority>
e0018d14:	eaffffcb 	b	e0018c48 <decodeTCBInvocation+0x78>
e0018d18:	e59d3028 	ldr	r3, [sp, #40]	@ 0x28
e0018d1c:	e1a02001 	mov	r2, r1
e0018d20:	e28d1010 	add	r1, sp, #16
e0018d24:	e9110003 	ldmdb	r1, {r0, r1}
e0018d28:	ebfffc96 	bl	e0017f88 <decodeSetSchedParams>
e0018d2c:	eaffffc5 	b	e0018c48 <decodeTCBInvocation+0x78>
e0018d30:	e59d3028 	ldr	r3, [sp, #40]	@ 0x28
e0018d34:	e58d3000 	str	r3, [sp]
e0018d38:	e59d3020 	ldr	r3, [sp, #32]
e0018d3c:	e1a02001 	mov	r2, r1
e0018d40:	e28d1010 	add	r1, sp, #16
e0018d44:	e9110003 	ldmdb	r1, {r0, r1}
e0018d48:	ebfffce7 	bl	e00180ec <decodeSetIPCBuffer>
e0018d4c:	eaffffbd 	b	e0018c48 <decodeTCBInvocation+0x78>
e0018d50:	e59d3028 	ldr	r3, [sp, #40]	@ 0x28
e0018d54:	e58d3000 	str	r3, [sp]
e0018d58:	e59d3020 	ldr	r3, [sp, #32]
e0018d5c:	e1a02001 	mov	r2, r1
e0018d60:	e28d1010 	add	r1, sp, #16
e0018d64:	e9110003 	ldmdb	r1, {r0, r1}
e0018d68:	ebfffd2c 	bl	e0018220 <decodeSetSpace>
e0018d6c:	eaffffb5 	b	e0018c48 <decodeTCBInvocation+0x78>
e0018d70:	e28d3010 	add	r3, sp, #16
e0018d74:	e9130003 	ldmdb	r3, {r0, r1}
e0018d78:	ebffff3a 	bl	e0018a68 <decodeBindNotification>
e0018d7c:	eaffffb1 	b	e0018c48 <decodeTCBInvocation+0x78>
e0018d80:	e28d3010 	add	r3, sp, #16
e0018d84:	e9130003 	ldmdb	r3, {r0, r1}
e0018d88:	ebffff79 	bl	e0018b74 <decodeUnbindNotification>
e0018d8c:	eaffffad 	b	e0018c48 <decodeTCBInvocation+0x78>
e0018d90:	e3510000 	cmp	r1, #0
e0018d94:	0a00000e 	beq	e0018dd4 <decodeTCBInvocation+0x204>
e0018d98:	e30c5000 	movw	r5, #49152	@ 0xc000
e0018d9c:	e34e5001 	movt	r5, #57345	@ 0xe001
e0018da0:	e5950840 	ldr	r0, [r5, #2112]	@ 0x840
e0018da4:	e5906008 	ldr	r6, [r0, #8]
e0018da8:	e3a01002 	mov	r1, #2
e0018dac:	ebffef84 	bl	e0014bc4 <setThreadState>
e0018db0:	e3c4400f 	bic	r4, r4, #15
e0018db4:	e5846048 	str	r6, [r4, #72]	@ 0x48
e0018db8:	e5953840 	ldr	r3, [r5, #2112]	@ 0x840
e0018dbc:	e1540003 	cmp	r4, r3
e0018dc0:	13a00000 	movne	r0, #0
e0018dc4:	1affff9f 	bne	e0018c48 <decodeTCBInvocation+0x78>
e0018dc8:	ebffef5a 	bl	e0014b38 <rescheduleRequired>
e0018dcc:	e3a00000 	mov	r0, #0
e0018dd0:	eaffff9c 	b	e0018c48 <decodeTCBInvocation+0x78>
e0018dd4:	e30c3000 	movw	r3, #49152	@ 0xc000
e0018dd8:	e34e3001 	movt	r3, #57345	@ 0xe001
e0018ddc:	e3a02007 	mov	r2, #7
e0018de0:	e5832864 	str	r2, [r3, #2148]	@ 0x864
e0018de4:	e3a00003 	mov	r0, #3
e0018de8:	eaffff96 	b	e0018c48 <decodeTCBInvocation+0x78>
e0018dec:	e30c3000 	movw	r3, #49152	@ 0xc000
e0018df0:	e34e3001 	movt	r3, #57345	@ 0xe001
e0018df4:	e3a00003 	mov	r0, #3
e0018df8:	e5830864 	str	r0, [r3, #2148]	@ 0x864
e0018dfc:	eaffff91 	b	e0018c48 <decodeTCBInvocation+0x78>

e0018e00 <setMRs_syscall_error>:
e0018e00:	e52de004 	push	{lr}		@ (str lr, [sp, #-4]!)
e0018e04:	e24dd00c 	sub	sp, sp, #12
e0018e08:	e1a0c000 	mov	ip, r0
e0018e0c:	e30c3000 	movw	r3, #49152	@ 0xc000
e0018e10:	e34e3001 	movt	r3, #57345	@ 0xe001
e0018e14:	e5930864 	ldr	r0, [r3, #2148]	@ 0x864
e0018e18:	e2403001 	sub	r3, r0, #1
e0018e1c:	e3530009 	cmp	r3, #9
e0018e20:	979ff103 	ldrls	pc, [pc, r3, lsl #2]
e0018e24:	ea00002f 	b	e0018ee8 <setMRs_syscall_error+0xe8>
e0018e28:	e0018e50 	.word	0xe0018e50
e0018e2c:	e0018e64 	.word	0xe0018e64
e0018e30:	e0018eec 	.word	0xe0018eec
e0018e34:	e0018e7c 	.word	0xe0018e7c
e0018e38:	e0018eec 	.word	0xe0018eec
e0018e3c:	e0018e9c 	.word	0xe0018e9c
e0018e40:	e0018eec 	.word	0xe0018eec
e0018e44:	e0018eec 	.word	0xe0018eec
e0018e48:	e0018eec 	.word	0xe0018eec
e0018e4c:	e0018ed0 	.word	0xe0018ed0
e0018e50:	e30c3000 	movw	r3, #49152	@ 0xc000
e0018e54:	e34e3001 	movt	r3, #57345	@ 0xe001
e0018e58:	e593384c 	ldr	r3, [r3, #2124]	@ 0x84c
e0018e5c:	e58c3008 	str	r3, [ip, #8]
e0018e60:	ea000022 	b	e0018ef0 <setMRs_syscall_error+0xf0>
e0018e64:	e30c3000 	movw	r3, #49152	@ 0xc000
e0018e68:	e34e3001 	movt	r3, #57345	@ 0xe001
e0018e6c:	e5933850 	ldr	r3, [r3, #2128]	@ 0x850
e0018e70:	e58c3008 	str	r3, [ip, #8]
e0018e74:	e3a00001 	mov	r0, #1
e0018e78:	ea00001c 	b	e0018ef0 <setMRs_syscall_error+0xf0>
e0018e7c:	e30c3000 	movw	r3, #49152	@ 0xc000
e0018e80:	e34e3001 	movt	r3, #57345	@ 0xe001
e0018e84:	e5932854 	ldr	r2, [r3, #2132]	@ 0x854
e0018e88:	e58c2008 	str	r2, [ip, #8]
e0018e8c:	e5933858 	ldr	r3, [r3, #2136]	@ 0x858
e0018e90:	e58c300c 	str	r3, [ip, #12]
e0018e94:	e3a00002 	mov	r0, #2
e0018e98:	ea000014 	b	e0018ef0 <setMRs_syscall_error+0xf0>
e0018e9c:	e30c2000 	movw	r2, #49152	@ 0xc000
e0018ea0:	e34e2001 	movt	r2, #57345	@ 0xe001
e0018ea4:	e5923860 	ldr	r3, [r2, #2144]	@ 0x860
e0018ea8:	e2533000 	subs	r3, r3, #0
e0018eac:	13a03001 	movne	r3, #1
e0018eb0:	e58c3008 	str	r3, [ip, #8]
e0018eb4:	e3a03001 	mov	r3, #1
e0018eb8:	e58d3000 	str	r3, [sp]
e0018ebc:	e5923848 	ldr	r3, [r2, #2120]	@ 0x848
e0018ec0:	e5922844 	ldr	r2, [r2, #2116]	@ 0x844
e0018ec4:	e1a0000c 	mov	r0, ip
e0018ec8:	ebffde98 	bl	e0010930 <setMRs_lookup_failure>
e0018ecc:	ea000007 	b	e0018ef0 <setMRs_syscall_error+0xf0>
e0018ed0:	e30c3000 	movw	r3, #49152	@ 0xc000
e0018ed4:	e34e3001 	movt	r3, #57345	@ 0xe001
e0018ed8:	e593385c 	ldr	r3, [r3, #2140]	@ 0x85c
e0018edc:	e58c3008 	str	r3, [ip, #8]
e0018ee0:	e3a00001 	mov	r0, #1
e0018ee4:	ea000001 	b	e0018ef0 <setMRs_syscall_error+0xf0>
e0018ee8:	ebffde8d 	bl	e0010924 <halt>
e0018eec:	e3a00000 	mov	r0, #0
e0018ef0:	e28dd00c 	add	sp, sp, #12
e0018ef4:	e49df004 	pop	{pc}		@ (ldr pc, [sp], #4)

e0018ef8 <replyFromKernel_error>:
e0018ef8:	e92d4010 	push	{r4, lr}
e0018efc:	e1a04000 	mov	r4, r0
e0018f00:	e1a01000 	mov	r1, r0
e0018f04:	e3a00001 	mov	r0, #1
e0018f08:	ebffdf7f 	bl	e0010d0c <lookupIPCBuffer>
e0018f0c:	e1a01000 	mov	r1, r0
e0018f10:	e3a03000 	mov	r3, #0
e0018f14:	e5843000 	str	r3, [r4]
e0018f18:	e1a00004 	mov	r0, r4
e0018f1c:	ebffffb7 	bl	e0018e00 <setMRs_syscall_error>
e0018f20:	e30c3000 	movw	r3, #49152	@ 0xc000
e0018f24:	e34e3001 	movt	r3, #57345	@ 0xe001
e0018f28:	e5933864 	ldr	r3, [r3, #2148]	@ 0x864
e0018f2c:	e200007f 	and	r0, r0, #127	@ 0x7f
e0018f30:	e1800603 	orr	r0, r0, r3, lsl #12
e0018f34:	e5840004 	str	r0, [r4, #4]
e0018f38:	e8bd8010 	pop	{r4, pc}

e0018f3c <strnlen>:
e0018f3c:	e3510000 	cmp	r1, #0
e0018f40:	0a000008 	beq	e0018f68 <strnlen+0x2c>
e0018f44:	e2403001 	sub	r3, r0, #1
e0018f48:	e3a00000 	mov	r0, #0
e0018f4c:	e5f32001 	ldrb	r2, [r3, #1]!
e0018f50:	e3520000 	cmp	r2, #0
e0018f54:	012fff1e 	bxeq	lr
e0018f58:	e2800001 	add	r0, r0, #1
e0018f5c:	e1510000 	cmp	r1, r0
e0018f60:	1afffff9 	bne	e0018f4c <strnlen+0x10>
e0018f64:	e12fff1e 	bx	lr
e0018f68:	e1a00001 	mov	r0, r1
e0018f6c:	e12fff1e 	bx	lr

e0018f70 <strlcpy>:
e0018f70:	e92d4070 	push	{r4, r5, r6, lr}
e0018f74:	e1a06000 	mov	r6, r0
e0018f78:	e3520001 	cmp	r2, #1
e0018f7c:	9a000011 	bls	e0018fc8 <strlcpy+0x58>
e0018f80:	e2411001 	sub	r1, r1, #1
e0018f84:	e2403001 	sub	r3, r0, #1
e0018f88:	e240c002 	sub	ip, r0, #2
e0018f8c:	e08cc002 	add	ip, ip, r2
e0018f90:	e2604002 	rsb	r4, r0, #2
e0018f94:	e260e001 	rsb	lr, r0, #1
e0018f98:	e0845003 	add	r5, r4, r3
e0018f9c:	e08e0003 	add	r0, lr, r3
e0018fa0:	e5f12001 	ldrb	r2, [r1, #1]!
e0018fa4:	e3520000 	cmp	r2, #0
e0018fa8:	0a000003 	beq	e0018fbc <strlcpy+0x4c>
e0018fac:	e5e32001 	strb	r2, [r3, #1]!
e0018fb0:	e153000c 	cmp	r3, ip
e0018fb4:	1afffff7 	bne	e0018f98 <strlcpy+0x28>
e0018fb8:	e1a00005 	mov	r0, r5
e0018fbc:	e3a03000 	mov	r3, #0
e0018fc0:	e7c63000 	strb	r3, [r6, r0]
e0018fc4:	e8bd8070 	pop	{r4, r5, r6, pc}
e0018fc8:	e3a00000 	mov	r0, #0
e0018fcc:	eafffffa 	b	e0018fbc <strlcpy+0x4c>

e0018fd0 <strlcat>:
e0018fd0:	e3520000 	cmp	r2, #0
e0018fd4:	0a00001f 	beq	e0019058 <strlcat+0x88>
e0018fd8:	e92d4010 	push	{r4, lr}
e0018fdc:	e1a04000 	mov	r4, r0
e0018fe0:	e2403001 	sub	r3, r0, #1
e0018fe4:	e3a00000 	mov	r0, #0
e0018fe8:	e5f3c001 	ldrb	ip, [r3, #1]!
e0018fec:	e35c0000 	cmp	ip, #0
e0018ff0:	0a000003 	beq	e0019004 <strlcat+0x34>
e0018ff4:	e2800001 	add	r0, r0, #1
e0018ff8:	e1520000 	cmp	r2, r0
e0018ffc:	1afffff9 	bne	e0018fe8 <strlcat+0x18>
e0019000:	e8bd8010 	pop	{r4, pc}
e0019004:	e1520000 	cmp	r2, r0
e0019008:	98bd8010 	popls	{r4, pc}
e001900c:	e280c001 	add	ip, r0, #1
e0019010:	e152000c 	cmp	r2, ip
e0019014:	9a00000c 	bls	e001904c <strlcat+0x7c>
e0019018:	e241e001 	sub	lr, r1, #1
e001901c:	e2403001 	sub	r3, r0, #1
e0019020:	e0843003 	add	r3, r4, r3
e0019024:	e24c0001 	sub	r0, ip, #1
e0019028:	e5fe1001 	ldrb	r1, [lr, #1]!
e001902c:	e3510000 	cmp	r1, #0
e0019030:	0a000005 	beq	e001904c <strlcat+0x7c>
e0019034:	e5e31001 	strb	r1, [r3, #1]!
e0019038:	e28c1001 	add	r1, ip, #1
e001903c:	e1510002 	cmp	r1, r2
e0019040:	31a0c001 	movcc	ip, r1
e0019044:	3afffff6 	bcc	e0019024 <strlcat+0x54>
e0019048:	e1a0000c 	mov	r0, ip
e001904c:	e3a03000 	mov	r3, #0
e0019050:	e7c43000 	strb	r3, [r4, r0]
e0019054:	e8bd8010 	pop	{r4, pc}
e0019058:	e1a00002 	mov	r0, r2
e001905c:	e12fff1e 	bx	lr

e0019060 <memzero>:
e0019060:	e3510000 	cmp	r1, #0
e0019064:	012fff1e 	bxeq	lr
e0019068:	e1a03000 	mov	r3, r0
e001906c:	e3a02000 	mov	r2, #0
e0019070:	e0801001 	add	r1, r0, r1
e0019074:	e4832004 	str	r2, [r3], #4
e0019078:	e1530001 	cmp	r3, r1
e001907c:	1afffffc 	bne	e0019074 <memzero+0x14>
e0019080:	e12fff1e 	bx	lr

e0019084 <decodeARMMMUInvocation>:
e0019084:	e92d4ff0 	push	{r4, r5, r6, r7, r8, r9, sl, fp, lr}
e0019088:	e24dd054 	sub	sp, sp, #84	@ 0x54
e001908c:	e1a07000 	mov	r7, r0
e0019090:	e1a0b003 	mov	fp, r3
e0019094:	e59d5078 	ldr	r5, [sp, #120]	@ 0x78
e0019098:	e59d407c 	ldr	r4, [sp, #124]	@ 0x7c
e001909c:	e205300e 	and	r3, r5, #14
e00190a0:	e353000e 	cmp	r3, #14
e00190a4:	1205800f 	andne	r8, r5, #15
e00190a8:	06ef8075 	uxtbeq	r8, r5
e00190ac:	e2483001 	sub	r3, r8, #1
e00190b0:	e353000a 	cmp	r3, #10
e00190b4:	979ff103 	ldrls	pc, [pc, r3, lsl #2]
e00190b8:	ea00049d 	b	e001a334 <decodeARMMMUInvocation+0x12b0>
e00190bc:	e001963c 	.word	0xe001963c
e00190c0:	e001a334 	.word	0xe001a334
e00190c4:	e001963c 	.word	0xe001963c
e00190c8:	e001a334 	.word	0xe001a334
e00190cc:	e001a19c 	.word	0xe001a19c
e00190d0:	e001a334 	.word	0xe001a334
e00190d4:	e0019384 	.word	0xe0019384
e00190d8:	e001a334 	.word	0xe001a334
e00190dc:	e00190e8 	.word	0xe00190e8
e00190e0:	e001a334 	.word	0xe001a334
e00190e4:	e0019fd0 	.word	0xe0019fd0
e00190e8:	e240301e 	sub	r3, r0, #30
e00190ec:	e3530003 	cmp	r3, #3
e00190f0:	8a00009e 	bhi	e0019370 <decodeARMMMUInvocation+0x2ec>
e00190f4:	e3510001 	cmp	r1, #1
e00190f8:	9a000029 	bls	e00191a4 <decodeARMMMUInvocation+0x120>
e00190fc:	e30c3000 	movw	r3, #49152	@ 0xc000
e0019100:	e34e3001 	movt	r3, #57345	@ 0xe001
e0019104:	e5933840 	ldr	r3, [r3, #2112]	@ 0x840
e0019108:	e5938008 	ldr	r8, [r3, #8]
e001910c:	e593900c 	ldr	r9, [r3, #12]
e0019110:	e1580009 	cmp	r8, r9
e0019114:	2a000028 	bcs	e00191bc <decodeARMMMUInvocation+0x138>
e0019118:	e3780212 	cmn	r8, #536870913	@ 0x20000001
e001911c:	9359020e 	cmpls	r9, #-536870912	@ 0xe0000000
e0019120:	8a00002c 	bhi	e00191d8 <decodeARMMMUInvocation+0x154>
e0019124:	e3150010 	tst	r5, #16
e0019128:	0a00002f 	beq	e00191ec <decodeARMMMUInvocation+0x168>
e001912c:	e3c55dff 	bic	r5, r5, #16320	@ 0x3fc0
e0019130:	e3c5503f 	bic	r5, r5, #63	@ 0x3f
e0019134:	e7f04054 	ubfx	r4, r4, #0, #17
e0019138:	e1a01004 	mov	r1, r4
e001913c:	e28d0038 	add	r0, sp, #56	@ 0x38
e0019140:	ebffded1 	bl	e0010c8c <findPDForASID>
e0019144:	e59d6038 	ldr	r6, [sp, #56]	@ 0x38
e0019148:	e3560000 	cmp	r6, #0
e001914c:	1a00002e 	bne	e001920c <decodeARMMMUInvocation+0x188>
e0019150:	e59d303c 	ldr	r3, [sp, #60]	@ 0x3c
e0019154:	e1550003 	cmp	r5, r3
e0019158:	1a000033 	bne	e001922c <decodeARMMMUInvocation+0x1a8>
e001915c:	e1a03a28 	lsr	r3, r8, #20
e0019160:	e7953103 	ldr	r3, [r5, r3, lsl #2]
e0019164:	e2032003 	and	r2, r3, #3
e0019168:	e3520001 	cmp	r2, #1
e001916c:	0a000038 	beq	e0019254 <decodeARMMMUInvocation+0x1d0>
e0019170:	e3520002 	cmp	r2, #2
e0019174:	1a000058 	bne	e00192dc <decodeARMMMUInvocation+0x258>
e0019178:	e1a0aa23 	lsr	sl, r3, #20
e001917c:	e1a0aa0a 	lsl	sl, sl, #20
e0019180:	e7e03953 	ubfx	r3, r3, #18, #1
e0019184:	e2833002 	add	r3, r3, #2
e0019188:	e3530003 	cmp	r3, #3
e001918c:	979ff103 	ldrls	pc, [pc, r3, lsl #2]
e0019190:	ea000057 	b	e00192f4 <decodeARMMMUInvocation+0x270>
e0019194:	e00192f8 	.word	0xe00192f8
e0019198:	e0019290 	.word	0xe0019290
e001919c:	e001924c 	.word	0xe001924c
e00191a0:	e0019300 	.word	0xe0019300
e00191a4:	e30c3000 	movw	r3, #49152	@ 0xc000
e00191a8:	e34e3001 	movt	r3, #57345	@ 0xe001
e00191ac:	e3a02007 	mov	r2, #7
e00191b0:	e5832864 	str	r2, [r3, #2148]	@ 0x864
e00191b4:	e3a06003 	mov	r6, #3
e00191b8:	ea000454 	b	e001a310 <decodeARMMMUInvocation+0x128c>
e00191bc:	e30c3000 	movw	r3, #49152	@ 0xc000
e00191c0:	e34e3001 	movt	r3, #57345	@ 0xe001
e00191c4:	e3a02001 	mov	r2, #1
e00191c8:	e5832864 	str	r2, [r3, #2148]	@ 0x864
e00191cc:	e583284c 	str	r2, [r3, #2124]	@ 0x84c
e00191d0:	e3a06003 	mov	r6, #3
e00191d4:	ea00044d 	b	e001a310 <decodeARMMMUInvocation+0x128c>
e00191d8:	e30c3000 	movw	r3, #49152	@ 0xc000
e00191dc:	e34e3001 	movt	r3, #57345	@ 0xe001
e00191e0:	e3a06003 	mov	r6, #3
e00191e4:	e5836864 	str	r6, [r3, #2148]	@ 0x864
e00191e8:	ea000448 	b	e001a310 <decodeARMMMUInvocation+0x128c>
e00191ec:	e30c3000 	movw	r3, #49152	@ 0xc000
e00191f0:	e34e3001 	movt	r3, #57345	@ 0xe001
e00191f4:	e3a02002 	mov	r2, #2
e00191f8:	e5832864 	str	r2, [r3, #2148]	@ 0x864
e00191fc:	e3a02000 	mov	r2, #0
e0019200:	e5832850 	str	r2, [r3, #2128]	@ 0x850
e0019204:	e3a06003 	mov	r6, #3
e0019208:	ea000440 	b	e001a310 <decodeARMMMUInvocation+0x128c>
e001920c:	e30c3000 	movw	r3, #49152	@ 0xc000
e0019210:	e34e3001 	movt	r3, #57345	@ 0xe001
e0019214:	e3a02006 	mov	r2, #6
e0019218:	e5832864 	str	r2, [r3, #2148]	@ 0x864
e001921c:	e3a02000 	mov	r2, #0
e0019220:	e5832860 	str	r2, [r3, #2144]	@ 0x860
e0019224:	e3a06003 	mov	r6, #3
e0019228:	ea000438 	b	e001a310 <decodeARMMMUInvocation+0x128c>
e001922c:	e30c3000 	movw	r3, #49152	@ 0xc000
e0019230:	e34e3001 	movt	r3, #57345	@ 0xe001
e0019234:	e3a02002 	mov	r2, #2
e0019238:	e5832864 	str	r2, [r3, #2148]	@ 0x864
e001923c:	e3a02000 	mov	r2, #0
e0019240:	e5832850 	str	r2, [r3, #2128]	@ 0x850
e0019244:	e3a06003 	mov	r6, #3
e0019248:	ea000430 	b	e001a310 <decodeARMMMUInvocation+0x128c>
e001924c:	e3a0b014 	mov	fp, #20
e0019250:	ea00000f 	b	e0019294 <decodeARMMMUInvocation+0x210>
e0019254:	e3c33fff 	bic	r3, r3, #1020	@ 0x3fc
e0019258:	e3c33003 	bic	r3, r3, #3
e001925c:	e7e72658 	ubfx	r2, r8, #12, #8
e0019260:	e0833102 	add	r3, r3, r2, lsl #2
e0019264:	e283320d 	add	r3, r3, #-805306368	@ 0xd0000000
e0019268:	e593a000 	ldr	sl, [r3]
e001926c:	e31a0002 	tst	sl, #2
e0019270:	13caaeff 	bicne	sl, sl, #4080	@ 0xff0
e0019274:	13caa00f 	bicne	sl, sl, #15
e0019278:	13a0b00c 	movne	fp, #12
e001927c:	1a000004 	bne	e0019294 <decodeARMMMUInvocation+0x210>
e0019280:	e31a0001 	tst	sl, #1
e0019284:	0a000014 	beq	e00192dc <decodeARMMMUInvocation+0x258>
e0019288:	e1a0a82a 	lsr	sl, sl, #16
e001928c:	e1a0a80a 	lsl	sl, sl, #16
e0019290:	e3a0b010 	mov	fp, #16
e0019294:	e3a03001 	mov	r3, #1
e0019298:	e1a03b13 	lsl	r3, r3, fp
e001929c:	e2632000 	rsb	r2, r3, #0
e00192a0:	e0081002 	and	r1, r8, r2
e00192a4:	e2499001 	sub	r9, r9, #1
e00192a8:	e0022009 	and	r2, r2, r9
e00192ac:	e1510002 	cmp	r1, r2
e00192b0:	0a000014 	beq	e0019308 <decodeARMMMUInvocation+0x284>
e00192b4:	e30c2000 	movw	r2, #49152	@ 0xc000
e00192b8:	e34e2001 	movt	r2, #57345	@ 0xe001
e00192bc:	e3a00004 	mov	r0, #4
e00192c0:	e5820864 	str	r0, [r2, #2148]	@ 0x864
e00192c4:	e5828854 	str	r8, [r2, #2132]	@ 0x854
e00192c8:	e2433001 	sub	r3, r3, #1
e00192cc:	e0833001 	add	r3, r3, r1
e00192d0:	e5823858 	str	r3, [r2, #2136]	@ 0x858
e00192d4:	e3a06003 	mov	r6, #3
e00192d8:	ea00040c 	b	e001a310 <decodeARMMMUInvocation+0x128c>
e00192dc:	e30c3000 	movw	r3, #49152	@ 0xc000
e00192e0:	e34e3001 	movt	r3, #57345	@ 0xe001
e00192e4:	e3a01002 	mov	r1, #2
e00192e8:	e5930840 	ldr	r0, [r3, #2112]	@ 0x840
e00192ec:	ebffee34 	bl	e0014bc4 <setThreadState>
e00192f0:	ea000406 	b	e001a310 <decodeARMMMUInvocation+0x128c>
e00192f4:	ebffdd8a 	bl	e0010924 <halt>
e00192f8:	e3a0b00c 	mov	fp, #12
e00192fc:	eaffffe4 	b	e0019294 <decodeARMMMUInvocation+0x210>
e0019300:	e3a0b018 	mov	fp, #24
e0019304:	eaffffe2 	b	e0019294 <decodeARMMMUInvocation+0x210>
e0019308:	e30c3000 	movw	r3, #49152	@ 0xc000
e001930c:	e34e3001 	movt	r3, #57345	@ 0xe001
e0019310:	e3a01002 	mov	r1, #2
e0019314:	e5930840 	ldr	r0, [r3, #2112]	@ 0x840
e0019318:	ebffee29 	bl	e0014bc4 <setThreadState>
e001931c:	e1580009 	cmp	r8, r9
e0019320:	2a0003fa 	bcs	e001a310 <decodeARMMMUInvocation+0x128c>
e0019324:	e1a01004 	mov	r1, r4
e0019328:	e1a00005 	mov	r0, r5
e001932c:	ebffe028 	bl	e00113d4 <setVMRootForFlush>
e0019330:	e1a04000 	mov	r4, r0
e0019334:	e3e03000 	mvn	r3, #0
e0019338:	e1c83b13 	bic	r3, r8, r3, lsl fp
e001933c:	e083300a 	add	r3, r3, sl
e0019340:	e1a02009 	mov	r2, r9
e0019344:	e1a01008 	mov	r1, r8
e0019348:	e1a00007 	mov	r0, r7
e001934c:	ebffe4b1 	bl	e0012618 <doFlush>
e0019350:	e3540000 	cmp	r4, #0
e0019354:	01a06004 	moveq	r6, r4
e0019358:	0a0003ec 	beq	e001a310 <decodeARMMMUInvocation+0x128c>
e001935c:	e30c3000 	movw	r3, #49152	@ 0xc000
e0019360:	e34e3001 	movt	r3, #57345	@ 0xe001
e0019364:	e5930840 	ldr	r0, [r3, #2112]	@ 0x840
e0019368:	ebffdfd5 	bl	e00112c4 <setVMRoot>
e001936c:	ea0003e7 	b	e001a310 <decodeARMMMUInvocation+0x128c>
e0019370:	e30c3000 	movw	r3, #49152	@ 0xc000
e0019374:	e34e3001 	movt	r3, #57345	@ 0xe001
e0019378:	e3a06003 	mov	r6, #3
e001937c:	e5836864 	str	r6, [r3, #2148]	@ 0x864
e0019380:	ea0003e2 	b	e001a310 <decodeARMMMUInvocation+0x128c>
e0019384:	e3500023 	cmp	r0, #35	@ 0x23
e0019388:	0a00004c 	beq	e00194c0 <decodeARMMMUInvocation+0x43c>
e001938c:	e3500022 	cmp	r0, #34	@ 0x22
e0019390:	130c3000 	movwne	r3, #49152	@ 0xc000
e0019394:	134e3001 	movtne	r3, #57345	@ 0xe001
e0019398:	13a06003 	movne	r6, #3
e001939c:	15836864 	strne	r6, [r3, #2148]	@ 0x864
e00193a0:	1a0003da 	bne	e001a310 <decodeARMMMUInvocation+0x128c>
e00193a4:	e3510001 	cmp	r1, #1
e00193a8:	9a000070 	bls	e0019570 <decodeARMMMUInvocation+0x4ec>
e00193ac:	e30c3000 	movw	r3, #49152	@ 0xc000
e00193b0:	e34e3001 	movt	r3, #57345	@ 0xe001
e00193b4:	e5933b08 	ldr	r3, [r3, #2824]	@ 0xb08
e00193b8:	e3530000 	cmp	r3, #0
e00193bc:	0a00006b 	beq	e0019570 <decodeARMMMUInvocation+0x4ec>
e00193c0:	e3140202 	tst	r4, #536870912	@ 0x20000000
e00193c4:	1a00006f 	bne	e0019588 <decodeARMMMUInvocation+0x504>
e00193c8:	e5937000 	ldr	r7, [r3]
e00193cc:	e207200e 	and	r2, r7, #14
e00193d0:	e352000e 	cmp	r2, #14
e00193d4:	1207200f 	andne	r2, r7, #15
e00193d8:	06ef2077 	uxtbeq	r2, r7
e00193dc:	e3520009 	cmp	r2, #9
e00193e0:	1a000070 	bne	e00195a8 <decodeARMMMUInvocation+0x524>
e00193e4:	e3170010 	tst	r7, #16
e00193e8:	0a00006e 	beq	e00195a8 <decodeARMMMUInvocation+0x524>
e00193ec:	e30c2000 	movw	r2, #49152	@ 0xc000
e00193f0:	e34e2001 	movt	r2, #57345	@ 0xe001
e00193f4:	e5922840 	ldr	r2, [r2, #2112]	@ 0x840
e00193f8:	e5929008 	ldr	r9, [r2, #8]
e00193fc:	e3c77dff 	bic	r7, r7, #16320	@ 0x3fc0
e0019400:	e3c7703f 	bic	r7, r7, #63	@ 0x3f
e0019404:	e593a004 	ldr	sl, [r3, #4]
e0019408:	e7f0a05a 	ubfx	sl, sl, #0, #17
e001940c:	e3790212 	cmn	r9, #536870913	@ 0x20000001
e0019410:	8a00006c 	bhi	e00195c8 <decodeARMMMUInvocation+0x544>
e0019414:	e592800c 	ldr	r8, [r2, #12]
e0019418:	e1a0100a 	mov	r1, sl
e001941c:	e28d0038 	add	r0, sp, #56	@ 0x38
e0019420:	ebffde19 	bl	e0010c8c <findPDForASID>
e0019424:	e59d3038 	ldr	r3, [sp, #56]	@ 0x38
e0019428:	e3530000 	cmp	r3, #0
e001942c:	1a00006d 	bne	e00195e8 <decodeARMMMUInvocation+0x564>
e0019430:	e59d303c 	ldr	r3, [sp, #60]	@ 0x3c
e0019434:	e1570003 	cmp	r7, r3
e0019438:	1a000072 	bne	e0019608 <decodeARMMMUInvocation+0x584>
e001943c:	e1a09a29 	lsr	r9, r9, #20
e0019440:	e0873109 	add	r3, r7, r9, lsl #2
e0019444:	e58d3014 	str	r3, [sp, #20]
e0019448:	e7976109 	ldr	r6, [r7, r9, lsl #2]
e001944c:	e2166003 	ands	r6, r6, #3
e0019450:	1a000073 	bne	e0019624 <decodeARMMMUInvocation+0x5a0>
e0019454:	e30c3000 	movw	r3, #49152	@ 0xc000
e0019458:	e34e3001 	movt	r3, #57345	@ 0xe001
e001945c:	e3a01002 	mov	r1, #2
e0019460:	e5930840 	ldr	r0, [r3, #2112]	@ 0x840
e0019464:	ebffedd6 	bl	e0014bc4 <setThreadState>
e0019468:	e58b5000 	str	r5, [fp]
e001946c:	e3003fff 	movw	r3, #4095	@ 0xfff
e0019470:	e34c3000 	movt	r3, #49152	@ 0xc000
e0019474:	e0033004 	and	r3, r3, r4
e0019478:	e183360a 	orr	r3, r3, sl, lsl #12
e001947c:	e3c33eff 	bic	r3, r3, #4080	@ 0xff0
e0019480:	e3c332f2 	bic	r3, r3, #536870927	@ 0x2000000f
e0019484:	e1833009 	orr	r3, r3, r9
e0019488:	e3833202 	orr	r3, r3, #536870912	@ 0x20000000
e001948c:	e58b3004 	str	r3, [fp, #4]
e0019490:	e1a03408 	lsl	r3, r8, #8
e0019494:	e2033c02 	and	r3, r3, #512	@ 0x200
e0019498:	e3c55fff 	bic	r5, r5, #1020	@ 0x3fc
e001949c:	e3c55003 	bic	r5, r5, #3
e00194a0:	e2855203 	add	r5, r5, #805306368	@ 0x30000000
e00194a4:	e1833005 	orr	r3, r3, r5
e00194a8:	e3833001 	orr	r3, r3, #1
e00194ac:	e7873109 	str	r3, [r7, r9, lsl #2]
e00194b0:	e59d3014 	ldr	r3, [sp, #20]
e00194b4:	ee073f3b 	mcr	15, 0, r3, cr7, cr11, {1}
e00194b8:	f57ff05f 	dmb	sy
e00194bc:	ea000393 	b	e001a310 <decodeARMMMUInvocation+0x128c>
e00194c0:	e1a0000b 	mov	r0, fp
e00194c4:	ebffec99 	bl	e0014730 <isFinalCapability>
e00194c8:	e3500000 	cmp	r0, #0
e00194cc:	0a00000d 	beq	e0019508 <decodeARMMMUInvocation+0x484>
e00194d0:	e30c3000 	movw	r3, #49152	@ 0xc000
e00194d4:	e34e3001 	movt	r3, #57345	@ 0xe001
e00194d8:	e3a01002 	mov	r1, #2
e00194dc:	e5930840 	ldr	r0, [r3, #2112]	@ 0x840
e00194e0:	ebffedb7 	bl	e0014bc4 <setThreadState>
e00194e4:	e58d5038 	str	r5, [sp, #56]	@ 0x38
e00194e8:	e58d403c 	str	r4, [sp, #60]	@ 0x3c
e00194ec:	e3140202 	tst	r4, #536870912	@ 0x20000000
e00194f0:	1a00000a 	bne	e0019520 <decodeARMMMUInvocation+0x49c>
e00194f4:	e59b3004 	ldr	r3, [fp, #4]
e00194f8:	e3c33202 	bic	r3, r3, #536870912	@ 0x20000000
e00194fc:	e58b3004 	str	r3, [fp, #4]
e0019500:	e3a06000 	mov	r6, #0
e0019504:	ea000381 	b	e001a310 <decodeARMMMUInvocation+0x128c>
e0019508:	e30c3000 	movw	r3, #49152	@ 0xc000
e001950c:	e34e3001 	movt	r3, #57345	@ 0xe001
e0019510:	e3a02009 	mov	r2, #9
e0019514:	e5832864 	str	r2, [r3, #2148]	@ 0x864
e0019518:	e3a06003 	mov	r6, #3
e001951c:	ea00037b 	b	e001a310 <decodeARMMMUInvocation+0x128c>
e0019520:	e3c55fff 	bic	r5, r5, #1020	@ 0x3fc
e0019524:	e3c55003 	bic	r5, r5, #3
e0019528:	e1a02005 	mov	r2, r5
e001952c:	e1a01a04 	lsl	r1, r4, #20
e0019530:	e7f00654 	ubfx	r0, r4, #12, #17
e0019534:	ebffe023 	bl	e00115c8 <unmapPageTable>
e0019538:	e28d3038 	add	r3, sp, #56	@ 0x38
e001953c:	e8930003 	ldm	r3, {r0, r1}
e0019540:	ebffe994 	bl	e0013b98 <cap_get_capSizeBits>
e0019544:	e3a04001 	mov	r4, #1
e0019548:	e1a04014 	lsl	r4, r4, r0
e001954c:	e1a01004 	mov	r1, r4
e0019550:	e1a00005 	mov	r0, r5
e0019554:	ebfffec1 	bl	e0019060 <memzero>
e0019558:	e2451001 	sub	r1, r5, #1
e001955c:	e2852203 	add	r2, r5, #805306368	@ 0x30000000
e0019560:	e0811004 	add	r1, r1, r4
e0019564:	e1a00005 	mov	r0, r5
e0019568:	ebffe30b 	bl	e001219c <cleanCacheRange_PoU>
e001956c:	eaffffe0 	b	e00194f4 <decodeARMMMUInvocation+0x470>
e0019570:	e30c3000 	movw	r3, #49152	@ 0xc000
e0019574:	e34e3001 	movt	r3, #57345	@ 0xe001
e0019578:	e3a02007 	mov	r2, #7
e001957c:	e5832864 	str	r2, [r3, #2148]	@ 0x864
e0019580:	e3a06003 	mov	r6, #3
e0019584:	ea000361 	b	e001a310 <decodeARMMMUInvocation+0x128c>
e0019588:	e30c3000 	movw	r3, #49152	@ 0xc000
e001958c:	e34e3001 	movt	r3, #57345	@ 0xe001
e0019590:	e3a02002 	mov	r2, #2
e0019594:	e5832864 	str	r2, [r3, #2148]	@ 0x864
e0019598:	e3a02000 	mov	r2, #0
e001959c:	e5832850 	str	r2, [r3, #2128]	@ 0x850
e00195a0:	e3a06003 	mov	r6, #3
e00195a4:	ea000359 	b	e001a310 <decodeARMMMUInvocation+0x128c>
e00195a8:	e30c3000 	movw	r3, #49152	@ 0xc000
e00195ac:	e34e3001 	movt	r3, #57345	@ 0xe001
e00195b0:	e3a02002 	mov	r2, #2
e00195b4:	e5832864 	str	r2, [r3, #2148]	@ 0x864
e00195b8:	e3a02001 	mov	r2, #1
e00195bc:	e5832850 	str	r2, [r3, #2128]	@ 0x850
e00195c0:	e3a06003 	mov	r6, #3
e00195c4:	ea000351 	b	e001a310 <decodeARMMMUInvocation+0x128c>
e00195c8:	e30c3000 	movw	r3, #49152	@ 0xc000
e00195cc:	e34e3001 	movt	r3, #57345	@ 0xe001
e00195d0:	e3a02001 	mov	r2, #1
e00195d4:	e5832864 	str	r2, [r3, #2148]	@ 0x864
e00195d8:	e3a02000 	mov	r2, #0
e00195dc:	e583284c 	str	r2, [r3, #2124]	@ 0x84c
e00195e0:	e3a06003 	mov	r6, #3
e00195e4:	ea000349 	b	e001a310 <decodeARMMMUInvocation+0x128c>
e00195e8:	e30c3000 	movw	r3, #49152	@ 0xc000
e00195ec:	e34e3001 	movt	r3, #57345	@ 0xe001
e00195f0:	e3a02006 	mov	r2, #6
e00195f4:	e5832864 	str	r2, [r3, #2148]	@ 0x864
e00195f8:	e3a02000 	mov	r2, #0
e00195fc:	e5832860 	str	r2, [r3, #2144]	@ 0x860
e0019600:	e3a06003 	mov	r6, #3
e0019604:	ea000341 	b	e001a310 <decodeARMMMUInvocation+0x128c>
e0019608:	e30c3000 	movw	r3, #49152	@ 0xc000
e001960c:	e34e3001 	movt	r3, #57345	@ 0xe001
e0019610:	e3a02002 	mov	r2, #2
e0019614:	e5832864 	str	r2, [r3, #2148]	@ 0x864
e0019618:	e3a02001 	mov	r2, #1
e001961c:	e5832850 	str	r2, [r3, #2128]	@ 0x850
e0019620:	eafffff6 	b	e0019600 <decodeARMMMUInvocation+0x57c>
e0019624:	e30c3000 	movw	r3, #49152	@ 0xc000
e0019628:	e34e3001 	movt	r3, #57345	@ 0xe001
e001962c:	e3a02008 	mov	r2, #8
e0019630:	e5832864 	str	r2, [r3, #2148]	@ 0x864
e0019634:	e3a06003 	mov	r6, #3
e0019638:	ea000334 	b	e001a310 <decodeARMMMUInvocation+0x128c>
e001963c:	e2403024 	sub	r3, r0, #36	@ 0x24
e0019640:	e3530006 	cmp	r3, #6
e0019644:	979ff103 	ldrls	pc, [pc, r3, lsl #2]
e0019648:	ea00025b 	b	e0019fbc <decodeARMMMUInvocation+0xf38>
e001964c:	e0019668 	.word	0xe0019668
e0019650:	e0019cc4 	.word	0xe0019cc4
e0019654:	e0019d48 	.word	0xe0019d48
e0019658:	e0019d48 	.word	0xe0019d48
e001965c:	e0019d48 	.word	0xe0019d48
e0019660:	e0019d48 	.word	0xe0019d48
e0019664:	e0019f30 	.word	0xe0019f30
e0019668:	e3510002 	cmp	r1, #2
e001966c:	9a000038 	bls	e0019754 <decodeARMMMUInvocation+0x6d0>
e0019670:	e30c3000 	movw	r3, #49152	@ 0xc000
e0019674:	e34e3001 	movt	r3, #57345	@ 0xe001
e0019678:	e5933b08 	ldr	r3, [r3, #2824]	@ 0xb08
e001967c:	e3530000 	cmp	r3, #0
e0019680:	0a000033 	beq	e0019754 <decodeARMMMUInvocation+0x6d0>
e0019684:	e30c2000 	movw	r2, #49152	@ 0xc000
e0019688:	e34e2001 	movt	r2, #57345	@ 0xe001
e001968c:	e5922840 	ldr	r2, [r2, #2112]	@ 0x840
e0019690:	e5929008 	ldr	r9, [r2, #8]
e0019694:	e592600c 	ldr	r6, [r2, #12]
e0019698:	e5922010 	ldr	r2, [r2, #16]
e001969c:	e58d2018 	str	r2, [sp, #24]
e00196a0:	e5937000 	ldr	r7, [r3]
e00196a4:	e5932004 	ldr	r2, [r3, #4]
e00196a8:	e3580003 	cmp	r8, #3
e00196ac:	0a00002e 	beq	e001976c <decodeARMMMUInvocation+0x6e8>
e00196b0:	e3580001 	cmp	r8, #1
e00196b4:	07e13a54 	ubfxeq	r3, r4, #20, #2
e00196b8:	058d3020 	streq	r3, [sp, #32]
e00196bc:	03a0a000 	moveq	sl, #0
e00196c0:	13a0a000 	movne	sl, #0
e00196c4:	158da020 	strne	sl, [sp, #32]
e00196c8:	e207300e 	and	r3, r7, #14
e00196cc:	e353000e 	cmp	r3, #14
e00196d0:	1207300f 	andne	r3, r7, #15
e00196d4:	06ef3077 	uxtbeq	r3, r7
e00196d8:	e3530009 	cmp	r3, #9
e00196dc:	1a000026 	bne	e001977c <decodeARMMMUInvocation+0x6f8>
e00196e0:	e7e03257 	ubfx	r3, r7, #4, #1
e00196e4:	e58d301c 	str	r3, [sp, #28]
e00196e8:	e3530000 	cmp	r3, #0
e00196ec:	0a000022 	beq	e001977c <decodeARMMMUInvocation+0x6f8>
e00196f0:	e7f03052 	ubfx	r3, r2, #0, #17
e00196f4:	e58d3014 	str	r3, [sp, #20]
e00196f8:	e6ef3078 	uxtb	r3, r8
e00196fc:	e58d3024 	str	r3, [sp, #36]	@ 0x24
e0019700:	e3530001 	cmp	r3, #1
e0019704:	01a03725 	lsreq	r3, r5, #14
e0019708:	02033b7f 	andeq	r3, r3, #130048	@ 0x1fc00
e001970c:	00833b24 	addeq	r3, r3, r4, lsr #22
e0019710:	11a03625 	lsrne	r3, r5, #12
e0019714:	12033b7f 	andne	r3, r3, #130048	@ 0x1fc00
e0019718:	17e92a54 	ubfxne	r2, r4, #20, #10
e001971c:	11833002 	orrne	r3, r3, r2
e0019720:	e3530000 	cmp	r3, #0
e0019724:	0a00002a 	beq	e00197d4 <decodeARMMMUInvocation+0x750>
e0019728:	e59d2014 	ldr	r2, [sp, #20]
e001972c:	e1520003 	cmp	r2, r3
e0019730:	0a000019 	beq	e001979c <decodeARMMMUInvocation+0x718>
e0019734:	e30c3000 	movw	r3, #49152	@ 0xc000
e0019738:	e34e3001 	movt	r3, #57345	@ 0xe001
e001973c:	e3a02002 	mov	r2, #2
e0019740:	e5832864 	str	r2, [r3, #2148]	@ 0x864
e0019744:	e3a02001 	mov	r2, #1
e0019748:	e5832850 	str	r2, [r3, #2128]	@ 0x850
e001974c:	e3a06003 	mov	r6, #3
e0019750:	ea0002ee 	b	e001a310 <decodeARMMMUInvocation+0x128c>
e0019754:	e30c3000 	movw	r3, #49152	@ 0xc000
e0019758:	e34e3001 	movt	r3, #57345	@ 0xe001
e001975c:	e3a02007 	mov	r2, #7
e0019760:	e5832864 	str	r2, [r3, #2148]	@ 0x864
e0019764:	e3a06003 	mov	r6, #3
e0019768:	ea0002e8 	b	e001a310 <decodeARMMMUInvocation+0x128c>
e001976c:	e1a0af24 	lsr	sl, r4, #30
e0019770:	e7e13954 	ubfx	r3, r4, #18, #2
e0019774:	e58d3020 	str	r3, [sp, #32]
e0019778:	eaffffd2 	b	e00196c8 <decodeARMMMUInvocation+0x644>
e001977c:	e30c3000 	movw	r3, #49152	@ 0xc000
e0019780:	e34e3001 	movt	r3, #57345	@ 0xe001
e0019784:	e3a02002 	mov	r2, #2
e0019788:	e5832864 	str	r2, [r3, #2148]	@ 0x864
e001978c:	e3a02001 	mov	r2, #1
e0019790:	e5832850 	str	r2, [r3, #2128]	@ 0x850
e0019794:	e3a06003 	mov	r6, #3
e0019798:	ea0002dc 	b	e001a310 <decodeARMMMUInvocation+0x128c>
e001979c:	e59d3024 	ldr	r3, [sp, #36]	@ 0x24
e00197a0:	e3530001 	cmp	r3, #1
e00197a4:	01a03604 	lsleq	r3, r4, #12
e00197a8:	11a03704 	lslne	r3, r4, #14
e00197ac:	e1590003 	cmp	r9, r3
e00197b0:	0a000014 	beq	e0019808 <decodeARMMMUInvocation+0x784>
e00197b4:	e30c3000 	movw	r3, #49152	@ 0xc000
e00197b8:	e34e3001 	movt	r3, #57345	@ 0xe001
e00197bc:	e3a02001 	mov	r2, #1
e00197c0:	e5832864 	str	r2, [r3, #2148]	@ 0x864
e00197c4:	e3a02000 	mov	r2, #0
e00197c8:	e583284c 	str	r2, [r3, #2124]	@ 0x84c
e00197cc:	e3a06003 	mov	r6, #3
e00197d0:	ea0002ce 	b	e001a310 <decodeARMMMUInvocation+0x128c>
e00197d4:	e35a0003 	cmp	sl, #3
e00197d8:	979ff10a 	ldrls	pc, [pc, sl, lsl #2]
e00197dc:	ea000020 	b	e0019864 <decodeARMMMUInvocation+0x7e0>
e00197e0:	e0019868 	.word	0xe0019868
e00197e4:	e00197f0 	.word	0xe00197f0
e00197e8:	e0019870 	.word	0xe0019870
e00197ec:	e001985c 	.word	0xe001985c
e00197f0:	e3a01010 	mov	r1, #16
e00197f4:	e2493001 	sub	r3, r9, #1
e00197f8:	e3a02001 	mov	r2, #1
e00197fc:	e0833112 	add	r3, r3, r2, lsl r1
e0019800:	e3730212 	cmn	r3, #536870913	@ 0x20000001
e0019804:	8a00001b 	bhi	e0019878 <decodeARMMMUInvocation+0x7f4>
e0019808:	e59d1014 	ldr	r1, [sp, #20]
e001980c:	e28d0038 	add	r0, sp, #56	@ 0x38
e0019810:	ebffdd1d 	bl	e0010c8c <findPDForASID>
e0019814:	e59d3038 	ldr	r3, [sp, #56]	@ 0x38
e0019818:	e3530000 	cmp	r3, #0
e001981c:	1a00001c 	bne	e0019894 <decodeARMMMUInvocation+0x810>
e0019820:	e3c77dff 	bic	r7, r7, #16320	@ 0x3fc0
e0019824:	e3c7703f 	bic	r7, r7, #63	@ 0x3f
e0019828:	e59d303c 	ldr	r3, [sp, #60]	@ 0x3c
e001982c:	e1570003 	cmp	r7, r3
e0019830:	1a00001f 	bne	e00198b4 <decodeARMMMUInvocation+0x830>
e0019834:	e1a01006 	mov	r1, r6
e0019838:	e59d0020 	ldr	r0, [sp, #32]
e001983c:	ebffdd00 	bl	e0010c44 <maskVMRights>
e0019840:	e35a0003 	cmp	sl, #3
e0019844:	979ff10a 	ldrls	pc, [pc, sl, lsl #2]
e0019848:	ea000030 	b	e0019910 <decodeARMMMUInvocation+0x88c>
e001984c:	e0019914 	.word	0xe0019914
e0019850:	e00198d0 	.word	0xe00198d0
e0019854:	e001991c 	.word	0xe001991c
e0019858:	e0019908 	.word	0xe0019908
e001985c:	e3a01018 	mov	r1, #24
e0019860:	eaffffe3 	b	e00197f4 <decodeARMMMUInvocation+0x770>
e0019864:	ebffdc2e 	bl	e0010924 <halt>
e0019868:	e3a0100c 	mov	r1, #12
e001986c:	eaffffe0 	b	e00197f4 <decodeARMMMUInvocation+0x770>
e0019870:	e3a01014 	mov	r1, #20
e0019874:	eaffffde 	b	e00197f4 <decodeARMMMUInvocation+0x770>
e0019878:	e30c3000 	movw	r3, #49152	@ 0xc000
e001987c:	e34e3001 	movt	r3, #57345	@ 0xe001
e0019880:	e5832864 	str	r2, [r3, #2148]	@ 0x864
e0019884:	e3a02000 	mov	r2, #0
e0019888:	e583284c 	str	r2, [r3, #2124]	@ 0x84c
e001988c:	e3a06003 	mov	r6, #3
e0019890:	ea00029e 	b	e001a310 <decodeARMMMUInvocation+0x128c>
e0019894:	e30c3000 	movw	r3, #49152	@ 0xc000
e0019898:	e34e3001 	movt	r3, #57345	@ 0xe001
e001989c:	e3a02006 	mov	r2, #6
e00198a0:	e5832864 	str	r2, [r3, #2148]	@ 0x864
e00198a4:	e3a02000 	mov	r2, #0
e00198a8:	e5832860 	str	r2, [r3, #2144]	@ 0x860
e00198ac:	e3a06003 	mov	r6, #3
e00198b0:	ea000296 	b	e001a310 <decodeARMMMUInvocation+0x128c>
e00198b4:	e30c3000 	movw	r3, #49152	@ 0xc000
e00198b8:	e34e3001 	movt	r3, #57345	@ 0xe001
e00198bc:	e3a02002 	mov	r2, #2
e00198c0:	e5832864 	str	r2, [r3, #2148]	@ 0x864
e00198c4:	e3a02001 	mov	r2, #1
e00198c8:	e5832850 	str	r2, [r3, #2128]	@ 0x850
e00198cc:	eafffff6 	b	e00198ac <decodeARMMMUInvocation+0x828>
e00198d0:	e3a03010 	mov	r3, #16
e00198d4:	e3e06000 	mvn	r6, #0
e00198d8:	e1d96316 	bics	r6, r9, r6, lsl r3
e00198dc:	1a000010 	bne	e0019924 <decodeARMMMUInvocation+0x8a0>
e00198e0:	e3580001 	cmp	r8, #1
e00198e4:	0a000014 	beq	e001993c <decodeARMMMUInvocation+0x8b8>
e00198e8:	e3580003 	cmp	r8, #3
e00198ec:	0a000020 	beq	e0019974 <decodeARMMMUInvocation+0x8f0>
e00198f0:	e59d3024 	ldr	r3, [sp, #36]	@ 0x24
e00198f4:	e3530001 	cmp	r3, #1
e00198f8:	13a08203 	movne	r8, #805306368	@ 0x30000000
e00198fc:	1a000020 	bne	e0019984 <decodeARMMMUInvocation+0x900>
e0019900:	e3a08203 	mov	r8, #805306368	@ 0x30000000
e0019904:	ea000010 	b	e001994c <decodeARMMMUInvocation+0x8c8>
e0019908:	e3a03018 	mov	r3, #24
e001990c:	eafffff0 	b	e00198d4 <decodeARMMMUInvocation+0x850>
e0019910:	ebffdc03 	bl	e0010924 <halt>
e0019914:	e3a0300c 	mov	r3, #12
e0019918:	eaffffed 	b	e00198d4 <decodeARMMMUInvocation+0x850>
e001991c:	e3a03014 	mov	r3, #20
e0019920:	eaffffeb 	b	e00198d4 <decodeARMMMUInvocation+0x850>
e0019924:	e30c3000 	movw	r3, #49152	@ 0xc000
e0019928:	e34e3001 	movt	r3, #57345	@ 0xe001
e001992c:	e3a02005 	mov	r2, #5
e0019930:	e5832864 	str	r2, [r3, #2148]	@ 0x864
e0019934:	e3a06003 	mov	r6, #3
e0019938:	ea000274 	b	e001a310 <decodeARMMMUInvocation+0x128c>
e001993c:	e1a08405 	lsl	r8, r5, #8
e0019940:	e3c88eff 	bic	r8, r8, #4080	@ 0xff0
e0019944:	e3c8800f 	bic	r8, r8, #15
e0019948:	e2888203 	add	r8, r8, #805306368	@ 0x30000000
e001994c:	e59d2014 	ldr	r2, [sp, #20]
e0019950:	e1a03522 	lsr	r3, r2, #10
e0019954:	e3c5547f 	bic	r5, r5, #2130706432	@ 0x7f000000
e0019958:	e1855c03 	orr	r5, r5, r3, lsl #24
e001995c:	e7f54054 	ubfx	r4, r4, #0, #22
e0019960:	e1844b02 	orr	r4, r4, r2, lsl #22
e0019964:	e1a04a24 	lsr	r4, r4, #20
e0019968:	e1a04a04 	lsl	r4, r4, #20
e001996c:	e1844629 	orr	r4, r4, r9, lsr #12
e0019970:	ea00000f 	b	e00199b4 <decodeARMMMUInvocation+0x930>
e0019974:	e1a08505 	lsl	r8, r5, #10
e0019978:	e3c88dff 	bic	r8, r8, #16320	@ 0x3fc0
e001997c:	e3c8803f 	bic	r8, r8, #63	@ 0x3f
e0019980:	e2888203 	add	r8, r8, #805306368	@ 0x30000000
e0019984:	e59d2014 	ldr	r2, [sp, #20]
e0019988:	e1a03522 	lsr	r3, r2, #10
e001998c:	e3c5557f 	bic	r5, r5, #532676608	@ 0x1fc00000
e0019990:	e1855b03 	orr	r5, r5, r3, lsl #22
e0019994:	e3a03000 	mov	r3, #0
e0019998:	e3433ff0 	movt	r3, #16368	@ 0x3ff0
e001999c:	e0032a02 	and	r2, r3, r2, lsl #20
e00199a0:	e3a03000 	mov	r3, #0
e00199a4:	e34c300c 	movt	r3, #49164	@ 0xc00c
e00199a8:	e0033004 	and	r3, r3, r4
e00199ac:	e1833002 	orr	r3, r3, r2
e00199b0:	e1834729 	orr	r4, r3, r9, lsr #14
e00199b4:	e35a0001 	cmp	sl, #1
e00199b8:	9a000012 	bls	e0019a08 <decodeARMMMUInvocation+0x984>
e00199bc:	e35a0002 	cmp	sl, #2
e00199c0:	0a000067 	beq	e0019b64 <decodeARMMMUInvocation+0xae0>
e00199c4:	e1a09a29 	lsr	r9, r9, #20
e00199c8:	e0879109 	add	r9, r7, r9, lsl #2
e00199cc:	e58d0008 	str	r0, [sp, #8]
e00199d0:	e3a03000 	mov	r3, #0
e00199d4:	e58d3004 	str	r3, [sp, #4]
e00199d8:	e59d2018 	ldr	r2, [sp, #24]
e00199dc:	e7e03152 	ubfx	r3, r2, #2, #1
e00199e0:	e58d3000 	str	r3, [sp]
e00199e4:	e2023001 	and	r3, r2, #1
e00199e8:	e7e020d2 	ubfx	r2, r2, #1, #1
e00199ec:	e1a01008 	mov	r1, r8
e00199f0:	e3a00003 	mov	r0, #3
e00199f4:	ebffdc6b 	bl	e0010ba8 <makeUserPDE>
e00199f8:	e58d003c 	str	r0, [sp, #60]	@ 0x3c
e00199fc:	e2493004 	sub	r3, r9, #4
e0019a00:	e289103c 	add	r1, r9, #60	@ 0x3c
e0019a04:	ea000096 	b	e0019c64 <decodeARMMMUInvocation+0xbe0>
e0019a08:	e35a0000 	cmp	sl, #0
e0019a0c:	0a00001f 	beq	e0019a90 <decodeARMMMUInvocation+0xa0c>
e0019a10:	e59d3018 	ldr	r3, [sp, #24]
e0019a14:	e7e0a153 	ubfx	sl, r3, #2, #1
e0019a18:	ebffdc58 	bl	e0010b80 <APFromVMRights>
e0019a1c:	e59d2018 	ldr	r2, [sp, #24]
e0019a20:	e3120001 	tst	r2, #1
e0019a24:	e1a03200 	lsl	r3, r0, #4
e0019a28:	e2033030 	and	r3, r3, #48	@ 0x30
e0019a2c:	e183a78a 	orr	sl, r3, sl, lsl #15
e0019a30:	e1a08828 	lsr	r8, r8, #16
e0019a34:	e1a08808 	lsl	r8, r8, #16
e0019a38:	e18a8008 	orr	r8, sl, r8
e0019a3c:	13888b16 	orrne	r8, r8, #22528	@ 0x5800
e0019a40:	13888005 	orrne	r8, r8, #5
e0019a44:	03888b03 	orreq	r8, r8, #3072	@ 0xc00
e0019a48:	03888001 	orreq	r8, r8, #1
e0019a4c:	e1a02009 	mov	r2, r9
e0019a50:	e1a01007 	mov	r1, r7
e0019a54:	e28d0028 	add	r0, sp, #40	@ 0x28
e0019a58:	ebffdd9b 	bl	e00110cc <lookupPTSlot>
e0019a5c:	e59d702c 	ldr	r7, [sp, #44]	@ 0x2c
e0019a60:	e59d3028 	ldr	r3, [sp, #40]	@ 0x28
e0019a64:	e3530000 	cmp	r3, #0
e0019a68:	02473004 	subeq	r3, r7, #4
e0019a6c:	0287103c 	addeq	r1, r7, #60	@ 0x3c
e0019a70:	0a00002e 	beq	e0019b30 <decodeARMMMUInvocation+0xaac>
e0019a74:	e30c3000 	movw	r3, #49152	@ 0xc000
e0019a78:	e34e3001 	movt	r3, #57345	@ 0xe001
e0019a7c:	e3a02006 	mov	r2, #6
e0019a80:	e5832864 	str	r2, [r3, #2148]	@ 0x864
e0019a84:	e3a02000 	mov	r2, #0
e0019a88:	e5832860 	str	r2, [r3, #2144]	@ 0x860
e0019a8c:	ea00002e 	b	e0019b4c <decodeARMMMUInvocation+0xac8>
e0019a90:	e59d3018 	ldr	r3, [sp, #24]
e0019a94:	e7e0a153 	ubfx	sl, r3, #2, #1
e0019a98:	ebffdc38 	bl	e0010b80 <APFromVMRights>
e0019a9c:	e59d2018 	ldr	r2, [sp, #24]
e0019aa0:	e3120001 	tst	r2, #1
e0019aa4:	e1a03200 	lsl	r3, r0, #4
e0019aa8:	e2033030 	and	r3, r3, #48	@ 0x30
e0019aac:	e183a00a 	orr	sl, r3, sl
e0019ab0:	e18a8008 	orr	r8, sl, r8
e0019ab4:	13888d25 	orrne	r8, r8, #2368	@ 0x940
e0019ab8:	13888006 	orrne	r8, r8, #6
e0019abc:	03888b03 	orreq	r8, r8, #3072	@ 0xc00
e0019ac0:	03888002 	orreq	r8, r8, #2
e0019ac4:	e1a02009 	mov	r2, r9
e0019ac8:	e1a01007 	mov	r1, r7
e0019acc:	e28d0028 	add	r0, sp, #40	@ 0x28
e0019ad0:	ebffdd7d 	bl	e00110cc <lookupPTSlot>
e0019ad4:	e59d702c 	ldr	r7, [sp, #44]	@ 0x2c
e0019ad8:	e59d3028 	ldr	r3, [sp, #40]	@ 0x28
e0019adc:	e3530000 	cmp	r3, #0
e0019ae0:	1a000009 	bne	e0019b0c <decodeARMMMUInvocation+0xa88>
e0019ae4:	e5973000 	ldr	r3, [r7]
e0019ae8:	e3130002 	tst	r3, #2
e0019aec:	1a000211 	bne	e001a338 <decodeARMMMUInvocation+0x12b4>
e0019af0:	e3130001 	tst	r3, #1
e0019af4:	0a00020f 	beq	e001a338 <decodeARMMMUInvocation+0x12b4>
e0019af8:	e30c3000 	movw	r3, #49152	@ 0xc000
e0019afc:	e34e3001 	movt	r3, #57345	@ 0xe001
e0019b00:	e3a02008 	mov	r2, #8
e0019b04:	e5832864 	str	r2, [r3, #2148]	@ 0x864
e0019b08:	ea00000f 	b	e0019b4c <decodeARMMMUInvocation+0xac8>
e0019b0c:	e30c3000 	movw	r3, #49152	@ 0xc000
e0019b10:	e34e3001 	movt	r3, #57345	@ 0xe001
e0019b14:	e3a02006 	mov	r2, #6
e0019b18:	e5832864 	str	r2, [r3, #2148]	@ 0x864
e0019b1c:	e3a02000 	mov	r2, #0
e0019b20:	e5832860 	str	r2, [r3, #2144]	@ 0x860
e0019b24:	ea000008 	b	e0019b4c <decodeARMMMUInvocation+0xac8>
e0019b28:	e1530001 	cmp	r3, r1
e0019b2c:	0a000008 	beq	e0019b54 <decodeARMMMUInvocation+0xad0>
e0019b30:	e5b32004 	ldr	r2, [r3, #4]!
e0019b34:	e3120002 	tst	r2, #2
e0019b38:	0afffffa 	beq	e0019b28 <decodeARMMMUInvocation+0xaa4>
e0019b3c:	e30c3000 	movw	r3, #49152	@ 0xc000
e0019b40:	e34e3001 	movt	r3, #57345	@ 0xe001
e0019b44:	e3a02008 	mov	r2, #8
e0019b48:	e5832864 	str	r2, [r3, #2148]	@ 0x864
e0019b4c:	e3a06003 	mov	r6, #3
e0019b50:	ea0001ee 	b	e001a310 <decodeARMMMUInvocation+0x128c>
e0019b54:	e58d803c 	str	r8, [sp, #60]	@ 0x3c
e0019b58:	e3a03010 	mov	r3, #16
e0019b5c:	e58d301c 	str	r3, [sp, #28]
e0019b60:	ea0001f5 	b	e001a33c <decodeARMMMUInvocation+0x12b8>
e0019b64:	e1a0aa29 	lsr	sl, r9, #20
e0019b68:	e087910a 	add	r9, r7, sl, lsl #2
e0019b6c:	e58d0008 	str	r0, [sp, #8]
e0019b70:	e3a03000 	mov	r3, #0
e0019b74:	e58d3004 	str	r3, [sp, #4]
e0019b78:	e59d2018 	ldr	r2, [sp, #24]
e0019b7c:	e7e03152 	ubfx	r3, r2, #2, #1
e0019b80:	e58d3000 	str	r3, [sp]
e0019b84:	e2023001 	and	r3, r2, #1
e0019b88:	e7e020d2 	ubfx	r2, r2, #1, #1
e0019b8c:	e1a01008 	mov	r1, r8
e0019b90:	e3a00002 	mov	r0, #2
e0019b94:	ebffdc03 	bl	e0010ba8 <makeUserPDE>
e0019b98:	e58d003c 	str	r0, [sp, #60]	@ 0x3c
e0019b9c:	e797310a 	ldr	r3, [r7, sl, lsl #2]
e0019ba0:	e2132003 	ands	r2, r3, #3
e0019ba4:	1a000023 	bne	e0019c38 <decodeARMMMUInvocation+0xbb4>
e0019ba8:	e3a03000 	mov	r3, #0
e0019bac:	e58d3038 	str	r3, [sp, #56]	@ 0x38
e0019bb0:	e58d9040 	str	r9, [sp, #64]	@ 0x40
e0019bb4:	e3a03001 	mov	r3, #1
e0019bb8:	e58d3044 	str	r3, [sp, #68]	@ 0x44
e0019bbc:	e28dc028 	add	ip, sp, #40	@ 0x28
e0019bc0:	e28d3038 	add	r3, sp, #56	@ 0x38
e0019bc4:	e893000f 	ldm	r3, {r0, r1, r2, r3}
e0019bc8:	e88c000f 	stm	ip, {r0, r1, r2, r3}
e0019bcc:	e30c3000 	movw	r3, #49152	@ 0xc000
e0019bd0:	e34e3001 	movt	r3, #57345	@ 0xe001
e0019bd4:	e3a01002 	mov	r1, #2
e0019bd8:	e5930840 	ldr	r0, [r3, #2112]	@ 0x840
e0019bdc:	ebffebf8 	bl	e0014bc4 <setThreadState>
e0019be0:	e59dc02c 	ldr	ip, [sp, #44]	@ 0x2c
e0019be4:	e58b5000 	str	r5, [fp]
e0019be8:	e58b4004 	str	r4, [fp, #4]
e0019bec:	e5994000 	ldr	r4, [r9]
e0019bf0:	e2044003 	and	r4, r4, #3
e0019bf4:	e1a00009 	mov	r0, r9
e0019bf8:	e59d301c 	ldr	r3, [sp, #28]
e0019bfc:	e1a02103 	lsl	r2, r3, #2
e0019c00:	e0891002 	add	r1, r9, r2
e0019c04:	e1a03009 	mov	r3, r9
e0019c08:	e483c004 	str	ip, [r3], #4
e0019c0c:	e1530001 	cmp	r3, r1
e0019c10:	1afffffc 	bne	e0019c08 <decodeARMMMUInvocation+0xb84>
e0019c14:	e0891002 	add	r1, r9, r2
e0019c18:	e2802203 	add	r2, r0, #805306368	@ 0x30000000
e0019c1c:	e2411001 	sub	r1, r1, #1
e0019c20:	ebffe15d 	bl	e001219c <cleanCacheRange_PoU>
e0019c24:	e3540000 	cmp	r4, #0
e0019c28:	0a0001b8 	beq	e001a310 <decodeARMMMUInvocation+0x128c>
e0019c2c:	e59d0014 	ldr	r0, [sp, #20]
e0019c30:	ebffde76 	bl	e0011610 <invalidateTLBByASID>
e0019c34:	ea0001b5 	b	e001a310 <decodeARMMMUInvocation+0x128c>
e0019c38:	e3520002 	cmp	r2, #2
e0019c3c:	1a000001 	bne	e0019c48 <decodeARMMMUInvocation+0xbc4>
e0019c40:	e3130701 	tst	r3, #262144	@ 0x40000
e0019c44:	0affffd7 	beq	e0019ba8 <decodeARMMMUInvocation+0xb24>
e0019c48:	e30c3000 	movw	r3, #49152	@ 0xc000
e0019c4c:	e34e3001 	movt	r3, #57345	@ 0xe001
e0019c50:	e3a02008 	mov	r2, #8
e0019c54:	e5832864 	str	r2, [r3, #2148]	@ 0x864
e0019c58:	ea00000c 	b	e0019c90 <decodeARMMMUInvocation+0xc0c>
e0019c5c:	e1530001 	cmp	r3, r1
e0019c60:	0a00000c 	beq	e0019c98 <decodeARMMMUInvocation+0xc14>
e0019c64:	e5b32004 	ldr	r2, [r3, #4]!
e0019c68:	e2120003 	ands	r0, r2, #3
e0019c6c:	0afffffa 	beq	e0019c5c <decodeARMMMUInvocation+0xbd8>
e0019c70:	e3500002 	cmp	r0, #2
e0019c74:	1a000001 	bne	e0019c80 <decodeARMMMUInvocation+0xbfc>
e0019c78:	e3120701 	tst	r2, #262144	@ 0x40000
e0019c7c:	1afffff6 	bne	e0019c5c <decodeARMMMUInvocation+0xbd8>
e0019c80:	e30c3000 	movw	r3, #49152	@ 0xc000
e0019c84:	e34e3001 	movt	r3, #57345	@ 0xe001
e0019c88:	e3a02008 	mov	r2, #8
e0019c8c:	e5832864 	str	r2, [r3, #2148]	@ 0x864
e0019c90:	e3a06003 	mov	r6, #3
e0019c94:	ea00019d 	b	e001a310 <decodeARMMMUInvocation+0x128c>
e0019c98:	e3a03000 	mov	r3, #0
e0019c9c:	e58d3038 	str	r3, [sp, #56]	@ 0x38
e0019ca0:	e58d9040 	str	r9, [sp, #64]	@ 0x40
e0019ca4:	e3a0e010 	mov	lr, #16
e0019ca8:	e58de044 	str	lr, [sp, #68]	@ 0x44
e0019cac:	e28dc028 	add	ip, sp, #40	@ 0x28
e0019cb0:	e28d3038 	add	r3, sp, #56	@ 0x38
e0019cb4:	e893000f 	ldm	r3, {r0, r1, r2, r3}
e0019cb8:	e88c000f 	stm	ip, {r0, r1, r2, r3}
e0019cbc:	e58de01c 	str	lr, [sp, #28]
e0019cc0:	eaffffc1 	b	e0019bcc <decodeARMMMUInvocation+0xb48>
e0019cc4:	e30c3000 	movw	r3, #49152	@ 0xc000
e0019cc8:	e34e3001 	movt	r3, #57345	@ 0xe001
e0019ccc:	e3a01002 	mov	r1, #2
e0019cd0:	e5930840 	ldr	r0, [r3, #2112]	@ 0x840
e0019cd4:	ebffebba 	bl	e0014bc4 <setThreadState>
e0019cd8:	e6ef3078 	uxtb	r3, r8
e0019cdc:	e3530001 	cmp	r3, #1
e0019ce0:	0a00000c 	beq	e0019d18 <decodeARMMMUInvocation+0xc94>
e0019ce4:	e1a03625 	lsr	r3, r5, #12
e0019ce8:	e2033b7f 	and	r3, r3, #130048	@ 0x1fc00
e0019cec:	e7e91a54 	ubfx	r1, r4, #20, #10
e0019cf0:	e1931001 	orrs	r1, r3, r1
e0019cf4:	0a0001b7 	beq	e001a3d8 <decodeARMMMUInvocation+0x1354>
e0019cf8:	e3580003 	cmp	r8, #3
e0019cfc:	01a00f24 	lsreq	r0, r4, #30
e0019d00:	01a02704 	lsleq	r2, r4, #14
e0019d04:	1a0001ab 	bne	e001a3b8 <decodeARMMMUInvocation+0x1334>
e0019d08:	e1a03505 	lsl	r3, r5, #10
e0019d0c:	e3c33dff 	bic	r3, r3, #16320	@ 0x3fc0
e0019d10:	e3c3303f 	bic	r3, r3, #63	@ 0x3f
e0019d14:	ea0001ae 	b	e001a3d4 <decodeARMMMUInvocation+0x1350>
e0019d18:	e1a03725 	lsr	r3, r5, #14
e0019d1c:	e2033b7f 	and	r3, r3, #130048	@ 0x1fc00
e0019d20:	e0931b24 	adds	r1, r3, r4, lsr #22
e0019d24:	0a0001ab 	beq	e001a3d8 <decodeARMMMUInvocation+0x1354>
e0019d28:	e1a02604 	lsl	r2, r4, #12
e0019d2c:	e1a03405 	lsl	r3, r5, #8
e0019d30:	e3c33eff 	bic	r3, r3, #4080	@ 0xff0
e0019d34:	e3c3300f 	bic	r3, r3, #15
e0019d38:	e3a00000 	mov	r0, #0
e0019d3c:	ea0001a4 	b	e001a3d4 <decodeARMMMUInvocation+0x1350>
e0019d40:	e3a00000 	mov	r0, #0
e0019d44:	eaffffef 	b	e0019d08 <decodeARMMMUInvocation+0xc84>
e0019d48:	e3510001 	cmp	r1, #1
e0019d4c:	9a000033 	bls	e0019e20 <decodeARMMMUInvocation+0xd9c>
e0019d50:	e6ef3078 	uxtb	r3, r8
e0019d54:	e3530001 	cmp	r3, #1
e0019d58:	01a09725 	lsreq	r9, r5, #14
e0019d5c:	02099b7f 	andeq	r9, r9, #130048	@ 0x1fc00
e0019d60:	00899b24 	addeq	r9, r9, r4, lsr #22
e0019d64:	01a03604 	lsleq	r3, r4, #12
e0019d68:	11a09625 	lsrne	r9, r5, #12
e0019d6c:	12099b7f 	andne	r9, r9, #130048	@ 0x1fc00
e0019d70:	17e93a54 	ubfxne	r3, r4, #20, #10
e0019d74:	11899003 	orrne	r9, r9, r3
e0019d78:	11a03704 	lslne	r3, r4, #14
e0019d7c:	e58d3014 	str	r3, [sp, #20]
e0019d80:	e3590000 	cmp	r9, #0
e0019d84:	030c3000 	movweq	r3, #49152	@ 0xc000
e0019d88:	034e3001 	movteq	r3, #57345	@ 0xe001
e0019d8c:	03a06003 	moveq	r6, #3
e0019d90:	05836864 	streq	r6, [r3, #2148]	@ 0x864
e0019d94:	0a00015d 	beq	e001a310 <decodeARMMMUInvocation+0x128c>
e0019d98:	e1a01009 	mov	r1, r9
e0019d9c:	e28d0038 	add	r0, sp, #56	@ 0x38
e0019da0:	ebffdbb9 	bl	e0010c8c <findPDForASID>
e0019da4:	e59d6038 	ldr	r6, [sp, #56]	@ 0x38
e0019da8:	e3560000 	cmp	r6, #0
e0019dac:	1a000021 	bne	e0019e38 <decodeARMMMUInvocation+0xdb4>
e0019db0:	e30c3000 	movw	r3, #49152	@ 0xc000
e0019db4:	e34e3001 	movt	r3, #57345	@ 0xe001
e0019db8:	e5930840 	ldr	r0, [r3, #2112]	@ 0x840
e0019dbc:	e590b008 	ldr	fp, [r0, #8]
e0019dc0:	e590a00c 	ldr	sl, [r0, #12]
e0019dc4:	e15b000a 	cmp	fp, sl
e0019dc8:	2a000022 	bcs	e0019e58 <decodeARMMMUInvocation+0xdd4>
e0019dcc:	e3580003 	cmp	r8, #3
e0019dd0:	0a000027 	beq	e0019e74 <decodeARMMMUInvocation+0xdf0>
e0019dd4:	e3580001 	cmp	r8, #1
e0019dd8:	11a04006 	movne	r4, r6
e0019ddc:	13a03a01 	movne	r3, #4096	@ 0x1000
e0019de0:	1a000003 	bne	e0019df4 <decodeARMMMUInvocation+0xd70>
e0019de4:	e3a03a01 	mov	r3, #4096	@ 0x1000
e0019de8:	e1a04405 	lsl	r4, r5, #8
e0019dec:	e3c44eff 	bic	r4, r4, #4080	@ 0xff0
e0019df0:	e3c4400f 	bic	r4, r4, #15
e0019df4:	e15a0003 	cmp	sl, r3
e0019df8:	915b0003 	cmpls	fp, r3
e0019dfc:	3a000030 	bcc	e0019ec4 <decodeARMMMUInvocation+0xe40>
e0019e00:	e30c3000 	movw	r3, #49152	@ 0xc000
e0019e04:	e34e3001 	movt	r3, #57345	@ 0xe001
e0019e08:	e3a02001 	mov	r2, #1
e0019e0c:	e5832864 	str	r2, [r3, #2148]	@ 0x864
e0019e10:	e3a02000 	mov	r2, #0
e0019e14:	e583284c 	str	r2, [r3, #2124]	@ 0x84c
e0019e18:	e3a06003 	mov	r6, #3
e0019e1c:	ea00013b 	b	e001a310 <decodeARMMMUInvocation+0x128c>
e0019e20:	e30c3000 	movw	r3, #49152	@ 0xc000
e0019e24:	e34e3001 	movt	r3, #57345	@ 0xe001
e0019e28:	e3a02007 	mov	r2, #7
e0019e2c:	e5832864 	str	r2, [r3, #2148]	@ 0x864
e0019e30:	e3a06003 	mov	r6, #3
e0019e34:	ea000135 	b	e001a310 <decodeARMMMUInvocation+0x128c>
e0019e38:	e30c3000 	movw	r3, #49152	@ 0xc000
e0019e3c:	e34e3001 	movt	r3, #57345	@ 0xe001
e0019e40:	e3a02006 	mov	r2, #6
e0019e44:	e5832864 	str	r2, [r3, #2148]	@ 0x864
e0019e48:	e3a02000 	mov	r2, #0
e0019e4c:	e5832860 	str	r2, [r3, #2144]	@ 0x860
e0019e50:	e3a06003 	mov	r6, #3
e0019e54:	ea00012d 	b	e001a310 <decodeARMMMUInvocation+0x128c>
e0019e58:	e30c3000 	movw	r3, #49152	@ 0xc000
e0019e5c:	e34e3001 	movt	r3, #57345	@ 0xe001
e0019e60:	e3a02001 	mov	r2, #1
e0019e64:	e5832864 	str	r2, [r3, #2148]	@ 0x864
e0019e68:	e583284c 	str	r2, [r3, #2124]	@ 0x84c
e0019e6c:	e3a06003 	mov	r6, #3
e0019e70:	ea000126 	b	e001a310 <decodeARMMMUInvocation+0x128c>
e0019e74:	e1a04f24 	lsr	r4, r4, #30
e0019e78:	e3540003 	cmp	r4, #3
e0019e7c:	979ff104 	ldrls	pc, [pc, r4, lsl #2]
e0019e80:	ea000003 	b	e0019e94 <decodeARMMMUInvocation+0xe10>
e0019e84:	e0019ebc 	.word	0xe0019ebc
e0019e88:	e001a420 	.word	0xe001a420
e0019e8c:	e0019e98 	.word	0xe0019e98
e0019e90:	e001a43c 	.word	0xe001a43c
e0019e94:	ebffdaa2 	bl	e0010924 <halt>
e0019e98:	e3580001 	cmp	r8, #1
e0019e9c:	03a03601 	moveq	r3, #1048576	@ 0x100000
e0019ea0:	0affffd0 	beq	e0019de8 <decodeARMMMUInvocation+0xd64>
e0019ea4:	e3580003 	cmp	r8, #3
e0019ea8:	11a04006 	movne	r4, r6
e0019eac:	13a03601 	movne	r3, #1048576	@ 0x100000
e0019eb0:	1affffcf 	bne	e0019df4 <decodeARMMMUInvocation+0xd70>
e0019eb4:	e3a03601 	mov	r3, #1048576	@ 0x100000
e0019eb8:	ea00015b 	b	e001a42c <decodeARMMMUInvocation+0x13a8>
e0019ebc:	e3a03a01 	mov	r3, #4096	@ 0x1000
e0019ec0:	ea000159 	b	e001a42c <decodeARMMMUInvocation+0x13a8>
e0019ec4:	e59d3014 	ldr	r3, [sp, #20]
e0019ec8:	e08b5003 	add	r5, fp, r3
e0019ecc:	e3a01002 	mov	r1, #2
e0019ed0:	ebffeb3b 	bl	e0014bc4 <setThreadState>
e0019ed4:	e24a8001 	sub	r8, sl, #1
e0019ed8:	e59d3014 	ldr	r3, [sp, #20]
e0019edc:	e0888003 	add	r8, r8, r3
e0019ee0:	e1550008 	cmp	r5, r8
e0019ee4:	2a000109 	bcs	e001a310 <decodeARMMMUInvocation+0x128c>
e0019ee8:	e1a01009 	mov	r1, r9
e0019eec:	e59d003c 	ldr	r0, [sp, #60]	@ 0x3c
e0019ef0:	ebffdd37 	bl	e00113d4 <setVMRootForFlush>
e0019ef4:	e1a09000 	mov	r9, r0
e0019ef8:	e28b3203 	add	r3, fp, #805306368	@ 0x30000000
e0019efc:	e0833004 	add	r3, r3, r4
e0019f00:	e1a02008 	mov	r2, r8
e0019f04:	e1a01005 	mov	r1, r5
e0019f08:	e1a00007 	mov	r0, r7
e0019f0c:	ebffe1c1 	bl	e0012618 <doFlush>
e0019f10:	e3590000 	cmp	r9, #0
e0019f14:	01a06009 	moveq	r6, r9
e0019f18:	0a0000fc 	beq	e001a310 <decodeARMMMUInvocation+0x128c>
e0019f1c:	e30c3000 	movw	r3, #49152	@ 0xc000
e0019f20:	e34e3001 	movt	r3, #57345	@ 0xe001
e0019f24:	e5930840 	ldr	r0, [r3, #2112]	@ 0x840
e0019f28:	ebffdce5 	bl	e00112c4 <setVMRoot>
e0019f2c:	ea0000f7 	b	e001a310 <decodeARMMMUInvocation+0x128c>
e0019f30:	e30c3000 	movw	r3, #49152	@ 0xc000
e0019f34:	e34e3001 	movt	r3, #57345	@ 0xe001
e0019f38:	e3a01002 	mov	r1, #2
e0019f3c:	e5930840 	ldr	r0, [r3, #2112]	@ 0x840
e0019f40:	ebffeb1f 	bl	e0014bc4 <setThreadState>
e0019f44:	e3580001 	cmp	r8, #1
e0019f48:	0a000005 	beq	e0019f64 <decodeARMMMUInvocation+0xee0>
e0019f4c:	e3580003 	cmp	r8, #3
e0019f50:	13a03000 	movne	r3, #0
e0019f54:	01a03505 	lsleq	r3, r5, #10
e0019f58:	03c33dff 	biceq	r3, r3, #16320	@ 0x3fc0
e0019f5c:	03c3303f 	biceq	r3, r3, #63	@ 0x3f
e0019f60:	ea000002 	b	e0019f70 <decodeARMMMUInvocation+0xeec>
e0019f64:	e1a03405 	lsl	r3, r5, #8
e0019f68:	e3c33eff 	bic	r3, r3, #4080	@ 0xff0
e0019f6c:	e3c3300f 	bic	r3, r3, #15
e0019f70:	e59d2080 	ldr	r2, [sp, #128]	@ 0x80
e0019f74:	e3520000 	cmp	r2, #0
e0019f78:	0a000008 	beq	e0019fa0 <decodeARMMMUInvocation+0xf1c>
e0019f7c:	e30c2000 	movw	r2, #49152	@ 0xc000
e0019f80:	e34e2001 	movt	r2, #57345	@ 0xe001
e0019f84:	e5922840 	ldr	r2, [r2, #2112]	@ 0x840
e0019f88:	e3a01000 	mov	r1, #0
e0019f8c:	e5821000 	str	r1, [r2]
e0019f90:	e2833203 	add	r3, r3, #805306368	@ 0x30000000
e0019f94:	e5823008 	str	r3, [r2, #8]
e0019f98:	e3a03001 	mov	r3, #1
e0019f9c:	e5823004 	str	r3, [r2, #4]
e0019fa0:	e30c3000 	movw	r3, #49152	@ 0xc000
e0019fa4:	e34e3001 	movt	r3, #57345	@ 0xe001
e0019fa8:	e3a01001 	mov	r1, #1
e0019fac:	e5930840 	ldr	r0, [r3, #2112]	@ 0x840
e0019fb0:	ebffeb03 	bl	e0014bc4 <setThreadState>
e0019fb4:	e3a06000 	mov	r6, #0
e0019fb8:	ea0000d4 	b	e001a310 <decodeARMMMUInvocation+0x128c>
e0019fbc:	e30c3000 	movw	r3, #49152	@ 0xc000
e0019fc0:	e34e3001 	movt	r3, #57345	@ 0xe001
e0019fc4:	e3a06003 	mov	r6, #3
e0019fc8:	e5836864 	str	r6, [r3, #2148]	@ 0x864
e0019fcc:	ea0000cf 	b	e001a310 <decodeARMMMUInvocation+0x128c>
e0019fd0:	e350002b 	cmp	r0, #43	@ 0x2b
e0019fd4:	130c3000 	movwne	r3, #49152	@ 0xc000
e0019fd8:	134e3001 	movtne	r3, #57345	@ 0xe001
e0019fdc:	13a06003 	movne	r6, #3
e0019fe0:	15836864 	strne	r6, [r3, #2148]	@ 0x864
e0019fe4:	1a0000c9 	bne	e001a310 <decodeARMMMUInvocation+0x128c>
e0019fe8:	e3510001 	cmp	r1, #1
e0019fec:	9a000020 	bls	e001a074 <decodeARMMMUInvocation+0xff0>
e0019ff0:	e30c3000 	movw	r3, #49152	@ 0xc000
e0019ff4:	e34e3001 	movt	r3, #57345	@ 0xe001
e0019ff8:	e5935b08 	ldr	r5, [r3, #2824]	@ 0xb08
e0019ffc:	e3550000 	cmp	r5, #0
e001a000:	0a00001b 	beq	e001a074 <decodeARMMMUInvocation+0xff0>
e001a004:	e30c3000 	movw	r3, #49152	@ 0xc000
e001a008:	e34e3001 	movt	r3, #57345	@ 0xe001
e001a00c:	e5932b0c 	ldr	r2, [r3, #2828]	@ 0xb0c
e001a010:	e3520000 	cmp	r2, #0
e001a014:	0a000016 	beq	e001a074 <decodeARMMMUInvocation+0xff0>
e001a018:	e30c3000 	movw	r3, #49152	@ 0xc000
e001a01c:	e34e3001 	movt	r3, #57345	@ 0xe001
e001a020:	e5931840 	ldr	r1, [r3, #2112]	@ 0x840
e001a024:	e5918008 	ldr	r8, [r1, #8]
e001a028:	e591900c 	ldr	r9, [r1, #12]
e001a02c:	e5957000 	ldr	r7, [r5]
e001a030:	e595e004 	ldr	lr, [r5, #4]
e001a034:	e28dc028 	add	ip, sp, #40	@ 0x28
e001a038:	e8920003 	ldm	r2, {r0, r1}
e001a03c:	e88c0003 	stm	ip, {r0, r1}
e001a040:	e3a04000 	mov	r4, #0
e001a044:	e4932004 	ldr	r2, [r3], #4
e001a048:	e3520000 	cmp	r2, #0
e001a04c:	0a00000e 	beq	e001a08c <decodeARMMMUInvocation+0x1008>
e001a050:	e2844001 	add	r4, r4, #1
e001a054:	e3540080 	cmp	r4, #128	@ 0x80
e001a058:	1afffff9 	bne	e001a044 <decodeARMMMUInvocation+0xfc0>
e001a05c:	e30c3000 	movw	r3, #49152	@ 0xc000
e001a060:	e34e3001 	movt	r3, #57345	@ 0xe001
e001a064:	e3a02008 	mov	r2, #8
e001a068:	e5832864 	str	r2, [r3, #2148]	@ 0x864
e001a06c:	e3a06003 	mov	r6, #3
e001a070:	ea0000a6 	b	e001a310 <decodeARMMMUInvocation+0x128c>
e001a074:	e30c3000 	movw	r3, #49152	@ 0xc000
e001a078:	e34e3001 	movt	r3, #57345	@ 0xe001
e001a07c:	e3a02007 	mov	r2, #7
e001a080:	e5832864 	str	r2, [r3, #2148]	@ 0x864
e001a084:	e3a06003 	mov	r6, #3
e001a088:	ea0000a0 	b	e001a310 <decodeARMMMUInvocation+0x128c>
e001a08c:	e3540080 	cmp	r4, #128	@ 0x80
e001a090:	0afffff1 	beq	e001a05c <decodeARMMMUInvocation+0xfd8>
e001a094:	e207300e 	and	r3, r7, #14
e001a098:	e353000e 	cmp	r3, #14
e001a09c:	1207300f 	andne	r3, r7, #15
e001a0a0:	06ef3077 	uxtbeq	r3, r7
e001a0a4:	e3530002 	cmp	r3, #2
e001a0a8:	1a000033 	bne	e001a17c <decodeARMMMUInvocation+0x10f8>
e001a0ac:	e20e301f 	and	r3, lr, #31
e001a0b0:	e353000c 	cmp	r3, #12
e001a0b4:	1a000030 	bne	e001a17c <decodeARMMMUInvocation+0x10f8>
e001a0b8:	e31e0020 	tst	lr, #32
e001a0bc:	1a00002e 	bne	e001a17c <decodeARMMMUInvocation+0x10f8>
e001a0c0:	e1a00005 	mov	r0, r5
e001a0c4:	ebffe930 	bl	e001458c <ensureNoChildren>
e001a0c8:	e2506000 	subs	r6, r0, #0
e001a0cc:	1a00008f 	bne	e001a310 <decodeARMMMUInvocation+0x128c>
e001a0d0:	e3c7700f 	bic	r7, r7, #15
e001a0d4:	e58d9000 	str	r9, [sp]
e001a0d8:	e1a03008 	mov	r3, r8
e001a0dc:	e28d2028 	add	r2, sp, #40	@ 0x28
e001a0e0:	e8920006 	ldm	r2, {r1, r2}
e001a0e4:	e28d0038 	add	r0, sp, #56	@ 0x38
e001a0e8:	ebffe384 	bl	e0012f00 <lookupTargetSlot>
e001a0ec:	e59d6038 	ldr	r6, [sp, #56]	@ 0x38
e001a0f0:	e3560000 	cmp	r6, #0
e001a0f4:	1a000085 	bne	e001a310 <decodeARMMMUInvocation+0x128c>
e001a0f8:	e59d903c 	ldr	r9, [sp, #60]	@ 0x3c
e001a0fc:	e1a00009 	mov	r0, r9
e001a100:	ebffe4a1 	bl	e001338c <ensureEmptySlot>
e001a104:	e2506000 	subs	r6, r0, #0
e001a108:	1a000080 	bne	e001a310 <decodeARMMMUInvocation+0x128c>
e001a10c:	e30c8000 	movw	r8, #49152	@ 0xc000
e001a110:	e34e8001 	movt	r8, #57345	@ 0xe001
e001a114:	e3a01002 	mov	r1, #2
e001a118:	e5980840 	ldr	r0, [r8, #2112]	@ 0x840
e001a11c:	ebffeaa8 	bl	e0014bc4 <setThreadState>
e001a120:	e5953004 	ldr	r3, [r5, #4]
e001a124:	e203201f 	and	r2, r3, #31
e001a128:	e2422004 	sub	r2, r2, #4
e001a12c:	e203303f 	and	r3, r3, #63	@ 0x3f
e001a130:	e3a01040 	mov	r1, #64	@ 0x40
e001a134:	e1833211 	orr	r3, r3, r1, lsl r2
e001a138:	e5853004 	str	r3, [r5, #4]
e001a13c:	e3a01a01 	mov	r1, #4096	@ 0x1000
e001a140:	e1a00007 	mov	r0, r7
e001a144:	ebfffbc5 	bl	e0019060 <memzero>
e001a148:	e3873005 	orr	r3, r7, #5
e001a14c:	e58d3048 	str	r3, [sp, #72]	@ 0x48
e001a150:	e1a03504 	lsl	r3, r4, #10
e001a154:	e7f03053 	ubfx	r3, r3, #0, #17
e001a158:	e58d304c 	str	r3, [sp, #76]	@ 0x4c
e001a15c:	e1a03009 	mov	r3, r9
e001a160:	e1a02005 	mov	r2, r5
e001a164:	e28d1050 	add	r1, sp, #80	@ 0x50
e001a168:	e9110003 	ldmdb	r1, {r0, r1}
e001a16c:	ebffe9e1 	bl	e00148f8 <cteInsert>
e001a170:	e7f54054 	ubfx	r4, r4, #0, #22
e001a174:	e7887104 	str	r7, [r8, r4, lsl #2]
e001a178:	ea000064 	b	e001a310 <decodeARMMMUInvocation+0x128c>
e001a17c:	e30c3000 	movw	r3, #49152	@ 0xc000
e001a180:	e34e3001 	movt	r3, #57345	@ 0xe001
e001a184:	e3a02002 	mov	r2, #2
e001a188:	e5832864 	str	r2, [r3, #2148]	@ 0x864
e001a18c:	e3a02001 	mov	r2, #1
e001a190:	e5832850 	str	r2, [r3, #2128]	@ 0x850
e001a194:	e3a06003 	mov	r6, #3
e001a198:	ea00005c 	b	e001a310 <decodeARMMMUInvocation+0x128c>
e001a19c:	e350002c 	cmp	r0, #44	@ 0x2c
e001a1a0:	130c3000 	movwne	r3, #49152	@ 0xc000
e001a1a4:	134e3001 	movtne	r3, #57345	@ 0xe001
e001a1a8:	13a06003 	movne	r6, #3
e001a1ac:	15836864 	strne	r6, [r3, #2148]	@ 0x864
e001a1b0:	1a000056 	bne	e001a310 <decodeARMMMUInvocation+0x128c>
e001a1b4:	e30c3000 	movw	r3, #49152	@ 0xc000
e001a1b8:	e34e3001 	movt	r3, #57345	@ 0xe001
e001a1bc:	e5937b08 	ldr	r7, [r3, #2824]	@ 0xb08
e001a1c0:	e3570000 	cmp	r7, #0
e001a1c4:	0a00001c 	beq	e001a23c <decodeARMMMUInvocation+0x11b8>
e001a1c8:	e5976000 	ldr	r6, [r7]
e001a1cc:	e206300e 	and	r3, r6, #14
e001a1d0:	e353000e 	cmp	r3, #14
e001a1d4:	1206300f 	andne	r3, r6, #15
e001a1d8:	06ef3076 	uxtbeq	r3, r6
e001a1dc:	e3530009 	cmp	r3, #9
e001a1e0:	1a00001b 	bne	e001a254 <decodeARMMMUInvocation+0x11d0>
e001a1e4:	e7e06256 	ubfx	r6, r6, #4, #1
e001a1e8:	e3560000 	cmp	r6, #0
e001a1ec:	1a000018 	bne	e001a254 <decodeARMMMUInvocation+0x11d0>
e001a1f0:	e7f04054 	ubfx	r4, r4, #0, #17
e001a1f4:	e30c3000 	movw	r3, #49152	@ 0xc000
e001a1f8:	e34e3001 	movt	r3, #57345	@ 0xe001
e001a1fc:	e1a02524 	lsr	r2, r4, #10
e001a200:	e7938102 	ldr	r8, [r3, r2, lsl #2]
e001a204:	e3580000 	cmp	r8, #0
e001a208:	0a000019 	beq	e001a274 <decodeARMMMUInvocation+0x11f0>
e001a20c:	e3c5500f 	bic	r5, r5, #15
e001a210:	e1580005 	cmp	r8, r5
e001a214:	01a03006 	moveq	r3, r6
e001a218:	0a000022 	beq	e001a2a8 <decodeARMMMUInvocation+0x1224>
e001a21c:	e30c3000 	movw	r3, #49152	@ 0xc000
e001a220:	e34e3001 	movt	r3, #57345	@ 0xe001
e001a224:	e3a02002 	mov	r2, #2
e001a228:	e5832864 	str	r2, [r3, #2148]	@ 0x864
e001a22c:	e3a02000 	mov	r2, #0
e001a230:	e5832850 	str	r2, [r3, #2128]	@ 0x850
e001a234:	e3a06003 	mov	r6, #3
e001a238:	ea000034 	b	e001a310 <decodeARMMMUInvocation+0x128c>
e001a23c:	e30c3000 	movw	r3, #49152	@ 0xc000
e001a240:	e34e3001 	movt	r3, #57345	@ 0xe001
e001a244:	e3a02007 	mov	r2, #7
e001a248:	e5832864 	str	r2, [r3, #2148]	@ 0x864
e001a24c:	e3a06003 	mov	r6, #3
e001a250:	ea00002e 	b	e001a310 <decodeARMMMUInvocation+0x128c>
e001a254:	e30c3000 	movw	r3, #49152	@ 0xc000
e001a258:	e34e3001 	movt	r3, #57345	@ 0xe001
e001a25c:	e3a02002 	mov	r2, #2
e001a260:	e5832864 	str	r2, [r3, #2148]	@ 0x864
e001a264:	e3a02001 	mov	r2, #1
e001a268:	e5832850 	str	r2, [r3, #2128]	@ 0x850
e001a26c:	e3a06003 	mov	r6, #3
e001a270:	ea000026 	b	e001a310 <decodeARMMMUInvocation+0x128c>
e001a274:	e30c3000 	movw	r3, #49152	@ 0xc000
e001a278:	e34e3001 	movt	r3, #57345	@ 0xe001
e001a27c:	e3a02006 	mov	r2, #6
e001a280:	e5832864 	str	r2, [r3, #2148]	@ 0x864
e001a284:	e3a02000 	mov	r2, #0
e001a288:	e5832860 	str	r2, [r3, #2144]	@ 0x860
e001a28c:	e5832844 	str	r2, [r3, #2116]	@ 0x844
e001a290:	e5832848 	str	r2, [r3, #2120]	@ 0x848
e001a294:	e3a06003 	mov	r6, #3
e001a298:	ea00001c 	b	e001a310 <decodeARMMMUInvocation+0x128c>
e001a29c:	e2833001 	add	r3, r3, #1
e001a2a0:	e3530b01 	cmp	r3, #1024	@ 0x400
e001a2a4:	0a00001c 	beq	e001a31c <decodeARMMMUInvocation+0x1298>
e001a2a8:	e1740003 	cmn	r4, r3
e001a2ac:	0afffffa 	beq	e001a29c <decodeARMMMUInvocation+0x1218>
e001a2b0:	e7982103 	ldr	r2, [r8, r3, lsl #2]
e001a2b4:	e3520000 	cmp	r2, #0
e001a2b8:	1afffff7 	bne	e001a29c <decodeARMMMUInvocation+0x1218>
e001a2bc:	e3530b01 	cmp	r3, #1024	@ 0x400
e001a2c0:	0a000015 	beq	e001a31c <decodeARMMMUInvocation+0x1298>
e001a2c4:	e0844003 	add	r4, r4, r3
e001a2c8:	e30c3000 	movw	r3, #49152	@ 0xc000
e001a2cc:	e34e3001 	movt	r3, #57345	@ 0xe001
e001a2d0:	e3a01002 	mov	r1, #2
e001a2d4:	e5930840 	ldr	r0, [r3, #2112]	@ 0x840
e001a2d8:	ebffea39 	bl	e0014bc4 <setThreadState>
e001a2dc:	e5973004 	ldr	r3, [r7, #4]
e001a2e0:	e1a038a3 	lsr	r3, r3, #17
e001a2e4:	e1a03883 	lsl	r3, r3, #17
e001a2e8:	e7f02054 	ubfx	r2, r4, #0, #17
e001a2ec:	e1833002 	orr	r3, r3, r2
e001a2f0:	e5873004 	str	r3, [r7, #4]
e001a2f4:	e5972000 	ldr	r2, [r7]
e001a2f8:	e3823010 	orr	r3, r2, #16
e001a2fc:	e5873000 	str	r3, [r7]
e001a300:	e7e94054 	ubfx	r4, r4, #0, #10
e001a304:	e3c22dff 	bic	r2, r2, #16320	@ 0x3fc0
e001a308:	e3c2203f 	bic	r2, r2, #63	@ 0x3f
e001a30c:	e7882104 	str	r2, [r8, r4, lsl #2]
e001a310:	e1a00006 	mov	r0, r6
e001a314:	e28dd054 	add	sp, sp, #84	@ 0x54
e001a318:	e8bd8ff0 	pop	{r4, r5, r6, r7, r8, r9, sl, fp, pc}
e001a31c:	e30c3000 	movw	r3, #49152	@ 0xc000
e001a320:	e34e3001 	movt	r3, #57345	@ 0xe001
e001a324:	e3a02008 	mov	r2, #8
e001a328:	e5832864 	str	r2, [r3, #2148]	@ 0x864
e001a32c:	e3a06003 	mov	r6, #3
e001a330:	eafffff6 	b	e001a310 <decodeARMMMUInvocation+0x128c>
e001a334:	ebffd97a 	bl	e0010924 <halt>
e001a338:	e58d803c 	str	r8, [sp, #60]	@ 0x3c
e001a33c:	e30c3000 	movw	r3, #49152	@ 0xc000
e001a340:	e34e3001 	movt	r3, #57345	@ 0xe001
e001a344:	e3a01002 	mov	r1, #2
e001a348:	e5930840 	ldr	r0, [r3, #2112]	@ 0x840
e001a34c:	ebffea1c 	bl	e0014bc4 <setThreadState>
e001a350:	e59d203c 	ldr	r2, [sp, #60]	@ 0x3c
e001a354:	e58b5000 	str	r5, [fp]
e001a358:	e58b4004 	str	r4, [fp, #4]
e001a35c:	e5973000 	ldr	r3, [r7]
e001a360:	e7e040d3 	ubfx	r4, r3, #1, #1
e001a364:	e3540000 	cmp	r4, #0
e001a368:	1a000001 	bne	e001a374 <decodeARMMMUInvocation+0x12f0>
e001a36c:	e3130001 	tst	r3, #1
e001a370:	03a04002 	moveq	r4, #2
e001a374:	e1a00007 	mov	r0, r7
e001a378:	e59d301c 	ldr	r3, [sp, #28]
e001a37c:	e1a0c103 	lsl	ip, r3, #2
e001a380:	e08c1007 	add	r1, ip, r7
e001a384:	e1a03007 	mov	r3, r7
e001a388:	e4832004 	str	r2, [r3], #4
e001a38c:	e1510003 	cmp	r1, r3
e001a390:	1afffffc 	bne	e001a388 <decodeARMMMUInvocation+0x1304>
e001a394:	e087100c 	add	r1, r7, ip
e001a398:	e2802203 	add	r2, r0, #805306368	@ 0x30000000
e001a39c:	e2411001 	sub	r1, r1, #1
e001a3a0:	ebffdf7d 	bl	e001219c <cleanCacheRange_PoU>
e001a3a4:	e3540002 	cmp	r4, #2
e001a3a8:	0affffd8 	beq	e001a310 <decodeARMMMUInvocation+0x128c>
e001a3ac:	e59d0014 	ldr	r0, [sp, #20]
e001a3b0:	ebffdc96 	bl	e0011610 <invalidateTLBByASID>
e001a3b4:	eaffffd5 	b	e001a310 <decodeARMMMUInvocation+0x128c>
e001a3b8:	e1a02704 	lsl	r2, r4, #14
e001a3bc:	e3580001 	cmp	r8, #1
e001a3c0:	0afffe59 	beq	e0019d2c <decodeARMMMUInvocation+0xca8>
e001a3c4:	e3580003 	cmp	r8, #3
e001a3c8:	0afffe5c 	beq	e0019d40 <decodeARMMMUInvocation+0xcbc>
e001a3cc:	e3a00000 	mov	r0, #0
e001a3d0:	e1a03000 	mov	r3, r0
e001a3d4:	ebffdf7c 	bl	e00121cc <unmapPage>
e001a3d8:	e59b3000 	ldr	r3, [fp]
e001a3dc:	e59b2004 	ldr	r2, [fp, #4]
e001a3e0:	e203100e 	and	r1, r3, #14
e001a3e4:	e351000e 	cmp	r1, #14
e001a3e8:	1203100f 	andne	r1, r3, #15
e001a3ec:	06ef1073 	uxtbeq	r1, r3
e001a3f0:	e6ef1071 	uxtb	r1, r1
e001a3f4:	e3510001 	cmp	r1, #1
e001a3f8:	03c3347f 	biceq	r3, r3, #2130706432	@ 0x7f000000
e001a3fc:	02022603 	andeq	r2, r2, #3145728	@ 0x300000
e001a400:	13c3357f 	bicne	r3, r3, #532676608	@ 0x1fc00000
e001a404:	13a01000 	movne	r1, #0
e001a408:	134c100c 	movtne	r1, #49164	@ 0xc00c
e001a40c:	10022001 	andne	r2, r2, r1
e001a410:	e58b3000 	str	r3, [fp]
e001a414:	e58b2004 	str	r2, [fp, #4]
e001a418:	e3a06000 	mov	r6, #0
e001a41c:	eaffffbb 	b	e001a310 <decodeARMMMUInvocation+0x128c>
e001a420:	e3a02010 	mov	r2, #16
e001a424:	e3a03001 	mov	r3, #1
e001a428:	e1a03213 	lsl	r3, r3, r2
e001a42c:	e1a04505 	lsl	r4, r5, #10
e001a430:	e3c44dff 	bic	r4, r4, #16320	@ 0x3fc0
e001a434:	e3c4403f 	bic	r4, r4, #63	@ 0x3f
e001a438:	eafffe6d 	b	e0019df4 <decodeARMMMUInvocation+0xd70>
e001a43c:	e3a02018 	mov	r2, #24
e001a440:	eafffff7 	b	e001a424 <decodeARMMMUInvocation+0x13a0>

e001a444 <Arch_decodeInvocation>:
e001a444:	e52de004 	push	{lr}		@ (str lr, [sp, #-4]!)
e001a448:	e24dd014 	sub	sp, sp, #20
e001a44c:	e1a0c000 	mov	ip, r0
e001a450:	e1a0e001 	mov	lr, r1
e001a454:	e59d1024 	ldr	r1, [sp, #36]	@ 0x24
e001a458:	e58d100c 	str	r1, [sp, #12]
e001a45c:	e59d1020 	ldr	r1, [sp, #32]
e001a460:	e58d1008 	str	r1, [sp, #8]
e001a464:	e28d1014 	add	r1, sp, #20
e001a468:	e9910003 	ldmib	r1, {r0, r1}
e001a46c:	e88d0003 	stm	sp, {r0, r1}
e001a470:	e1a0100e 	mov	r1, lr
e001a474:	e1a0000c 	mov	r0, ip
e001a478:	ebfffb01 	bl	e0019084 <decodeARMMMUInvocation>
e001a47c:	e28dd014 	add	sp, sp, #20
e001a480:	e49df004 	pop	{pc}		@ (ldr pc, [sp], #4)

e001a484 <invokeUntyped_Retype>:
e001a484:	e92d4ff0 	push	{r4, r5, r6, r7, r8, r9, sl, fp, lr}
e001a488:	e24dd014 	sub	sp, sp, #20
e001a48c:	e1a04000 	mov	r4, r0
e001a490:	e1a09002 	mov	r9, r2
e001a494:	e1a08003 	mov	r8, r3
e001a498:	e590b000 	ldr	fp, [r0]
e001a49c:	e3cb700f 	bic	r7, fp, #15
e001a4a0:	e3510000 	cmp	r1, #0
e001a4a4:	0a00000e 	beq	e001a4e4 <invokeUntyped_Retype+0x60>
e001a4a8:	e590a004 	ldr	sl, [r0, #4]
e001a4ac:	e1a0632a 	lsr	r6, sl, #6
e001a4b0:	e1b06206 	lsls	r6, r6, #4
e001a4b4:	0a00000a 	beq	e001a4e4 <invokeUntyped_Retype+0x60>
e001a4b8:	e7e032da 	ubfx	r3, sl, #5, #1
e001a4bc:	e31a0018 	tst	sl, #24
e001a4c0:	11a02003 	movne	r2, r3
e001a4c4:	03832001 	orreq	r2, r3, #1
e001a4c8:	e3520000 	cmp	r2, #0
e001a4cc:	0a00002a 	beq	e001a57c <invokeUntyped_Retype+0xf8>
e001a4d0:	e3530000 	cmp	r3, #0
e001a4d4:	0a00001c 	beq	e001a54c <invokeUntyped_Retype+0xc8>
e001a4d8:	e584b000 	str	fp, [r4]
e001a4dc:	e20aa03f 	and	sl, sl, #63	@ 0x3f
e001a4e0:	e584a004 	str	sl, [r4, #4]
e001a4e4:	e59d1038 	ldr	r1, [sp, #56]	@ 0x38
e001a4e8:	e1a00008 	mov	r0, r8
e001a4ec:	ebffe45f 	bl	e0013670 <getObjectSize>
e001a4f0:	e0497007 	sub	r7, r9, r7
e001a4f4:	e59d3044 	ldr	r3, [sp, #68]	@ 0x44
e001a4f8:	e0877013 	add	r7, r7, r3, lsl r0
e001a4fc:	e1a07227 	lsr	r7, r7, #4
e001a500:	e5940004 	ldr	r0, [r4, #4]
e001a504:	e200003f 	and	r0, r0, #63	@ 0x3f
e001a508:	e1807307 	orr	r7, r0, r7, lsl #6
e001a50c:	e5847004 	str	r7, [r4, #4]
e001a510:	e59d3048 	ldr	r3, [sp, #72]	@ 0x48
e001a514:	e58d300c 	str	r3, [sp, #12]
e001a518:	e59d3038 	ldr	r3, [sp, #56]	@ 0x38
e001a51c:	e58d3008 	str	r3, [sp, #8]
e001a520:	e58d9004 	str	r9, [sp, #4]
e001a524:	e59d3044 	ldr	r3, [sp, #68]	@ 0x44
e001a528:	e58d3000 	str	r3, [sp]
e001a52c:	e59d3040 	ldr	r3, [sp, #64]	@ 0x40
e001a530:	e59d203c 	ldr	r2, [sp, #60]	@ 0x3c
e001a534:	e1a01004 	mov	r1, r4
e001a538:	e1a00008 	mov	r0, r8
e001a53c:	ebffe574 	bl	e0013b14 <createNewObjects>
e001a540:	e3a00000 	mov	r0, #0
e001a544:	e28dd014 	add	sp, sp, #20
e001a548:	e8bd8ff0 	pop	{r4, r5, r6, r7, r8, r9, sl, fp, pc}
e001a54c:	e20a501f 	and	r5, sl, #31
e001a550:	e3a03001 	mov	r3, #1
e001a554:	e1a05513 	lsl	r5, r3, r5
e001a558:	e1a01005 	mov	r1, r5
e001a55c:	e1a00007 	mov	r0, r7
e001a560:	ebfffabe 	bl	e0019060 <memzero>
e001a564:	e2471001 	sub	r1, r7, #1
e001a568:	e2872203 	add	r2, r7, #805306368	@ 0x30000000
e001a56c:	e0811005 	add	r1, r1, r5
e001a570:	e1a00007 	mov	r0, r7
e001a574:	ebffdee3 	bl	e0012108 <cleanCacheRange_RAM>
e001a578:	eaffffd6 	b	e001a4d8 <invokeUntyped_Retype+0x54>
e001a57c:	e2466001 	sub	r6, r6, #1
e001a580:	e3c660ff 	bic	r6, r6, #255	@ 0xff
e001a584:	e0875006 	add	r5, r7, r6
e001a588:	e20aa03f 	and	sl, sl, #63	@ 0x3f
e001a58c:	e3a01c01 	mov	r1, #256	@ 0x100
e001a590:	e1a00005 	mov	r0, r5
e001a594:	ebfffab1 	bl	e0019060 <memzero>
e001a598:	e2852203 	add	r2, r5, #805306368	@ 0x30000000
e001a59c:	e28510ff 	add	r1, r5, #255	@ 0xff
e001a5a0:	e1a00005 	mov	r0, r5
e001a5a4:	ebffded7 	bl	e0012108 <cleanCacheRange_RAM>
e001a5a8:	e584b000 	str	fp, [r4]
e001a5ac:	e1a03226 	lsr	r3, r6, #4
e001a5b0:	e18a3303 	orr	r3, sl, r3, lsl #6
e001a5b4:	e5843004 	str	r3, [r4, #4]
e001a5b8:	ebffe288 	bl	e0012fe0 <preemptionPoint>
e001a5bc:	e3500000 	cmp	r0, #0
e001a5c0:	1affffdf 	bne	e001a544 <invokeUntyped_Retype+0xc0>
e001a5c4:	e2466c01 	sub	r6, r6, #256	@ 0x100
e001a5c8:	e2455c01 	sub	r5, r5, #256	@ 0x100
e001a5cc:	e3760c01 	cmn	r6, #256	@ 0x100
e001a5d0:	1affffed 	bne	e001a58c <invokeUntyped_Retype+0x108>
e001a5d4:	eaffffc2 	b	e001a4e4 <invokeUntyped_Retype+0x60>

e001a5d8 <decodeUntypedInvocation>:
e001a5d8:	e24dd008 	sub	sp, sp, #8
e001a5dc:	e92d4ff0 	push	{r4, r5, r6, r7, r8, r9, sl, fp, lr}
e001a5e0:	e24dd03c 	sub	sp, sp, #60	@ 0x3c
e001a5e4:	e58d2018 	str	r2, [sp, #24]
e001a5e8:	e58d3064 	str	r3, [sp, #100]	@ 0x64
e001a5ec:	e3500001 	cmp	r0, #1
e001a5f0:	1a00007b 	bne	e001a7e4 <decodeUntypedInvocation+0x20c>
e001a5f4:	e1a04000 	mov	r4, r0
e001a5f8:	e3510005 	cmp	r1, #5
e001a5fc:	9a000080 	bls	e001a804 <decodeUntypedInvocation+0x22c>
e001a600:	e30c3000 	movw	r3, #49152	@ 0xc000
e001a604:	e34e3001 	movt	r3, #57345	@ 0xe001
e001a608:	e5937b08 	ldr	r7, [r3, #2824]	@ 0xb08
e001a60c:	e3570000 	cmp	r7, #0
e001a610:	0a00007b 	beq	e001a804 <decodeUntypedInvocation+0x22c>
e001a614:	e30c3000 	movw	r3, #49152	@ 0xc000
e001a618:	e34e3001 	movt	r3, #57345	@ 0xe001
e001a61c:	e5936840 	ldr	r6, [r3, #2112]	@ 0x840
e001a620:	e5965008 	ldr	r5, [r6, #8]
e001a624:	e355000a 	cmp	r5, #10
e001a628:	8a00007b 	bhi	e001a81c <decodeUntypedInvocation+0x244>
e001a62c:	e596800c 	ldr	r8, [r6, #12]
e001a630:	e1a01008 	mov	r1, r8
e001a634:	e1a00005 	mov	r0, r5
e001a638:	ebffe40c 	bl	e0013670 <getObjectSize>
e001a63c:	e1a09000 	mov	r9, r0
e001a640:	e350001d 	cmp	r0, #29
e001a644:	9358001f 	cmpls	r8, #31
e001a648:	8a00007b 	bhi	e001a83c <decodeUntypedInvocation+0x264>
e001a64c:	e3550004 	cmp	r5, #4
e001a650:	03580000 	cmpeq	r8, #0
e001a654:	0a000082 	beq	e001a864 <decodeUntypedInvocation+0x28c>
e001a658:	e3580003 	cmp	r8, #3
e001a65c:	93550000 	cmpls	r5, #0
e001a660:	0a000086 	beq	e001a880 <decodeUntypedInvocation+0x2a8>
e001a664:	e59d3068 	ldr	r3, [sp, #104]	@ 0x68
e001a668:	e58d3020 	str	r3, [sp, #32]
e001a66c:	e596b014 	ldr	fp, [r6, #20]
e001a670:	e59d3070 	ldr	r3, [sp, #112]	@ 0x70
e001a674:	e593a014 	ldr	sl, [r3, #20]
e001a678:	e5933018 	ldr	r3, [r3, #24]
e001a67c:	e58d301c 	str	r3, [sp, #28]
e001a680:	e35b0000 	cmp	fp, #0
e001a684:	1a000084 	bne	e001a89c <decodeUntypedInvocation+0x2c4>
e001a688:	e5972000 	ldr	r2, [r7]
e001a68c:	e5973004 	ldr	r3, [r7, #4]
e001a690:	e202100e 	and	r1, r2, #14
e001a694:	e351000e 	cmp	r1, #14
e001a698:	1202100f 	andne	r1, r2, #15
e001a69c:	06ef1072 	uxtbeq	r1, r2
e001a6a0:	e351000a 	cmp	r1, #10
e001a6a4:	1a00008b 	bne	e001a8d8 <decodeUntypedInvocation+0x300>
e001a6a8:	e7e41953 	ubfx	r1, r3, #18, #5
e001a6ac:	e3a03001 	mov	r3, #1
e001a6b0:	e1a03113 	lsl	r3, r3, r1
e001a6b4:	e2431001 	sub	r1, r3, #1
e001a6b8:	e151000a 	cmp	r1, sl
e001a6bc:	3a000092 	bcc	e001a90c <decodeUntypedInvocation+0x334>
e001a6c0:	e59d101c 	ldr	r1, [sp, #28]
e001a6c4:	e2411001 	sub	r1, r1, #1
e001a6c8:	e35100ff 	cmp	r1, #255	@ 0xff
e001a6cc:	8a000097 	bhi	e001a930 <decodeUntypedInvocation+0x358>
e001a6d0:	e043300a 	sub	r3, r3, sl
e001a6d4:	e59d101c 	ldr	r1, [sp, #28]
e001a6d8:	e1530001 	cmp	r3, r1
e001a6dc:	3a00009d 	bcc	e001a958 <decodeUntypedInvocation+0x380>
e001a6e0:	e3c2301f 	bic	r3, r2, #31
e001a6e4:	e58d3024 	str	r3, [sp, #36]	@ 0x24
e001a6e8:	e59d201c 	ldr	r2, [sp, #28]
e001a6ec:	e082b00a 	add	fp, r2, sl
e001a6f0:	e15a000b 	cmp	sl, fp
e001a6f4:	2a000009 	bcs	e001a720 <decodeUntypedInvocation+0x148>
e001a6f8:	e083620a 	add	r6, r3, sl, lsl #4
e001a6fc:	e1a0700a 	mov	r7, sl
e001a700:	e1a00006 	mov	r0, r6
e001a704:	ebffe320 	bl	e001338c <ensureEmptySlot>
e001a708:	e3500000 	cmp	r0, #0
e001a70c:	1a000038 	bne	e001a7f4 <decodeUntypedInvocation+0x21c>
e001a710:	e2877001 	add	r7, r7, #1
e001a714:	e2866010 	add	r6, r6, #16
e001a718:	e157000b 	cmp	r7, fp
e001a71c:	1afffff7 	bne	e001a700 <decodeUntypedInvocation+0x128>
e001a720:	e59d0018 	ldr	r0, [sp, #24]
e001a724:	ebffe798 	bl	e001458c <ensureNoChildren>
e001a728:	e3500000 	cmp	r0, #0
e001a72c:	159d3020 	ldrne	r3, [sp, #32]
e001a730:	11a00323 	lsrne	r0, r3, #6
e001a734:	13a04000 	movne	r4, #0
e001a738:	e1a00200 	lsl	r0, r0, #4
e001a73c:	e59d3020 	ldr	r3, [sp, #32]
e001a740:	e203301f 	and	r3, r3, #31
e001a744:	e3a02001 	mov	r2, #1
e001a748:	e0603312 	rsb	r3, r0, r2, lsl r3
e001a74c:	e59d201c 	ldr	r2, [sp, #28]
e001a750:	e1520933 	cmp	r2, r3, lsr r9
e001a754:	8a000088 	bhi	e001a97c <decodeUntypedInvocation+0x3a4>
e001a758:	e59d3020 	ldr	r3, [sp, #32]
e001a75c:	e7e062d3 	ubfx	r6, r3, #5, #1
e001a760:	e3560000 	cmp	r6, #0
e001a764:	0a000003 	beq	e001a778 <decodeUntypedInvocation+0x1a0>
e001a768:	e2453006 	sub	r3, r5, #6
e001a76c:	e3550000 	cmp	r5, #0
e001a770:	13530003 	cmpne	r3, #3
e001a774:	8a000087 	bhi	e001a998 <decodeUntypedInvocation+0x3c0>
e001a778:	e3a03001 	mov	r3, #1
e001a77c:	e1a09913 	lsl	r9, r3, r9
e001a780:	e59d7064 	ldr	r7, [sp, #100]	@ 0x64
e001a784:	e3c7700f 	bic	r7, r7, #15
e001a788:	e2477001 	sub	r7, r7, #1
e001a78c:	e0877009 	add	r7, r7, r9
e001a790:	e0877000 	add	r7, r7, r0
e001a794:	e2699000 	rsb	r9, r9, #0
e001a798:	e0077009 	and	r7, r7, r9
e001a79c:	e30c3000 	movw	r3, #49152	@ 0xc000
e001a7a0:	e34e3001 	movt	r3, #57345	@ 0xe001
e001a7a4:	e3a01002 	mov	r1, #2
e001a7a8:	e5930840 	ldr	r0, [r3, #2112]	@ 0x840
e001a7ac:	ebffe904 	bl	e0014bc4 <setThreadState>
e001a7b0:	e58d6010 	str	r6, [sp, #16]
e001a7b4:	e59d301c 	ldr	r3, [sp, #28]
e001a7b8:	e58d300c 	str	r3, [sp, #12]
e001a7bc:	e58da008 	str	sl, [sp, #8]
e001a7c0:	e59d3024 	ldr	r3, [sp, #36]	@ 0x24
e001a7c4:	e58d3004 	str	r3, [sp, #4]
e001a7c8:	e58d8000 	str	r8, [sp]
e001a7cc:	e1a03005 	mov	r3, r5
e001a7d0:	e1a02007 	mov	r2, r7
e001a7d4:	e1a01004 	mov	r1, r4
e001a7d8:	e59d0018 	ldr	r0, [sp, #24]
e001a7dc:	ebffff28 	bl	e001a484 <invokeUntyped_Retype>
e001a7e0:	ea000003 	b	e001a7f4 <decodeUntypedInvocation+0x21c>
e001a7e4:	e30c3000 	movw	r3, #49152	@ 0xc000
e001a7e8:	e34e3001 	movt	r3, #57345	@ 0xe001
e001a7ec:	e3a00003 	mov	r0, #3
e001a7f0:	e5830864 	str	r0, [r3, #2148]	@ 0x864
e001a7f4:	e28dd03c 	add	sp, sp, #60	@ 0x3c
e001a7f8:	e8bd4ff0 	pop	{r4, r5, r6, r7, r8, r9, sl, fp, lr}
e001a7fc:	e28dd008 	add	sp, sp, #8
e001a800:	e12fff1e 	bx	lr
e001a804:	e30c3000 	movw	r3, #49152	@ 0xc000
e001a808:	e34e3001 	movt	r3, #57345	@ 0xe001
e001a80c:	e3a02007 	mov	r2, #7
e001a810:	e5832864 	str	r2, [r3, #2148]	@ 0x864
e001a814:	e3a00003 	mov	r0, #3
e001a818:	eafffff5 	b	e001a7f4 <decodeUntypedInvocation+0x21c>
e001a81c:	e30c3000 	movw	r3, #49152	@ 0xc000
e001a820:	e34e3001 	movt	r3, #57345	@ 0xe001
e001a824:	e3a02001 	mov	r2, #1
e001a828:	e5832864 	str	r2, [r3, #2148]	@ 0x864
e001a82c:	e3a02000 	mov	r2, #0
e001a830:	e583284c 	str	r2, [r3, #2124]	@ 0x84c
e001a834:	e3a00003 	mov	r0, #3
e001a838:	eaffffed 	b	e001a7f4 <decodeUntypedInvocation+0x21c>
e001a83c:	e30c3000 	movw	r3, #49152	@ 0xc000
e001a840:	e34e3001 	movt	r3, #57345	@ 0xe001
e001a844:	e3a02004 	mov	r2, #4
e001a848:	e5832864 	str	r2, [r3, #2148]	@ 0x864
e001a84c:	e3a02000 	mov	r2, #0
e001a850:	e5832854 	str	r2, [r3, #2132]	@ 0x854
e001a854:	e3a0201d 	mov	r2, #29
e001a858:	e5832858 	str	r2, [r3, #2136]	@ 0x858
e001a85c:	e3a00003 	mov	r0, #3
e001a860:	eaffffe3 	b	e001a7f4 <decodeUntypedInvocation+0x21c>
e001a864:	e30c3000 	movw	r3, #49152	@ 0xc000
e001a868:	e34e3001 	movt	r3, #57345	@ 0xe001
e001a86c:	e3a02001 	mov	r2, #1
e001a870:	e5832864 	str	r2, [r3, #2148]	@ 0x864
e001a874:	e583284c 	str	r2, [r3, #2124]	@ 0x84c
e001a878:	e3a00003 	mov	r0, #3
e001a87c:	eaffffdc 	b	e001a7f4 <decodeUntypedInvocation+0x21c>
e001a880:	e30c3000 	movw	r3, #49152	@ 0xc000
e001a884:	e34e3001 	movt	r3, #57345	@ 0xe001
e001a888:	e3a02001 	mov	r2, #1
e001a88c:	e5832864 	str	r2, [r3, #2148]	@ 0x864
e001a890:	e583284c 	str	r2, [r3, #2124]	@ 0x84c
e001a894:	e3a00003 	mov	r0, #3
e001a898:	eaffffd5 	b	e001a7f4 <decodeUntypedInvocation+0x21c>
e001a89c:	e5963010 	ldr	r3, [r6, #16]
e001a8a0:	e28d2028 	add	r2, sp, #40	@ 0x28
e001a8a4:	e8970003 	ldm	r7, {r0, r1}
e001a8a8:	e8820003 	stm	r2, {r0, r1}
e001a8ac:	e58db000 	str	fp, [sp]
e001a8b0:	e8920006 	ldm	r2, {r1, r2}
e001a8b4:	e28d0030 	add	r0, sp, #48	@ 0x30
e001a8b8:	ebffe190 	bl	e0012f00 <lookupTargetSlot>
e001a8bc:	e59d0030 	ldr	r0, [sp, #48]	@ 0x30
e001a8c0:	e3500000 	cmp	r0, #0
e001a8c4:	1affffca 	bne	e001a7f4 <decodeUntypedInvocation+0x21c>
e001a8c8:	e59d3034 	ldr	r3, [sp, #52]	@ 0x34
e001a8cc:	e5932000 	ldr	r2, [r3]
e001a8d0:	e5933004 	ldr	r3, [r3, #4]
e001a8d4:	eaffff6d 	b	e001a690 <decodeUntypedInvocation+0xb8>
e001a8d8:	e30c2000 	movw	r2, #49152	@ 0xc000
e001a8dc:	e34e2001 	movt	r2, #57345	@ 0xe001
e001a8e0:	e3a03006 	mov	r3, #6
e001a8e4:	e5823864 	str	r3, [r2, #2148]	@ 0x864
e001a8e8:	e3a01000 	mov	r1, #0
e001a8ec:	e5821860 	str	r1, [r2, #2144]	@ 0x860
e001a8f0:	e1a0310b 	lsl	r3, fp, #2
e001a8f4:	e6ef3073 	uxtb	r3, r3
e001a8f8:	e3833001 	orr	r3, r3, #1
e001a8fc:	e5823844 	str	r3, [r2, #2116]	@ 0x844
e001a900:	e5821848 	str	r1, [r2, #2120]	@ 0x848
e001a904:	e3a00003 	mov	r0, #3
e001a908:	eaffffb9 	b	e001a7f4 <decodeUntypedInvocation+0x21c>
e001a90c:	e30c3000 	movw	r3, #49152	@ 0xc000
e001a910:	e34e3001 	movt	r3, #57345	@ 0xe001
e001a914:	e3a02004 	mov	r2, #4
e001a918:	e5832864 	str	r2, [r3, #2148]	@ 0x864
e001a91c:	e3a02000 	mov	r2, #0
e001a920:	e5832854 	str	r2, [r3, #2132]	@ 0x854
e001a924:	e5831858 	str	r1, [r3, #2136]	@ 0x858
e001a928:	e3a00003 	mov	r0, #3
e001a92c:	eaffffb0 	b	e001a7f4 <decodeUntypedInvocation+0x21c>
e001a930:	e30c3000 	movw	r3, #49152	@ 0xc000
e001a934:	e34e3001 	movt	r3, #57345	@ 0xe001
e001a938:	e3a02004 	mov	r2, #4
e001a93c:	e5832864 	str	r2, [r3, #2148]	@ 0x864
e001a940:	e3a02001 	mov	r2, #1
e001a944:	e5832854 	str	r2, [r3, #2132]	@ 0x854
e001a948:	e3a02c01 	mov	r2, #256	@ 0x100
e001a94c:	e5832858 	str	r2, [r3, #2136]	@ 0x858
e001a950:	e3a00003 	mov	r0, #3
e001a954:	eaffffa6 	b	e001a7f4 <decodeUntypedInvocation+0x21c>
e001a958:	e30c2000 	movw	r2, #49152	@ 0xc000
e001a95c:	e34e2001 	movt	r2, #57345	@ 0xe001
e001a960:	e3a01004 	mov	r1, #4
e001a964:	e5821864 	str	r1, [r2, #2148]	@ 0x864
e001a968:	e3a01001 	mov	r1, #1
e001a96c:	e5821854 	str	r1, [r2, #2132]	@ 0x854
e001a970:	e5823858 	str	r3, [r2, #2136]	@ 0x858
e001a974:	e3a00003 	mov	r0, #3
e001a978:	eaffff9d 	b	e001a7f4 <decodeUntypedInvocation+0x21c>
e001a97c:	e30c2000 	movw	r2, #49152	@ 0xc000
e001a980:	e34e2001 	movt	r2, #57345	@ 0xe001
e001a984:	e3a0100a 	mov	r1, #10
e001a988:	e5821864 	str	r1, [r2, #2148]	@ 0x864
e001a98c:	e582385c 	str	r3, [r2, #2140]	@ 0x85c
e001a990:	e3a00003 	mov	r0, #3
e001a994:	eaffff96 	b	e001a7f4 <decodeUntypedInvocation+0x21c>
e001a998:	e30c3000 	movw	r3, #49152	@ 0xc000
e001a99c:	e34e3001 	movt	r3, #57345	@ 0xe001
e001a9a0:	e3a02001 	mov	r2, #1
e001a9a4:	e5832864 	str	r2, [r3, #2148]	@ 0x864
e001a9a8:	e583284c 	str	r2, [r3, #2124]	@ 0x84c
e001a9ac:	e3a00003 	mov	r0, #3
e001a9b0:	eaffff8f 	b	e001a7f4 <decodeUntypedInvocation+0x21c>

e001a9b4 <decodeInvocation>:
e001a9b4:	e92d41f0 	push	{r4, r5, r6, r7, r8, lr}
e001a9b8:	e24dd018 	sub	sp, sp, #24
e001a9bc:	e1a0e000 	mov	lr, r0
e001a9c0:	e1a05001 	mov	r5, r1
e001a9c4:	e1a07003 	mov	r7, r3
e001a9c8:	e59d6030 	ldr	r6, [sp, #48]	@ 0x30
e001a9cc:	e59d8034 	ldr	r8, [sp, #52]	@ 0x34
e001a9d0:	e206300e 	and	r3, r6, #14
e001a9d4:	e353000e 	cmp	r3, #14
e001a9d8:	1206c00f 	andne	ip, r6, #15
e001a9dc:	06efc076 	uxtbeq	ip, r6
e001a9e0:	e21c4001 	ands	r4, ip, #1
e001a9e4:	1a000041 	bne	e001aaf0 <decodeInvocation+0x13c>
e001a9e8:	e35c003e 	cmp	ip, #62	@ 0x3e
e001a9ec:	979ff10c 	ldrls	pc, [pc, ip, lsl #2]
e001a9f0:	ea0000ca 	b	e001ad20 <decodeInvocation+0x36c>
e001a9f4:	e001ab34 	.word	0xe001ab34
e001a9f8:	e001ad20 	.word	0xe001ad20
e001a9fc:	e001acd0 	.word	0xe001acd0
e001aa00:	e001ad20 	.word	0xe001ad20
e001aa04:	e001ab74 	.word	0xe001ab74
e001aa08:	e001ad20 	.word	0xe001ad20
e001aa0c:	e001abdc 	.word	0xe001abdc
e001aa10:	e001ad20 	.word	0xe001ad20
e001aa14:	e001ac28 	.word	0xe001ac28
e001aa18:	e001ad20 	.word	0xe001ad20
e001aa1c:	e001acb4 	.word	0xe001acb4
e001aa20:	e001ad20 	.word	0xe001ad20
e001aa24:	e001ac7c 	.word	0xe001ac7c
e001aa28:	e001ad20 	.word	0xe001ad20
e001aa2c:	e001acfc 	.word	0xe001acfc
e001aa30:	e001ad20 	.word	0xe001ad20
e001aa34:	e001ad20 	.word	0xe001ad20
e001aa38:	e001ad20 	.word	0xe001ad20
e001aa3c:	e001ad20 	.word	0xe001ad20
e001aa40:	e001ad20 	.word	0xe001ad20
e001aa44:	e001ad20 	.word	0xe001ad20
e001aa48:	e001ad20 	.word	0xe001ad20
e001aa4c:	e001ad20 	.word	0xe001ad20
e001aa50:	e001ad20 	.word	0xe001ad20
e001aa54:	e001ad20 	.word	0xe001ad20
e001aa58:	e001ad20 	.word	0xe001ad20
e001aa5c:	e001ad20 	.word	0xe001ad20
e001aa60:	e001ad20 	.word	0xe001ad20
e001aa64:	e001ad20 	.word	0xe001ad20
e001aa68:	e001ad20 	.word	0xe001ad20
e001aa6c:	e001ad10 	.word	0xe001ad10
e001aa70:	e001ad20 	.word	0xe001ad20
e001aa74:	e001ad20 	.word	0xe001ad20
e001aa78:	e001ad20 	.word	0xe001ad20
e001aa7c:	e001ad20 	.word	0xe001ad20
e001aa80:	e001ad20 	.word	0xe001ad20
e001aa84:	e001ad20 	.word	0xe001ad20
e001aa88:	e001ad20 	.word	0xe001ad20
e001aa8c:	e001ad20 	.word	0xe001ad20
e001aa90:	e001ad20 	.word	0xe001ad20
e001aa94:	e001ad20 	.word	0xe001ad20
e001aa98:	e001ad20 	.word	0xe001ad20
e001aa9c:	e001ad20 	.word	0xe001ad20
e001aaa0:	e001ad20 	.word	0xe001ad20
e001aaa4:	e001ad20 	.word	0xe001ad20
e001aaa8:	e001ad20 	.word	0xe001ad20
e001aaac:	e001ab54 	.word	0xe001ab54
e001aab0:	e001ad20 	.word	0xe001ad20
e001aab4:	e001ad20 	.word	0xe001ad20
e001aab8:	e001ad20 	.word	0xe001ad20
e001aabc:	e001ad20 	.word	0xe001ad20
e001aac0:	e001ad20 	.word	0xe001ad20
e001aac4:	e001ad20 	.word	0xe001ad20
e001aac8:	e001ad20 	.word	0xe001ad20
e001aacc:	e001ad20 	.word	0xe001ad20
e001aad0:	e001ad20 	.word	0xe001ad20
e001aad4:	e001ad20 	.word	0xe001ad20
e001aad8:	e001ad20 	.word	0xe001ad20
e001aadc:	e001ad20 	.word	0xe001ad20
e001aae0:	e001ad20 	.word	0xe001ad20
e001aae4:	e001ad20 	.word	0xe001ad20
e001aae8:	e001ad20 	.word	0xe001ad20
e001aaec:	e001aca4 	.word	0xe001aca4
e001aaf0:	e58d6010 	str	r6, [sp, #16]
e001aaf4:	e58d8014 	str	r8, [sp, #20]
e001aaf8:	e59d3040 	ldr	r3, [sp, #64]	@ 0x40
e001aafc:	e58d300c 	str	r3, [sp, #12]
e001ab00:	e59d303c 	ldr	r3, [sp, #60]	@ 0x3c
e001ab04:	e58d3008 	str	r3, [sp, #8]
e001ab08:	e28d3018 	add	r3, sp, #24
e001ab0c:	e9130003 	ldmdb	r3, {r0, r1}
e001ab10:	e88d0003 	stm	sp, {r0, r1}
e001ab14:	e1a03007 	mov	r3, r7
e001ab18:	e1a01005 	mov	r1, r5
e001ab1c:	e1a0000e 	mov	r0, lr
e001ab20:	ebfff957 	bl	e0019084 <decodeARMMMUInvocation>
e001ab24:	e1a04000 	mov	r4, r0
e001ab28:	e1a00004 	mov	r0, r4
e001ab2c:	e28dd018 	add	sp, sp, #24
e001ab30:	e8bd81f0 	pop	{r4, r5, r6, r7, r8, pc}
e001ab34:	e30c3000 	movw	r3, #49152	@ 0xc000
e001ab38:	e34e3001 	movt	r3, #57345	@ 0xe001
e001ab3c:	e3a02002 	mov	r2, #2
e001ab40:	e5832864 	str	r2, [r3, #2148]	@ 0x864
e001ab44:	e3a02000 	mov	r2, #0
e001ab48:	e5832850 	str	r2, [r3, #2128]	@ 0x850
e001ab4c:	e3a04003 	mov	r4, #3
e001ab50:	eafffff4 	b	e001ab28 <decodeInvocation+0x174>
e001ab54:	e30c3000 	movw	r3, #49152	@ 0xc000
e001ab58:	e34e3001 	movt	r3, #57345	@ 0xe001
e001ab5c:	e3a02002 	mov	r2, #2
e001ab60:	e5832864 	str	r2, [r3, #2148]	@ 0x864
e001ab64:	e3a02000 	mov	r2, #0
e001ab68:	e5832850 	str	r2, [r3, #2128]	@ 0x850
e001ab6c:	e3a04003 	mov	r4, #3
e001ab70:	eaffffec 	b	e001ab28 <decodeInvocation+0x174>
e001ab74:	e3180001 	tst	r8, #1
e001ab78:	0a00000f 	beq	e001abbc <decodeInvocation+0x208>
e001ab7c:	e30c3000 	movw	r3, #49152	@ 0xc000
e001ab80:	e34e3001 	movt	r3, #57345	@ 0xe001
e001ab84:	e3a01002 	mov	r1, #2
e001ab88:	e5930840 	ldr	r0, [r3, #2112]	@ 0x840
e001ab8c:	ebffe80c 	bl	e0014bc4 <setThreadState>
e001ab90:	e59d303c 	ldr	r3, [sp, #60]	@ 0x3c
e001ab94:	e58d3004 	str	r3, [sp, #4]
e001ab98:	e59d3038 	ldr	r3, [sp, #56]	@ 0x38
e001ab9c:	e58d3000 	str	r3, [sp]
e001aba0:	e7e031d8 	ubfx	r3, r8, #3, #1
e001aba4:	e7e02158 	ubfx	r2, r8, #2, #1
e001aba8:	e1a01226 	lsr	r1, r6, #4
e001abac:	e3c8000f 	bic	r0, r8, #15
e001abb0:	ebfff201 	bl	e00173bc <performInvocation_Endpoint>
e001abb4:	e1a04000 	mov	r4, r0
e001abb8:	eaffffda 	b	e001ab28 <decodeInvocation+0x174>
e001abbc:	e30c3000 	movw	r3, #49152	@ 0xc000
e001abc0:	e34e3001 	movt	r3, #57345	@ 0xe001
e001abc4:	e3a02002 	mov	r2, #2
e001abc8:	e5832864 	str	r2, [r3, #2148]	@ 0x864
e001abcc:	e3a02000 	mov	r2, #0
e001abd0:	e5832850 	str	r2, [r3, #2128]	@ 0x850
e001abd4:	e3a04003 	mov	r4, #3
e001abd8:	eaffffd2 	b	e001ab28 <decodeInvocation+0x174>
e001abdc:	e3180001 	tst	r8, #1
e001abe0:	0a000008 	beq	e001ac08 <decodeInvocation+0x254>
e001abe4:	e30c3000 	movw	r3, #49152	@ 0xc000
e001abe8:	e34e3001 	movt	r3, #57345	@ 0xe001
e001abec:	e3a01002 	mov	r1, #2
e001abf0:	e5930840 	ldr	r0, [r3, #2112]	@ 0x840
e001abf4:	ebffe7f2 	bl	e0014bc4 <setThreadState>
e001abf8:	e1a01228 	lsr	r1, r8, #4
e001abfc:	e3c6000f 	bic	r0, r6, #15
e001ac00:	ebffeeeb 	bl	e00167b4 <sendSignal>
e001ac04:	eaffffc7 	b	e001ab28 <decodeInvocation+0x174>
e001ac08:	e30c3000 	movw	r3, #49152	@ 0xc000
e001ac0c:	e34e3001 	movt	r3, #57345	@ 0xe001
e001ac10:	e3a02002 	mov	r2, #2
e001ac14:	e5832864 	str	r2, [r3, #2148]	@ 0x864
e001ac18:	e3a02000 	mov	r2, #0
e001ac1c:	e5832850 	str	r2, [r3, #2128]	@ 0x850
e001ac20:	e3a04003 	mov	r4, #3
e001ac24:	eaffffbf 	b	e001ab28 <decodeInvocation+0x174>
e001ac28:	e3160010 	tst	r6, #16
e001ac2c:	1a00000a 	bne	e001ac5c <decodeInvocation+0x2a8>
e001ac30:	e30c3000 	movw	r3, #49152	@ 0xc000
e001ac34:	e34e3001 	movt	r3, #57345	@ 0xe001
e001ac38:	e3a01002 	mov	r1, #2
e001ac3c:	e5930840 	ldr	r0, [r3, #2112]	@ 0x840
e001ac40:	ebffe7df 	bl	e0014bc4 <setThreadState>
e001ac44:	e7e022d6 	ubfx	r2, r6, #5, #1
e001ac48:	e1a01007 	mov	r1, r7
e001ac4c:	e3c6003f 	bic	r0, r6, #63	@ 0x3f
e001ac50:	ebfff0eb 	bl	e0017004 <performInvocation_Reply>
e001ac54:	e1a04000 	mov	r4, r0
e001ac58:	eaffffb2 	b	e001ab28 <decodeInvocation+0x174>
e001ac5c:	e30c3000 	movw	r3, #49152	@ 0xc000
e001ac60:	e34e3001 	movt	r3, #57345	@ 0xe001
e001ac64:	e3a02002 	mov	r2, #2
e001ac68:	e5832864 	str	r2, [r3, #2148]	@ 0x864
e001ac6c:	e3a02000 	mov	r2, #0
e001ac70:	e5832850 	str	r2, [r3, #2128]	@ 0x850
e001ac74:	e3a04003 	mov	r4, #3
e001ac78:	eaffffaa 	b	e001ab28 <decodeInvocation+0x174>
e001ac7c:	e59d3040 	ldr	r3, [sp, #64]	@ 0x40
e001ac80:	e58d3008 	str	r3, [sp, #8]
e001ac84:	e59d303c 	ldr	r3, [sp, #60]	@ 0x3c
e001ac88:	e58d3004 	str	r3, [sp, #4]
e001ac8c:	e58d7000 	str	r7, [sp]
e001ac90:	e28d302c 	add	r3, sp, #44	@ 0x2c
e001ac94:	e993000c 	ldmib	r3, {r2, r3}
e001ac98:	ebfff7cc 	bl	e0018bd0 <decodeTCBInvocation>
e001ac9c:	e1a04000 	mov	r4, r0
e001aca0:	eaffffa0 	b	e001ab28 <decodeInvocation+0x174>
e001aca4:	e59d2040 	ldr	r2, [sp, #64]	@ 0x40
e001aca8:	ebfff2aa 	bl	e0017758 <decodeDomainInvocation>
e001acac:	e1a04000 	mov	r4, r0
e001acb0:	eaffff9c 	b	e001ab28 <decodeInvocation+0x174>
e001acb4:	e59d3040 	ldr	r3, [sp, #64]	@ 0x40
e001acb8:	e58d3000 	str	r3, [sp]
e001acbc:	e28d302c 	add	r3, sp, #44	@ 0x2c
e001acc0:	e993000c 	ldmib	r3, {r2, r3}
e001acc4:	ebffec5b 	bl	e0015e38 <decodeCNodeInvocation>
e001acc8:	e1a04000 	mov	r4, r0
e001accc:	eaffff95 	b	e001ab28 <decodeInvocation+0x174>
e001acd0:	e59d3040 	ldr	r3, [sp, #64]	@ 0x40
e001acd4:	e58d3008 	str	r3, [sp, #8]
e001acd8:	e59d303c 	ldr	r3, [sp, #60]	@ 0x3c
e001acdc:	e58d3004 	str	r3, [sp, #4]
e001ace0:	e59d3034 	ldr	r3, [sp, #52]	@ 0x34
e001ace4:	e58d3000 	str	r3, [sp]
e001ace8:	e59d3030 	ldr	r3, [sp, #48]	@ 0x30
e001acec:	e1a02007 	mov	r2, r7
e001acf0:	ebfffe38 	bl	e001a5d8 <decodeUntypedInvocation>
e001acf4:	e1a04000 	mov	r4, r0
e001acf8:	eaffff8a 	b	e001ab28 <decodeInvocation+0x174>
e001acfc:	e59d3040 	ldr	r3, [sp, #64]	@ 0x40
e001ad00:	e1a02007 	mov	r2, r7
e001ad04:	ebffe825 	bl	e0014da0 <decodeIRQControlInvocation>
e001ad08:	e1a04000 	mov	r4, r0
e001ad0c:	eaffff85 	b	e001ab28 <decodeInvocation+0x174>
e001ad10:	e6ef1078 	uxtb	r1, r8
e001ad14:	ebffee40 	bl	e001661c <decodeIRQHandlerInvocation>
e001ad18:	e1a04000 	mov	r4, r0
e001ad1c:	eaffff81 	b	e001ab28 <decodeInvocation+0x174>
e001ad20:	ebffd6ff 	bl	e0010924 <halt>

e001ad24 <handleInvocation>:
e001ad24:	e92d4ff0 	push	{r4, r5, r6, r7, r8, r9, sl, fp, lr}
e001ad28:	e24dd02c 	sub	sp, sp, #44	@ 0x2c
e001ad2c:	e1a09000 	mov	r9, r0
e001ad30:	e1a08001 	mov	r8, r1
e001ad34:	e30c3000 	movw	r3, #49152	@ 0xc000
e001ad38:	e34e3001 	movt	r3, #57345	@ 0xe001
e001ad3c:	e5934840 	ldr	r4, [r3, #2112]	@ 0x840
e001ad40:	e5945004 	ldr	r5, [r4, #4]
e001ad44:	e205307f 	and	r3, r5, #127	@ 0x7f
e001ad48:	e3530078 	cmp	r3, #120	@ 0x78
e001ad4c:	83c5507f 	bichi	r5, r5, #127	@ 0x7f
e001ad50:	83855078 	orrhi	r5, r5, #120	@ 0x78
e001ad54:	e594a000 	ldr	sl, [r4]
e001ad58:	e1a0200a 	mov	r2, sl
e001ad5c:	e1a01004 	mov	r1, r4
e001ad60:	e28d0018 	add	r0, sp, #24
e001ad64:	ebffdfeb 	bl	e0012d18 <lookupCapAndSlot>
e001ad68:	e59db018 	ldr	fp, [sp, #24]
e001ad6c:	e35b0000 	cmp	fp, #0
e001ad70:	1a000027 	bne	e001ae14 <handleInvocation+0xf0>
e001ad74:	e1a01004 	mov	r1, r4
e001ad78:	e3a00000 	mov	r0, #0
e001ad7c:	ebffd7e2 	bl	e0010d0c <lookupIPCBuffer>
e001ad80:	e1a06000 	mov	r6, r0
e001ad84:	e1a02005 	mov	r2, r5
e001ad88:	e1a01000 	mov	r1, r0
e001ad8c:	e1a00004 	mov	r0, r4
e001ad90:	ebffef6e 	bl	e0016b50 <lookupExtraCaps>
e001ad94:	e2507000 	subs	r7, r0, #0
e001ad98:	1a000029 	bne	e001ae44 <handleInvocation+0x120>
e001ad9c:	e205c07f 	and	ip, r5, #127	@ 0x7f
e001ada0:	e35c0004 	cmp	ip, #4
e001ada4:	93a03000 	movls	r3, #0
e001ada8:	83a03001 	movhi	r3, #1
e001adac:	e3560000 	cmp	r6, #0
e001adb0:	13a03000 	movne	r3, #0
e001adb4:	e3530000 	cmp	r3, #0
e001adb8:	e58d6010 	str	r6, [sp, #16]
e001adbc:	e58d900c 	str	r9, [sp, #12]
e001adc0:	e58d8008 	str	r8, [sp, #8]
e001adc4:	e28d301c 	add	r3, sp, #28
e001adc8:	e8930003 	ldm	r3, {r0, r1}
e001adcc:	e88d0003 	stm	sp, {r0, r1}
e001add0:	e59d3024 	ldr	r3, [sp, #36]	@ 0x24
e001add4:	e1a0200a 	mov	r2, sl
e001add8:	01a0100c 	moveq	r1, ip
e001addc:	13a01004 	movne	r1, #4
e001ade0:	e1a00625 	lsr	r0, r5, #12
e001ade4:	ebfffef2 	bl	e001a9b4 <decodeInvocation>
e001ade8:	e3500004 	cmp	r0, #4
e001adec:	0a000029 	beq	e001ae98 <handleInvocation+0x174>
e001adf0:	e3500003 	cmp	r0, #3
e001adf4:	0a000019 	beq	e001ae60 <handleInvocation+0x13c>
e001adf8:	e5943050 	ldr	r3, [r4, #80]	@ 0x50
e001adfc:	e203300f 	and	r3, r3, #15
e001ae00:	e3530002 	cmp	r3, #2
e001ae04:	0a00001b 	beq	e001ae78 <handleInvocation+0x154>
e001ae08:	e1a00007 	mov	r0, r7
e001ae0c:	e28dd02c 	add	sp, sp, #44	@ 0x2c
e001ae10:	e8bd8ff0 	pop	{r4, r5, r6, r7, r8, r9, sl, fp, pc}
e001ae14:	e30c3000 	movw	r3, #49152	@ 0xc000
e001ae18:	e34e3001 	movt	r3, #57345	@ 0xe001
e001ae1c:	e3a02001 	mov	r2, #1
e001ae20:	e5832870 	str	r2, [r3, #2160]	@ 0x870
e001ae24:	e583a874 	str	sl, [r3, #2164]	@ 0x874
e001ae28:	e3580000 	cmp	r8, #0
e001ae2c:	01a07008 	moveq	r7, r8
e001ae30:	0afffff4 	beq	e001ae08 <handleInvocation+0xe4>
e001ae34:	e1a00004 	mov	r0, r4
e001ae38:	ebfff12c 	bl	e00172f0 <handleFault>
e001ae3c:	e3a07000 	mov	r7, #0
e001ae40:	eafffff0 	b	e001ae08 <handleInvocation+0xe4>
e001ae44:	e3580000 	cmp	r8, #0
e001ae48:	01a07008 	moveq	r7, r8
e001ae4c:	0affffed 	beq	e001ae08 <handleInvocation+0xe4>
e001ae50:	e1a00004 	mov	r0, r4
e001ae54:	ebfff125 	bl	e00172f0 <handleFault>
e001ae58:	e1a0700b 	mov	r7, fp
e001ae5c:	eaffffe9 	b	e001ae08 <handleInvocation+0xe4>
e001ae60:	e3590000 	cmp	r9, #0
e001ae64:	01a07009 	moveq	r7, r9
e001ae68:	0affffe6 	beq	e001ae08 <handleInvocation+0xe4>
e001ae6c:	e1a00004 	mov	r0, r4
e001ae70:	ebfff820 	bl	e0018ef8 <replyFromKernel_error>
e001ae74:	eaffffe3 	b	e001ae08 <handleInvocation+0xe4>
e001ae78:	e3590000 	cmp	r9, #0
e001ae7c:	13a03000 	movne	r3, #0
e001ae80:	15843000 	strne	r3, [r4]
e001ae84:	15843004 	strne	r3, [r4, #4]
e001ae88:	e3a01001 	mov	r1, #1
e001ae8c:	e1a00004 	mov	r0, r4
e001ae90:	ebffe74b 	bl	e0014bc4 <setThreadState>
e001ae94:	eaffffdb 	b	e001ae08 <handleInvocation+0xe4>
e001ae98:	e1a07000 	mov	r7, r0
e001ae9c:	eaffffd9 	b	e001ae08 <handleInvocation+0xe4>

e001aea0 <handleSyscall>:
e001aea0:	e92d4010 	push	{r4, lr}
e001aea4:	e2800008 	add	r0, r0, #8
e001aea8:	e3500007 	cmp	r0, #7
e001aeac:	979ff100 	ldrls	pc, [pc, r0, lsl #2]
e001aeb0:	ea00006f 	b	e001b074 <handleSyscall+0x1d4>
e001aeb4:	e001b048 	.word	0xe001b048
e001aeb8:	e001b054 	.word	0xe001b054
e001aebc:	e001b030 	.word	0xe001b030
e001aec0:	e001b018 	.word	0xe001b018
e001aec4:	e001af40 	.word	0xe001af40
e001aec8:	e001aed4 	.word	0xe001aed4
e001aecc:	e001b038 	.word	0xe001b038
e001aed0:	e001afac 	.word	0xe001afac
e001aed4:	e3a01001 	mov	r1, #1
e001aed8:	e3a00000 	mov	r0, #0
e001aedc:	ebffff90 	bl	e001ad24 <handleInvocation>
e001aee0:	e3500000 	cmp	r0, #0
e001aee4:	0a00004d 	beq	e001b020 <handleSyscall+0x180>
e001aee8:	e30b3310 	movw	r3, #45840	@ 0xb310
e001aeec:	e34e3001 	movt	r3, #57345	@ 0xe001
e001aef0:	e5930000 	ldr	r0, [r3]
e001aef4:	e7e90050 	ubfx	r0, r0, #0, #10
e001aef8:	e3500fff 	cmp	r0, #1020	@ 0x3fc
e001aefc:	3a000008 	bcc	e001af24 <handleSyscall+0x84>
e001af00:	e30231ff 	movw	r3, #8703	@ 0x21ff
e001af04:	e34f3ff0 	movt	r3, #65520	@ 0xfff0
e001af08:	e51300f3 	ldr	r0, [r3, #-243]	@ 0xffffff0d
e001af0c:	e30b3310 	movw	r3, #45840	@ 0xb310
e001af10:	e34e3001 	movt	r3, #57345	@ 0xe001
e001af14:	e5830000 	str	r0, [r3]
e001af18:	e7e90050 	ubfx	r0, r0, #0, #10
e001af1c:	e3500fff 	cmp	r0, #1020	@ 0x3fc
e001af20:	2a00003e 	bcs	e001b020 <handleSyscall+0x180>
e001af24:	e30b3310 	movw	r3, #45840	@ 0xb310
e001af28:	e34e3001 	movt	r3, #57345	@ 0xe001
e001af2c:	e5933004 	ldr	r3, [r3, #4]
e001af30:	e1530000 	cmp	r3, r0
e001af34:	0a000039 	beq	e001b020 <handleSyscall+0x180>
e001af38:	ebffee6a 	bl	e00168e8 <handleInterrupt>
e001af3c:	ea000037 	b	e001b020 <handleSyscall+0x180>
e001af40:	e3a01000 	mov	r1, #0
e001af44:	e1a00001 	mov	r0, r1
e001af48:	ebffff75 	bl	e001ad24 <handleInvocation>
e001af4c:	e3500000 	cmp	r0, #0
e001af50:	0a000032 	beq	e001b020 <handleSyscall+0x180>
e001af54:	e30b3310 	movw	r3, #45840	@ 0xb310
e001af58:	e34e3001 	movt	r3, #57345	@ 0xe001
e001af5c:	e5930000 	ldr	r0, [r3]
e001af60:	e7e90050 	ubfx	r0, r0, #0, #10
e001af64:	e3500fff 	cmp	r0, #1020	@ 0x3fc
e001af68:	3a000008 	bcc	e001af90 <handleSyscall+0xf0>
e001af6c:	e30231ff 	movw	r3, #8703	@ 0x21ff
e001af70:	e34f3ff0 	movt	r3, #65520	@ 0xfff0
e001af74:	e51300f3 	ldr	r0, [r3, #-243]	@ 0xffffff0d
e001af78:	e30b3310 	movw	r3, #45840	@ 0xb310
e001af7c:	e34e3001 	movt	r3, #57345	@ 0xe001
e001af80:	e5830000 	str	r0, [r3]
e001af84:	e7e90050 	ubfx	r0, r0, #0, #10
e001af88:	e3500fff 	cmp	r0, #1020	@ 0x3fc
e001af8c:	2a000023 	bcs	e001b020 <handleSyscall+0x180>
e001af90:	e30b3310 	movw	r3, #45840	@ 0xb310
e001af94:	e34e3001 	movt	r3, #57345	@ 0xe001
e001af98:	e5933004 	ldr	r3, [r3, #4]
e001af9c:	e1530000 	cmp	r3, r0
e001afa0:	0a00001e 	beq	e001b020 <handleSyscall+0x180>
e001afa4:	ebffee4f 	bl	e00168e8 <handleInterrupt>
e001afa8:	ea00001c 	b	e001b020 <handleSyscall+0x180>
e001afac:	e3a01001 	mov	r1, #1
e001afb0:	e1a00001 	mov	r0, r1
e001afb4:	ebffff5a 	bl	e001ad24 <handleInvocation>
e001afb8:	e3500000 	cmp	r0, #0
e001afbc:	0a000017 	beq	e001b020 <handleSyscall+0x180>
e001afc0:	e30b3310 	movw	r3, #45840	@ 0xb310
e001afc4:	e34e3001 	movt	r3, #57345	@ 0xe001
e001afc8:	e5930000 	ldr	r0, [r3]
e001afcc:	e7e90050 	ubfx	r0, r0, #0, #10
e001afd0:	e3500fff 	cmp	r0, #1020	@ 0x3fc
e001afd4:	3a000008 	bcc	e001affc <handleSyscall+0x15c>
e001afd8:	e30231ff 	movw	r3, #8703	@ 0x21ff
e001afdc:	e34f3ff0 	movt	r3, #65520	@ 0xfff0
e001afe0:	e51300f3 	ldr	r0, [r3, #-243]	@ 0xffffff0d
e001afe4:	e30b3310 	movw	r3, #45840	@ 0xb310
e001afe8:	e34e3001 	movt	r3, #57345	@ 0xe001
e001afec:	e5830000 	str	r0, [r3]
e001aff0:	e7e90050 	ubfx	r0, r0, #0, #10
e001aff4:	e3500fff 	cmp	r0, #1020	@ 0x3fc
e001aff8:	2a000008 	bcs	e001b020 <handleSyscall+0x180>
e001affc:	e30b3310 	movw	r3, #45840	@ 0xb310
e001b000:	e34e3001 	movt	r3, #57345	@ 0xe001
e001b004:	e5933004 	ldr	r3, [r3, #4]
e001b008:	e1530000 	cmp	r3, r0
e001b00c:	0a000003 	beq	e001b020 <handleSyscall+0x180>
e001b010:	ebffee34 	bl	e00168e8 <handleInterrupt>
e001b014:	ea000001 	b	e001b020 <handleSyscall+0x180>
e001b018:	e3a00001 	mov	r0, #1
e001b01c:	ebfff169 	bl	e00175c8 <handleRecv>
e001b020:	ebffe8e8 	bl	e00153c8 <schedule>
e001b024:	ebffe74b 	bl	e0014d58 <activateThread>
e001b028:	e3a00000 	mov	r0, #0
e001b02c:	e8bd8010 	pop	{r4, pc}
e001b030:	ebffefdc 	bl	e0016fa8 <handleReply>
e001b034:	eafffff9 	b	e001b020 <handleSyscall+0x180>
e001b038:	ebffefda 	bl	e0016fa8 <handleReply>
e001b03c:	e3a00001 	mov	r0, #1
e001b040:	ebfff160 	bl	e00175c8 <handleRecv>
e001b044:	eafffff5 	b	e001b020 <handleSyscall+0x180>
e001b048:	e3a00000 	mov	r0, #0
e001b04c:	ebfff15d 	bl	e00175c8 <handleRecv>
e001b050:	eafffff2 	b	e001b020 <handleSyscall+0x180>
e001b054:	e30c4000 	movw	r4, #49152	@ 0xc000
e001b058:	e34e4001 	movt	r4, #57345	@ 0xe001
e001b05c:	e5940840 	ldr	r0, [r4, #2112]	@ 0x840
e001b060:	ebffe856 	bl	e00151c0 <tcbSchedDequeue>
e001b064:	e5940840 	ldr	r0, [r4, #2112]	@ 0x840
e001b068:	ebffe80d 	bl	e00150a4 <tcbSchedAppend>
e001b06c:	ebffe6b1 	bl	e0014b38 <rescheduleRequired>
e001b070:	eaffffea 	b	e001b020 <handleSyscall+0x180>
e001b074:	ebffd62a 	bl	e0010924 <halt>

e001b078 <slowpath>:
e001b078:	e92d4010 	push	{r4, lr}
e001b07c:	e3700009 	cmn	r0, #9
e001b080:	9a000001 	bls	e001b08c <slowpath+0x14>
e001b084:	ebffff85 	bl	e001aea0 <handleSyscall>
e001b088:	ebffd61a 	bl	e00108f8 <restore_user_context>
e001b08c:	ebfff0a0 	bl	e0017314 <handleUnknownSyscall>
e001b090:	eafffffc 	b	e001b088 <slowpath+0x10>

e001b094 <memset>:
e001b094:	e92d4010 	push	{r4, lr}
e001b098:	e1a04000 	mov	r4, r0
e001b09c:	e1a00001 	mov	r0, r1
e001b0a0:	e1a01002 	mov	r1, r2
e001b0a4:	e1843002 	orr	r3, r4, r2
e001b0a8:	e2033003 	and	r3, r3, #3
e001b0ac:	e1933000 	orrs	r3, r3, r0
e001b0b0:	1a000003 	bne	e001b0c4 <memset+0x30>
e001b0b4:	e1a00004 	mov	r0, r4
e001b0b8:	ebfff7e8 	bl	e0019060 <memzero>
e001b0bc:	e1a00004 	mov	r0, r4
e001b0c0:	e8bd8010 	pop	{r4, pc}
e001b0c4:	e3520000 	cmp	r2, #0
e001b0c8:	10842002 	addne	r2, r4, r2
e001b0cc:	11a03004 	movne	r3, r4
e001b0d0:	0afffff9 	beq	e001b0bc <memset+0x28>
e001b0d4:	e4c30001 	strb	r0, [r3], #1
e001b0d8:	e1520003 	cmp	r2, r3
e001b0dc:	1afffffc 	bne	e001b0d4 <memset+0x40>
e001b0e0:	eafffff5 	b	e001b0bc <memset+0x28>

e001b0e4 <memcpy>:
e001b0e4:	e3520000 	cmp	r2, #0
e001b0e8:	012fff1e 	bxeq	lr
e001b0ec:	e2411001 	sub	r1, r1, #1
e001b0f0:	e080c002 	add	ip, r0, r2
e001b0f4:	e1a03000 	mov	r3, r0
e001b0f8:	e5f12001 	ldrb	r2, [r1, #1]!
e001b0fc:	e4c32001 	strb	r2, [r3], #1
e001b100:	e153000c 	cmp	r3, ip
e001b104:	1afffffb 	bne	e001b0f8 <memcpy+0x14>
e001b108:	e12fff1e 	bx	lr

e001b10c <strncmp>:
e001b10c:	e3520000 	cmp	r2, #0
e001b110:	0a000010 	beq	e001b158 <strncmp+0x4c>
e001b114:	e52de004 	push	{lr}		@ (str lr, [sp, #-4]!)
e001b118:	e240c001 	sub	ip, r0, #1
e001b11c:	e2411001 	sub	r1, r1, #1
e001b120:	e08ce002 	add	lr, ip, r2
e001b124:	e5fc2001 	ldrb	r2, [ip, #1]!
e001b128:	e5f10001 	ldrb	r0, [r1, #1]!
e001b12c:	e0520000 	subs	r0, r2, r0
e001b130:	13a03001 	movne	r3, #1
e001b134:	03a03000 	moveq	r3, #0
e001b138:	e3520000 	cmp	r2, #0
e001b13c:	03833001 	orreq	r3, r3, #1
e001b140:	e3530000 	cmp	r3, #0
e001b144:	149df004 	popne	{pc}		@ (ldrne pc, [sp], #4)
e001b148:	e15c000e 	cmp	ip, lr
e001b14c:	1afffff4 	bne	e001b124 <strncmp+0x18>
e001b150:	e3a00000 	mov	r0, #0
e001b154:	e49df004 	pop	{pc}		@ (ldr pc, [sp], #4)
e001b158:	e3a00000 	mov	r0, #0
e001b15c:	e12fff1e 	bx	lr

e001b160 <char_to_long>:
e001b160:	e2403030 	sub	r3, r0, #48	@ 0x30
e001b164:	e6ef3073 	uxtb	r3, r3
e001b168:	e3530009 	cmp	r3, #9
e001b16c:	9a000009 	bls	e001b198 <char_to_long+0x38>
e001b170:	e2403041 	sub	r3, r0, #65	@ 0x41
e001b174:	e6ef3073 	uxtb	r3, r3
e001b178:	e3530005 	cmp	r3, #5
e001b17c:	9a000007 	bls	e001b1a0 <char_to_long+0x40>
e001b180:	e2403061 	sub	r3, r0, #97	@ 0x61
e001b184:	e6ef3073 	uxtb	r3, r3
e001b188:	e3530005 	cmp	r3, #5
e001b18c:	92400057 	subls	r0, r0, #87	@ 0x57
e001b190:	83e00000 	mvnhi	r0, #0
e001b194:	e12fff1e 	bx	lr
e001b198:	e2400030 	sub	r0, r0, #48	@ 0x30
e001b19c:	e12fff1e 	bx	lr
e001b1a0:	e2400037 	sub	r0, r0, #55	@ 0x37
e001b1a4:	e12fff1e 	bx	lr

e001b1a8 <str_to_long>:
e001b1a8:	e92d4070 	push	{r4, r5, r6, lr}
e001b1ac:	e1a04000 	mov	r4, r0
e001b1b0:	e5d00000 	ldrb	r0, [r0]
e001b1b4:	e3500030 	cmp	r0, #48	@ 0x30
e001b1b8:	13a0600a 	movne	r6, #10
e001b1bc:	0a00000c 	beq	e001b1f4 <str_to_long+0x4c>
e001b1c0:	e5d40000 	ldrb	r0, [r4]
e001b1c4:	e3500000 	cmp	r0, #0
e001b1c8:	0a000011 	beq	e001b214 <str_to_long+0x6c>
e001b1cc:	e3a05000 	mov	r5, #0
e001b1d0:	ebffffe2 	bl	e001b160 <char_to_long>
e001b1d4:	e3700001 	cmn	r0, #1
e001b1d8:	11500006 	cmpne	r0, r6
e001b1dc:	2a00000e 	bcs	e001b21c <str_to_long+0x74>
e001b1e0:	e0250596 	mla	r5, r6, r5, r0
e001b1e4:	e5f40001 	ldrb	r0, [r4, #1]!
e001b1e8:	e3500000 	cmp	r0, #0
e001b1ec:	1afffff7 	bne	e001b1d0 <str_to_long+0x28>
e001b1f0:	ea00000a 	b	e001b220 <str_to_long+0x78>
e001b1f4:	e5d43001 	ldrb	r3, [r4, #1]
e001b1f8:	e20330df 	and	r3, r3, #223	@ 0xdf
e001b1fc:	e3530058 	cmp	r3, #88	@ 0x58
e001b200:	02844002 	addeq	r4, r4, #2
e001b204:	03a06010 	moveq	r6, #16
e001b208:	0affffec 	beq	e001b1c0 <str_to_long+0x18>
e001b20c:	e3a0600a 	mov	r6, #10
e001b210:	eaffffed 	b	e001b1cc <str_to_long+0x24>
e001b214:	e3e05000 	mvn	r5, #0
e001b218:	ea000000 	b	e001b220 <str_to_long+0x78>
e001b21c:	e3e05000 	mvn	r5, #0
e001b220:	e1a00005 	mov	r0, r5
e001b224:	e8bd8070 	pop	{r4, r5, r6, pc}
